   1              		.syntax unified
   2              		.cpu cortex-m4
   3              		.eabi_attribute 27, 3
   4              		.fpu fpv4-sp-d16
   5              		.eabi_attribute 20, 1
   6              		.eabi_attribute 21, 1
   7              		.eabi_attribute 23, 3
   8              		.eabi_attribute 24, 1
   9              		.eabi_attribute 25, 1
  10              		.eabi_attribute 26, 1
  11              		.eabi_attribute 30, 6
  12              		.eabi_attribute 34, 1
  13              		.eabi_attribute 18, 4
  14              		.thumb
  15              		.file	"stm32f4xx_hash_sha1.c"
  16              		.text
  17              		.align	2
  18              		.global	HASH_SHA1
  19              		.thumb
  20              		.thumb_func
  22              	HASH_SHA1:
  23              		@ args = 0, pretend = 0, frame = 120
  24              		@ frame_needed = 0, uses_anonymous_args = 0
  25 0000 10B5     		push	{r4, lr}
  26 0002 9EB0     		sub	sp, sp, #120
  27 0004 0390     		str	r0, [sp, #12]
  28 0006 0291     		str	r1, [sp, #8]
  29 0008 0192     		str	r2, [sp, #4]
  30 000a 4FF00003 		mov	r3, #0
  31 000e ADF81630 		strh	r3, [sp, #22]	@ movhi
  32 0012 4FF00003 		mov	r3, #0
  33 0016 1D93     		str	r3, [sp, #116]
  34 0018 4FF00003 		mov	r3, #0
  35 001c 0493     		str	r3, [sp, #16]
  36 001e 4FF00003 		mov	r3, #0
  37 0022 1A93     		str	r3, [sp, #104]
  38 0024 4FF00103 		mov	r3, #1
  39 0028 8DF87330 		strb	r3, [sp, #115]
  40 002c 039B     		ldr	r3, [sp, #12]
  41 002e 1B93     		str	r3, [sp, #108]
  42 0030 019B     		ldr	r3, [sp, #4]
  43 0032 1993     		str	r3, [sp, #100]
  44 0034 029B     		ldr	r3, [sp, #8]
  45 0036 9BB2     		uxth	r3, r3
  46 0038 03F00303 		and	r3, r3, #3
  47 003c 9BB2     		uxth	r3, r3
  48 003e 4FEAC303 		lsl	r3, r3, #3
  49 0042 9BB2     		uxth	r3, r3
  50 0044 ADF81630 		strh	r3, [sp, #22]	@ movhi
  51 0048 FFF7FEFF 		bl	HASH_DeInit
  52 004c 4FF00003 		mov	r3, #0
  53 0050 0B93     		str	r3, [sp, #44]
  54 0052 4FF00003 		mov	r3, #0
  55 0056 0C93     		str	r3, [sp, #48]
  56 0058 4FF02003 		mov	r3, #32
  57 005c 0D93     		str	r3, [sp, #52]
  58 005e 0BAB     		add	r3, sp, #44
  59 0060 1846     		mov	r0, r3
  60 0062 FFF7FEFF 		bl	HASH_Init
  61 0066 BDF81630 		ldrh	r3, [sp, #22]	@ movhi
  62 006a 9BB2     		uxth	r3, r3
  63 006c 1846     		mov	r0, r3
  64 006e FFF7FEFF 		bl	HASH_SetLastWordValidBitsNbr
  65 0072 4FF00003 		mov	r3, #0
  66 0076 1D93     		str	r3, [sp, #116]
  67 0078 0CE0     		b	.L2
  68              	.L3:
  69 007a 1B9B     		ldr	r3, [sp, #108]
  70 007c 1B68     		ldr	r3, [r3, #0]
  71 007e 1846     		mov	r0, r3
  72 0080 FFF7FEFF 		bl	HASH_DataIn
  73 0084 1B9B     		ldr	r3, [sp, #108]
  74 0086 03F10403 		add	r3, r3, #4
  75 008a 1B93     		str	r3, [sp, #108]
  76 008c 1D9B     		ldr	r3, [sp, #116]
  77 008e 03F10403 		add	r3, r3, #4
  78 0092 1D93     		str	r3, [sp, #116]
  79              	.L2:
  80 0094 1D9A     		ldr	r2, [sp, #116]
  81 0096 029B     		ldr	r3, [sp, #8]
  82 0098 9A42     		cmp	r2, r3
  83 009a EED3     		bcc	.L3
  84 009c FFF7FEFF 		bl	HASH_StartDigest
  85              	.L5:
  86 00a0 4FF00800 		mov	r0, #8
  87 00a4 FFF7FEFF 		bl	HASH_GetFlagStatus
  88 00a8 0346     		mov	r3, r0
  89 00aa 1A93     		str	r3, [sp, #104]
  90 00ac 049B     		ldr	r3, [sp, #16]
  91 00ae 03F10103 		add	r3, r3, #1
  92 00b2 0493     		str	r3, [sp, #16]
  93 00b4 049B     		ldr	r3, [sp, #16]
  94 00b6 B3F5803F 		cmp	r3, #65536
  95 00ba 02D0     		beq	.L4
  96 00bc 1A9B     		ldr	r3, [sp, #104]
  97 00be 002B     		cmp	r3, #0
  98 00c0 EED1     		bne	.L5
  99              	.L4:
 100 00c2 1A9B     		ldr	r3, [sp, #104]
 101 00c4 002B     		cmp	r3, #0
 102 00c6 04D0     		beq	.L6
 103 00c8 4FF00003 		mov	r3, #0
 104 00cc 8DF87330 		strb	r3, [sp, #115]
 105 00d0 3BE0     		b	.L7
 106              	.L6:
 107 00d2 06AB     		add	r3, sp, #24
 108 00d4 1846     		mov	r0, r3
 109 00d6 FFF7FEFF 		bl	HASH_GetDigest
 110 00da 199B     		ldr	r3, [sp, #100]
 111 00dc 069A     		ldr	r2, [sp, #24]
 112 00de 1892     		str	r2, [sp, #96]
 113 00e0 189A     		ldr	r2, [sp, #96]
 114              	@ 352 "C:\Users\John Ihlein\Desktop\STM32workspace\aq32Plus\Libraries\CMSIS\Include/core_cmInstr.h"
 115 00e2 14BA     		rev r4, r2
 116              	@ 0 "" 2
 117              		.thumb
 118 00e4 1794     		str	r4, [sp, #92]
 119 00e6 179A     		ldr	r2, [sp, #92]
 120 00e8 1A60     		str	r2, [r3, #0]
 121 00ea 199B     		ldr	r3, [sp, #100]
 122 00ec 03F10403 		add	r3, r3, #4
 123 00f0 1993     		str	r3, [sp, #100]
 124 00f2 199B     		ldr	r3, [sp, #100]
 125 00f4 079A     		ldr	r2, [sp, #28]
 126 00f6 1692     		str	r2, [sp, #88]
 127 00f8 169A     		ldr	r2, [sp, #88]
 128              	@ 352 "C:\Users\John Ihlein\Desktop\STM32workspace\aq32Plus\Libraries\CMSIS\Include/core_cmInstr.h"
 129 00fa 14BA     		rev r4, r2
 130              	@ 0 "" 2
 131              		.thumb
 132 00fc 1594     		str	r4, [sp, #84]
 133 00fe 159A     		ldr	r2, [sp, #84]
 134 0100 1A60     		str	r2, [r3, #0]
 135 0102 199B     		ldr	r3, [sp, #100]
 136 0104 03F10403 		add	r3, r3, #4
 137 0108 1993     		str	r3, [sp, #100]
 138 010a 199B     		ldr	r3, [sp, #100]
 139 010c 089A     		ldr	r2, [sp, #32]
 140 010e 1492     		str	r2, [sp, #80]
 141 0110 149A     		ldr	r2, [sp, #80]
 142              	@ 352 "C:\Users\John Ihlein\Desktop\STM32workspace\aq32Plus\Libraries\CMSIS\Include/core_cmInstr.h"
 143 0112 14BA     		rev r4, r2
 144              	@ 0 "" 2
 145              		.thumb
 146 0114 1394     		str	r4, [sp, #76]
 147 0116 139A     		ldr	r2, [sp, #76]
 148 0118 1A60     		str	r2, [r3, #0]
 149 011a 199B     		ldr	r3, [sp, #100]
 150 011c 03F10403 		add	r3, r3, #4
 151 0120 1993     		str	r3, [sp, #100]
 152 0122 199B     		ldr	r3, [sp, #100]
 153 0124 099A     		ldr	r2, [sp, #36]
 154 0126 1292     		str	r2, [sp, #72]
 155 0128 129A     		ldr	r2, [sp, #72]
 156              	@ 352 "C:\Users\John Ihlein\Desktop\STM32workspace\aq32Plus\Libraries\CMSIS\Include/core_cmInstr.h"
 157 012a 14BA     		rev r4, r2
 158              	@ 0 "" 2
 159              		.thumb
 160 012c 1194     		str	r4, [sp, #68]
 161 012e 119A     		ldr	r2, [sp, #68]
 162 0130 1A60     		str	r2, [r3, #0]
 163 0132 199B     		ldr	r3, [sp, #100]
 164 0134 03F10403 		add	r3, r3, #4
 165 0138 1993     		str	r3, [sp, #100]
 166 013a 199B     		ldr	r3, [sp, #100]
 167 013c 0A9A     		ldr	r2, [sp, #40]
 168 013e 1092     		str	r2, [sp, #64]
 169 0140 109A     		ldr	r2, [sp, #64]
 170              	@ 352 "C:\Users\John Ihlein\Desktop\STM32workspace\aq32Plus\Libraries\CMSIS\Include/core_cmInstr.h"
 171 0142 14BA     		rev r4, r2
 172              	@ 0 "" 2
 173              		.thumb
 174 0144 0F94     		str	r4, [sp, #60]
 175 0146 0F9A     		ldr	r2, [sp, #60]
 176 0148 1A60     		str	r2, [r3, #0]
 177              	.L7:
 178 014a 9DF87330 		ldrb	r3, [sp, #115]	@ zero_extendqisi2
 179 014e 1846     		mov	r0, r3
 180 0150 1EB0     		add	sp, sp, #120
 181 0152 10BD     		pop	{r4, pc}
 183              		.align	2
 184              		.global	HMAC_SHA1
 185              		.thumb
 186              		.thumb_func
 188              	HMAC_SHA1:
 189              		@ args = 4, pretend = 0, frame = 128
 190              		@ frame_needed = 0, uses_anonymous_args = 0
 191 0154 10B5     		push	{r4, lr}
 192 0156 A0B0     		sub	sp, sp, #128
 193 0158 0390     		str	r0, [sp, #12]
 194 015a 0291     		str	r1, [sp, #8]
 195 015c 0192     		str	r2, [sp, #4]
 196 015e 0093     		str	r3, [sp, #0]
 197 0160 4FF00003 		mov	r3, #0
 198 0164 ADF81A30 		strh	r3, [sp, #26]	@ movhi
 199 0168 4FF00003 		mov	r3, #0
 200 016c ADF81830 		strh	r3, [sp, #24]	@ movhi
 201 0170 4FF00003 		mov	r3, #0
 202 0174 1F93     		str	r3, [sp, #124]
 203 0176 4FF00003 		mov	r3, #0
 204 017a 0593     		str	r3, [sp, #20]
 205 017c 4FF00003 		mov	r3, #0
 206 0180 1B93     		str	r3, [sp, #108]
 207 0182 4FF00103 		mov	r3, #1
 208 0186 8DF87B30 		strb	r3, [sp, #123]
 209 018a 039B     		ldr	r3, [sp, #12]
 210 018c 1D93     		str	r3, [sp, #116]
 211 018e 019B     		ldr	r3, [sp, #4]
 212 0190 1C93     		str	r3, [sp, #112]
 213 0192 229B     		ldr	r3, [sp, #136]
 214 0194 1A93     		str	r3, [sp, #104]
 215 0196 009B     		ldr	r3, [sp, #0]
 216 0198 9BB2     		uxth	r3, r3
 217 019a 03F00303 		and	r3, r3, #3
 218 019e 9BB2     		uxth	r3, r3
 219 01a0 4FEAC303 		lsl	r3, r3, #3
 220 01a4 9BB2     		uxth	r3, r3
 221 01a6 ADF81A30 		strh	r3, [sp, #26]	@ movhi
 222 01aa 029B     		ldr	r3, [sp, #8]
 223 01ac 9BB2     		uxth	r3, r3
 224 01ae 03F00303 		and	r3, r3, #3
 225 01b2 9BB2     		uxth	r3, r3
 226 01b4 4FEAC303 		lsl	r3, r3, #3
 227 01b8 9BB2     		uxth	r3, r3
 228 01ba ADF81830 		strh	r3, [sp, #24]	@ movhi
 229 01be FFF7FEFF 		bl	HASH_DeInit
 230 01c2 4FF00003 		mov	r3, #0
 231 01c6 0C93     		str	r3, [sp, #48]
 232 01c8 4FF04003 		mov	r3, #64
 233 01cc 0D93     		str	r3, [sp, #52]
 234 01ce 4FF02003 		mov	r3, #32
 235 01d2 0E93     		str	r3, [sp, #56]
 236 01d4 029B     		ldr	r3, [sp, #8]
 237 01d6 402B     		cmp	r3, #64
 238 01d8 03D9     		bls	.L9
 239 01da 4FF48033 		mov	r3, #65536
 240 01de 0F93     		str	r3, [sp, #60]
 241 01e0 02E0     		b	.L10
 242              	.L9:
 243 01e2 4FF00003 		mov	r3, #0
 244 01e6 0F93     		str	r3, [sp, #60]
 245              	.L10:
 246 01e8 0CAB     		add	r3, sp, #48
 247 01ea 1846     		mov	r0, r3
 248 01ec FFF7FEFF 		bl	HASH_Init
 249 01f0 BDF81830 		ldrh	r3, [sp, #24]	@ movhi
 250 01f4 9BB2     		uxth	r3, r3
 251 01f6 1846     		mov	r0, r3
 252 01f8 FFF7FEFF 		bl	HASH_SetLastWordValidBitsNbr
 253 01fc 4FF00003 		mov	r3, #0
 254 0200 1F93     		str	r3, [sp, #124]
 255 0202 0CE0     		b	.L11
 256              	.L12:
 257 0204 1D9B     		ldr	r3, [sp, #116]
 258 0206 1B68     		ldr	r3, [r3, #0]
 259 0208 1846     		mov	r0, r3
 260 020a FFF7FEFF 		bl	HASH_DataIn
 261 020e 1D9B     		ldr	r3, [sp, #116]
 262 0210 03F10403 		add	r3, r3, #4
 263 0214 1D93     		str	r3, [sp, #116]
 264 0216 1F9B     		ldr	r3, [sp, #124]
 265 0218 03F10403 		add	r3, r3, #4
 266 021c 1F93     		str	r3, [sp, #124]
 267              	.L11:
 268 021e 1F9A     		ldr	r2, [sp, #124]
 269 0220 029B     		ldr	r3, [sp, #8]
 270 0222 9A42     		cmp	r2, r3
 271 0224 EED3     		bcc	.L12
 272 0226 FFF7FEFF 		bl	HASH_StartDigest
 273              	.L14:
 274 022a 4FF00800 		mov	r0, #8
 275 022e FFF7FEFF 		bl	HASH_GetFlagStatus
 276 0232 0346     		mov	r3, r0
 277 0234 1B93     		str	r3, [sp, #108]
 278 0236 059B     		ldr	r3, [sp, #20]
 279 0238 03F10103 		add	r3, r3, #1
 280 023c 0593     		str	r3, [sp, #20]
 281 023e 059B     		ldr	r3, [sp, #20]
 282 0240 B3F5803F 		cmp	r3, #65536
 283 0244 02D0     		beq	.L13
 284 0246 1B9B     		ldr	r3, [sp, #108]
 285 0248 002B     		cmp	r3, #0
 286 024a EED1     		bne	.L14
 287              	.L13:
 288 024c 1B9B     		ldr	r3, [sp, #108]
 289 024e 002B     		cmp	r3, #0
 290 0250 04D0     		beq	.L15
 291 0252 4FF00003 		mov	r3, #0
 292 0256 8DF87B30 		strb	r3, [sp, #123]
 293 025a AFE0     		b	.L16
 294              	.L15:
 295 025c BDF81A30 		ldrh	r3, [sp, #26]	@ movhi
 296 0260 9BB2     		uxth	r3, r3
 297 0262 1846     		mov	r0, r3
 298 0264 FFF7FEFF 		bl	HASH_SetLastWordValidBitsNbr
 299 0268 4FF00003 		mov	r3, #0
 300 026c 1F93     		str	r3, [sp, #124]
 301 026e 0CE0     		b	.L17
 302              	.L18:
 303 0270 1C9B     		ldr	r3, [sp, #112]
 304 0272 1B68     		ldr	r3, [r3, #0]
 305 0274 1846     		mov	r0, r3
 306 0276 FFF7FEFF 		bl	HASH_DataIn
 307 027a 1C9B     		ldr	r3, [sp, #112]
 308 027c 03F10403 		add	r3, r3, #4
 309 0280 1C93     		str	r3, [sp, #112]
 310 0282 1F9B     		ldr	r3, [sp, #124]
 311 0284 03F10403 		add	r3, r3, #4
 312 0288 1F93     		str	r3, [sp, #124]
 313              	.L17:
 314 028a 1F9A     		ldr	r2, [sp, #124]
 315 028c 009B     		ldr	r3, [sp, #0]
 316 028e 9A42     		cmp	r2, r3
 317 0290 EED3     		bcc	.L18
 318 0292 FFF7FEFF 		bl	HASH_StartDigest
 319 0296 4FF00003 		mov	r3, #0
 320 029a 0593     		str	r3, [sp, #20]
 321              	.L20:
 322 029c 4FF00800 		mov	r0, #8
 323 02a0 FFF7FEFF 		bl	HASH_GetFlagStatus
 324 02a4 0346     		mov	r3, r0
 325 02a6 1B93     		str	r3, [sp, #108]
 326 02a8 059B     		ldr	r3, [sp, #20]
 327 02aa 03F10103 		add	r3, r3, #1
 328 02ae 0593     		str	r3, [sp, #20]
 329 02b0 059B     		ldr	r3, [sp, #20]
 330 02b2 B3F5803F 		cmp	r3, #65536
 331 02b6 02D0     		beq	.L19
 332 02b8 1B9B     		ldr	r3, [sp, #108]
 333 02ba 002B     		cmp	r3, #0
 334 02bc EED1     		bne	.L20
 335              	.L19:
 336 02be 1B9B     		ldr	r3, [sp, #108]
 337 02c0 002B     		cmp	r3, #0
 338 02c2 04D0     		beq	.L21
 339 02c4 4FF00003 		mov	r3, #0
 340 02c8 8DF87B30 		strb	r3, [sp, #123]
 341 02cc 76E0     		b	.L16
 342              	.L21:
 343 02ce BDF81830 		ldrh	r3, [sp, #24]	@ movhi
 344 02d2 9BB2     		uxth	r3, r3
 345 02d4 1846     		mov	r0, r3
 346 02d6 FFF7FEFF 		bl	HASH_SetLastWordValidBitsNbr
 347 02da 039B     		ldr	r3, [sp, #12]
 348 02dc 1D93     		str	r3, [sp, #116]
 349 02de 4FF00003 		mov	r3, #0
 350 02e2 1F93     		str	r3, [sp, #124]
 351 02e4 0CE0     		b	.L22
 352              	.L23:
 353 02e6 1D9B     		ldr	r3, [sp, #116]
 354 02e8 1B68     		ldr	r3, [r3, #0]
 355 02ea 1846     		mov	r0, r3
 356 02ec FFF7FEFF 		bl	HASH_DataIn
 357 02f0 1D9B     		ldr	r3, [sp, #116]
 358 02f2 03F10403 		add	r3, r3, #4
 359 02f6 1D93     		str	r3, [sp, #116]
 360 02f8 1F9B     		ldr	r3, [sp, #124]
 361 02fa 03F10403 		add	r3, r3, #4
 362 02fe 1F93     		str	r3, [sp, #124]
 363              	.L22:
 364 0300 1F9A     		ldr	r2, [sp, #124]
 365 0302 029B     		ldr	r3, [sp, #8]
 366 0304 9A42     		cmp	r2, r3
 367 0306 EED3     		bcc	.L23
 368 0308 FFF7FEFF 		bl	HASH_StartDigest
 369 030c 4FF00003 		mov	r3, #0
 370 0310 0593     		str	r3, [sp, #20]
 371              	.L25:
 372 0312 4FF00800 		mov	r0, #8
 373 0316 FFF7FEFF 		bl	HASH_GetFlagStatus
 374 031a 0346     		mov	r3, r0
 375 031c 1B93     		str	r3, [sp, #108]
 376 031e 059B     		ldr	r3, [sp, #20]
 377 0320 03F10103 		add	r3, r3, #1
 378 0324 0593     		str	r3, [sp, #20]
 379 0326 059B     		ldr	r3, [sp, #20]
 380 0328 B3F5803F 		cmp	r3, #65536
 381 032c 02D0     		beq	.L24
 382 032e 1B9B     		ldr	r3, [sp, #108]
 383 0330 002B     		cmp	r3, #0
 384 0332 EED1     		bne	.L25
 385              	.L24:
 386 0334 1B9B     		ldr	r3, [sp, #108]
 387 0336 002B     		cmp	r3, #0
 388 0338 04D0     		beq	.L26
 389 033a 4FF00003 		mov	r3, #0
 390 033e 8DF87B30 		strb	r3, [sp, #123]
 391 0342 3BE0     		b	.L16
 392              	.L26:
 393 0344 07AB     		add	r3, sp, #28
 394 0346 1846     		mov	r0, r3
 395 0348 FFF7FEFF 		bl	HASH_GetDigest
 396 034c 1A9B     		ldr	r3, [sp, #104]
 397 034e 079A     		ldr	r2, [sp, #28]
 398 0350 1992     		str	r2, [sp, #100]
 399 0352 199A     		ldr	r2, [sp, #100]
 400              	@ 352 "C:\Users\John Ihlein\Desktop\STM32workspace\aq32Plus\Libraries\CMSIS\Include/core_cmInstr.h"
 401 0354 14BA     		rev r4, r2
 402              	@ 0 "" 2
 403              		.thumb
 404 0356 1894     		str	r4, [sp, #96]
 405 0358 189A     		ldr	r2, [sp, #96]
 406 035a 1A60     		str	r2, [r3, #0]
 407 035c 1A9B     		ldr	r3, [sp, #104]
 408 035e 03F10403 		add	r3, r3, #4
 409 0362 1A93     		str	r3, [sp, #104]
 410 0364 1A9B     		ldr	r3, [sp, #104]
 411 0366 089A     		ldr	r2, [sp, #32]
 412 0368 1792     		str	r2, [sp, #92]
 413 036a 179A     		ldr	r2, [sp, #92]
 414              	@ 352 "C:\Users\John Ihlein\Desktop\STM32workspace\aq32Plus\Libraries\CMSIS\Include/core_cmInstr.h"
 415 036c 14BA     		rev r4, r2
 416              	@ 0 "" 2
 417              		.thumb
 418 036e 1694     		str	r4, [sp, #88]
 419 0370 169A     		ldr	r2, [sp, #88]
 420 0372 1A60     		str	r2, [r3, #0]
 421 0374 1A9B     		ldr	r3, [sp, #104]
 422 0376 03F10403 		add	r3, r3, #4
 423 037a 1A93     		str	r3, [sp, #104]
 424 037c 1A9B     		ldr	r3, [sp, #104]
 425 037e 099A     		ldr	r2, [sp, #36]
 426 0380 1592     		str	r2, [sp, #84]
 427 0382 159A     		ldr	r2, [sp, #84]
 428              	@ 352 "C:\Users\John Ihlein\Desktop\STM32workspace\aq32Plus\Libraries\CMSIS\Include/core_cmInstr.h"
 429 0384 14BA     		rev r4, r2
 430              	@ 0 "" 2
 431              		.thumb
 432 0386 1494     		str	r4, [sp, #80]
 433 0388 149A     		ldr	r2, [sp, #80]
 434 038a 1A60     		str	r2, [r3, #0]
 435 038c 1A9B     		ldr	r3, [sp, #104]
 436 038e 03F10403 		add	r3, r3, #4
 437 0392 1A93     		str	r3, [sp, #104]
 438 0394 1A9B     		ldr	r3, [sp, #104]
 439 0396 0A9A     		ldr	r2, [sp, #40]
 440 0398 1392     		str	r2, [sp, #76]
 441 039a 139A     		ldr	r2, [sp, #76]
 442              	@ 352 "C:\Users\John Ihlein\Desktop\STM32workspace\aq32Plus\Libraries\CMSIS\Include/core_cmInstr.h"
 443 039c 14BA     		rev r4, r2
 444              	@ 0 "" 2
 445              		.thumb
 446 039e 1294     		str	r4, [sp, #72]
 447 03a0 129A     		ldr	r2, [sp, #72]
 448 03a2 1A60     		str	r2, [r3, #0]
 449 03a4 1A9B     		ldr	r3, [sp, #104]
 450 03a6 03F10403 		add	r3, r3, #4
 451 03aa 1A93     		str	r3, [sp, #104]
 452 03ac 1A9B     		ldr	r3, [sp, #104]
 453 03ae 0B9A     		ldr	r2, [sp, #44]
 454 03b0 1192     		str	r2, [sp, #68]
 455 03b2 119A     		ldr	r2, [sp, #68]
 456              	@ 352 "C:\Users\John Ihlein\Desktop\STM32workspace\aq32Plus\Libraries\CMSIS\Include/core_cmInstr.h"
 457 03b4 14BA     		rev r4, r2
 458              	@ 0 "" 2
 459              		.thumb
 460 03b6 1094     		str	r4, [sp, #64]
 461 03b8 109A     		ldr	r2, [sp, #64]
 462 03ba 1A60     		str	r2, [r3, #0]
 463              	.L16:
 464 03bc 9DF87B30 		ldrb	r3, [sp, #123]	@ zero_extendqisi2
 465 03c0 1846     		mov	r0, r3
 466 03c2 20B0     		add	sp, sp, #128
 467 03c4 10BD     		pop	{r4, pc}
 469 03c6 00BF     		.ident	"GCC: (Sourcery CodeBench Lite 2012.03-56) 4.6.3"
DEFINED SYMBOLS
                            *ABS*:00000000 stm32f4xx_hash_sha1.c
C:\Users\JOHNIH~1\AppData\Local\Temp\cc8rBBdh.s:17     .text:00000000 $t
C:\Users\JOHNIH~1\AppData\Local\Temp\cc8rBBdh.s:22     .text:00000000 HASH_SHA1
C:\Users\JOHNIH~1\AppData\Local\Temp\cc8rBBdh.s:188    .text:00000154 HMAC_SHA1

UNDEFINED SYMBOLS
HASH_DeInit
HASH_Init
HASH_SetLastWordValidBitsNbr
HASH_DataIn
HASH_StartDigest
HASH_GetFlagStatus
HASH_GetDigest
