   1              		.syntax unified
   2              		.cpu cortex-m4
   3              		.eabi_attribute 27, 3
   4              		.fpu fpv4-sp-d16
   5              		.eabi_attribute 20, 1
   6              		.eabi_attribute 21, 1
   7              		.eabi_attribute 23, 3
   8              		.eabi_attribute 24, 1
   9              		.eabi_attribute 25, 1
  10              		.eabi_attribute 26, 1
  11              		.eabi_attribute 30, 6
  12              		.eabi_attribute 34, 1
  13              		.eabi_attribute 18, 4
  14              		.thumb
  15              		.file	"stm32f4xx_iwdg.c"
  16              		.text
  17              		.align	2
  18              		.global	IWDG_WriteAccessCmd
  19              		.thumb
  20              		.thumb_func
  22              	IWDG_WriteAccessCmd:
  23              		@ args = 0, pretend = 0, frame = 8
  24              		@ frame_needed = 0, uses_anonymous_args = 0
  25              		@ link register save eliminated.
  26 0000 82B0     		sub	sp, sp, #8
  27 0002 0346     		mov	r3, r0
  28 0004 ADF80630 		strh	r3, [sp, #6]	@ movhi
  29 0008 4FF44053 		mov	r3, #12288
  30 000c C4F20003 		movt	r3, 16384
  31 0010 BDF80620 		ldrh	r2, [sp, #6]
  32 0014 1A60     		str	r2, [r3, #0]
  33 0016 02B0     		add	sp, sp, #8
  34 0018 7047     		bx	lr
  36 001a 00BF     		.align	2
  37              		.global	IWDG_SetPrescaler
  38              		.thumb
  39              		.thumb_func
  41              	IWDG_SetPrescaler:
  42              		@ args = 0, pretend = 0, frame = 8
  43              		@ frame_needed = 0, uses_anonymous_args = 0
  44              		@ link register save eliminated.
  45 001c 82B0     		sub	sp, sp, #8
  46 001e 0346     		mov	r3, r0
  47 0020 8DF80730 		strb	r3, [sp, #7]
  48 0024 4FF44053 		mov	r3, #12288
  49 0028 C4F20003 		movt	r3, 16384
  50 002c 9DF80720 		ldrb	r2, [sp, #7]	@ zero_extendqisi2
  51 0030 5A60     		str	r2, [r3, #4]
  52 0032 02B0     		add	sp, sp, #8
  53 0034 7047     		bx	lr
  55 0036 00BF     		.align	2
  56              		.global	IWDG_SetReload
  57              		.thumb
  58              		.thumb_func
  60              	IWDG_SetReload:
  61              		@ args = 0, pretend = 0, frame = 8
  62              		@ frame_needed = 0, uses_anonymous_args = 0
  63              		@ link register save eliminated.
  64 0038 82B0     		sub	sp, sp, #8
  65 003a 0346     		mov	r3, r0
  66 003c ADF80630 		strh	r3, [sp, #6]	@ movhi
  67 0040 4FF44053 		mov	r3, #12288
  68 0044 C4F20003 		movt	r3, 16384
  69 0048 BDF80620 		ldrh	r2, [sp, #6]
  70 004c 9A60     		str	r2, [r3, #8]
  71 004e 02B0     		add	sp, sp, #8
  72 0050 7047     		bx	lr
  74 0052 00BF     		.align	2
  75              		.global	IWDG_ReloadCounter
  76              		.thumb
  77              		.thumb_func
  79              	IWDG_ReloadCounter:
  80              		@ args = 0, pretend = 0, frame = 0
  81              		@ frame_needed = 0, uses_anonymous_args = 0
  82              		@ link register save eliminated.
  83 0054 4FF44053 		mov	r3, #12288
  84 0058 C4F20003 		movt	r3, 16384
  85 005c 4AF6AA22 		movw	r2, #43690
  86 0060 1A60     		str	r2, [r3, #0]
  87 0062 7047     		bx	lr
  89              		.align	2
  90              		.global	IWDG_Enable
  91              		.thumb
  92              		.thumb_func
  94              	IWDG_Enable:
  95              		@ args = 0, pretend = 0, frame = 0
  96              		@ frame_needed = 0, uses_anonymous_args = 0
  97              		@ link register save eliminated.
  98 0064 4FF44053 		mov	r3, #12288
  99 0068 C4F20003 		movt	r3, 16384
 100 006c 4CF6CC42 		movw	r2, #52428
 101 0070 1A60     		str	r2, [r3, #0]
 102 0072 7047     		bx	lr
 104              		.align	2
 105              		.global	IWDG_GetFlagStatus
 106              		.thumb
 107              		.thumb_func
 109              	IWDG_GetFlagStatus:
 110              		@ args = 0, pretend = 0, frame = 16
 111              		@ frame_needed = 0, uses_anonymous_args = 0
 112              		@ link register save eliminated.
 113 0074 84B0     		sub	sp, sp, #16
 114 0076 0346     		mov	r3, r0
 115 0078 ADF80630 		strh	r3, [sp, #6]	@ movhi
 116 007c 4FF00003 		mov	r3, #0
 117 0080 8DF80F30 		strb	r3, [sp, #15]
 118 0084 4FF44053 		mov	r3, #12288
 119 0088 C4F20003 		movt	r3, 16384
 120 008c DA68     		ldr	r2, [r3, #12]
 121 008e BDF80630 		ldrh	r3, [sp, #6]
 122 0092 1340     		ands	r3, r3, r2
 123 0094 002B     		cmp	r3, #0
 124 0096 04D0     		beq	.L7
 125 0098 4FF00103 		mov	r3, #1
 126 009c 8DF80F30 		strb	r3, [sp, #15]
 127 00a0 03E0     		b	.L8
 128              	.L7:
 129 00a2 4FF00003 		mov	r3, #0
 130 00a6 8DF80F30 		strb	r3, [sp, #15]
 131              	.L8:
 132 00aa 9DF80F30 		ldrb	r3, [sp, #15]	@ zero_extendqisi2
 133 00ae 1846     		mov	r0, r3
 134 00b0 04B0     		add	sp, sp, #16
 135 00b2 7047     		bx	lr
 137              		.ident	"GCC: (Sourcery CodeBench Lite 2012.03-56) 4.6.3"