   1              		.syntax unified
   2              		.cpu cortex-m4
   3              		.eabi_attribute 27, 3
   4              		.fpu fpv4-sp-d16
   5              		.eabi_attribute 20, 1
   6              		.eabi_attribute 21, 1
   7              		.eabi_attribute 23, 3
   8              		.eabi_attribute 24, 1
   9              		.eabi_attribute 25, 1
  10              		.eabi_attribute 26, 1
  11              		.eabi_attribute 30, 6
  12              		.eabi_attribute 34, 1
  13              		.eabi_attribute 18, 4
  14              		.thumb
  15              		.file	"cli.c"
  16              		.comm	mtk19ProcessDataState,1,1
  17              		.comm	nmeaProcessDataState,1,1
  18              		.comm	ubloxProcessDataState,1,1
  19              		.global	cliBusy
  20              		.bss
  23              	cliBusy:
  24 0000 00       		.space	1
  25              	queryType:
  26 0001 00       		.space	1
  27              	validCommand:
  28 0002 00       		.space	1
  29              		.global	highSpeedTelem1Enabled
  32              	highSpeedTelem1Enabled:
  33 0003 00       		.space	1
  34              		.global	highSpeedTelem2Enabled
  37              	highSpeedTelem2Enabled:
  38 0004 00       		.space	1
  39              		.global	highSpeedTelem3Enabled
  42              	highSpeedTelem3Enabled:
  43 0005 00       		.space	1
  44              		.global	highSpeedTelem4Enabled
  47              	highSpeedTelem4Enabled:
  48 0006 00       		.space	1
  49              		.global	highSpeedTelem5Enabled
  52              	highSpeedTelem5Enabled:
  53 0007 00       		.space	1
  54              		.global	highSpeedTelem6Enabled
  57              	highSpeedTelem6Enabled:
  58 0008 00       		.space	1
  59              		.global	highSpeedTelem7Enabled
  62              	highSpeedTelem7Enabled:
  63 0009 00       		.space	1
  64              		.global	highSpeedTelem8Enabled
  67              	highSpeedTelem8Enabled:
  68 000a 00       		.space	1
  69              		.global	highSpeedTelem9Enabled
  72              	highSpeedTelem9Enabled:
  73 000b 00       		.space	1
  74              		.text
  75              		.align	2
  76              		.global	highSpeedTelemDisable
  77              		.thumb
  78              		.thumb_func
  80              	highSpeedTelemDisable:
  81              		@ args = 0, pretend = 0, frame = 0
  82              		@ frame_needed = 0, uses_anonymous_args = 0
  83              		@ link register save eliminated.
  84 0000 40F20003 		movw	r3, #:lower16:highSpeedTelem1Enabled
  85 0004 C0F20003 		movt	r3, #:upper16:highSpeedTelem1Enabled
  86 0008 4FF00002 		mov	r2, #0
  87 000c 1A70     		strb	r2, [r3, #0]
  88 000e 40F20003 		movw	r3, #:lower16:highSpeedTelem2Enabled
  89 0012 C0F20003 		movt	r3, #:upper16:highSpeedTelem2Enabled
  90 0016 4FF00002 		mov	r2, #0
  91 001a 1A70     		strb	r2, [r3, #0]
  92 001c 40F20003 		movw	r3, #:lower16:highSpeedTelem3Enabled
  93 0020 C0F20003 		movt	r3, #:upper16:highSpeedTelem3Enabled
  94 0024 4FF00002 		mov	r2, #0
  95 0028 1A70     		strb	r2, [r3, #0]
  96 002a 40F20003 		movw	r3, #:lower16:highSpeedTelem4Enabled
  97 002e C0F20003 		movt	r3, #:upper16:highSpeedTelem4Enabled
  98 0032 4FF00002 		mov	r2, #0
  99 0036 1A70     		strb	r2, [r3, #0]
 100 0038 40F20003 		movw	r3, #:lower16:highSpeedTelem5Enabled
 101 003c C0F20003 		movt	r3, #:upper16:highSpeedTelem5Enabled
 102 0040 4FF00002 		mov	r2, #0
 103 0044 1A70     		strb	r2, [r3, #0]
 104 0046 40F20003 		movw	r3, #:lower16:highSpeedTelem6Enabled
 105 004a C0F20003 		movt	r3, #:upper16:highSpeedTelem6Enabled
 106 004e 4FF00002 		mov	r2, #0
 107 0052 1A70     		strb	r2, [r3, #0]
 108 0054 40F20003 		movw	r3, #:lower16:highSpeedTelem7Enabled
 109 0058 C0F20003 		movt	r3, #:upper16:highSpeedTelem7Enabled
 110 005c 4FF00002 		mov	r2, #0
 111 0060 1A70     		strb	r2, [r3, #0]
 112 0062 40F20003 		movw	r3, #:lower16:highSpeedTelem8Enabled
 113 0066 C0F20003 		movt	r3, #:upper16:highSpeedTelem8Enabled
 114 006a 4FF00002 		mov	r2, #0
 115 006e 1A70     		strb	r2, [r3, #0]
 116 0070 40F20003 		movw	r3, #:lower16:highSpeedTelem9Enabled
 117 0074 C0F20003 		movt	r3, #:upper16:highSpeedTelem9Enabled
 118 0078 4FF00002 		mov	r2, #0
 119 007c 1A70     		strb	r2, [r3, #0]
 120 007e 7047     		bx	lr
 122              		.align	2
 123              		.global	readStringUsb
 124              		.thumb
 125              		.thumb_func
 127              	readStringUsb:
 128              		@ args = 0, pretend = 0, frame = 16
 129              		@ frame_needed = 0, uses_anonymous_args = 0
 130 0080 10B5     		push	{r4, lr}
 131 0082 84B0     		sub	sp, sp, #16
 132 0084 0190     		str	r0, [sp, #4]
 133 0086 0B46     		mov	r3, r1
 134 0088 8DF80330 		strb	r3, [sp, #3]
 135 008c 4FF00003 		mov	r3, #0
 136 0090 8DF80F30 		strb	r3, [sp, #15]
 137 0094 4FF00003 		mov	r3, #0
 138 0098 8DF80E30 		strb	r3, [sp, #14]
 139              	.L7:
 140 009c 9DF80F30 		ldrb	r3, [sp, #15]	@ zero_extendqisi2
 141 00a0 019A     		ldr	r2, [sp, #4]
 142 00a2 D418     		adds	r4, r2, r3
 143 00a4 FFF7FEFF 		bl	usbRead
 144 00a8 0346     		mov	r3, r0
 145 00aa 2370     		strb	r3, [r4, #0]
 146 00ac 2378     		ldrb	r3, [r4, #0]	@ zero_extendqisi2
 147 00ae 002B     		cmp	r3, #0
 148 00b0 0AD1     		bne	.L3
 149 00b2 4FF00A00 		mov	r0, #10
 150 00b6 FFF7FEFF 		bl	delay
 151 00ba 9DF80E30 		ldrb	r3, [sp, #14]
 152 00be 03F10103 		add	r3, r3, #1
 153 00c2 8DF80E30 		strb	r3, [sp, #14]
 154 00c6 09E0     		b	.L4
 155              	.L3:
 156 00c8 4FF00003 		mov	r3, #0
 157 00cc 8DF80E30 		strb	r3, [sp, #14]
 158 00d0 9DF80F30 		ldrb	r3, [sp, #15]
 159 00d4 03F10103 		add	r3, r3, #1
 160 00d8 8DF80F30 		strb	r3, [sp, #15]
 161              	.L4:
 162 00dc 9DF80F30 		ldrb	r3, [sp, #15]	@ zero_extendqisi2
 163 00e0 002B     		cmp	r3, #0
 164 00e2 09D0     		beq	.L5
 165 00e4 9DF80F30 		ldrb	r3, [sp, #15]	@ zero_extendqisi2
 166 00e8 03F1FF33 		add	r3, r3, #-1
 167 00ec 019A     		ldr	r2, [sp, #4]
 168 00ee D318     		adds	r3, r2, r3
 169 00f0 1B78     		ldrb	r3, [r3, #0]	@ zero_extendqisi2
 170 00f2 5BB2     		sxtb	r3, r3
 171 00f4 3B2B     		cmp	r3, #59
 172 00f6 09D0     		beq	.L6
 173              	.L5:
 174 00f8 9DF80E30 		ldrb	r3, [sp, #14]	@ zero_extendqisi2
 175 00fc 042B     		cmp	r3, #4
 176 00fe 05D8     		bhi	.L6
 177 0100 9DF80F20 		ldrb	r2, [sp, #15]	@ zero_extendqisi2
 178 0104 9DF80330 		ldrb	r3, [sp, #3]	@ zero_extendqisi2
 179 0108 9A42     		cmp	r2, r3
 180 010a C7D3     		bcc	.L7
 181              	.L6:
 182 010c 9DF80F30 		ldrb	r3, [sp, #15]	@ zero_extendqisi2
 183 0110 019A     		ldr	r2, [sp, #4]
 184 0112 D318     		adds	r3, r2, r3
 185 0114 4FF00002 		mov	r2, #0
 186 0118 1A70     		strb	r2, [r3, #0]
 187 011a 019B     		ldr	r3, [sp, #4]
 188 011c 1846     		mov	r0, r3
 189 011e 04B0     		add	sp, sp, #16
 190 0120 10BD     		pop	{r4, pc}
 192 0122 00BF     		.align	2
 193              		.global	readFloatUsb
 194              		.thumb
 195              		.thumb_func
 197              	readFloatUsb:
 198              		@ args = 0, pretend = 0, frame = 16
 199              		@ frame_needed = 0, uses_anonymous_args = 0
 200 0124 10B5     		push	{r4, lr}
 201 0126 84B0     		sub	sp, sp, #16
 202 0128 4FF00003 		mov	r3, #0
 203 012c 8DF80F30 		strb	r3, [sp, #15]
 204 0130 4FF00003 		mov	r3, #0
 205 0134 8DF80E30 		strb	r3, [sp, #14]
 206 0138 4FF00003 		mov	r3, #0
 207 013c 0093     		str	r3, [sp, #0]
 208 013e 01AB     		add	r3, sp, #4
 209 0140 4FF00002 		mov	r2, #0
 210 0144 1A60     		str	r2, [r3, #0]
 211 0146 03F10403 		add	r3, r3, #4
 212 014a 4FF00002 		mov	r2, #0
 213 014e 1A60     		str	r2, [r3, #0]
 214 0150 03F10403 		add	r3, r3, #4
 215 0154 4FF00002 		mov	r2, #0
 216 0158 1A70     		strb	r2, [r3, #0]
 217 015a 03F10103 		add	r3, r3, #1
 218              	.L13:
 219 015e 9DF80F40 		ldrb	r4, [sp, #15]	@ zero_extendqisi2
 220 0162 FFF7FEFF 		bl	usbRead
 221 0166 0346     		mov	r3, r0
 222 0168 1A46     		mov	r2, r3
 223 016a 04A9     		add	r1, sp, #16
 224 016c 0B19     		adds	r3, r1, r4
 225 016e 03F8102C 		strb	r2, [r3, #-16]
 226 0172 04AA     		add	r2, sp, #16
 227 0174 1319     		adds	r3, r2, r4
 228 0176 13F8103C 		ldrb	r3, [r3, #-16]	@ zero_extendqisi2
 229 017a 002B     		cmp	r3, #0
 230 017c 0AD1     		bne	.L9
 231 017e 4FF00A00 		mov	r0, #10
 232 0182 FFF7FEFF 		bl	delay
 233 0186 9DF80E30 		ldrb	r3, [sp, #14]
 234 018a 03F10103 		add	r3, r3, #1
 235 018e 8DF80E30 		strb	r3, [sp, #14]
 236 0192 09E0     		b	.L10
 237              	.L9:
 238 0194 4FF00003 		mov	r3, #0
 239 0198 8DF80E30 		strb	r3, [sp, #14]
 240 019c 9DF80F30 		ldrb	r3, [sp, #15]
 241 01a0 03F10103 		add	r3, r3, #1
 242 01a4 8DF80F30 		strb	r3, [sp, #15]
 243              	.L10:
 244 01a8 9DF80F30 		ldrb	r3, [sp, #15]	@ zero_extendqisi2
 245 01ac 002B     		cmp	r3, #0
 246 01ae 0AD0     		beq	.L11
 247 01b0 9DF80F30 		ldrb	r3, [sp, #15]	@ zero_extendqisi2
 248 01b4 03F1FF33 		add	r3, r3, #-1
 249 01b8 04A9     		add	r1, sp, #16
 250 01ba CB18     		adds	r3, r1, r3
 251 01bc 13F8103C 		ldrb	r3, [r3, #-16]	@ zero_extendqisi2
 252 01c0 5BB2     		sxtb	r3, r3
 253 01c2 3B2B     		cmp	r3, #59
 254 01c4 07D0     		beq	.L12
 255              	.L11:
 256 01c6 9DF80E30 		ldrb	r3, [sp, #14]	@ zero_extendqisi2
 257 01ca 042B     		cmp	r3, #4
 258 01cc 03D8     		bhi	.L12
 259 01ce 9DF80F30 		ldrb	r3, [sp, #15]	@ zero_extendqisi2
 260 01d2 0B2B     		cmp	r3, #11
 261 01d4 C3D9     		bls	.L13
 262              	.L12:
 263 01d6 9DF80F30 		ldrb	r3, [sp, #15]	@ zero_extendqisi2
 264 01da 04AA     		add	r2, sp, #16
 265 01dc D318     		adds	r3, r2, r3
 266 01de 4FF00002 		mov	r2, #0
 267 01e2 03F8102C 		strb	r2, [r3, #-16]
 268 01e6 6B46     		mov	r3, sp
 269 01e8 1846     		mov	r0, r3
 270 01ea FFF7FEFF 		bl	stringToFloat
 271 01ee 0346     		mov	r3, r0	@ float
 272 01f0 1846     		mov	r0, r3	@ float
 273 01f2 04B0     		add	sp, sp, #16
 274 01f4 10BD     		pop	{r4, pc}
 276 01f6 00BF     		.align	2
 277              		.global	readUsbPID
 278              		.thumb
 279              		.thumb_func
 281              	readUsbPID:
 282              		@ args = 0, pretend = 0, frame = 16
 283              		@ frame_needed = 0, uses_anonymous_args = 0
 284 01f8 00B5     		push	{lr}
 285 01fa 85B0     		sub	sp, sp, #20
 286 01fc 0346     		mov	r3, r0
 287 01fe 8DF80730 		strb	r3, [sp, #7]
 288 0202 9DF80720 		ldrb	r2, [sp, #7]	@ zero_extendqisi2
 289 0206 1346     		mov	r3, r2
 290 0208 4FEA8303 		lsl	r3, r3, #2
 291 020c 9B18     		adds	r3, r3, r2
 292 020e 4FEAC303 		lsl	r3, r3, #3
 293 0212 1A46     		mov	r2, r3
 294 0214 1A4B     		ldr	r3, .L15
 295 0216 D318     		adds	r3, r2, r3
 296 0218 0393     		str	r3, [sp, #12]
 297 021a FFF7FEFF 		bl	readFloatUsb
 298 021e 0246     		mov	r2, r0	@ float
 299 0220 039B     		ldr	r3, [sp, #12]
 300 0222 1A60     		str	r2, [r3, #0]	@ float
 301 0224 FFF7FEFF 		bl	readFloatUsb
 302 0228 0246     		mov	r2, r0	@ float
 303 022a 039B     		ldr	r3, [sp, #12]
 304 022c 5A60     		str	r2, [r3, #4]	@ float
 305 022e FFF7FEFF 		bl	readFloatUsb
 306 0232 0246     		mov	r2, r0	@ float
 307 0234 039B     		ldr	r3, [sp, #12]
 308 0236 9A60     		str	r2, [r3, #8]	@ float
 309 0238 FFF7FEFF 		bl	readFloatUsb
 310 023c 0246     		mov	r2, r0	@ float
 311 023e 039B     		ldr	r3, [sp, #12]
 312 0240 DA60     		str	r2, [r3, #12]	@ float
 313 0242 FFF7FEFF 		bl	readFloatUsb
 314 0246 0246     		mov	r2, r0	@ float
 315 0248 039B     		ldr	r3, [sp, #12]
 316 024a 5A61     		str	r2, [r3, #20]	@ float
 317 024c 039B     		ldr	r3, [sp, #12]
 318 024e 0D4A     		ldr	r2, .L15+4	@ float
 319 0250 1A61     		str	r2, [r3, #16]	@ float
 320 0252 039B     		ldr	r3, [sp, #12]
 321 0254 0B4A     		ldr	r2, .L15+4	@ float
 322 0256 9A61     		str	r2, [r3, #24]	@ float
 323 0258 039B     		ldr	r3, [sp, #12]
 324 025a 0A4A     		ldr	r2, .L15+4	@ float
 325 025c DA61     		str	r2, [r3, #28]	@ float
 326 025e 039B     		ldr	r3, [sp, #12]
 327 0260 084A     		ldr	r2, .L15+4	@ float
 328 0262 1A62     		str	r2, [r3, #32]	@ float
 329 0264 FFF7FEFF 		bl	readFloatUsb
 330 0268 07EE900A 		fmsr	s15, r0
 331 026c FCEEE77A 		ftouizs	s15, s15
 332 0270 17EE903A 		fmrs	r3, s15	@ int
 333 0274 DAB2     		uxtb	r2, r3
 334 0276 039B     		ldr	r3, [sp, #12]
 335 0278 83F82420 		strb	r2, [r3, #36]
 336 027c 05B0     		add	sp, sp, #20
 337 027e 00BD     		pop	{pc}
 338              	.L16:
 339              		.align	2
 340              	.L15:
 341 0280 9C000000 		.word	eepromConfig+156
 342 0284 00000000 		.word	0
 344              		.section	.rodata
 345              		.align	2
 346              	.LC0:
 347 0000 0A00     		.ascii	"\012\000"
 348 0002 0000     		.align	2
 349              	.LC1:
 350 0004 526F6C6C 		.ascii	"Roll Rate PID:  \000"
 350      20526174 
 350      65205049 
 350      443A2020 
 350      00
 351              		.global	__aeabi_f2d
 352 0015 000000   		.align	2
 353              	.LC2:
 354 0018 25382E34 		.ascii	"%8.4f, \000"
 354      662C2000 
 355              		.align	2
 356              	.LC3:
 357 0020 4572726F 		.ascii	"Error\012\000"
 357      720A00
 358 0027 00       		.align	2
 359              	.LC4:
 360 0028 53746174 		.ascii	"State\012\000"
 360      650A00
 361 002f 00       		.align	2
 362              	.LC5:
 363 0030 50697463 		.ascii	"Pitch Rate PID: \000"
 363      68205261 
 363      74652050 
 363      49443A20 
 363      00
 364 0041 000000   		.align	2
 365              	.LC6:
 366 0044 59617720 		.ascii	"Yaw Rate PID:   \000"
 366      52617465 
 366      20504944 
 366      3A202020 
 366      00
 367 0055 000000   		.align	2
 368              	.LC7:
 369 0058 526F6C6C 		.ascii	"Roll Attitude PID:  \000"
 369      20417474 
 369      69747564 
 369      65205049 
 369      443A2020 
 370 006d 000000   		.align	2
 371              	.LC8:
 372 0070 50697463 		.ascii	"Pitch Attitude PID: \000"
 372      68204174 
 372      74697475 
 372      64652050 
 372      49443A20 
 373 0085 000000   		.align	2
 374              	.LC9:
 375 0088 48656164 		.ascii	"Heading PID:        \000"
 375      696E6720 
 375      5049443A 
 375      20202020 
 375      20202020 
 376 009d 000000   		.align	2
 377              	.LC10:
 378 00a0 6E446F74 		.ascii	"nDot PID:  \000"
 378      20504944 
 378      3A202000 
 379              		.align	2
 380              	.LC11:
 381 00ac 65446F74 		.ascii	"eDot PID:  \000"
 381      20504944 
 381      3A202000 
 382              		.align	2
 383              	.LC12:
 384 00b8 68446F74 		.ascii	"hDot PID:  \000"
 384      20504944 
 384      3A202000 
 385              		.align	2
 386              	.LC13:
 387 00c4 6E205049 		.ascii	"n PID:  \000"
 387      443A2020 
 387      00
 388 00cd 000000   		.align	2
 389              	.LC14:
 390 00d0 65205049 		.ascii	"e PID:  \000"
 390      443A2020 
 390      00
 391 00d9 000000   		.align	2
 392              	.LC15:
 393 00dc 68205049 		.ascii	"h PID:  \000"
 393      443A2020 
 393      00
 394 00e5 000000   		.align	2
 395              	.LC16:
 396 00e8 25376C64 		.ascii	"%7ld, \000"
 396      2C2000
 397 00ef 00       		.align	2
 398              	.LC17:
 399 00f0 25376C64 		.ascii	"%7ld\012\000"
 399      0A00
 400 00f6 0000     		.align	2
 401              	.LC18:
 402 00f8 2C2000   		.ascii	", \000"
 403 00fb 00       		.align	2
 404              	.LC19:
 405 00fc 25392E34 		.ascii	"%9.4f, \000"
 405      662C2000 
 406              		.align	2
 407              	.LC20:
 408 0104 25392E34 		.ascii	"%9.4f\012\000"
 408      660A00
 409 010b 00       		.align	2
 410              	.LC21:
 411 010c 2531322E 		.ascii	"%12.7f, \000"
 411      37662C20 
 411      00
 412 0115 000000   		.align	2
 413              	.LC22:
 414 0118 32442046 		.ascii	"2D Fix,  \000"
 414      69782C20 
 414      2000
 415 0122 0000     		.align	2
 416              	.LC23:
 417 0124 33442046 		.ascii	"3D Fix,  \000"
 417      69782C20 
 417      2000
 418 012e 0000     		.align	2
 419              	.LC24:
 420 0130 32442053 		.ascii	"2D SBAS, \000"
 420      4241532C 
 420      2000
 421 013a 0000     		.align	2
 422              	.LC25:
 423 013c 33442053 		.ascii	"3D SBAS, \000"
 423      4241532C 
 423      2000
 424 0146 0000     		.align	2
 425              	.LC26:
 426 0148 4E6F2046 		.ascii	"No Fix, \000"
 426      69782C20 
 426      00
 427 0151 000000   		.align	2
 428              	.LC27:
 429 0154 2000     		.ascii	" \000"
 430 0156 0000     		.align	2
 431              	.LC28:
 432 0158 466C6967 		.ascii	"Flight Mode = RATE      \000"
 432      6874204D 
 432      6F646520 
 432      3D205241 
 432      54452020 
 433 0171 000000   		.align	2
 434              	.LC29:
 435 0174 466C6967 		.ascii	"Flight Mode = ATTITUDE  \000"
 435      6874204D 
 435      6F646520 
 435      3D204154 
 435      54495455 
 436 018d 000000   		.align	2
 437              	.LC30:
 438 0190 466C6967 		.ascii	"Flight Mode = GPS       \000"
 438      6874204D 
 438      6F646520 
 438      3D204750 
 438      53202020 
 439 01a9 000000   		.align	2
 440              	.LC31:
 441 01ac 48656164 		.ascii	"Heading Hold = ENGAGED     \000"
 441      696E6720 
 441      486F6C64 
 441      203D2045 
 441      4E474147 
 442              		.align	2
 443              	.LC32:
 444 01c8 48656164 		.ascii	"Heading Hold = DISENGAGED  \000"
 444      696E6720 
 444      486F6C64 
 444      203D2044 
 444      4953454E 
 445              		.align	2
 446              	.LC33:
 447 01e4 416C7469 		.ascii	"Altitude Hold = DISENAGED\012\000"
 447      74756465 
 447      20486F6C 
 447      64203D20 
 447      44495345 
 448 01ff 00       		.align	2
 449              	.LC34:
 450 0200 416C7469 		.ascii	"Altitude Hold = ENGAGED\012\000"
 450      74756465 
 450      20486F6C 
 450      64203D20 
 450      454E4741 
 451 0219 000000   		.align	2
 452              	.LC35:
 453 021c 416C7469 		.ascii	"Altitude Hold = PANIC\012\000"
 453      74756465 
 453      20486F6C 
 453      64203D20 
 453      50414E49 
 454 0233 00       		.align	2
 455              	.LC36:
 456 0234 74727565 		.ascii	"true\000"
 456      00
 457 0239 000000   		.align	2
 458              	.LC37:
 459 023c 66616C73 		.ascii	"false\000"
 459      6500
 460 0242 0000     		.align	2
 461              	.LC38:
 462 0244 0A526F6C 		.ascii	"\012Roll Rate PID Received....\012\000"
 462      6C205261 
 462      74652050 
 462      49442052 
 462      65636569 
 463 0261 000000   		.align	2
 464              	.LC39:
 465 0264 0A506974 		.ascii	"\012Pitch Rate PID Received....\012\000"
 465      63682052 
 465      61746520 
 465      50494420 
 465      52656365 
 466 0282 0000     		.align	2
 467              	.LC40:
 468 0284 0A596177 		.ascii	"\012Yaw Rate PID Received....\012\000"
 468      20526174 
 468      65205049 
 468      44205265 
 468      63656976 
 469              		.align	2
 470              	.LC41:
 471 02a0 0A526F6C 		.ascii	"\012Roll Attitude PID Received....\012\000"
 471      6C204174 
 471      74697475 
 471      64652050 
 471      49442052 
 472 02c1 000000   		.align	2
 473              	.LC42:
 474 02c4 0A506974 		.ascii	"\012Pitch Attitude PID Received....\012\000"
 474      63682041 
 474      74746974 
 474      75646520 
 474      50494420 
 475 02e6 0000     		.align	2
 476              	.LC43:
 477 02e8 0A486561 		.ascii	"\012Heading PID Received....\012\000"
 477      64696E67 
 477      20504944 
 477      20526563 
 477      65697665 
 478 0303 00       		.align	2
 479              	.LC44:
 480 0304 0A6E446F 		.ascii	"\012nDot PID Received....\012\000"
 480      74205049 
 480      44205265 
 480      63656976 
 480      65642E2E 
 481              		.align	2
 482              	.LC45:
 483 031c 0A65446F 		.ascii	"\012eDot PID Received....\012\000"
 483      74205049 
 483      44205265 
 483      63656976 
 483      65642E2E 
 484              		.align	2
 485              	.LC46:
 486 0334 0A68446F 		.ascii	"\012hDot PID Received....\012\000"
 486      74205049 
 486      44205265 
 486      63656976 
 486      65642E2E 
 487              		.align	2
 488              	.LC47:
 489 034c 0A6E2050 		.ascii	"\012n PID Received....\012\000"
 489      49442052 
 489      65636569 
 489      7665642E 
 489      2E2E2E0A 
 490 0361 000000   		.align	2
 491              	.LC48:
 492 0364 0A652050 		.ascii	"\012e PID Received....\012\000"
 492      49442052 
 492      65636569 
 492      7665642E 
 492      2E2E2E0A 
 493 0379 000000   		.align	2
 494              	.LC49:
 495 037c 0A682050 		.ascii	"\012h PID Received....\012\000"
 495      49442052 
 495      65636569 
 495      7665642E 
 495      2E2E2E0A 
 496 0391 000000   		.align	2
 497              	.LC50:
 498 0394 456E7465 		.ascii	"Entering Bootloader....\012\012\000"
 498      72696E67 
 498      20426F6F 
 498      746C6F61 
 498      6465722E 
 499 03ae 0000     		.align	2
 500              	.LC51:
 501 03b0 0A537973 		.ascii	"\012System Reseting....\012\012\000"
 501      74656D20 
 501      52657365 
 501      74696E67 
 501      2E2E2E2E 
 502 03c7 00       		.align	2
 503              	.LC52:
 504 03c8 0A454550 		.ascii	"\012EEPROM Parameters Reset....\012\000"
 504      524F4D20 
 504      50617261 
 504      6D657465 
 504      72732052 
 505 03e6 0000     		.align	2
 506              	.LC53:
 507 03e8 0A537973 		.ascii	"\012System Resetting....\012\012\000"
 507      74656D20 
 507      52657365 
 507      7474696E 
 507      672E2E2E 
 508              		.align	2
 509              	.LC54:
 510 0400 0A577269 		.ascii	"\012Writing EEPROM Parameters....\012\000"
 510      74696E67 
 510      20454550 
 510      524F4D20 
 510      50617261 
 511              		.align	2
 512              	.LC55:
 513 0420 27612720 		.ascii	"'a' Rate PIDs                              'A' Set "
 513      52617465 
 513      20504944 
 513      73202020 
 513      20202020 
 514 0453 526F6C6C 		.ascii	"Roll Rate PID Data   AB;P;I;D;windupGuard;dErrorCal"
 514      20526174 
 514      65205049 
 514      44204461 
 514      74612020 
 515 0486 630A00   		.ascii	"c\012\000"
 516 0489 000000   		.align	2
 517              	.LC56:
 518 048c 27622720 		.ascii	"'b' Attitude PIDs                          'B' Set "
 518      41747469 
 518      74756465 
 518      20504944 
 518      73202020 
 519 04bf 50697463 		.ascii	"Pitch Rate PID Data  BB;P;I;D;windupGuard;dErrorCal"
 519      68205261 
 519      74652050 
 519      49442044 
 519      61746120 
 520 04f2 630A00   		.ascii	"c\012\000"
 521 04f5 000000   		.align	2
 522              	.LC57:
 523 04f8 27632720 		.ascii	"'c' Velocity PIDs                          'C' Set "
 523      56656C6F 
 523      63697479 
 523      20504944 
 523      73202020 
 524 052b 59617720 		.ascii	"Yaw Rate PID Data    CB;P;I;D;windupGuard;dErrorCal"
 524      52617465 
 524      20504944 
 524      20446174 
 524      61202020 
 525 055e 630A00   		.ascii	"c\012\000"
 526 0561 000000   		.align	2
 527              	.LC58:
 528 0564 27642720 		.ascii	"'d' Position PIDs                          'D' Set "
 528      506F7369 
 528      74696F6E 
 528      20504944 
 528      73202020 
 529 0597 526F6C6C 		.ascii	"Roll Att PID Data    DB;P;I;D;windupGuard;dErrorCal"
 529      20417474 
 529      20504944 
 529      20446174 
 529      61202020 
 530 05ca 630A00   		.ascii	"c\012\000"
 531 05cd 000000   		.align	2
 532              	.LC59:
 533 05d0 27652720 		.ascii	"'e' Loop Delta Times                       'E' Set "
 533      4C6F6F70 
 533      2044656C 
 533      74612054 
 533      696D6573 
 534 0603 50697463 		.ascii	"Pitch Att PID Data   EB;P;I;D;windupGuard;dErrorCal"
 534      68204174 
 534      74205049 
 534      44204461 
 534      74612020 
 535 0636 630A00   		.ascii	"c\012\000"
 536 0639 000000   		.align	2
 537              	.LC60:
 538 063c 27662720 		.ascii	"'f' Loop Execution Times                   'F' Set "
 538      4C6F6F70 
 538      20457865 
 538      63757469 
 538      6F6E2054 
 539 066f 48646720 		.ascii	"Hdg Hold PID Data    FB;P;I;D;windupGuard;dErrorCal"
 539      486F6C64 
 539      20504944 
 539      20446174 
 539      61202020 
 540 06a2 630A00   		.ascii	"c\012\000"
 541 06a5 000000   		.align	2
 542              	.LC61:
 543 06a8 27672720 		.ascii	"'g' 500 Hz Accels                          'G' Set "
 543      35303020 
 543      487A2041 
 543      6363656C 
 543      73202020 
 544 06db 6E446F74 		.ascii	"nDot PID Data        GB;P;I;D;windupGuard;dErrorCal"
 544      20504944 
 544      20446174 
 544      61202020 
 544      20202020 
 545 070e 630A00   		.ascii	"c\012\000"
 546 0711 000000   		.align	2
 547              	.LC62:
 548 0714 27682720 		.ascii	"'h' 100 Hz Earth Axis Accels               'H' Set "
 548      31303020 
 548      487A2045 
 548      61727468 
 548      20417869 
 549 0747 65446F74 		.ascii	"eDot PID Data        HB;P;I;D;windupGuard;dErrorCal"
 549      20504944 
 549      20446174 
 549      61202020 
 549      20202020 
 550 077a 630A00   		.ascii	"c\012\000"
 551 077d 000000   		.align	2
 552              	.LC63:
 553 0780 27692720 		.ascii	"'i' 500 Hz Gyros                           'I' Set "
 553      35303020 
 553      487A2047 
 553      79726F73 
 553      20202020 
 554 07b3 68446F74 		.ascii	"hDot PID Data        IB;P;I;D;windupGuard;dErrorCal"
 554      20504944 
 554      20446174 
 554      61202020 
 554      20202020 
 555 07e6 630A00   		.ascii	"c\012\000"
 556 07e9 000000   		.align	2
 557              	.LC64:
 558 07ec 276A2720 		.ascii	"'j' 10 hz Mag Data                         'J' Set "
 558      31302068 
 558      7A204D61 
 558      67204461 
 558      74612020 
 559 081f 6E205049 		.ascii	"n PID Data           JB;P;I;D;windupGuard;dErrorCal"
 559      44204461 
 559      74612020 
 559      20202020 
 559      20202020 
 560 0852 630A00   		.ascii	"c\012\000"
 561 0855 000000   		.align	2
 562              	.LC65:
 563 0858 276B2720 		.ascii	"'k' Vertical Axis Variable                 'K' Set "
 563      56657274 
 563      6963616C 
 563      20417869 
 563      73205661 
 564 088b 65205049 		.ascii	"e PID Data           KB;P;I;D;windupGuard;dErrorCal"
 564      44204461 
 564      74612020 
 564      20202020 
 564      20202020 
 565 08be 630A00   		.ascii	"c\012\000"
 566 08c1 000000   		.align	2
 567              	.LC66:
 568 08c4 276C2720 		.ascii	"'l' Attitudes                              'L' Set "
 568      41747469 
 568      74756465 
 568      73202020 
 568      20202020 
 569 08f7 68205049 		.ascii	"h PID Data           LB;P;I;D;windupGuard;dErrorCal"
 569      44204461 
 569      74612020 
 569      20202020 
 569      20202020 
 570 092a 630A00   		.ascii	"c\012\000"
 571 092d 000000   		.align	2
 572              	.LC67:
 573 0930 50726573 		.ascii	"Press space bar for more, or enter a command....\012"
 573      73207370 
 573      61636520 
 573      62617220 
 573      666F7220 
 574 0961 00       		.ascii	"\000"
 575 0962 0000     		.align	2
 576              	.LC68:
 577 0964 276D2720 		.ascii	"'m' GPS Data                               'M' MAX7"
 577      47505320 
 577      44617461 
 577      20202020 
 577      20202020 
 578 0997 34353620 		.ascii	"456 CLI\012\000"
 578      434C490A 
 578      00
 579              		.align	2
 580              	.LC69:
 581 09a0 276E2720 		.ascii	"'n' GPS Stats                              'N' Mixe"
 581      47505320 
 581      53746174 
 581      73202020 
 581      20202020 
 582 09d3 7220434C 		.ascii	"r CLI\012\000"
 582      490A00
 583 09da 0000     		.align	2
 584              	.LC70:
 585 09dc 276F2720 		.ascii	"'o' Not Used                               'O' Rece"
 585      4E6F7420 
 585      55736564 
 585      20202020 
 585      20202020 
 586 0a0f 69766572 		.ascii	"iver CLI\012\000"
 586      20434C49 
 586      0A00
 587 0a19 000000   		.align	2
 588              	.LC71:
 589 0a1c 27702720 		.ascii	"'p' Not Used                               'P' Sens"
 589      4E6F7420 
 589      55736564 
 589      20202020 
 589      20202020 
 590 0a4f 6F722043 		.ascii	"or CLI\012\000"
 590      4C490A00 
 591 0a57 00       		.align	2
 592              	.LC72:
 593 0a58 27712720 		.ascii	"'q' Not Used                               'Q' GPS "
 593      4E6F7420 
 593      55736564 
 593      20202020 
 593      20202020 
 594 0a8b 434C490A 		.ascii	"CLI\012\000"
 594      00
 595              		.align	2
 596              	.LC73:
 597 0a90 27722720 		.ascii	"'r' Mode States                            'R' Rese"
 597      4D6F6465 
 597      20537461 
 597      74657320 
 597      20202020 
 598 0ac3 7420616E 		.ascii	"t and Enter Bootloader\012\000"
 598      6420456E 
 598      74657220 
 598      426F6F74 
 598      6C6F6164 
 599 0adb 00       		.align	2
 600              	.LC74:
 601 0adc 27732720 		.ascii	"'s' Raw Receiver Commands                  'S' Rese"
 601      52617720 
 601      52656365 
 601      69766572 
 601      20436F6D 
 602 0b0f 740A00   		.ascii	"t\012\000"
 603 0b12 0000     		.align	2
 604              	.LC75:
 605 0b14 27742720 		.ascii	"'t' Processed Receiver Commands            'T' Not "
 605      50726F63 
 605      65737365 
 605      64205265 
 605      63656976 
 606 0b47 55736564 		.ascii	"Used\012\000"
 606      0A00
 607 0b4d 000000   		.align	2
 608              	.LC76:
 609 0b50 27752720 		.ascii	"'u' Command In Detent Discretes            'U' Not "
 609      436F6D6D 
 609      616E6420 
 609      496E2044 
 609      6574656E 
 610 0b83 55736564 		.ascii	"Used\012\000"
 610      0A00
 611 0b89 000000   		.align	2
 612              	.LC77:
 613 0b8c 27762720 		.ascii	"'v' Motor PWM Outputs                      'V' Rese"
 613      4D6F746F 
 613      72205057 
 613      4D204F75 
 613      74707574 
 614 0bbf 74204545 		.ascii	"t EEPROM Parameters\012\000"
 614      50524F4D 
 614      20506172 
 614      616D6574 
 614      6572730A 
 615              		.align	2
 616              	.LC78:
 617 0bd4 27772720 		.ascii	"'w' Servo PWM Outputs                      'W' Writ"
 617      53657276 
 617      6F205057 
 617      4D204F75 
 617      74707574 
 618 0c07 65204545 		.ascii	"e EEPROM Parameters\012\000"
 618      50524F4D 
 618      20506172 
 618      616D6574 
 618      6572730A 
 619              		.align	2
 620              	.LC79:
 621 0c1c 27782720 		.ascii	"'x' Terminate Serial Communication         'X' Not "
 621      5465726D 
 621      696E6174 
 621      65205365 
 621      7269616C 
 622 0c4f 55736564 		.ascii	"Used\012\000"
 622      0A00
 623 0c55 000000   		.align	2
 624              	.LC80:
 625 0c58 27792720 		.ascii	"'y' ESC Calibration                        'Y' Not "
 625      45534320 
 625      43616C69 
 625      62726174 
 625      696F6E20 
 626 0c8b 55736564 		.ascii	"Used\012\000"
 626      0A00
 627 0c91 000000   		.align	2
 628              	.LC81:
 629 0c94 277A2720 		.ascii	"'z' Not Used                               'Z' Not "
 629      4E6F7420 
 629      55736564 
 629      20202020 
 629      20202020 
 630 0cc7 55736564 		.ascii	"Used\012\000"
 630      0A00
 631 0ccd 000000   		.align	2
 632              	.LC82:
 633 0cd0 27312720 		.ascii	"'1' High Speed Telemetry 1 Enable\012\000"
 633      48696768 
 633      20537065 
 633      65642054 
 633      656C656D 
 634 0cf3 00       		.align	2
 635              	.LC83:
 636 0cf4 27322720 		.ascii	"'2' High Speed Telemetry 2 Enable\012\000"
 636      48696768 
 636      20537065 
 636      65642054 
 636      656C656D 
 637 0d17 00       		.align	2
 638              	.LC84:
 639 0d18 27332720 		.ascii	"'3' High Speed Telemetry 3 Enable\012\000"
 639      48696768 
 639      20537065 
 639      65642054 
 639      656C656D 
 640 0d3b 00       		.align	2
 641              	.LC85:
 642 0d3c 27342720 		.ascii	"'4' High Speed Telemetry 4 Enable\012\000"
 642      48696768 
 642      20537065 
 642      65642054 
 642      656C656D 
 643 0d5f 00       		.align	2
 644              	.LC86:
 645 0d60 27352720 		.ascii	"'5' High Speed Telemetry 5 Enable\012\000"
 645      48696768 
 645      20537065 
 645      65642054 
 645      656C656D 
 646 0d83 00       		.align	2
 647              	.LC87:
 648 0d84 27362720 		.ascii	"'6' High Speed Telemetry 6 Enable\012\000"
 648      48696768 
 648      20537065 
 648      65642054 
 648      656C656D 
 649 0da7 00       		.align	2
 650              	.LC88:
 651 0da8 27372720 		.ascii	"'7' High Speed Telemetry 7 Enable\012\000"
 651      48696768 
 651      20537065 
 651      65642054 
 651      656C656D 
 652 0dcb 00       		.align	2
 653              	.LC89:
 654 0dcc 27382720 		.ascii	"'8' High Speed Telemetry 8 Enable\012\000"
 654      48696768 
 654      20537065 
 654      65642054 
 654      656C656D 
 655 0def 00       		.align	2
 656              	.LC90:
 657 0df0 27392720 		.ascii	"'9' High Speed Telemetry 9 Enable\012\000"
 657      48696768 
 657      20537065 
 657      65642054 
 657      656C656D 
 658 0e13 00       		.align	2
 659              	.LC91:
 660 0e14 27302720 		.ascii	"'0' High Speed Telemetry Disable           '?' Comm"
 660      48696768 
 660      20537065 
 660      65642054 
 660      656C656D 
 661 0e47 616E6420 		.ascii	"and Summary\012\000"
 661      53756D6D 
 661      6172790A 
 661      00
 662              		.text
 663              		.align	2
 664              		.global	cliCom
 665              		.thumb
 666              		.thumb_func
 668              	cliCom:
 669              		@ args = 0, pretend = 0, frame = 8
 670              		@ frame_needed = 0, uses_anonymous_args = 0
 671 0288 00B5     		push	{lr}
 672 028a 85B0     		sub	sp, sp, #20
 673 028c FFF7FEFF 		bl	usbAvailable
 674 0290 0346     		mov	r3, r0
 675 0292 002B     		cmp	r3, #0
 676 0294 10D0     		beq	.L18
 677 0296 40F20003 		movw	r3, #:lower16:validCommand
 678 029a C0F20003 		movt	r3, #:upper16:validCommand
 679 029e 1B78     		ldrb	r3, [r3, #0]
 680 02a0 DBB2     		uxtb	r3, r3
 681 02a2 002B     		cmp	r3, #0
 682 02a4 08D1     		bne	.L18
 683 02a6 FFF7FEFF 		bl	usbRead
 684 02aa 0346     		mov	r3, r0
 685 02ac DAB2     		uxtb	r2, r3
 686 02ae 40F20003 		movw	r3, #:lower16:queryType
 687 02b2 C0F20003 		movt	r3, #:upper16:queryType
 688 02b6 1A70     		strb	r2, [r3, #0]
 689              	.L18:
 690 02b8 40F20003 		movw	r3, #:lower16:queryType
 691 02bc C0F20003 		movt	r3, #:upper16:queryType
 692 02c0 1B78     		ldrb	r3, [r3, #0]
 693 02c2 DBB2     		uxtb	r3, r3
 694 02c4 A3F13003 		sub	r3, r3, #48
 695 02c8 4A2B     		cmp	r3, #74
 696 02ca 02F2E385 		bhi	.L17
 697 02ce 01A2     		adr	r2, .L83
 698 02d0 52F823F0 		ldr	pc, [r2, r3, lsl #2]
 699              		.align	2
 700              	.L83:
 701 02d4 95270000 		.word	.L20+1
 702 02d8 61260000 		.word	.L21+1
 703 02dc 85260000 		.word	.L22+1
 704 02e0 A7260000 		.word	.L23+1
 705 02e4 C9260000 		.word	.L24+1
 706 02e8 EB260000 		.word	.L25+1
 707 02ec 0D270000 		.word	.L26+1
 708 02f0 2F270000 		.word	.L27+1
 709 02f4 51270000 		.word	.L28+1
 710 02f8 73270000 		.word	.L29+1
 711 02fc 952E0000 		.word	.L17+1
 712 0300 952E0000 		.word	.L17+1
 713 0304 952E0000 		.word	.L17+1
 714 0308 952E0000 		.word	.L17+1
 715 030c 952E0000 		.word	.L17+1
 716 0310 C12B0000 		.word	.L30+1
 717 0314 952E0000 		.word	.L17+1
 718 0318 A9270000 		.word	.L31+1
 719 031c DB270000 		.word	.L32+1
 720 0320 0D280000 		.word	.L33+1
 721 0324 3F280000 		.word	.L34+1
 722 0328 71280000 		.word	.L35+1
 723 032c A3280000 		.word	.L36+1
 724 0330 D5280000 		.word	.L37+1
 725 0334 07290000 		.word	.L38+1
 726 0338 39290000 		.word	.L39+1
 727 033c 6B290000 		.word	.L40+1
 728 0340 9D290000 		.word	.L41+1
 729 0344 CF290000 		.word	.L42+1
 730 0348 012A0000 		.word	.L43+1
 731 034c 232A0000 		.word	.L44+1
 732 0350 452A0000 		.word	.L45+1
 733 0354 672A0000 		.word	.L46+1
 734 0358 892A0000 		.word	.L47+1
 735 035c AB2A0000 		.word	.L48+1
 736 0360 C92A0000 		.word	.L49+1
 737 0364 E72A0000 		.word	.L50+1
 738 0368 052B0000 		.word	.L51+1
 739 036c 232B0000 		.word	.L52+1
 740 0370 552B0000 		.word	.L53+1
 741 0374 832B0000 		.word	.L54+1
 742 0378 A12B0000 		.word	.L55+1
 743 037c B12B0000 		.word	.L56+1
 744 0380 952E0000 		.word	.L17+1
 745 0384 952E0000 		.word	.L17+1
 746 0388 952E0000 		.word	.L17+1
 747 038c 952E0000 		.word	.L17+1
 748 0390 952E0000 		.word	.L17+1
 749 0394 952E0000 		.word	.L17+1
 750 0398 01040000 		.word	.L57+1
 751 039c 71080000 		.word	.L58+1
 752 03a0 E10C0000 		.word	.L59+1
 753 03a4 51110000 		.word	.L60+1
 754 03a8 C1150000 		.word	.L61+1
 755 03ac 15170000 		.word	.L62+1
 756 03b0 69180000 		.word	.L63+1
 757 03b4 0B190000 		.word	.L64+1
 758 03b8 AD190000 		.word	.L65+1
 759 03bc BB1A0000 		.word	.L66+1
 760 03c0 5D1B0000 		.word	.L67+1
 761 03c4 2F1C0000 		.word	.L68+1
 762 03c8 391D0000 		.word	.L69+1
 763 03cc 8F1E0000 		.word	.L70+1
 764 03d0 EF1F0000 		.word	.L71+1
 765 03d4 0F200000 		.word	.L72+1
 766 03d8 2F200000 		.word	.L73+1
 767 03dc 4F200000 		.word	.L74+1
 768 03e0 2D210000 		.word	.L75+1
 769 03e4 87220000 		.word	.L76+1
 770 03e8 21230000 		.word	.L77+1
 771 03ec CF230000 		.word	.L78+1
 772 03f0 79250000 		.word	.L79+1
 773 03f4 27260000 		.word	.L80+1
 774 03f8 39260000 		.word	.L81+1
 775 03fc 4F260000 		.word	.L82+1
 776              	.L57:
 777 0400 40F20000 		movw	r0, #:lower16:.LC0
 778 0404 C0F20000 		movt	r0, #:upper16:.LC0
 779 0408 FFF7FEFF 		bl	usbPrint
 780 040c 40F20000 		movw	r0, #:lower16:.LC1
 781 0410 C0F20000 		movt	r0, #:upper16:.LC1
 782 0414 FFF7FEFF 		bl	usbPrint
 783 0418 40F20003 		movw	r3, #:lower16:eepromConfig
 784 041c C0F20003 		movt	r3, #:upper16:eepromConfig
 785 0420 D3F89C30 		ldr	r3, [r3, #156]	@ float
 786 0424 1846     		mov	r0, r3	@ float
 787 0426 FFF7FEFF 		bl	__aeabi_f2d
 788 042a 0246     		mov	r2, r0
 789 042c 0B46     		mov	r3, r1
 790 042e CDE90023 		strd	r2, [sp]
 791 0432 40F20000 		movw	r0, #:lower16:numberString
 792 0436 C0F20000 		movt	r0, #:upper16:numberString
 793 043a 4FF01001 		mov	r1, #16
 794 043e 40F20002 		movw	r2, #:lower16:.LC2
 795 0442 C0F20002 		movt	r2, #:upper16:.LC2
 796 0446 FFF7FEFF 		bl	snprintf
 797 044a 40F20000 		movw	r0, #:lower16:numberString
 798 044e C0F20000 		movt	r0, #:upper16:numberString
 799 0452 FFF7FEFF 		bl	usbPrint
 800 0456 40F20003 		movw	r3, #:lower16:eepromConfig
 801 045a C0F20003 		movt	r3, #:upper16:eepromConfig
 802 045e D3F8A030 		ldr	r3, [r3, #160]	@ float
 803 0462 1846     		mov	r0, r3	@ float
 804 0464 FFF7FEFF 		bl	__aeabi_f2d
 805 0468 0246     		mov	r2, r0
 806 046a 0B46     		mov	r3, r1
 807 046c CDE90023 		strd	r2, [sp]
 808 0470 40F20000 		movw	r0, #:lower16:numberString
 809 0474 C0F20000 		movt	r0, #:upper16:numberString
 810 0478 4FF01001 		mov	r1, #16
 811 047c 40F20002 		movw	r2, #:lower16:.LC2
 812 0480 C0F20002 		movt	r2, #:upper16:.LC2
 813 0484 FFF7FEFF 		bl	snprintf
 814 0488 40F20000 		movw	r0, #:lower16:numberString
 815 048c C0F20000 		movt	r0, #:upper16:numberString
 816 0490 FFF7FEFF 		bl	usbPrint
 817 0494 40F20003 		movw	r3, #:lower16:eepromConfig
 818 0498 C0F20003 		movt	r3, #:upper16:eepromConfig
 819 049c D3F8A430 		ldr	r3, [r3, #164]	@ float
 820 04a0 1846     		mov	r0, r3	@ float
 821 04a2 FFF7FEFF 		bl	__aeabi_f2d
 822 04a6 0246     		mov	r2, r0
 823 04a8 0B46     		mov	r3, r1
 824 04aa CDE90023 		strd	r2, [sp]
 825 04ae 40F20000 		movw	r0, #:lower16:numberString
 826 04b2 C0F20000 		movt	r0, #:upper16:numberString
 827 04b6 4FF01001 		mov	r1, #16
 828 04ba 40F20002 		movw	r2, #:lower16:.LC2
 829 04be C0F20002 		movt	r2, #:upper16:.LC2
 830 04c2 FFF7FEFF 		bl	snprintf
 831 04c6 40F20000 		movw	r0, #:lower16:numberString
 832 04ca C0F20000 		movt	r0, #:upper16:numberString
 833 04ce FFF7FEFF 		bl	usbPrint
 834 04d2 40F20003 		movw	r3, #:lower16:eepromConfig
 835 04d6 C0F20003 		movt	r3, #:upper16:eepromConfig
 836 04da D3F8A830 		ldr	r3, [r3, #168]	@ float
 837 04de 1846     		mov	r0, r3	@ float
 838 04e0 FFF7FEFF 		bl	__aeabi_f2d
 839 04e4 0246     		mov	r2, r0
 840 04e6 0B46     		mov	r3, r1
 841 04e8 CDE90023 		strd	r2, [sp]
 842 04ec 40F20000 		movw	r0, #:lower16:numberString
 843 04f0 C0F20000 		movt	r0, #:upper16:numberString
 844 04f4 4FF01001 		mov	r1, #16
 845 04f8 40F20002 		movw	r2, #:lower16:.LC2
 846 04fc C0F20002 		movt	r2, #:upper16:.LC2
 847 0500 FFF7FEFF 		bl	snprintf
 848 0504 40F20000 		movw	r0, #:lower16:numberString
 849 0508 C0F20000 		movt	r0, #:upper16:numberString
 850 050c FFF7FEFF 		bl	usbPrint
 851 0510 40F20003 		movw	r3, #:lower16:eepromConfig
 852 0514 C0F20003 		movt	r3, #:upper16:eepromConfig
 853 0518 D3F8B030 		ldr	r3, [r3, #176]	@ float
 854 051c 1846     		mov	r0, r3	@ float
 855 051e FFF7FEFF 		bl	__aeabi_f2d
 856 0522 0246     		mov	r2, r0
 857 0524 0B46     		mov	r3, r1
 858 0526 CDE90023 		strd	r2, [sp]
 859 052a 40F20000 		movw	r0, #:lower16:numberString
 860 052e C0F20000 		movt	r0, #:upper16:numberString
 861 0532 4FF01001 		mov	r1, #16
 862 0536 40F20002 		movw	r2, #:lower16:.LC2
 863 053a C0F20002 		movt	r2, #:upper16:.LC2
 864 053e FFF7FEFF 		bl	snprintf
 865 0542 40F20000 		movw	r0, #:lower16:numberString
 866 0546 C0F20000 		movt	r0, #:upper16:numberString
 867 054a FFF7FEFF 		bl	usbPrint
 868 054e 40F20003 		movw	r3, #:lower16:eepromConfig
 869 0552 C0F20003 		movt	r3, #:upper16:eepromConfig
 870 0556 93F8C030 		ldrb	r3, [r3, #192]	@ zero_extendqisi2
 871 055a 002B     		cmp	r3, #0
 872 055c 06D0     		beq	.L84
 873 055e 40F20000 		movw	r0, #:lower16:.LC3
 874 0562 C0F20000 		movt	r0, #:upper16:.LC3
 875 0566 FFF7FEFF 		bl	usbPrint
 876 056a 05E0     		b	.L85
 877              	.L84:
 878 056c 40F20000 		movw	r0, #:lower16:.LC4
 879 0570 C0F20000 		movt	r0, #:upper16:.LC4
 880 0574 FFF7FEFF 		bl	usbPrint
 881              	.L85:
 882 0578 40F20000 		movw	r0, #:lower16:.LC5
 883 057c C0F20000 		movt	r0, #:upper16:.LC5
 884 0580 FFF7FEFF 		bl	usbPrint
 885 0584 40F20003 		movw	r3, #:lower16:eepromConfig
 886 0588 C0F20003 		movt	r3, #:upper16:eepromConfig
 887 058c D3F8C430 		ldr	r3, [r3, #196]	@ float
 888 0590 1846     		mov	r0, r3	@ float
 889 0592 FFF7FEFF 		bl	__aeabi_f2d
 890 0596 0246     		mov	r2, r0
 891 0598 0B46     		mov	r3, r1
 892 059a CDE90023 		strd	r2, [sp]
 893 059e 40F20000 		movw	r0, #:lower16:numberString
 894 05a2 C0F20000 		movt	r0, #:upper16:numberString
 895 05a6 4FF01001 		mov	r1, #16
 896 05aa 40F20002 		movw	r2, #:lower16:.LC2
 897 05ae C0F20002 		movt	r2, #:upper16:.LC2
 898 05b2 FFF7FEFF 		bl	snprintf
 899 05b6 40F20000 		movw	r0, #:lower16:numberString
 900 05ba C0F20000 		movt	r0, #:upper16:numberString
 901 05be FFF7FEFF 		bl	usbPrint
 902 05c2 40F20003 		movw	r3, #:lower16:eepromConfig
 903 05c6 C0F20003 		movt	r3, #:upper16:eepromConfig
 904 05ca D3F8C830 		ldr	r3, [r3, #200]	@ float
 905 05ce 1846     		mov	r0, r3	@ float
 906 05d0 FFF7FEFF 		bl	__aeabi_f2d
 907 05d4 0246     		mov	r2, r0
 908 05d6 0B46     		mov	r3, r1
 909 05d8 CDE90023 		strd	r2, [sp]
 910 05dc 40F20000 		movw	r0, #:lower16:numberString
 911 05e0 C0F20000 		movt	r0, #:upper16:numberString
 912 05e4 4FF01001 		mov	r1, #16
 913 05e8 40F20002 		movw	r2, #:lower16:.LC2
 914 05ec C0F20002 		movt	r2, #:upper16:.LC2
 915 05f0 FFF7FEFF 		bl	snprintf
 916 05f4 40F20000 		movw	r0, #:lower16:numberString
 917 05f8 C0F20000 		movt	r0, #:upper16:numberString
 918 05fc FFF7FEFF 		bl	usbPrint
 919 0600 40F20003 		movw	r3, #:lower16:eepromConfig
 920 0604 C0F20003 		movt	r3, #:upper16:eepromConfig
 921 0608 D3F8CC30 		ldr	r3, [r3, #204]	@ float
 922 060c 1846     		mov	r0, r3	@ float
 923 060e FFF7FEFF 		bl	__aeabi_f2d
 924 0612 0246     		mov	r2, r0
 925 0614 0B46     		mov	r3, r1
 926 0616 CDE90023 		strd	r2, [sp]
 927 061a 40F20000 		movw	r0, #:lower16:numberString
 928 061e C0F20000 		movt	r0, #:upper16:numberString
 929 0622 4FF01001 		mov	r1, #16
 930 0626 40F20002 		movw	r2, #:lower16:.LC2
 931 062a C0F20002 		movt	r2, #:upper16:.LC2
 932 062e FFF7FEFF 		bl	snprintf
 933 0632 40F20000 		movw	r0, #:lower16:numberString
 934 0636 C0F20000 		movt	r0, #:upper16:numberString
 935 063a FFF7FEFF 		bl	usbPrint
 936 063e 40F20003 		movw	r3, #:lower16:eepromConfig
 937 0642 C0F20003 		movt	r3, #:upper16:eepromConfig
 938 0646 D3F8D030 		ldr	r3, [r3, #208]	@ float
 939 064a 1846     		mov	r0, r3	@ float
 940 064c FFF7FEFF 		bl	__aeabi_f2d
 941 0650 0246     		mov	r2, r0
 942 0652 0B46     		mov	r3, r1
 943 0654 CDE90023 		strd	r2, [sp]
 944 0658 40F20000 		movw	r0, #:lower16:numberString
 945 065c C0F20000 		movt	r0, #:upper16:numberString
 946 0660 4FF01001 		mov	r1, #16
 947 0664 40F20002 		movw	r2, #:lower16:.LC2
 948 0668 C0F20002 		movt	r2, #:upper16:.LC2
 949 066c FFF7FEFF 		bl	snprintf
 950 0670 40F20000 		movw	r0, #:lower16:numberString
 951 0674 C0F20000 		movt	r0, #:upper16:numberString
 952 0678 FFF7FEFF 		bl	usbPrint
 953 067c 40F20003 		movw	r3, #:lower16:eepromConfig
 954 0680 C0F20003 		movt	r3, #:upper16:eepromConfig
 955 0684 D3F8D830 		ldr	r3, [r3, #216]	@ float
 956 0688 1846     		mov	r0, r3	@ float
 957 068a FFF7FEFF 		bl	__aeabi_f2d
 958 068e 0246     		mov	r2, r0
 959 0690 0B46     		mov	r3, r1
 960 0692 CDE90023 		strd	r2, [sp]
 961 0696 40F20000 		movw	r0, #:lower16:numberString
 962 069a C0F20000 		movt	r0, #:upper16:numberString
 963 069e 4FF01001 		mov	r1, #16
 964 06a2 40F20002 		movw	r2, #:lower16:.LC2
 965 06a6 C0F20002 		movt	r2, #:upper16:.LC2
 966 06aa FFF7FEFF 		bl	snprintf
 967 06ae 40F20000 		movw	r0, #:lower16:numberString
 968 06b2 C0F20000 		movt	r0, #:upper16:numberString
 969 06b6 FFF7FEFF 		bl	usbPrint
 970 06ba 40F20003 		movw	r3, #:lower16:eepromConfig
 971 06be C0F20003 		movt	r3, #:upper16:eepromConfig
 972 06c2 93F8E830 		ldrb	r3, [r3, #232]	@ zero_extendqisi2
 973 06c6 002B     		cmp	r3, #0
 974 06c8 06D0     		beq	.L86
 975 06ca 40F20000 		movw	r0, #:lower16:.LC3
 976 06ce C0F20000 		movt	r0, #:upper16:.LC3
 977 06d2 FFF7FEFF 		bl	usbPrint
 978 06d6 05E0     		b	.L87
 979              	.L86:
 980 06d8 40F20000 		movw	r0, #:lower16:.LC4
 981 06dc C0F20000 		movt	r0, #:upper16:.LC4
 982 06e0 FFF7FEFF 		bl	usbPrint
 983              	.L87:
 984 06e4 40F20000 		movw	r0, #:lower16:.LC6
 985 06e8 C0F20000 		movt	r0, #:upper16:.LC6
 986 06ec FFF7FEFF 		bl	usbPrint
 987 06f0 40F20003 		movw	r3, #:lower16:eepromConfig
 988 06f4 C0F20003 		movt	r3, #:upper16:eepromConfig
 989 06f8 D3F8EC30 		ldr	r3, [r3, #236]	@ float
 990 06fc 1846     		mov	r0, r3	@ float
 991 06fe FFF7FEFF 		bl	__aeabi_f2d
 992 0702 0246     		mov	r2, r0
 993 0704 0B46     		mov	r3, r1
 994 0706 CDE90023 		strd	r2, [sp]
 995 070a 40F20000 		movw	r0, #:lower16:numberString
 996 070e C0F20000 		movt	r0, #:upper16:numberString
 997 0712 4FF01001 		mov	r1, #16
 998 0716 40F20002 		movw	r2, #:lower16:.LC2
 999 071a C0F20002 		movt	r2, #:upper16:.LC2
 1000 071e FFF7FEFF 		bl	snprintf
 1001 0722 40F20000 		movw	r0, #:lower16:numberString
 1002 0726 C0F20000 		movt	r0, #:upper16:numberString
 1003 072a FFF7FEFF 		bl	usbPrint
 1004 072e 40F20003 		movw	r3, #:lower16:eepromConfig
 1005 0732 C0F20003 		movt	r3, #:upper16:eepromConfig
 1006 0736 D3F8F030 		ldr	r3, [r3, #240]	@ float
 1007 073a 1846     		mov	r0, r3	@ float
 1008 073c FFF7FEFF 		bl	__aeabi_f2d
 1009 0740 0246     		mov	r2, r0
 1010 0742 0B46     		mov	r3, r1
 1011 0744 CDE90023 		strd	r2, [sp]
 1012 0748 40F20000 		movw	r0, #:lower16:numberString
 1013 074c C0F20000 		movt	r0, #:upper16:numberString
 1014 0750 4FF01001 		mov	r1, #16
 1015 0754 40F20002 		movw	r2, #:lower16:.LC2
 1016 0758 C0F20002 		movt	r2, #:upper16:.LC2
 1017 075c FFF7FEFF 		bl	snprintf
 1018 0760 40F20000 		movw	r0, #:lower16:numberString
 1019 0764 C0F20000 		movt	r0, #:upper16:numberString
 1020 0768 FFF7FEFF 		bl	usbPrint
 1021 076c 40F20003 		movw	r3, #:lower16:eepromConfig
 1022 0770 C0F20003 		movt	r3, #:upper16:eepromConfig
 1023 0774 D3F8F430 		ldr	r3, [r3, #244]	@ float
 1024 0778 1846     		mov	r0, r3	@ float
 1025 077a FFF7FEFF 		bl	__aeabi_f2d
 1026 077e 0246     		mov	r2, r0
 1027 0780 0B46     		mov	r3, r1
 1028 0782 CDE90023 		strd	r2, [sp]
 1029 0786 40F20000 		movw	r0, #:lower16:numberString
 1030 078a C0F20000 		movt	r0, #:upper16:numberString
 1031 078e 4FF01001 		mov	r1, #16
 1032 0792 40F20002 		movw	r2, #:lower16:.LC2
 1033 0796 C0F20002 		movt	r2, #:upper16:.LC2
 1034 079a FFF7FEFF 		bl	snprintf
 1035 079e 40F20000 		movw	r0, #:lower16:numberString
 1036 07a2 C0F20000 		movt	r0, #:upper16:numberString
 1037 07a6 FFF7FEFF 		bl	usbPrint
 1038 07aa 40F20003 		movw	r3, #:lower16:eepromConfig
 1039 07ae C0F20003 		movt	r3, #:upper16:eepromConfig
 1040 07b2 D3F8F830 		ldr	r3, [r3, #248]	@ float
 1041 07b6 1846     		mov	r0, r3	@ float
 1042 07b8 FFF7FEFF 		bl	__aeabi_f2d
 1043 07bc 0246     		mov	r2, r0
 1044 07be 0B46     		mov	r3, r1
 1045 07c0 CDE90023 		strd	r2, [sp]
 1046 07c4 40F20000 		movw	r0, #:lower16:numberString
 1047 07c8 C0F20000 		movt	r0, #:upper16:numberString
 1048 07cc 4FF01001 		mov	r1, #16
 1049 07d0 40F20002 		movw	r2, #:lower16:.LC2
 1050 07d4 C0F20002 		movt	r2, #:upper16:.LC2
 1051 07d8 FFF7FEFF 		bl	snprintf
 1052 07dc 40F20000 		movw	r0, #:lower16:numberString
 1053 07e0 C0F20000 		movt	r0, #:upper16:numberString
 1054 07e4 FFF7FEFF 		bl	usbPrint
 1055 07e8 40F20003 		movw	r3, #:lower16:eepromConfig
 1056 07ec C0F20003 		movt	r3, #:upper16:eepromConfig
 1057 07f0 D3F80031 		ldr	r3, [r3, #256]	@ float
 1058 07f4 1846     		mov	r0, r3	@ float
 1059 07f6 FFF7FEFF 		bl	__aeabi_f2d
 1060 07fa 0246     		mov	r2, r0
 1061 07fc 0B46     		mov	r3, r1
 1062 07fe CDE90023 		strd	r2, [sp]
 1063 0802 40F20000 		movw	r0, #:lower16:numberString
 1064 0806 C0F20000 		movt	r0, #:upper16:numberString
 1065 080a 4FF01001 		mov	r1, #16
 1066 080e 40F20002 		movw	r2, #:lower16:.LC2
 1067 0812 C0F20002 		movt	r2, #:upper16:.LC2
 1068 0816 FFF7FEFF 		bl	snprintf
 1069 081a 40F20000 		movw	r0, #:lower16:numberString
 1070 081e C0F20000 		movt	r0, #:upper16:numberString
 1071 0822 FFF7FEFF 		bl	usbPrint
 1072 0826 40F20003 		movw	r3, #:lower16:eepromConfig
 1073 082a C0F20003 		movt	r3, #:upper16:eepromConfig
 1074 082e 93F81031 		ldrb	r3, [r3, #272]	@ zero_extendqisi2
 1075 0832 002B     		cmp	r3, #0
 1076 0834 06D0     		beq	.L88
 1077 0836 40F20000 		movw	r0, #:lower16:.LC3
 1078 083a C0F20000 		movt	r0, #:upper16:.LC3
 1079 083e FFF7FEFF 		bl	usbPrint
 1080 0842 05E0     		b	.L89
 1081              	.L88:
 1082 0844 40F20000 		movw	r0, #:lower16:.LC4
 1083 0848 C0F20000 		movt	r0, #:upper16:.LC4
 1084 084c FFF7FEFF 		bl	usbPrint
 1085              	.L89:
 1086 0850 40F20003 		movw	r3, #:lower16:queryType
 1087 0854 C0F20003 		movt	r3, #:upper16:queryType
 1088 0858 4FF07802 		mov	r2, #120
 1089 085c 1A70     		strb	r2, [r3, #0]
 1090 085e 40F20003 		movw	r3, #:lower16:validCommand
 1091 0862 C0F20003 		movt	r3, #:upper16:validCommand
 1092 0866 4FF00002 		mov	r2, #0
 1093 086a 1A70     		strb	r2, [r3, #0]
 1094 086c 02F012BB 		b	.L17
 1095              	.L58:
 1096 0870 40F20000 		movw	r0, #:lower16:.LC0
 1097 0874 C0F20000 		movt	r0, #:upper16:.LC0
 1098 0878 FFF7FEFF 		bl	usbPrint
 1099 087c 40F20000 		movw	r0, #:lower16:.LC7
 1100 0880 C0F20000 		movt	r0, #:upper16:.LC7
 1101 0884 FFF7FEFF 		bl	usbPrint
 1102 0888 40F20003 		movw	r3, #:lower16:eepromConfig
 1103 088c C0F20003 		movt	r3, #:upper16:eepromConfig
 1104 0890 D3F81431 		ldr	r3, [r3, #276]	@ float
 1105 0894 1846     		mov	r0, r3	@ float
 1106 0896 FFF7FEFF 		bl	__aeabi_f2d
 1107 089a 0246     		mov	r2, r0
 1108 089c 0B46     		mov	r3, r1
 1109 089e CDE90023 		strd	r2, [sp]
 1110 08a2 40F20000 		movw	r0, #:lower16:numberString
 1111 08a6 C0F20000 		movt	r0, #:upper16:numberString
 1112 08aa 4FF01001 		mov	r1, #16
 1113 08ae 40F20002 		movw	r2, #:lower16:.LC2
 1114 08b2 C0F20002 		movt	r2, #:upper16:.LC2
 1115 08b6 FFF7FEFF 		bl	snprintf
 1116 08ba 40F20000 		movw	r0, #:lower16:numberString
 1117 08be C0F20000 		movt	r0, #:upper16:numberString
 1118 08c2 FFF7FEFF 		bl	usbPrint
 1119 08c6 40F20003 		movw	r3, #:lower16:eepromConfig
 1120 08ca C0F20003 		movt	r3, #:upper16:eepromConfig
 1121 08ce D3F81831 		ldr	r3, [r3, #280]	@ float
 1122 08d2 1846     		mov	r0, r3	@ float
 1123 08d4 FFF7FEFF 		bl	__aeabi_f2d
 1124 08d8 0246     		mov	r2, r0
 1125 08da 0B46     		mov	r3, r1
 1126 08dc CDE90023 		strd	r2, [sp]
 1127 08e0 40F20000 		movw	r0, #:lower16:numberString
 1128 08e4 C0F20000 		movt	r0, #:upper16:numberString
 1129 08e8 4FF01001 		mov	r1, #16
 1130 08ec 40F20002 		movw	r2, #:lower16:.LC2
 1131 08f0 C0F20002 		movt	r2, #:upper16:.LC2
 1132 08f4 FFF7FEFF 		bl	snprintf
 1133 08f8 40F20000 		movw	r0, #:lower16:numberString
 1134 08fc C0F20000 		movt	r0, #:upper16:numberString
 1135 0900 FFF7FEFF 		bl	usbPrint
 1136 0904 40F20003 		movw	r3, #:lower16:eepromConfig
 1137 0908 C0F20003 		movt	r3, #:upper16:eepromConfig
 1138 090c D3F81C31 		ldr	r3, [r3, #284]	@ float
 1139 0910 1846     		mov	r0, r3	@ float
 1140 0912 FFF7FEFF 		bl	__aeabi_f2d
 1141 0916 0246     		mov	r2, r0
 1142 0918 0B46     		mov	r3, r1
 1143 091a CDE90023 		strd	r2, [sp]
 1144 091e 40F20000 		movw	r0, #:lower16:numberString
 1145 0922 C0F20000 		movt	r0, #:upper16:numberString
 1146 0926 4FF01001 		mov	r1, #16
 1147 092a 40F20002 		movw	r2, #:lower16:.LC2
 1148 092e C0F20002 		movt	r2, #:upper16:.LC2
 1149 0932 FFF7FEFF 		bl	snprintf
 1150 0936 40F20000 		movw	r0, #:lower16:numberString
 1151 093a C0F20000 		movt	r0, #:upper16:numberString
 1152 093e FFF7FEFF 		bl	usbPrint
 1153 0942 40F20003 		movw	r3, #:lower16:eepromConfig
 1154 0946 C0F20003 		movt	r3, #:upper16:eepromConfig
 1155 094a D3F82031 		ldr	r3, [r3, #288]	@ float
 1156 094e 1846     		mov	r0, r3	@ float
 1157 0950 FFF7FEFF 		bl	__aeabi_f2d
 1158 0954 0246     		mov	r2, r0
 1159 0956 0B46     		mov	r3, r1
 1160 0958 CDE90023 		strd	r2, [sp]
 1161 095c 40F20000 		movw	r0, #:lower16:numberString
 1162 0960 C0F20000 		movt	r0, #:upper16:numberString
 1163 0964 4FF01001 		mov	r1, #16
 1164 0968 40F20002 		movw	r2, #:lower16:.LC2
 1165 096c C0F20002 		movt	r2, #:upper16:.LC2
 1166 0970 FFF7FEFF 		bl	snprintf
 1167 0974 40F20000 		movw	r0, #:lower16:numberString
 1168 0978 C0F20000 		movt	r0, #:upper16:numberString
 1169 097c FFF7FEFF 		bl	usbPrint
 1170 0980 40F20003 		movw	r3, #:lower16:eepromConfig
 1171 0984 C0F20003 		movt	r3, #:upper16:eepromConfig
 1172 0988 D3F82831 		ldr	r3, [r3, #296]	@ float
 1173 098c 1846     		mov	r0, r3	@ float
 1174 098e FFF7FEFF 		bl	__aeabi_f2d
 1175 0992 0246     		mov	r2, r0
 1176 0994 0B46     		mov	r3, r1
 1177 0996 CDE90023 		strd	r2, [sp]
 1178 099a 40F20000 		movw	r0, #:lower16:numberString
 1179 099e C0F20000 		movt	r0, #:upper16:numberString
 1180 09a2 4FF01001 		mov	r1, #16
 1181 09a6 40F20002 		movw	r2, #:lower16:.LC2
 1182 09aa C0F20002 		movt	r2, #:upper16:.LC2
 1183 09ae FFF7FEFF 		bl	snprintf
 1184 09b2 40F20000 		movw	r0, #:lower16:numberString
 1185 09b6 C0F20000 		movt	r0, #:upper16:numberString
 1186 09ba FFF7FEFF 		bl	usbPrint
 1187 09be 40F20003 		movw	r3, #:lower16:eepromConfig
 1188 09c2 C0F20003 		movt	r3, #:upper16:eepromConfig
 1189 09c6 93F83831 		ldrb	r3, [r3, #312]	@ zero_extendqisi2
 1190 09ca 002B     		cmp	r3, #0
 1191 09cc 06D0     		beq	.L90
 1192 09ce 40F20000 		movw	r0, #:lower16:.LC3
 1193 09d2 C0F20000 		movt	r0, #:upper16:.LC3
 1194 09d6 FFF7FEFF 		bl	usbPrint
 1195 09da 05E0     		b	.L91
 1196              	.L90:
 1197 09dc 40F20000 		movw	r0, #:lower16:.LC4
 1198 09e0 C0F20000 		movt	r0, #:upper16:.LC4
 1199 09e4 FFF7FEFF 		bl	usbPrint
 1200              	.L91:
 1201 09e8 40F20000 		movw	r0, #:lower16:.LC8
 1202 09ec C0F20000 		movt	r0, #:upper16:.LC8
 1203 09f0 FFF7FEFF 		bl	usbPrint
 1204 09f4 40F20003 		movw	r3, #:lower16:eepromConfig
 1205 09f8 C0F20003 		movt	r3, #:upper16:eepromConfig
 1206 09fc D3F83C31 		ldr	r3, [r3, #316]	@ float
 1207 0a00 1846     		mov	r0, r3	@ float
 1208 0a02 FFF7FEFF 		bl	__aeabi_f2d
 1209 0a06 0246     		mov	r2, r0
 1210 0a08 0B46     		mov	r3, r1
 1211 0a0a CDE90023 		strd	r2, [sp]
 1212 0a0e 40F20000 		movw	r0, #:lower16:numberString
 1213 0a12 C0F20000 		movt	r0, #:upper16:numberString
 1214 0a16 4FF01001 		mov	r1, #16
 1215 0a1a 40F20002 		movw	r2, #:lower16:.LC2
 1216 0a1e C0F20002 		movt	r2, #:upper16:.LC2
 1217 0a22 FFF7FEFF 		bl	snprintf
 1218 0a26 40F20000 		movw	r0, #:lower16:numberString
 1219 0a2a C0F20000 		movt	r0, #:upper16:numberString
 1220 0a2e FFF7FEFF 		bl	usbPrint
 1221 0a32 40F20003 		movw	r3, #:lower16:eepromConfig
 1222 0a36 C0F20003 		movt	r3, #:upper16:eepromConfig
 1223 0a3a D3F84031 		ldr	r3, [r3, #320]	@ float
 1224 0a3e 1846     		mov	r0, r3	@ float
 1225 0a40 FFF7FEFF 		bl	__aeabi_f2d
 1226 0a44 0246     		mov	r2, r0
 1227 0a46 0B46     		mov	r3, r1
 1228 0a48 CDE90023 		strd	r2, [sp]
 1229 0a4c 40F20000 		movw	r0, #:lower16:numberString
 1230 0a50 C0F20000 		movt	r0, #:upper16:numberString
 1231 0a54 4FF01001 		mov	r1, #16
 1232 0a58 40F20002 		movw	r2, #:lower16:.LC2
 1233 0a5c C0F20002 		movt	r2, #:upper16:.LC2
 1234 0a60 FFF7FEFF 		bl	snprintf
 1235 0a64 40F20000 		movw	r0, #:lower16:numberString
 1236 0a68 C0F20000 		movt	r0, #:upper16:numberString
 1237 0a6c FFF7FEFF 		bl	usbPrint
 1238 0a70 40F20003 		movw	r3, #:lower16:eepromConfig
 1239 0a74 C0F20003 		movt	r3, #:upper16:eepromConfig
 1240 0a78 D3F84431 		ldr	r3, [r3, #324]	@ float
 1241 0a7c 1846     		mov	r0, r3	@ float
 1242 0a7e FFF7FEFF 		bl	__aeabi_f2d
 1243 0a82 0246     		mov	r2, r0
 1244 0a84 0B46     		mov	r3, r1
 1245 0a86 CDE90023 		strd	r2, [sp]
 1246 0a8a 40F20000 		movw	r0, #:lower16:numberString
 1247 0a8e C0F20000 		movt	r0, #:upper16:numberString
 1248 0a92 4FF01001 		mov	r1, #16
 1249 0a96 40F20002 		movw	r2, #:lower16:.LC2
 1250 0a9a C0F20002 		movt	r2, #:upper16:.LC2
 1251 0a9e FFF7FEFF 		bl	snprintf
 1252 0aa2 40F20000 		movw	r0, #:lower16:numberString
 1253 0aa6 C0F20000 		movt	r0, #:upper16:numberString
 1254 0aaa FFF7FEFF 		bl	usbPrint
 1255 0aae 40F20003 		movw	r3, #:lower16:eepromConfig
 1256 0ab2 C0F20003 		movt	r3, #:upper16:eepromConfig
 1257 0ab6 D3F84831 		ldr	r3, [r3, #328]	@ float
 1258 0aba 1846     		mov	r0, r3	@ float
 1259 0abc FFF7FEFF 		bl	__aeabi_f2d
 1260 0ac0 0246     		mov	r2, r0
 1261 0ac2 0B46     		mov	r3, r1
 1262 0ac4 CDE90023 		strd	r2, [sp]
 1263 0ac8 40F20000 		movw	r0, #:lower16:numberString
 1264 0acc C0F20000 		movt	r0, #:upper16:numberString
 1265 0ad0 4FF01001 		mov	r1, #16
 1266 0ad4 40F20002 		movw	r2, #:lower16:.LC2
 1267 0ad8 C0F20002 		movt	r2, #:upper16:.LC2
 1268 0adc FFF7FEFF 		bl	snprintf
 1269 0ae0 40F20000 		movw	r0, #:lower16:numberString
 1270 0ae4 C0F20000 		movt	r0, #:upper16:numberString
 1271 0ae8 FFF7FEFF 		bl	usbPrint
 1272 0aec 40F20003 		movw	r3, #:lower16:eepromConfig
 1273 0af0 C0F20003 		movt	r3, #:upper16:eepromConfig
 1274 0af4 D3F85031 		ldr	r3, [r3, #336]	@ float
 1275 0af8 1846     		mov	r0, r3	@ float
 1276 0afa FFF7FEFF 		bl	__aeabi_f2d
 1277 0afe 0246     		mov	r2, r0
 1278 0b00 0B46     		mov	r3, r1
 1279 0b02 CDE90023 		strd	r2, [sp]
 1280 0b06 40F20000 		movw	r0, #:lower16:numberString
 1281 0b0a C0F20000 		movt	r0, #:upper16:numberString
 1282 0b0e 4FF01001 		mov	r1, #16
 1283 0b12 40F20002 		movw	r2, #:lower16:.LC2
 1284 0b16 C0F20002 		movt	r2, #:upper16:.LC2
 1285 0b1a FFF7FEFF 		bl	snprintf
 1286 0b1e 40F20000 		movw	r0, #:lower16:numberString
 1287 0b22 C0F20000 		movt	r0, #:upper16:numberString
 1288 0b26 FFF7FEFF 		bl	usbPrint
 1289 0b2a 40F20003 		movw	r3, #:lower16:eepromConfig
 1290 0b2e C0F20003 		movt	r3, #:upper16:eepromConfig
 1291 0b32 93F86031 		ldrb	r3, [r3, #352]	@ zero_extendqisi2
 1292 0b36 002B     		cmp	r3, #0
 1293 0b38 06D0     		beq	.L92
 1294 0b3a 40F20000 		movw	r0, #:lower16:.LC3
 1295 0b3e C0F20000 		movt	r0, #:upper16:.LC3
 1296 0b42 FFF7FEFF 		bl	usbPrint
 1297 0b46 05E0     		b	.L93
 1298              	.L92:
 1299 0b48 40F20000 		movw	r0, #:lower16:.LC4
 1300 0b4c C0F20000 		movt	r0, #:upper16:.LC4
 1301 0b50 FFF7FEFF 		bl	usbPrint
 1302              	.L93:
 1303 0b54 40F20000 		movw	r0, #:lower16:.LC9
 1304 0b58 C0F20000 		movt	r0, #:upper16:.LC9
 1305 0b5c FFF7FEFF 		bl	usbPrint
 1306 0b60 40F20003 		movw	r3, #:lower16:eepromConfig
 1307 0b64 C0F20003 		movt	r3, #:upper16:eepromConfig
 1308 0b68 D3F86431 		ldr	r3, [r3, #356]	@ float
 1309 0b6c 1846     		mov	r0, r3	@ float
 1310 0b6e FFF7FEFF 		bl	__aeabi_f2d
 1311 0b72 0246     		mov	r2, r0
 1312 0b74 0B46     		mov	r3, r1
 1313 0b76 CDE90023 		strd	r2, [sp]
 1314 0b7a 40F20000 		movw	r0, #:lower16:numberString
 1315 0b7e C0F20000 		movt	r0, #:upper16:numberString
 1316 0b82 4FF01001 		mov	r1, #16
 1317 0b86 40F20002 		movw	r2, #:lower16:.LC2
 1318 0b8a C0F20002 		movt	r2, #:upper16:.LC2
 1319 0b8e FFF7FEFF 		bl	snprintf
 1320 0b92 40F20000 		movw	r0, #:lower16:numberString
 1321 0b96 C0F20000 		movt	r0, #:upper16:numberString
 1322 0b9a FFF7FEFF 		bl	usbPrint
 1323 0b9e 40F20003 		movw	r3, #:lower16:eepromConfig
 1324 0ba2 C0F20003 		movt	r3, #:upper16:eepromConfig
 1325 0ba6 D3F86831 		ldr	r3, [r3, #360]	@ float
 1326 0baa 1846     		mov	r0, r3	@ float
 1327 0bac FFF7FEFF 		bl	__aeabi_f2d
 1328 0bb0 0246     		mov	r2, r0
 1329 0bb2 0B46     		mov	r3, r1
 1330 0bb4 CDE90023 		strd	r2, [sp]
 1331 0bb8 40F20000 		movw	r0, #:lower16:numberString
 1332 0bbc C0F20000 		movt	r0, #:upper16:numberString
 1333 0bc0 4FF01001 		mov	r1, #16
 1334 0bc4 40F20002 		movw	r2, #:lower16:.LC2
 1335 0bc8 C0F20002 		movt	r2, #:upper16:.LC2
 1336 0bcc FFF7FEFF 		bl	snprintf
 1337 0bd0 40F20000 		movw	r0, #:lower16:numberString
 1338 0bd4 C0F20000 		movt	r0, #:upper16:numberString
 1339 0bd8 FFF7FEFF 		bl	usbPrint
 1340 0bdc 40F20003 		movw	r3, #:lower16:eepromConfig
 1341 0be0 C0F20003 		movt	r3, #:upper16:eepromConfig
 1342 0be4 D3F86C31 		ldr	r3, [r3, #364]	@ float
 1343 0be8 1846     		mov	r0, r3	@ float
 1344 0bea FFF7FEFF 		bl	__aeabi_f2d
 1345 0bee 0246     		mov	r2, r0
 1346 0bf0 0B46     		mov	r3, r1
 1347 0bf2 CDE90023 		strd	r2, [sp]
 1348 0bf6 40F20000 		movw	r0, #:lower16:numberString
 1349 0bfa C0F20000 		movt	r0, #:upper16:numberString
 1350 0bfe 4FF01001 		mov	r1, #16
 1351 0c02 40F20002 		movw	r2, #:lower16:.LC2
 1352 0c06 C0F20002 		movt	r2, #:upper16:.LC2
 1353 0c0a FFF7FEFF 		bl	snprintf
 1354 0c0e 40F20000 		movw	r0, #:lower16:numberString
 1355 0c12 C0F20000 		movt	r0, #:upper16:numberString
 1356 0c16 FFF7FEFF 		bl	usbPrint
 1357 0c1a 40F20003 		movw	r3, #:lower16:eepromConfig
 1358 0c1e C0F20003 		movt	r3, #:upper16:eepromConfig
 1359 0c22 D3F87031 		ldr	r3, [r3, #368]	@ float
 1360 0c26 1846     		mov	r0, r3	@ float
 1361 0c28 FFF7FEFF 		bl	__aeabi_f2d
 1362 0c2c 0246     		mov	r2, r0
 1363 0c2e 0B46     		mov	r3, r1
 1364 0c30 CDE90023 		strd	r2, [sp]
 1365 0c34 40F20000 		movw	r0, #:lower16:numberString
 1366 0c38 C0F20000 		movt	r0, #:upper16:numberString
 1367 0c3c 4FF01001 		mov	r1, #16
 1368 0c40 40F20002 		movw	r2, #:lower16:.LC2
 1369 0c44 C0F20002 		movt	r2, #:upper16:.LC2
 1370 0c48 FFF7FEFF 		bl	snprintf
 1371 0c4c 40F20000 		movw	r0, #:lower16:numberString
 1372 0c50 C0F20000 		movt	r0, #:upper16:numberString
 1373 0c54 FFF7FEFF 		bl	usbPrint
 1374 0c58 40F20003 		movw	r3, #:lower16:eepromConfig
 1375 0c5c C0F20003 		movt	r3, #:upper16:eepromConfig
 1376 0c60 D3F87831 		ldr	r3, [r3, #376]	@ float
 1377 0c64 1846     		mov	r0, r3	@ float
 1378 0c66 FFF7FEFF 		bl	__aeabi_f2d
 1379 0c6a 0246     		mov	r2, r0
 1380 0c6c 0B46     		mov	r3, r1
 1381 0c6e CDE90023 		strd	r2, [sp]
 1382 0c72 40F20000 		movw	r0, #:lower16:numberString
 1383 0c76 C0F20000 		movt	r0, #:upper16:numberString
 1384 0c7a 4FF01001 		mov	r1, #16
 1385 0c7e 40F20002 		movw	r2, #:lower16:.LC2
 1386 0c82 C0F20002 		movt	r2, #:upper16:.LC2
 1387 0c86 FFF7FEFF 		bl	snprintf
 1388 0c8a 40F20000 		movw	r0, #:lower16:numberString
 1389 0c8e C0F20000 		movt	r0, #:upper16:numberString
 1390 0c92 FFF7FEFF 		bl	usbPrint
 1391 0c96 40F20003 		movw	r3, #:lower16:eepromConfig
 1392 0c9a C0F20003 		movt	r3, #:upper16:eepromConfig
 1393 0c9e 93F88831 		ldrb	r3, [r3, #392]	@ zero_extendqisi2
 1394 0ca2 002B     		cmp	r3, #0
 1395 0ca4 06D0     		beq	.L94
 1396 0ca6 40F20000 		movw	r0, #:lower16:.LC3
 1397 0caa C0F20000 		movt	r0, #:upper16:.LC3
 1398 0cae FFF7FEFF 		bl	usbPrint
 1399 0cb2 05E0     		b	.L95
 1400              	.L94:
 1401 0cb4 40F20000 		movw	r0, #:lower16:.LC4
 1402 0cb8 C0F20000 		movt	r0, #:upper16:.LC4
 1403 0cbc FFF7FEFF 		bl	usbPrint
 1404              	.L95:
 1405 0cc0 40F20003 		movw	r3, #:lower16:queryType
 1406 0cc4 C0F20003 		movt	r3, #:upper16:queryType
 1407 0cc8 4FF07802 		mov	r2, #120
 1408 0ccc 1A70     		strb	r2, [r3, #0]
 1409 0cce 40F20003 		movw	r3, #:lower16:validCommand
 1410 0cd2 C0F20003 		movt	r3, #:upper16:validCommand
 1411 0cd6 4FF00002 		mov	r2, #0
 1412 0cda 1A70     		strb	r2, [r3, #0]
 1413 0cdc 02F0DAB8 		b	.L17
 1414              	.L59:
 1415 0ce0 40F20000 		movw	r0, #:lower16:.LC0
 1416 0ce4 C0F20000 		movt	r0, #:upper16:.LC0
 1417 0ce8 FFF7FEFF 		bl	usbPrint
 1418 0cec 40F20000 		movw	r0, #:lower16:.LC10
 1419 0cf0 C0F20000 		movt	r0, #:upper16:.LC10
 1420 0cf4 FFF7FEFF 		bl	usbPrint
 1421 0cf8 40F20003 		movw	r3, #:lower16:eepromConfig
 1422 0cfc C0F20003 		movt	r3, #:upper16:eepromConfig
 1423 0d00 D3F88C31 		ldr	r3, [r3, #396]	@ float
 1424 0d04 1846     		mov	r0, r3	@ float
 1425 0d06 FFF7FEFF 		bl	__aeabi_f2d
 1426 0d0a 0246     		mov	r2, r0
 1427 0d0c 0B46     		mov	r3, r1
 1428 0d0e CDE90023 		strd	r2, [sp]
 1429 0d12 40F20000 		movw	r0, #:lower16:numberString
 1430 0d16 C0F20000 		movt	r0, #:upper16:numberString
 1431 0d1a 4FF01001 		mov	r1, #16
 1432 0d1e 40F20002 		movw	r2, #:lower16:.LC2
 1433 0d22 C0F20002 		movt	r2, #:upper16:.LC2
 1434 0d26 FFF7FEFF 		bl	snprintf
 1435 0d2a 40F20000 		movw	r0, #:lower16:numberString
 1436 0d2e C0F20000 		movt	r0, #:upper16:numberString
 1437 0d32 FFF7FEFF 		bl	usbPrint
 1438 0d36 40F20003 		movw	r3, #:lower16:eepromConfig
 1439 0d3a C0F20003 		movt	r3, #:upper16:eepromConfig
 1440 0d3e D3F89031 		ldr	r3, [r3, #400]	@ float
 1441 0d42 1846     		mov	r0, r3	@ float
 1442 0d44 FFF7FEFF 		bl	__aeabi_f2d
 1443 0d48 0246     		mov	r2, r0
 1444 0d4a 0B46     		mov	r3, r1
 1445 0d4c CDE90023 		strd	r2, [sp]
 1446 0d50 40F20000 		movw	r0, #:lower16:numberString
 1447 0d54 C0F20000 		movt	r0, #:upper16:numberString
 1448 0d58 4FF01001 		mov	r1, #16
 1449 0d5c 40F20002 		movw	r2, #:lower16:.LC2
 1450 0d60 C0F20002 		movt	r2, #:upper16:.LC2
 1451 0d64 FFF7FEFF 		bl	snprintf
 1452 0d68 40F20000 		movw	r0, #:lower16:numberString
 1453 0d6c C0F20000 		movt	r0, #:upper16:numberString
 1454 0d70 FFF7FEFF 		bl	usbPrint
 1455 0d74 40F20003 		movw	r3, #:lower16:eepromConfig
 1456 0d78 C0F20003 		movt	r3, #:upper16:eepromConfig
 1457 0d7c D3F89431 		ldr	r3, [r3, #404]	@ float
 1458 0d80 1846     		mov	r0, r3	@ float
 1459 0d82 FFF7FEFF 		bl	__aeabi_f2d
 1460 0d86 0246     		mov	r2, r0
 1461 0d88 0B46     		mov	r3, r1
 1462 0d8a CDE90023 		strd	r2, [sp]
 1463 0d8e 40F20000 		movw	r0, #:lower16:numberString
 1464 0d92 C0F20000 		movt	r0, #:upper16:numberString
 1465 0d96 4FF01001 		mov	r1, #16
 1466 0d9a 40F20002 		movw	r2, #:lower16:.LC2
 1467 0d9e C0F20002 		movt	r2, #:upper16:.LC2
 1468 0da2 FFF7FEFF 		bl	snprintf
 1469 0da6 40F20000 		movw	r0, #:lower16:numberString
 1470 0daa C0F20000 		movt	r0, #:upper16:numberString
 1471 0dae FFF7FEFF 		bl	usbPrint
 1472 0db2 40F20003 		movw	r3, #:lower16:eepromConfig
 1473 0db6 C0F20003 		movt	r3, #:upper16:eepromConfig
 1474 0dba D3F89831 		ldr	r3, [r3, #408]	@ float
 1475 0dbe 1846     		mov	r0, r3	@ float
 1476 0dc0 FFF7FEFF 		bl	__aeabi_f2d
 1477 0dc4 0246     		mov	r2, r0
 1478 0dc6 0B46     		mov	r3, r1
 1479 0dc8 CDE90023 		strd	r2, [sp]
 1480 0dcc 40F20000 		movw	r0, #:lower16:numberString
 1481 0dd0 C0F20000 		movt	r0, #:upper16:numberString
 1482 0dd4 4FF01001 		mov	r1, #16
 1483 0dd8 40F20002 		movw	r2, #:lower16:.LC2
 1484 0ddc C0F20002 		movt	r2, #:upper16:.LC2
 1485 0de0 FFF7FEFF 		bl	snprintf
 1486 0de4 40F20000 		movw	r0, #:lower16:numberString
 1487 0de8 C0F20000 		movt	r0, #:upper16:numberString
 1488 0dec FFF7FEFF 		bl	usbPrint
 1489 0df0 40F20003 		movw	r3, #:lower16:eepromConfig
 1490 0df4 C0F20003 		movt	r3, #:upper16:eepromConfig
 1491 0df8 D3F8A031 		ldr	r3, [r3, #416]	@ float
 1492 0dfc 1846     		mov	r0, r3	@ float
 1493 0dfe FFF7FEFF 		bl	__aeabi_f2d
 1494 0e02 0246     		mov	r2, r0
 1495 0e04 0B46     		mov	r3, r1
 1496 0e06 CDE90023 		strd	r2, [sp]
 1497 0e0a 40F20000 		movw	r0, #:lower16:numberString
 1498 0e0e C0F20000 		movt	r0, #:upper16:numberString
 1499 0e12 4FF01001 		mov	r1, #16
 1500 0e16 40F20002 		movw	r2, #:lower16:.LC2
 1501 0e1a C0F20002 		movt	r2, #:upper16:.LC2
 1502 0e1e FFF7FEFF 		bl	snprintf
 1503 0e22 40F20000 		movw	r0, #:lower16:numberString
 1504 0e26 C0F20000 		movt	r0, #:upper16:numberString
 1505 0e2a FFF7FEFF 		bl	usbPrint
 1506 0e2e 40F20003 		movw	r3, #:lower16:eepromConfig
 1507 0e32 C0F20003 		movt	r3, #:upper16:eepromConfig
 1508 0e36 93F8B031 		ldrb	r3, [r3, #432]	@ zero_extendqisi2
 1509 0e3a 002B     		cmp	r3, #0
 1510 0e3c 06D0     		beq	.L96
 1511 0e3e 40F20000 		movw	r0, #:lower16:.LC3
 1512 0e42 C0F20000 		movt	r0, #:upper16:.LC3
 1513 0e46 FFF7FEFF 		bl	usbPrint
 1514 0e4a 05E0     		b	.L97
 1515              	.L96:
 1516 0e4c 40F20000 		movw	r0, #:lower16:.LC4
 1517 0e50 C0F20000 		movt	r0, #:upper16:.LC4
 1518 0e54 FFF7FEFF 		bl	usbPrint
 1519              	.L97:
 1520 0e58 40F20000 		movw	r0, #:lower16:.LC11
 1521 0e5c C0F20000 		movt	r0, #:upper16:.LC11
 1522 0e60 FFF7FEFF 		bl	usbPrint
 1523 0e64 40F20003 		movw	r3, #:lower16:eepromConfig
 1524 0e68 C0F20003 		movt	r3, #:upper16:eepromConfig
 1525 0e6c D3F8B431 		ldr	r3, [r3, #436]	@ float
 1526 0e70 1846     		mov	r0, r3	@ float
 1527 0e72 FFF7FEFF 		bl	__aeabi_f2d
 1528 0e76 0246     		mov	r2, r0
 1529 0e78 0B46     		mov	r3, r1
 1530 0e7a CDE90023 		strd	r2, [sp]
 1531 0e7e 40F20000 		movw	r0, #:lower16:numberString
 1532 0e82 C0F20000 		movt	r0, #:upper16:numberString
 1533 0e86 4FF01001 		mov	r1, #16
 1534 0e8a 40F20002 		movw	r2, #:lower16:.LC2
 1535 0e8e C0F20002 		movt	r2, #:upper16:.LC2
 1536 0e92 FFF7FEFF 		bl	snprintf
 1537 0e96 40F20000 		movw	r0, #:lower16:numberString
 1538 0e9a C0F20000 		movt	r0, #:upper16:numberString
 1539 0e9e FFF7FEFF 		bl	usbPrint
 1540 0ea2 40F20003 		movw	r3, #:lower16:eepromConfig
 1541 0ea6 C0F20003 		movt	r3, #:upper16:eepromConfig
 1542 0eaa D3F8B831 		ldr	r3, [r3, #440]	@ float
 1543 0eae 1846     		mov	r0, r3	@ float
 1544 0eb0 FFF7FEFF 		bl	__aeabi_f2d
 1545 0eb4 0246     		mov	r2, r0
 1546 0eb6 0B46     		mov	r3, r1
 1547 0eb8 CDE90023 		strd	r2, [sp]
 1548 0ebc 40F20000 		movw	r0, #:lower16:numberString
 1549 0ec0 C0F20000 		movt	r0, #:upper16:numberString
 1550 0ec4 4FF01001 		mov	r1, #16
 1551 0ec8 40F20002 		movw	r2, #:lower16:.LC2
 1552 0ecc C0F20002 		movt	r2, #:upper16:.LC2
 1553 0ed0 FFF7FEFF 		bl	snprintf
 1554 0ed4 40F20000 		movw	r0, #:lower16:numberString
 1555 0ed8 C0F20000 		movt	r0, #:upper16:numberString
 1556 0edc FFF7FEFF 		bl	usbPrint
 1557 0ee0 40F20003 		movw	r3, #:lower16:eepromConfig
 1558 0ee4 C0F20003 		movt	r3, #:upper16:eepromConfig
 1559 0ee8 D3F8BC31 		ldr	r3, [r3, #444]	@ float
 1560 0eec 1846     		mov	r0, r3	@ float
 1561 0eee FFF7FEFF 		bl	__aeabi_f2d
 1562 0ef2 0246     		mov	r2, r0
 1563 0ef4 0B46     		mov	r3, r1
 1564 0ef6 CDE90023 		strd	r2, [sp]
 1565 0efa 40F20000 		movw	r0, #:lower16:numberString
 1566 0efe C0F20000 		movt	r0, #:upper16:numberString
 1567 0f02 4FF01001 		mov	r1, #16
 1568 0f06 40F20002 		movw	r2, #:lower16:.LC2
 1569 0f0a C0F20002 		movt	r2, #:upper16:.LC2
 1570 0f0e FFF7FEFF 		bl	snprintf
 1571 0f12 40F20000 		movw	r0, #:lower16:numberString
 1572 0f16 C0F20000 		movt	r0, #:upper16:numberString
 1573 0f1a FFF7FEFF 		bl	usbPrint
 1574 0f1e 40F20003 		movw	r3, #:lower16:eepromConfig
 1575 0f22 C0F20003 		movt	r3, #:upper16:eepromConfig
 1576 0f26 D3F8C031 		ldr	r3, [r3, #448]	@ float
 1577 0f2a 1846     		mov	r0, r3	@ float
 1578 0f2c FFF7FEFF 		bl	__aeabi_f2d
 1579 0f30 0246     		mov	r2, r0
 1580 0f32 0B46     		mov	r3, r1
 1581 0f34 CDE90023 		strd	r2, [sp]
 1582 0f38 40F20000 		movw	r0, #:lower16:numberString
 1583 0f3c C0F20000 		movt	r0, #:upper16:numberString
 1584 0f40 4FF01001 		mov	r1, #16
 1585 0f44 40F20002 		movw	r2, #:lower16:.LC2
 1586 0f48 C0F20002 		movt	r2, #:upper16:.LC2
 1587 0f4c FFF7FEFF 		bl	snprintf
 1588 0f50 40F20000 		movw	r0, #:lower16:numberString
 1589 0f54 C0F20000 		movt	r0, #:upper16:numberString
 1590 0f58 FFF7FEFF 		bl	usbPrint
 1591 0f5c 40F20003 		movw	r3, #:lower16:eepromConfig
 1592 0f60 C0F20003 		movt	r3, #:upper16:eepromConfig
 1593 0f64 D3F8C831 		ldr	r3, [r3, #456]	@ float
 1594 0f68 1846     		mov	r0, r3	@ float
 1595 0f6a FFF7FEFF 		bl	__aeabi_f2d
 1596 0f6e 0246     		mov	r2, r0
 1597 0f70 0B46     		mov	r3, r1
 1598 0f72 CDE90023 		strd	r2, [sp]
 1599 0f76 40F20000 		movw	r0, #:lower16:numberString
 1600 0f7a C0F20000 		movt	r0, #:upper16:numberString
 1601 0f7e 4FF01001 		mov	r1, #16
 1602 0f82 40F20002 		movw	r2, #:lower16:.LC2
 1603 0f86 C0F20002 		movt	r2, #:upper16:.LC2
 1604 0f8a FFF7FEFF 		bl	snprintf
 1605 0f8e 40F20000 		movw	r0, #:lower16:numberString
 1606 0f92 C0F20000 		movt	r0, #:upper16:numberString
 1607 0f96 FFF7FEFF 		bl	usbPrint
 1608 0f9a 40F20003 		movw	r3, #:lower16:eepromConfig
 1609 0f9e C0F20003 		movt	r3, #:upper16:eepromConfig
 1610 0fa2 93F8D831 		ldrb	r3, [r3, #472]	@ zero_extendqisi2
 1611 0fa6 002B     		cmp	r3, #0
 1612 0fa8 06D0     		beq	.L98
 1613 0faa 40F20000 		movw	r0, #:lower16:.LC3
 1614 0fae C0F20000 		movt	r0, #:upper16:.LC3
 1615 0fb2 FFF7FEFF 		bl	usbPrint
 1616 0fb6 05E0     		b	.L99
 1617              	.L98:
 1618 0fb8 40F20000 		movw	r0, #:lower16:.LC4
 1619 0fbc C0F20000 		movt	r0, #:upper16:.LC4
 1620 0fc0 FFF7FEFF 		bl	usbPrint
 1621              	.L99:
 1622 0fc4 40F20000 		movw	r0, #:lower16:.LC12
 1623 0fc8 C0F20000 		movt	r0, #:upper16:.LC12
 1624 0fcc FFF7FEFF 		bl	usbPrint
 1625 0fd0 40F20003 		movw	r3, #:lower16:eepromConfig
 1626 0fd4 C0F20003 		movt	r3, #:upper16:eepromConfig
 1627 0fd8 D3F8DC31 		ldr	r3, [r3, #476]	@ float
 1628 0fdc 1846     		mov	r0, r3	@ float
 1629 0fde FFF7FEFF 		bl	__aeabi_f2d
 1630 0fe2 0246     		mov	r2, r0
 1631 0fe4 0B46     		mov	r3, r1
 1632 0fe6 CDE90023 		strd	r2, [sp]
 1633 0fea 40F20000 		movw	r0, #:lower16:numberString
 1634 0fee C0F20000 		movt	r0, #:upper16:numberString
 1635 0ff2 4FF01001 		mov	r1, #16
 1636 0ff6 40F20002 		movw	r2, #:lower16:.LC2
 1637 0ffa C0F20002 		movt	r2, #:upper16:.LC2
 1638 0ffe FFF7FEFF 		bl	snprintf
 1639 1002 40F20000 		movw	r0, #:lower16:numberString
 1640 1006 C0F20000 		movt	r0, #:upper16:numberString
 1641 100a FFF7FEFF 		bl	usbPrint
 1642 100e 40F20003 		movw	r3, #:lower16:eepromConfig
 1643 1012 C0F20003 		movt	r3, #:upper16:eepromConfig
 1644 1016 D3F8E031 		ldr	r3, [r3, #480]	@ float
 1645 101a 1846     		mov	r0, r3	@ float
 1646 101c FFF7FEFF 		bl	__aeabi_f2d
 1647 1020 0246     		mov	r2, r0
 1648 1022 0B46     		mov	r3, r1
 1649 1024 CDE90023 		strd	r2, [sp]
 1650 1028 40F20000 		movw	r0, #:lower16:numberString
 1651 102c C0F20000 		movt	r0, #:upper16:numberString
 1652 1030 4FF01001 		mov	r1, #16
 1653 1034 40F20002 		movw	r2, #:lower16:.LC2
 1654 1038 C0F20002 		movt	r2, #:upper16:.LC2
 1655 103c FFF7FEFF 		bl	snprintf
 1656 1040 40F20000 		movw	r0, #:lower16:numberString
 1657 1044 C0F20000 		movt	r0, #:upper16:numberString
 1658 1048 FFF7FEFF 		bl	usbPrint
 1659 104c 40F20003 		movw	r3, #:lower16:eepromConfig
 1660 1050 C0F20003 		movt	r3, #:upper16:eepromConfig
 1661 1054 D3F8E431 		ldr	r3, [r3, #484]	@ float
 1662 1058 1846     		mov	r0, r3	@ float
 1663 105a FFF7FEFF 		bl	__aeabi_f2d
 1664 105e 0246     		mov	r2, r0
 1665 1060 0B46     		mov	r3, r1
 1666 1062 CDE90023 		strd	r2, [sp]
 1667 1066 40F20000 		movw	r0, #:lower16:numberString
 1668 106a C0F20000 		movt	r0, #:upper16:numberString
 1669 106e 4FF01001 		mov	r1, #16
 1670 1072 40F20002 		movw	r2, #:lower16:.LC2
 1671 1076 C0F20002 		movt	r2, #:upper16:.LC2
 1672 107a FFF7FEFF 		bl	snprintf
 1673 107e 40F20000 		movw	r0, #:lower16:numberString
 1674 1082 C0F20000 		movt	r0, #:upper16:numberString
 1675 1086 FFF7FEFF 		bl	usbPrint
 1676 108a 40F20003 		movw	r3, #:lower16:eepromConfig
 1677 108e C0F20003 		movt	r3, #:upper16:eepromConfig
 1678 1092 D3F8E831 		ldr	r3, [r3, #488]	@ float
 1679 1096 1846     		mov	r0, r3	@ float
 1680 1098 FFF7FEFF 		bl	__aeabi_f2d
 1681 109c 0246     		mov	r2, r0
 1682 109e 0B46     		mov	r3, r1
 1683 10a0 CDE90023 		strd	r2, [sp]
 1684 10a4 40F20000 		movw	r0, #:lower16:numberString
 1685 10a8 C0F20000 		movt	r0, #:upper16:numberString
 1686 10ac 4FF01001 		mov	r1, #16
 1687 10b0 40F20002 		movw	r2, #:lower16:.LC2
 1688 10b4 C0F20002 		movt	r2, #:upper16:.LC2
 1689 10b8 FFF7FEFF 		bl	snprintf
 1690 10bc 40F20000 		movw	r0, #:lower16:numberString
 1691 10c0 C0F20000 		movt	r0, #:upper16:numberString
 1692 10c4 FFF7FEFF 		bl	usbPrint
 1693 10c8 40F20003 		movw	r3, #:lower16:eepromConfig
 1694 10cc C0F20003 		movt	r3, #:upper16:eepromConfig
 1695 10d0 D3F8F031 		ldr	r3, [r3, #496]	@ float
 1696 10d4 1846     		mov	r0, r3	@ float
 1697 10d6 FFF7FEFF 		bl	__aeabi_f2d
 1698 10da 0246     		mov	r2, r0
 1699 10dc 0B46     		mov	r3, r1
 1700 10de CDE90023 		strd	r2, [sp]
 1701 10e2 40F20000 		movw	r0, #:lower16:numberString
 1702 10e6 C0F20000 		movt	r0, #:upper16:numberString
 1703 10ea 4FF01001 		mov	r1, #16
 1704 10ee 40F20002 		movw	r2, #:lower16:.LC2
 1705 10f2 C0F20002 		movt	r2, #:upper16:.LC2
 1706 10f6 FFF7FEFF 		bl	snprintf
 1707 10fa 40F20000 		movw	r0, #:lower16:numberString
 1708 10fe C0F20000 		movt	r0, #:upper16:numberString
 1709 1102 FFF7FEFF 		bl	usbPrint
 1710 1106 40F20003 		movw	r3, #:lower16:eepromConfig
 1711 110a C0F20003 		movt	r3, #:upper16:eepromConfig
 1712 110e 93F80032 		ldrb	r3, [r3, #512]	@ zero_extendqisi2
 1713 1112 002B     		cmp	r3, #0
 1714 1114 06D0     		beq	.L100
 1715 1116 40F20000 		movw	r0, #:lower16:.LC3
 1716 111a C0F20000 		movt	r0, #:upper16:.LC3
 1717 111e FFF7FEFF 		bl	usbPrint
 1718 1122 05E0     		b	.L101
 1719              	.L100:
 1720 1124 40F20000 		movw	r0, #:lower16:.LC4
 1721 1128 C0F20000 		movt	r0, #:upper16:.LC4
 1722 112c FFF7FEFF 		bl	usbPrint
 1723              	.L101:
 1724 1130 40F20003 		movw	r3, #:lower16:queryType
 1725 1134 C0F20003 		movt	r3, #:upper16:queryType
 1726 1138 4FF07802 		mov	r2, #120
 1727 113c 1A70     		strb	r2, [r3, #0]
 1728 113e 40F20003 		movw	r3, #:lower16:validCommand
 1729 1142 C0F20003 		movt	r3, #:upper16:validCommand
 1730 1146 4FF00002 		mov	r2, #0
 1731 114a 1A70     		strb	r2, [r3, #0]
 1732 114c 01F0A2BE 		b	.L17
 1733              	.L60:
 1734 1150 40F20000 		movw	r0, #:lower16:.LC0
 1735 1154 C0F20000 		movt	r0, #:upper16:.LC0
 1736 1158 FFF7FEFF 		bl	usbPrint
 1737 115c 40F20000 		movw	r0, #:lower16:.LC13
 1738 1160 C0F20000 		movt	r0, #:upper16:.LC13
 1739 1164 FFF7FEFF 		bl	usbPrint
 1740 1168 40F20003 		movw	r3, #:lower16:eepromConfig
 1741 116c C0F20003 		movt	r3, #:upper16:eepromConfig
 1742 1170 D3F80432 		ldr	r3, [r3, #516]	@ float
 1743 1174 1846     		mov	r0, r3	@ float
 1744 1176 FFF7FEFF 		bl	__aeabi_f2d
 1745 117a 0246     		mov	r2, r0
 1746 117c 0B46     		mov	r3, r1
 1747 117e CDE90023 		strd	r2, [sp]
 1748 1182 40F20000 		movw	r0, #:lower16:numberString
 1749 1186 C0F20000 		movt	r0, #:upper16:numberString
 1750 118a 4FF01001 		mov	r1, #16
 1751 118e 40F20002 		movw	r2, #:lower16:.LC2
 1752 1192 C0F20002 		movt	r2, #:upper16:.LC2
 1753 1196 FFF7FEFF 		bl	snprintf
 1754 119a 40F20000 		movw	r0, #:lower16:numberString
 1755 119e C0F20000 		movt	r0, #:upper16:numberString
 1756 11a2 FFF7FEFF 		bl	usbPrint
 1757 11a6 40F20003 		movw	r3, #:lower16:eepromConfig
 1758 11aa C0F20003 		movt	r3, #:upper16:eepromConfig
 1759 11ae D3F80832 		ldr	r3, [r3, #520]	@ float
 1760 11b2 1846     		mov	r0, r3	@ float
 1761 11b4 FFF7FEFF 		bl	__aeabi_f2d
 1762 11b8 0246     		mov	r2, r0
 1763 11ba 0B46     		mov	r3, r1
 1764 11bc CDE90023 		strd	r2, [sp]
 1765 11c0 40F20000 		movw	r0, #:lower16:numberString
 1766 11c4 C0F20000 		movt	r0, #:upper16:numberString
 1767 11c8 4FF01001 		mov	r1, #16
 1768 11cc 40F20002 		movw	r2, #:lower16:.LC2
 1769 11d0 C0F20002 		movt	r2, #:upper16:.LC2
 1770 11d4 FFF7FEFF 		bl	snprintf
 1771 11d8 40F20000 		movw	r0, #:lower16:numberString
 1772 11dc C0F20000 		movt	r0, #:upper16:numberString
 1773 11e0 FFF7FEFF 		bl	usbPrint
 1774 11e4 40F20003 		movw	r3, #:lower16:eepromConfig
 1775 11e8 C0F20003 		movt	r3, #:upper16:eepromConfig
 1776 11ec D3F80C32 		ldr	r3, [r3, #524]	@ float
 1777 11f0 1846     		mov	r0, r3	@ float
 1778 11f2 FFF7FEFF 		bl	__aeabi_f2d
 1779 11f6 0246     		mov	r2, r0
 1780 11f8 0B46     		mov	r3, r1
 1781 11fa CDE90023 		strd	r2, [sp]
 1782 11fe 40F20000 		movw	r0, #:lower16:numberString
 1783 1202 C0F20000 		movt	r0, #:upper16:numberString
 1784 1206 4FF01001 		mov	r1, #16
 1785 120a 40F20002 		movw	r2, #:lower16:.LC2
 1786 120e C0F20002 		movt	r2, #:upper16:.LC2
 1787 1212 FFF7FEFF 		bl	snprintf
 1788 1216 40F20000 		movw	r0, #:lower16:numberString
 1789 121a C0F20000 		movt	r0, #:upper16:numberString
 1790 121e FFF7FEFF 		bl	usbPrint
 1791 1222 40F20003 		movw	r3, #:lower16:eepromConfig
 1792 1226 C0F20003 		movt	r3, #:upper16:eepromConfig
 1793 122a D3F81032 		ldr	r3, [r3, #528]	@ float
 1794 122e 1846     		mov	r0, r3	@ float
 1795 1230 FFF7FEFF 		bl	__aeabi_f2d
 1796 1234 0246     		mov	r2, r0
 1797 1236 0B46     		mov	r3, r1
 1798 1238 CDE90023 		strd	r2, [sp]
 1799 123c 40F20000 		movw	r0, #:lower16:numberString
 1800 1240 C0F20000 		movt	r0, #:upper16:numberString
 1801 1244 4FF01001 		mov	r1, #16
 1802 1248 40F20002 		movw	r2, #:lower16:.LC2
 1803 124c C0F20002 		movt	r2, #:upper16:.LC2
 1804 1250 FFF7FEFF 		bl	snprintf
 1805 1254 40F20000 		movw	r0, #:lower16:numberString
 1806 1258 C0F20000 		movt	r0, #:upper16:numberString
 1807 125c FFF7FEFF 		bl	usbPrint
 1808 1260 40F20003 		movw	r3, #:lower16:eepromConfig
 1809 1264 C0F20003 		movt	r3, #:upper16:eepromConfig
 1810 1268 D3F81832 		ldr	r3, [r3, #536]	@ float
 1811 126c 1846     		mov	r0, r3	@ float
 1812 126e FFF7FEFF 		bl	__aeabi_f2d
 1813 1272 0246     		mov	r2, r0
 1814 1274 0B46     		mov	r3, r1
 1815 1276 CDE90023 		strd	r2, [sp]
 1816 127a 40F20000 		movw	r0, #:lower16:numberString
 1817 127e C0F20000 		movt	r0, #:upper16:numberString
 1818 1282 4FF01001 		mov	r1, #16
 1819 1286 40F20002 		movw	r2, #:lower16:.LC2
 1820 128a C0F20002 		movt	r2, #:upper16:.LC2
 1821 128e FFF7FEFF 		bl	snprintf
 1822 1292 40F20000 		movw	r0, #:lower16:numberString
 1823 1296 C0F20000 		movt	r0, #:upper16:numberString
 1824 129a FFF7FEFF 		bl	usbPrint
 1825 129e 40F20003 		movw	r3, #:lower16:eepromConfig
 1826 12a2 C0F20003 		movt	r3, #:upper16:eepromConfig
 1827 12a6 93F82832 		ldrb	r3, [r3, #552]	@ zero_extendqisi2
 1828 12aa 002B     		cmp	r3, #0
 1829 12ac 06D0     		beq	.L102
 1830 12ae 40F20000 		movw	r0, #:lower16:.LC3
 1831 12b2 C0F20000 		movt	r0, #:upper16:.LC3
 1832 12b6 FFF7FEFF 		bl	usbPrint
 1833 12ba 05E0     		b	.L103
 1834              	.L102:
 1835 12bc 40F20000 		movw	r0, #:lower16:.LC4
 1836 12c0 C0F20000 		movt	r0, #:upper16:.LC4
 1837 12c4 FFF7FEFF 		bl	usbPrint
 1838              	.L103:
 1839 12c8 40F20000 		movw	r0, #:lower16:.LC14
 1840 12cc C0F20000 		movt	r0, #:upper16:.LC14
 1841 12d0 FFF7FEFF 		bl	usbPrint
 1842 12d4 40F20003 		movw	r3, #:lower16:eepromConfig
 1843 12d8 C0F20003 		movt	r3, #:upper16:eepromConfig
 1844 12dc D3F82C32 		ldr	r3, [r3, #556]	@ float
 1845 12e0 1846     		mov	r0, r3	@ float
 1846 12e2 FFF7FEFF 		bl	__aeabi_f2d
 1847 12e6 0246     		mov	r2, r0
 1848 12e8 0B46     		mov	r3, r1
 1849 12ea CDE90023 		strd	r2, [sp]
 1850 12ee 40F20000 		movw	r0, #:lower16:numberString
 1851 12f2 C0F20000 		movt	r0, #:upper16:numberString
 1852 12f6 4FF01001 		mov	r1, #16
 1853 12fa 40F20002 		movw	r2, #:lower16:.LC2
 1854 12fe C0F20002 		movt	r2, #:upper16:.LC2
 1855 1302 FFF7FEFF 		bl	snprintf
 1856 1306 40F20000 		movw	r0, #:lower16:numberString
 1857 130a C0F20000 		movt	r0, #:upper16:numberString
 1858 130e FFF7FEFF 		bl	usbPrint
 1859 1312 40F20003 		movw	r3, #:lower16:eepromConfig
 1860 1316 C0F20003 		movt	r3, #:upper16:eepromConfig
 1861 131a D3F83032 		ldr	r3, [r3, #560]	@ float
 1862 131e 1846     		mov	r0, r3	@ float
 1863 1320 FFF7FEFF 		bl	__aeabi_f2d
 1864 1324 0246     		mov	r2, r0
 1865 1326 0B46     		mov	r3, r1
 1866 1328 CDE90023 		strd	r2, [sp]
 1867 132c 40F20000 		movw	r0, #:lower16:numberString
 1868 1330 C0F20000 		movt	r0, #:upper16:numberString
 1869 1334 4FF01001 		mov	r1, #16
 1870 1338 40F20002 		movw	r2, #:lower16:.LC2
 1871 133c C0F20002 		movt	r2, #:upper16:.LC2
 1872 1340 FFF7FEFF 		bl	snprintf
 1873 1344 40F20000 		movw	r0, #:lower16:numberString
 1874 1348 C0F20000 		movt	r0, #:upper16:numberString
 1875 134c FFF7FEFF 		bl	usbPrint
 1876 1350 40F20003 		movw	r3, #:lower16:eepromConfig
 1877 1354 C0F20003 		movt	r3, #:upper16:eepromConfig
 1878 1358 D3F83432 		ldr	r3, [r3, #564]	@ float
 1879 135c 1846     		mov	r0, r3	@ float
 1880 135e FFF7FEFF 		bl	__aeabi_f2d
 1881 1362 0246     		mov	r2, r0
 1882 1364 0B46     		mov	r3, r1
 1883 1366 CDE90023 		strd	r2, [sp]
 1884 136a 40F20000 		movw	r0, #:lower16:numberString
 1885 136e C0F20000 		movt	r0, #:upper16:numberString
 1886 1372 4FF01001 		mov	r1, #16
 1887 1376 40F20002 		movw	r2, #:lower16:.LC2
 1888 137a C0F20002 		movt	r2, #:upper16:.LC2
 1889 137e FFF7FEFF 		bl	snprintf
 1890 1382 40F20000 		movw	r0, #:lower16:numberString
 1891 1386 C0F20000 		movt	r0, #:upper16:numberString
 1892 138a FFF7FEFF 		bl	usbPrint
 1893 138e 40F20003 		movw	r3, #:lower16:eepromConfig
 1894 1392 C0F20003 		movt	r3, #:upper16:eepromConfig
 1895 1396 D3F83832 		ldr	r3, [r3, #568]	@ float
 1896 139a 1846     		mov	r0, r3	@ float
 1897 139c FFF7FEFF 		bl	__aeabi_f2d
 1898 13a0 0246     		mov	r2, r0
 1899 13a2 0B46     		mov	r3, r1
 1900 13a4 CDE90023 		strd	r2, [sp]
 1901 13a8 40F20000 		movw	r0, #:lower16:numberString
 1902 13ac C0F20000 		movt	r0, #:upper16:numberString
 1903 13b0 4FF01001 		mov	r1, #16
 1904 13b4 40F20002 		movw	r2, #:lower16:.LC2
 1905 13b8 C0F20002 		movt	r2, #:upper16:.LC2
 1906 13bc FFF7FEFF 		bl	snprintf
 1907 13c0 40F20000 		movw	r0, #:lower16:numberString
 1908 13c4 C0F20000 		movt	r0, #:upper16:numberString
 1909 13c8 FFF7FEFF 		bl	usbPrint
 1910 13cc 40F20003 		movw	r3, #:lower16:eepromConfig
 1911 13d0 C0F20003 		movt	r3, #:upper16:eepromConfig
 1912 13d4 D3F84032 		ldr	r3, [r3, #576]	@ float
 1913 13d8 1846     		mov	r0, r3	@ float
 1914 13da FFF7FEFF 		bl	__aeabi_f2d
 1915 13de 0246     		mov	r2, r0
 1916 13e0 0B46     		mov	r3, r1
 1917 13e2 CDE90023 		strd	r2, [sp]
 1918 13e6 40F20000 		movw	r0, #:lower16:numberString
 1919 13ea C0F20000 		movt	r0, #:upper16:numberString
 1920 13ee 4FF01001 		mov	r1, #16
 1921 13f2 40F20002 		movw	r2, #:lower16:.LC2
 1922 13f6 C0F20002 		movt	r2, #:upper16:.LC2
 1923 13fa FFF7FEFF 		bl	snprintf
 1924 13fe 40F20000 		movw	r0, #:lower16:numberString
 1925 1402 C0F20000 		movt	r0, #:upper16:numberString
 1926 1406 FFF7FEFF 		bl	usbPrint
 1927 140a 40F20003 		movw	r3, #:lower16:eepromConfig
 1928 140e C0F20003 		movt	r3, #:upper16:eepromConfig
 1929 1412 93F85032 		ldrb	r3, [r3, #592]	@ zero_extendqisi2
 1930 1416 002B     		cmp	r3, #0
 1931 1418 06D0     		beq	.L104
 1932 141a 40F20000 		movw	r0, #:lower16:.LC3
 1933 141e C0F20000 		movt	r0, #:upper16:.LC3
 1934 1422 FFF7FEFF 		bl	usbPrint
 1935 1426 05E0     		b	.L105
 1936              	.L104:
 1937 1428 40F20000 		movw	r0, #:lower16:.LC4
 1938 142c C0F20000 		movt	r0, #:upper16:.LC4
 1939 1430 FFF7FEFF 		bl	usbPrint
 1940              	.L105:
 1941 1434 40F20000 		movw	r0, #:lower16:.LC15
 1942 1438 C0F20000 		movt	r0, #:upper16:.LC15
 1943 143c FFF7FEFF 		bl	usbPrint
 1944 1440 40F20003 		movw	r3, #:lower16:eepromConfig
 1945 1444 C0F20003 		movt	r3, #:upper16:eepromConfig
 1946 1448 D3F85432 		ldr	r3, [r3, #596]	@ float
 1947 144c 1846     		mov	r0, r3	@ float
 1948 144e FFF7FEFF 		bl	__aeabi_f2d
 1949 1452 0246     		mov	r2, r0
 1950 1454 0B46     		mov	r3, r1
 1951 1456 CDE90023 		strd	r2, [sp]
 1952 145a 40F20000 		movw	r0, #:lower16:numberString
 1953 145e C0F20000 		movt	r0, #:upper16:numberString
 1954 1462 4FF01001 		mov	r1, #16
 1955 1466 40F20002 		movw	r2, #:lower16:.LC2
 1956 146a C0F20002 		movt	r2, #:upper16:.LC2
 1957 146e FFF7FEFF 		bl	snprintf
 1958 1472 40F20000 		movw	r0, #:lower16:numberString
 1959 1476 C0F20000 		movt	r0, #:upper16:numberString
 1960 147a FFF7FEFF 		bl	usbPrint
 1961 147e 40F20003 		movw	r3, #:lower16:eepromConfig
 1962 1482 C0F20003 		movt	r3, #:upper16:eepromConfig
 1963 1486 D3F85832 		ldr	r3, [r3, #600]	@ float
 1964 148a 1846     		mov	r0, r3	@ float
 1965 148c FFF7FEFF 		bl	__aeabi_f2d
 1966 1490 0246     		mov	r2, r0
 1967 1492 0B46     		mov	r3, r1
 1968 1494 CDE90023 		strd	r2, [sp]
 1969 1498 40F20000 		movw	r0, #:lower16:numberString
 1970 149c C0F20000 		movt	r0, #:upper16:numberString
 1971 14a0 4FF01001 		mov	r1, #16
 1972 14a4 40F20002 		movw	r2, #:lower16:.LC2
 1973 14a8 C0F20002 		movt	r2, #:upper16:.LC2
 1974 14ac FFF7FEFF 		bl	snprintf
 1975 14b0 40F20000 		movw	r0, #:lower16:numberString
 1976 14b4 C0F20000 		movt	r0, #:upper16:numberString
 1977 14b8 FFF7FEFF 		bl	usbPrint
 1978 14bc 40F20003 		movw	r3, #:lower16:eepromConfig
 1979 14c0 C0F20003 		movt	r3, #:upper16:eepromConfig
 1980 14c4 D3F85C32 		ldr	r3, [r3, #604]	@ float
 1981 14c8 1846     		mov	r0, r3	@ float
 1982 14ca FFF7FEFF 		bl	__aeabi_f2d
 1983 14ce 0246     		mov	r2, r0
 1984 14d0 0B46     		mov	r3, r1
 1985 14d2 CDE90023 		strd	r2, [sp]
 1986 14d6 40F20000 		movw	r0, #:lower16:numberString
 1987 14da C0F20000 		movt	r0, #:upper16:numberString
 1988 14de 4FF01001 		mov	r1, #16
 1989 14e2 40F20002 		movw	r2, #:lower16:.LC2
 1990 14e6 C0F20002 		movt	r2, #:upper16:.LC2
 1991 14ea FFF7FEFF 		bl	snprintf
 1992 14ee 40F20000 		movw	r0, #:lower16:numberString
 1993 14f2 C0F20000 		movt	r0, #:upper16:numberString
 1994 14f6 FFF7FEFF 		bl	usbPrint
 1995 14fa 40F20003 		movw	r3, #:lower16:eepromConfig
 1996 14fe C0F20003 		movt	r3, #:upper16:eepromConfig
 1997 1502 D3F86032 		ldr	r3, [r3, #608]	@ float
 1998 1506 1846     		mov	r0, r3	@ float
 1999 1508 FFF7FEFF 		bl	__aeabi_f2d
 2000 150c 0246     		mov	r2, r0
 2001 150e 0B46     		mov	r3, r1
 2002 1510 CDE90023 		strd	r2, [sp]
 2003 1514 40F20000 		movw	r0, #:lower16:numberString
 2004 1518 C0F20000 		movt	r0, #:upper16:numberString
 2005 151c 4FF01001 		mov	r1, #16
 2006 1520 40F20002 		movw	r2, #:lower16:.LC2
 2007 1524 C0F20002 		movt	r2, #:upper16:.LC2
 2008 1528 FFF7FEFF 		bl	snprintf
 2009 152c 40F20000 		movw	r0, #:lower16:numberString
 2010 1530 C0F20000 		movt	r0, #:upper16:numberString
 2011 1534 FFF7FEFF 		bl	usbPrint
 2012 1538 40F20003 		movw	r3, #:lower16:eepromConfig
 2013 153c C0F20003 		movt	r3, #:upper16:eepromConfig
 2014 1540 D3F86832 		ldr	r3, [r3, #616]	@ float
 2015 1544 1846     		mov	r0, r3	@ float
 2016 1546 FFF7FEFF 		bl	__aeabi_f2d
 2017 154a 0246     		mov	r2, r0
 2018 154c 0B46     		mov	r3, r1
 2019 154e CDE90023 		strd	r2, [sp]
 2020 1552 40F20000 		movw	r0, #:lower16:numberString
 2021 1556 C0F20000 		movt	r0, #:upper16:numberString
 2022 155a 4FF01001 		mov	r1, #16
 2023 155e 40F20002 		movw	r2, #:lower16:.LC2
 2024 1562 C0F20002 		movt	r2, #:upper16:.LC2
 2025 1566 FFF7FEFF 		bl	snprintf
 2026 156a 40F20000 		movw	r0, #:lower16:numberString
 2027 156e C0F20000 		movt	r0, #:upper16:numberString
 2028 1572 FFF7FEFF 		bl	usbPrint
 2029 1576 40F20003 		movw	r3, #:lower16:eepromConfig
 2030 157a C0F20003 		movt	r3, #:upper16:eepromConfig
 2031 157e 93F87832 		ldrb	r3, [r3, #632]	@ zero_extendqisi2
 2032 1582 002B     		cmp	r3, #0
 2033 1584 06D0     		beq	.L106
 2034 1586 40F20000 		movw	r0, #:lower16:.LC3
 2035 158a C0F20000 		movt	r0, #:upper16:.LC3
 2036 158e FFF7FEFF 		bl	usbPrint
 2037 1592 05E0     		b	.L107
 2038              	.L106:
 2039 1594 40F20000 		movw	r0, #:lower16:.LC4
 2040 1598 C0F20000 		movt	r0, #:upper16:.LC4
 2041 159c FFF7FEFF 		bl	usbPrint
 2042              	.L107:
 2043 15a0 40F20003 		movw	r3, #:lower16:queryType
 2044 15a4 C0F20003 		movt	r3, #:upper16:queryType
 2045 15a8 4FF07802 		mov	r2, #120
 2046 15ac 1A70     		strb	r2, [r3, #0]
 2047 15ae 40F20003 		movw	r3, #:lower16:validCommand
 2048 15b2 C0F20003 		movt	r3, #:upper16:validCommand
 2049 15b6 4FF00002 		mov	r2, #0
 2050 15ba 1A70     		strb	r2, [r3, #0]
 2051 15bc 01F06ABC 		b	.L17
 2052              	.L61:
 2053 15c0 40F20003 		movw	r3, #:lower16:deltaTime1000Hz
 2054 15c4 C0F20003 		movt	r3, #:upper16:deltaTime1000Hz
 2055 15c8 1B68     		ldr	r3, [r3, #0]
 2056 15ca 40F20000 		movw	r0, #:lower16:numberString
 2057 15ce C0F20000 		movt	r0, #:upper16:numberString
 2058 15d2 4FF01001 		mov	r1, #16
 2059 15d6 40F20002 		movw	r2, #:lower16:.LC16
 2060 15da C0F20002 		movt	r2, #:upper16:.LC16
 2061 15de FFF7FEFF 		bl	snprintf
 2062 15e2 40F20000 		movw	r0, #:lower16:numberString
 2063 15e6 C0F20000 		movt	r0, #:upper16:numberString
 2064 15ea FFF7FEFF 		bl	usbPrint
 2065 15ee 40F20003 		movw	r3, #:lower16:deltaTime500Hz
 2066 15f2 C0F20003 		movt	r3, #:upper16:deltaTime500Hz
 2067 15f6 1B68     		ldr	r3, [r3, #0]
 2068 15f8 40F20000 		movw	r0, #:lower16:numberString
 2069 15fc C0F20000 		movt	r0, #:upper16:numberString
 2070 1600 4FF01001 		mov	r1, #16
 2071 1604 40F20002 		movw	r2, #:lower16:.LC16
 2072 1608 C0F20002 		movt	r2, #:upper16:.LC16
 2073 160c FFF7FEFF 		bl	snprintf
 2074 1610 40F20000 		movw	r0, #:lower16:numberString
 2075 1614 C0F20000 		movt	r0, #:upper16:numberString
 2076 1618 FFF7FEFF 		bl	usbPrint
 2077 161c 40F20003 		movw	r3, #:lower16:deltaTime100Hz
 2078 1620 C0F20003 		movt	r3, #:upper16:deltaTime100Hz
 2079 1624 1B68     		ldr	r3, [r3, #0]
 2080 1626 40F20000 		movw	r0, #:lower16:numberString
 2081 162a C0F20000 		movt	r0, #:upper16:numberString
 2082 162e 4FF01001 		mov	r1, #16
 2083 1632 40F20002 		movw	r2, #:lower16:.LC16
 2084 1636 C0F20002 		movt	r2, #:upper16:.LC16
 2085 163a FFF7FEFF 		bl	snprintf
 2086 163e 40F20000 		movw	r0, #:lower16:numberString
 2087 1642 C0F20000 		movt	r0, #:upper16:numberString
 2088 1646 FFF7FEFF 		bl	usbPrint
 2089 164a 40F20003 		movw	r3, #:lower16:deltaTime50Hz
 2090 164e C0F20003 		movt	r3, #:upper16:deltaTime50Hz
 2091 1652 1B68     		ldr	r3, [r3, #0]
 2092 1654 40F20000 		movw	r0, #:lower16:numberString
 2093 1658 C0F20000 		movt	r0, #:upper16:numberString
 2094 165c 4FF01001 		mov	r1, #16
 2095 1660 40F20002 		movw	r2, #:lower16:.LC16
 2096 1664 C0F20002 		movt	r2, #:upper16:.LC16
 2097 1668 FFF7FEFF 		bl	snprintf
 2098 166c 40F20000 		movw	r0, #:lower16:numberString
 2099 1670 C0F20000 		movt	r0, #:upper16:numberString
 2100 1674 FFF7FEFF 		bl	usbPrint
 2101 1678 40F20003 		movw	r3, #:lower16:deltaTime10Hz
 2102 167c C0F20003 		movt	r3, #:upper16:deltaTime10Hz
 2103 1680 1B68     		ldr	r3, [r3, #0]
 2104 1682 40F20000 		movw	r0, #:lower16:numberString
 2105 1686 C0F20000 		movt	r0, #:upper16:numberString
 2106 168a 4FF01001 		mov	r1, #16
 2107 168e 40F20002 		movw	r2, #:lower16:.LC16
 2108 1692 C0F20002 		movt	r2, #:upper16:.LC16
 2109 1696 FFF7FEFF 		bl	snprintf
 2110 169a 40F20000 		movw	r0, #:lower16:numberString
 2111 169e C0F20000 		movt	r0, #:upper16:numberString
 2112 16a2 FFF7FEFF 		bl	usbPrint
 2113 16a6 40F20003 		movw	r3, #:lower16:deltaTime5Hz
 2114 16aa C0F20003 		movt	r3, #:upper16:deltaTime5Hz
 2115 16ae 1B68     		ldr	r3, [r3, #0]
 2116 16b0 40F20000 		movw	r0, #:lower16:numberString
 2117 16b4 C0F20000 		movt	r0, #:upper16:numberString
 2118 16b8 4FF01001 		mov	r1, #16
 2119 16bc 40F20002 		movw	r2, #:lower16:.LC16
 2120 16c0 C0F20002 		movt	r2, #:upper16:.LC16
 2121 16c4 FFF7FEFF 		bl	snprintf
 2122 16c8 40F20000 		movw	r0, #:lower16:numberString
 2123 16cc C0F20000 		movt	r0, #:upper16:numberString
 2124 16d0 FFF7FEFF 		bl	usbPrint
 2125 16d4 40F20003 		movw	r3, #:lower16:deltaTime1Hz
 2126 16d8 C0F20003 		movt	r3, #:upper16:deltaTime1Hz
 2127 16dc 1B68     		ldr	r3, [r3, #0]
 2128 16de 40F20000 		movw	r0, #:lower16:numberString
 2129 16e2 C0F20000 		movt	r0, #:upper16:numberString
 2130 16e6 4FF01001 		mov	r1, #16
 2131 16ea 40F20002 		movw	r2, #:lower16:.LC17
 2132 16ee C0F20002 		movt	r2, #:upper16:.LC17
 2133 16f2 FFF7FEFF 		bl	snprintf
 2134 16f6 40F20000 		movw	r0, #:lower16:numberString
 2135 16fa C0F20000 		movt	r0, #:upper16:numberString
 2136 16fe FFF7FEFF 		bl	usbPrint
 2137 1702 40F20003 		movw	r3, #:lower16:validCommand
 2138 1706 C0F20003 		movt	r3, #:upper16:validCommand
 2139 170a 4FF00002 		mov	r2, #0
 2140 170e 1A70     		strb	r2, [r3, #0]
 2141 1710 01F0C0BB 		b	.L17
 2142              	.L62:
 2143 1714 40F20003 		movw	r3, #:lower16:executionTime1000Hz
 2144 1718 C0F20003 		movt	r3, #:upper16:executionTime1000Hz
 2145 171c 1B68     		ldr	r3, [r3, #0]
 2146 171e 40F20000 		movw	r0, #:lower16:numberString
 2147 1722 C0F20000 		movt	r0, #:upper16:numberString
 2148 1726 4FF01001 		mov	r1, #16
 2149 172a 40F20002 		movw	r2, #:lower16:.LC16
 2150 172e C0F20002 		movt	r2, #:upper16:.LC16
 2151 1732 FFF7FEFF 		bl	snprintf
 2152 1736 40F20000 		movw	r0, #:lower16:numberString
 2153 173a C0F20000 		movt	r0, #:upper16:numberString
 2154 173e FFF7FEFF 		bl	usbPrint
 2155 1742 40F20003 		movw	r3, #:lower16:executionTime500Hz
 2156 1746 C0F20003 		movt	r3, #:upper16:executionTime500Hz
 2157 174a 1B68     		ldr	r3, [r3, #0]
 2158 174c 40F20000 		movw	r0, #:lower16:numberString
 2159 1750 C0F20000 		movt	r0, #:upper16:numberString
 2160 1754 4FF01001 		mov	r1, #16
 2161 1758 40F20002 		movw	r2, #:lower16:.LC16
 2162 175c C0F20002 		movt	r2, #:upper16:.LC16
 2163 1760 FFF7FEFF 		bl	snprintf
 2164 1764 40F20000 		movw	r0, #:lower16:numberString
 2165 1768 C0F20000 		movt	r0, #:upper16:numberString
 2166 176c FFF7FEFF 		bl	usbPrint
 2167 1770 40F20003 		movw	r3, #:lower16:executionTime100Hz
 2168 1774 C0F20003 		movt	r3, #:upper16:executionTime100Hz
 2169 1778 1B68     		ldr	r3, [r3, #0]
 2170 177a 40F20000 		movw	r0, #:lower16:numberString
 2171 177e C0F20000 		movt	r0, #:upper16:numberString
 2172 1782 4FF01001 		mov	r1, #16
 2173 1786 40F20002 		movw	r2, #:lower16:.LC16
 2174 178a C0F20002 		movt	r2, #:upper16:.LC16
 2175 178e FFF7FEFF 		bl	snprintf
 2176 1792 40F20000 		movw	r0, #:lower16:numberString
 2177 1796 C0F20000 		movt	r0, #:upper16:numberString
 2178 179a FFF7FEFF 		bl	usbPrint
 2179 179e 40F20003 		movw	r3, #:lower16:executionTime50Hz
 2180 17a2 C0F20003 		movt	r3, #:upper16:executionTime50Hz
 2181 17a6 1B68     		ldr	r3, [r3, #0]
 2182 17a8 40F20000 		movw	r0, #:lower16:numberString
 2183 17ac C0F20000 		movt	r0, #:upper16:numberString
 2184 17b0 4FF01001 		mov	r1, #16
 2185 17b4 40F20002 		movw	r2, #:lower16:.LC16
 2186 17b8 C0F20002 		movt	r2, #:upper16:.LC16
 2187 17bc FFF7FEFF 		bl	snprintf
 2188 17c0 40F20000 		movw	r0, #:lower16:numberString
 2189 17c4 C0F20000 		movt	r0, #:upper16:numberString
 2190 17c8 FFF7FEFF 		bl	usbPrint
 2191 17cc 40F20003 		movw	r3, #:lower16:executionTime10Hz
 2192 17d0 C0F20003 		movt	r3, #:upper16:executionTime10Hz
 2193 17d4 1B68     		ldr	r3, [r3, #0]
 2194 17d6 40F20000 		movw	r0, #:lower16:numberString
 2195 17da C0F20000 		movt	r0, #:upper16:numberString
 2196 17de 4FF01001 		mov	r1, #16
 2197 17e2 40F20002 		movw	r2, #:lower16:.LC16
 2198 17e6 C0F20002 		movt	r2, #:upper16:.LC16
 2199 17ea FFF7FEFF 		bl	snprintf
 2200 17ee 40F20000 		movw	r0, #:lower16:numberString
 2201 17f2 C0F20000 		movt	r0, #:upper16:numberString
 2202 17f6 FFF7FEFF 		bl	usbPrint
 2203 17fa 40F20003 		movw	r3, #:lower16:executionTime5Hz
 2204 17fe C0F20003 		movt	r3, #:upper16:executionTime5Hz
 2205 1802 1B68     		ldr	r3, [r3, #0]
 2206 1804 40F20000 		movw	r0, #:lower16:numberString
 2207 1808 C0F20000 		movt	r0, #:upper16:numberString
 2208 180c 4FF01001 		mov	r1, #16
 2209 1810 40F20002 		movw	r2, #:lower16:.LC16
 2210 1814 C0F20002 		movt	r2, #:upper16:.LC16
 2211 1818 FFF7FEFF 		bl	snprintf
 2212 181c 40F20000 		movw	r0, #:lower16:numberString
 2213 1820 C0F20000 		movt	r0, #:upper16:numberString
 2214 1824 FFF7FEFF 		bl	usbPrint
 2215 1828 40F20003 		movw	r3, #:lower16:executionTime1Hz
 2216 182c C0F20003 		movt	r3, #:upper16:executionTime1Hz
 2217 1830 1B68     		ldr	r3, [r3, #0]
 2218 1832 40F20000 		movw	r0, #:lower16:numberString
 2219 1836 C0F20000 		movt	r0, #:upper16:numberString
 2220 183a 4FF01001 		mov	r1, #16
 2221 183e 40F20002 		movw	r2, #:lower16:.LC17
 2222 1842 C0F20002 		movt	r2, #:upper16:.LC17
 2223 1846 FFF7FEFF 		bl	snprintf
 2224 184a 40F20000 		movw	r0, #:lower16:numberString
 2225 184e C0F20000 		movt	r0, #:upper16:numberString
 2226 1852 FFF7FEFF 		bl	usbPrint
 2227 1856 40F20003 		movw	r3, #:lower16:validCommand
 2228 185a C0F20003 		movt	r3, #:upper16:validCommand
 2229 185e 4FF00002 		mov	r2, #0
 2230 1862 1A70     		strb	r2, [r3, #0]
 2231 1864 01F016BB 		b	.L17
 2232              	.L63:
 2233 1868 40F20003 		movw	r3, #:lower16:sensors
 2234 186c C0F20003 		movt	r3, #:upper16:sensors
 2235 1870 1B68     		ldr	r3, [r3, #0]	@ float
 2236 1872 1846     		mov	r0, r3	@ float
 2237 1874 40F20001 		movw	r1, #:lower16:numberString
 2238 1878 C0F20001 		movt	r1, #:upper16:numberString
 2239 187c FFF7FEFF 		bl	ftoa
 2240 1880 40F20000 		movw	r0, #:lower16:numberString
 2241 1884 C0F20000 		movt	r0, #:upper16:numberString
 2242 1888 FFF7FEFF 		bl	usbPrint
 2243 188c 40F20000 		movw	r0, #:lower16:.LC18
 2244 1890 C0F20000 		movt	r0, #:upper16:.LC18
 2245 1894 FFF7FEFF 		bl	usbPrint
 2246 1898 40F20003 		movw	r3, #:lower16:sensors
 2247 189c C0F20003 		movt	r3, #:upper16:sensors
 2248 18a0 5B68     		ldr	r3, [r3, #4]	@ float
 2249 18a2 1846     		mov	r0, r3	@ float
 2250 18a4 40F20001 		movw	r1, #:lower16:numberString
 2251 18a8 C0F20001 		movt	r1, #:upper16:numberString
 2252 18ac FFF7FEFF 		bl	ftoa
 2253 18b0 40F20000 		movw	r0, #:lower16:numberString
 2254 18b4 C0F20000 		movt	r0, #:upper16:numberString
 2255 18b8 FFF7FEFF 		bl	usbPrint
 2256 18bc 40F20000 		movw	r0, #:lower16:.LC18
 2257 18c0 C0F20000 		movt	r0, #:upper16:.LC18
 2258 18c4 FFF7FEFF 		bl	usbPrint
 2259 18c8 40F20003 		movw	r3, #:lower16:sensors
 2260 18cc C0F20003 		movt	r3, #:upper16:sensors
 2261 18d0 9B68     		ldr	r3, [r3, #8]	@ float
 2262 18d2 1846     		mov	r0, r3	@ float
 2263 18d4 40F20001 		movw	r1, #:lower16:numberString
 2264 18d8 C0F20001 		movt	r1, #:upper16:numberString
 2265 18dc FFF7FEFF 		bl	ftoa
 2266 18e0 40F20000 		movw	r0, #:lower16:numberString
 2267 18e4 C0F20000 		movt	r0, #:upper16:numberString
 2268 18e8 FFF7FEFF 		bl	usbPrint
 2269 18ec 40F20000 		movw	r0, #:lower16:.LC0
 2270 18f0 C0F20000 		movt	r0, #:upper16:.LC0
 2271 18f4 FFF7FEFF 		bl	usbPrint
 2272 18f8 40F20003 		movw	r3, #:lower16:validCommand
 2273 18fc C0F20003 		movt	r3, #:upper16:validCommand
 2274 1900 4FF00002 		mov	r2, #0
 2275 1904 1A70     		strb	r2, [r3, #0]
 2276 1906 01F0C5BA 		b	.L17
 2277              	.L64:
 2278 190a 40F20003 		movw	r3, #:lower16:earthAxisAccels
 2279 190e C0F20003 		movt	r3, #:upper16:earthAxisAccels
 2280 1912 1B68     		ldr	r3, [r3, #0]	@ float
 2281 1914 1846     		mov	r0, r3	@ float
 2282 1916 40F20001 		movw	r1, #:lower16:numberString
 2283 191a C0F20001 		movt	r1, #:upper16:numberString
 2284 191e FFF7FEFF 		bl	ftoa
 2285 1922 40F20000 		movw	r0, #:lower16:numberString
 2286 1926 C0F20000 		movt	r0, #:upper16:numberString
 2287 192a FFF7FEFF 		bl	usbPrint
 2288 192e 40F20000 		movw	r0, #:lower16:.LC18
 2289 1932 C0F20000 		movt	r0, #:upper16:.LC18
 2290 1936 FFF7FEFF 		bl	usbPrint
 2291 193a 40F20003 		movw	r3, #:lower16:earthAxisAccels
 2292 193e C0F20003 		movt	r3, #:upper16:earthAxisAccels
 2293 1942 5B68     		ldr	r3, [r3, #4]	@ float
 2294 1944 1846     		mov	r0, r3	@ float
 2295 1946 40F20001 		movw	r1, #:lower16:numberString
 2296 194a C0F20001 		movt	r1, #:upper16:numberString
 2297 194e FFF7FEFF 		bl	ftoa
 2298 1952 40F20000 		movw	r0, #:lower16:numberString
 2299 1956 C0F20000 		movt	r0, #:upper16:numberString
 2300 195a FFF7FEFF 		bl	usbPrint
 2301 195e 40F20000 		movw	r0, #:lower16:.LC18
 2302 1962 C0F20000 		movt	r0, #:upper16:.LC18
 2303 1966 FFF7FEFF 		bl	usbPrint
 2304 196a 40F20003 		movw	r3, #:lower16:earthAxisAccels
 2305 196e C0F20003 		movt	r3, #:upper16:earthAxisAccels
 2306 1972 9B68     		ldr	r3, [r3, #8]	@ float
 2307 1974 1846     		mov	r0, r3	@ float
 2308 1976 40F20001 		movw	r1, #:lower16:numberString
 2309 197a C0F20001 		movt	r1, #:upper16:numberString
 2310 197e FFF7FEFF 		bl	ftoa
 2311 1982 40F20000 		movw	r0, #:lower16:numberString
 2312 1986 C0F20000 		movt	r0, #:upper16:numberString
 2313 198a FFF7FEFF 		bl	usbPrint
 2314 198e 40F20000 		movw	r0, #:lower16:.LC0
 2315 1992 C0F20000 		movt	r0, #:upper16:.LC0
 2316 1996 FFF7FEFF 		bl	usbPrint
 2317 199a 40F20003 		movw	r3, #:lower16:validCommand
 2318 199e C0F20003 		movt	r3, #:upper16:validCommand
 2319 19a2 4FF00002 		mov	r2, #0
 2320 19a6 1A70     		strb	r2, [r3, #0]
 2321 19a8 01F074BA 		b	.L17
 2322              	.L65:
 2323 19ac 40F20003 		movw	r3, #:lower16:sensors
 2324 19b0 C0F20003 		movt	r3, #:upper16:sensors
 2325 19b4 93ED097A 		flds	s14, [r3, #36]
 2326 19b8 DFEDDD7A 		flds	s15, .L139
 2327 19bc 67EE277A 		fmuls	s15, s14, s15
 2328 19c0 9FEDDC7A 		flds	s14, .L139+4
 2329 19c4 C7EE877A 		fdivs	s15, s15, s14
 2330 19c8 17EE900A 		fmrs	r0, s15
 2331 19cc 40F20001 		movw	r1, #:lower16:numberString
 2332 19d0 C0F20001 		movt	r1, #:upper16:numberString
 2333 19d4 FFF7FEFF 		bl	ftoa
 2334 19d8 40F20000 		movw	r0, #:lower16:numberString
 2335 19dc C0F20000 		movt	r0, #:upper16:numberString
 2336 19e0 FFF7FEFF 		bl	usbPrint
 2337 19e4 40F20000 		movw	r0, #:lower16:.LC18
 2338 19e8 C0F20000 		movt	r0, #:upper16:.LC18
 2339 19ec FFF7FEFF 		bl	usbPrint
 2340 19f0 40F20003 		movw	r3, #:lower16:sensors
 2341 19f4 C0F20003 		movt	r3, #:upper16:sensors
 2342 19f8 93ED0A7A 		flds	s14, [r3, #40]
 2343 19fc DFEDCC7A 		flds	s15, .L139
 2344 1a00 67EE277A 		fmuls	s15, s14, s15
 2345 1a04 9FEDCB7A 		flds	s14, .L139+4
 2346 1a08 C7EE877A 		fdivs	s15, s15, s14
 2347 1a0c 17EE900A 		fmrs	r0, s15
 2348 1a10 40F20001 		movw	r1, #:lower16:numberString
 2349 1a14 C0F20001 		movt	r1, #:upper16:numberString
 2350 1a18 FFF7FEFF 		bl	ftoa
 2351 1a1c 40F20000 		movw	r0, #:lower16:numberString
 2352 1a20 C0F20000 		movt	r0, #:upper16:numberString
 2353 1a24 FFF7FEFF 		bl	usbPrint
 2354 1a28 40F20000 		movw	r0, #:lower16:.LC18
 2355 1a2c C0F20000 		movt	r0, #:upper16:.LC18
 2356 1a30 FFF7FEFF 		bl	usbPrint
 2357 1a34 40F20003 		movw	r3, #:lower16:sensors
 2358 1a38 C0F20003 		movt	r3, #:upper16:sensors
 2359 1a3c 93ED0B7A 		flds	s14, [r3, #44]
 2360 1a40 DFEDBB7A 		flds	s15, .L139
 2361 1a44 67EE277A 		fmuls	s15, s14, s15
 2362 1a48 9FEDBA7A 		flds	s14, .L139+4
 2363 1a4c C7EE877A 		fdivs	s15, s15, s14
 2364 1a50 17EE900A 		fmrs	r0, s15
 2365 1a54 40F20001 		movw	r1, #:lower16:numberString
 2366 1a58 C0F20001 		movt	r1, #:upper16:numberString
 2367 1a5c FFF7FEFF 		bl	ftoa
 2368 1a60 40F20000 		movw	r0, #:lower16:numberString
 2369 1a64 C0F20000 		movt	r0, #:upper16:numberString
 2370 1a68 FFF7FEFF 		bl	usbPrint
 2371 1a6c 40F20000 		movw	r0, #:lower16:.LC18
 2372 1a70 C0F20000 		movt	r0, #:upper16:.LC18
 2373 1a74 FFF7FEFF 		bl	usbPrint
 2374 1a78 40F20003 		movw	r3, #:lower16:mpu6000Temperature
 2375 1a7c C0F20003 		movt	r3, #:upper16:mpu6000Temperature
 2376 1a80 1B68     		ldr	r3, [r3, #0]	@ float
 2377 1a82 1846     		mov	r0, r3	@ float
 2378 1a84 40F20001 		movw	r1, #:lower16:numberString
 2379 1a88 C0F20001 		movt	r1, #:upper16:numberString
 2380 1a8c FFF7FEFF 		bl	ftoa
 2381 1a90 40F20000 		movw	r0, #:lower16:numberString
 2382 1a94 C0F20000 		movt	r0, #:upper16:numberString
 2383 1a98 FFF7FEFF 		bl	usbPrint
 2384 1a9c 40F20000 		movw	r0, #:lower16:.LC0
 2385 1aa0 C0F20000 		movt	r0, #:upper16:.LC0
 2386 1aa4 FFF7FEFF 		bl	usbPrint
 2387 1aa8 40F20003 		movw	r3, #:lower16:validCommand
 2388 1aac C0F20003 		movt	r3, #:upper16:validCommand
 2389 1ab0 4FF00002 		mov	r2, #0
 2390 1ab4 1A70     		strb	r2, [r3, #0]
 2391 1ab6 01F0EDB9 		b	.L17
 2392              	.L66:
 2393 1aba 40F20003 		movw	r3, #:lower16:sensors
 2394 1abe C0F20003 		movt	r3, #:upper16:sensors
 2395 1ac2 1B6B     		ldr	r3, [r3, #48]	@ float
 2396 1ac4 1846     		mov	r0, r3	@ float
 2397 1ac6 40F20001 		movw	r1, #:lower16:numberString
 2398 1aca C0F20001 		movt	r1, #:upper16:numberString
 2399 1ace FFF7FEFF 		bl	ftoa
 2400 1ad2 40F20000 		movw	r0, #:lower16:numberString
 2401 1ad6 C0F20000 		movt	r0, #:upper16:numberString
 2402 1ada FFF7FEFF 		bl	usbPrint
 2403 1ade 40F20000 		movw	r0, #:lower16:.LC18
 2404 1ae2 C0F20000 		movt	r0, #:upper16:.LC18
 2405 1ae6 FFF7FEFF 		bl	usbPrint
 2406 1aea 40F20003 		movw	r3, #:lower16:sensors
 2407 1aee C0F20003 		movt	r3, #:upper16:sensors
 2408 1af2 5B6B     		ldr	r3, [r3, #52]	@ float
 2409 1af4 1846     		mov	r0, r3	@ float
 2410 1af6 40F20001 		movw	r1, #:lower16:numberString
 2411 1afa C0F20001 		movt	r1, #:upper16:numberString
 2412 1afe FFF7FEFF 		bl	ftoa
 2413 1b02 40F20000 		movw	r0, #:lower16:numberString
 2414 1b06 C0F20000 		movt	r0, #:upper16:numberString
 2415 1b0a FFF7FEFF 		bl	usbPrint
 2416 1b0e 40F20000 		movw	r0, #:lower16:.LC18
 2417 1b12 C0F20000 		movt	r0, #:upper16:.LC18
 2418 1b16 FFF7FEFF 		bl	usbPrint
 2419 1b1a 40F20003 		movw	r3, #:lower16:sensors
 2420 1b1e C0F20003 		movt	r3, #:upper16:sensors
 2421 1b22 9B6B     		ldr	r3, [r3, #56]	@ float
 2422 1b24 1846     		mov	r0, r3	@ float
 2423 1b26 40F20001 		movw	r1, #:lower16:numberString
 2424 1b2a C0F20001 		movt	r1, #:upper16:numberString
 2425 1b2e FFF7FEFF 		bl	ftoa
 2426 1b32 40F20000 		movw	r0, #:lower16:numberString
 2427 1b36 C0F20000 		movt	r0, #:upper16:numberString
 2428 1b3a FFF7FEFF 		bl	usbPrint
 2429 1b3e 40F20000 		movw	r0, #:lower16:.LC0
 2430 1b42 C0F20000 		movt	r0, #:upper16:.LC0
 2431 1b46 FFF7FEFF 		bl	usbPrint
 2432 1b4a 40F20003 		movw	r3, #:lower16:validCommand
 2433 1b4e C0F20003 		movt	r3, #:upper16:validCommand
 2434 1b52 4FF00002 		mov	r2, #0
 2435 1b56 1A70     		strb	r2, [r3, #0]
 2436 1b58 01F09CB9 		b	.L17
 2437              	.L67:
 2438 1b5c 40F20003 		movw	r3, #:lower16:earthAxisAccels
 2439 1b60 C0F20003 		movt	r3, #:upper16:earthAxisAccels
 2440 1b64 9B68     		ldr	r3, [r3, #8]	@ float
 2441 1b66 1846     		mov	r0, r3	@ float
 2442 1b68 40F20001 		movw	r1, #:lower16:numberString
 2443 1b6c C0F20001 		movt	r1, #:upper16:numberString
 2444 1b70 FFF7FEFF 		bl	ftoa
 2445 1b74 40F20000 		movw	r0, #:lower16:numberString
 2446 1b78 C0F20000 		movt	r0, #:upper16:numberString
 2447 1b7c FFF7FEFF 		bl	usbPrint
 2448 1b80 40F20000 		movw	r0, #:lower16:.LC18
 2449 1b84 C0F20000 		movt	r0, #:upper16:.LC18
 2450 1b88 FFF7FEFF 		bl	usbPrint
 2451 1b8c 40F20003 		movw	r3, #:lower16:sensors
 2452 1b90 C0F20003 		movt	r3, #:upper16:sensors
 2453 1b94 DB6B     		ldr	r3, [r3, #60]	@ float
 2454 1b96 1846     		mov	r0, r3	@ float
 2455 1b98 40F20001 		movw	r1, #:lower16:numberString
 2456 1b9c C0F20001 		movt	r1, #:upper16:numberString
 2457 1ba0 FFF7FEFF 		bl	ftoa
 2458 1ba4 40F20000 		movw	r0, #:lower16:numberString
 2459 1ba8 C0F20000 		movt	r0, #:upper16:numberString
 2460 1bac FFF7FEFF 		bl	usbPrint
 2461 1bb0 40F20000 		movw	r0, #:lower16:.LC18
 2462 1bb4 C0F20000 		movt	r0, #:upper16:.LC18
 2463 1bb8 FFF7FEFF 		bl	usbPrint
 2464 1bbc 40F20003 		movw	r3, #:lower16:hDotEstimate
 2465 1bc0 C0F20003 		movt	r3, #:upper16:hDotEstimate
 2466 1bc4 1B68     		ldr	r3, [r3, #0]	@ float
 2467 1bc6 1846     		mov	r0, r3	@ float
 2468 1bc8 40F20001 		movw	r1, #:lower16:numberString
 2469 1bcc C0F20001 		movt	r1, #:upper16:numberString
 2470 1bd0 FFF7FEFF 		bl	ftoa
 2471 1bd4 40F20000 		movw	r0, #:lower16:numberString
 2472 1bd8 C0F20000 		movt	r0, #:upper16:numberString
 2473 1bdc FFF7FEFF 		bl	usbPrint
 2474 1be0 40F20000 		movw	r0, #:lower16:.LC18
 2475 1be4 C0F20000 		movt	r0, #:upper16:.LC18
 2476 1be8 FFF7FEFF 		bl	usbPrint
 2477 1bec 40F20003 		movw	r3, #:lower16:hEstimate
 2478 1bf0 C0F20003 		movt	r3, #:upper16:hEstimate
 2479 1bf4 1B68     		ldr	r3, [r3, #0]	@ float
 2480 1bf6 1846     		mov	r0, r3	@ float
 2481 1bf8 40F20001 		movw	r1, #:lower16:numberString
 2482 1bfc C0F20001 		movt	r1, #:upper16:numberString
 2483 1c00 FFF7FEFF 		bl	ftoa
 2484 1c04 40F20000 		movw	r0, #:lower16:numberString
 2485 1c08 C0F20000 		movt	r0, #:upper16:numberString
 2486 1c0c FFF7FEFF 		bl	usbPrint
 2487 1c10 40F20000 		movw	r0, #:lower16:.LC0
 2488 1c14 C0F20000 		movt	r0, #:upper16:.LC0
 2489 1c18 FFF7FEFF 		bl	usbPrint
 2490 1c1c 40F20003 		movw	r3, #:lower16:validCommand
 2491 1c20 C0F20003 		movt	r3, #:upper16:validCommand
 2492 1c24 4FF00002 		mov	r2, #0
 2493 1c28 1A70     		strb	r2, [r3, #0]
 2494 1c2a 01F033B9 		b	.L17
 2495              	.L68:
 2496 1c2e 40F20003 		movw	r3, #:lower16:sensors
 2497 1c32 C0F20003 		movt	r3, #:upper16:sensors
 2498 1c36 93ED067A 		flds	s14, [r3, #24]
 2499 1c3a DFED3D7A 		flds	s15, .L139
 2500 1c3e 67EE277A 		fmuls	s15, s14, s15
 2501 1c42 9FED3C7A 		flds	s14, .L139+4
 2502 1c46 C7EE877A 		fdivs	s15, s15, s14
 2503 1c4a 17EE900A 		fmrs	r0, s15
 2504 1c4e FFF7FEFF 		bl	__aeabi_f2d
 2505 1c52 0246     		mov	r2, r0
 2506 1c54 0B46     		mov	r3, r1
 2507 1c56 CDE90023 		strd	r2, [sp]
 2508 1c5a 40F20000 		movw	r0, #:lower16:numberString
 2509 1c5e C0F20000 		movt	r0, #:upper16:numberString
 2510 1c62 4FF01001 		mov	r1, #16
 2511 1c66 40F20002 		movw	r2, #:lower16:.LC19
 2512 1c6a C0F20002 		movt	r2, #:upper16:.LC19
 2513 1c6e FFF7FEFF 		bl	snprintf
 2514 1c72 40F20000 		movw	r0, #:lower16:numberString
 2515 1c76 C0F20000 		movt	r0, #:upper16:numberString
 2516 1c7a FFF7FEFF 		bl	usbPrint
 2517 1c7e 40F20003 		movw	r3, #:lower16:sensors
 2518 1c82 C0F20003 		movt	r3, #:upper16:sensors
 2519 1c86 93ED077A 		flds	s14, [r3, #28]
 2520 1c8a DFED297A 		flds	s15, .L139
 2521 1c8e 67EE277A 		fmuls	s15, s14, s15
 2522 1c92 9FED287A 		flds	s14, .L139+4
 2523 1c96 C7EE877A 		fdivs	s15, s15, s14
 2524 1c9a 17EE900A 		fmrs	r0, s15
 2525 1c9e FFF7FEFF 		bl	__aeabi_f2d
 2526 1ca2 0246     		mov	r2, r0
 2527 1ca4 0B46     		mov	r3, r1
 2528 1ca6 CDE90023 		strd	r2, [sp]
 2529 1caa 40F20000 		movw	r0, #:lower16:numberString
 2530 1cae C0F20000 		movt	r0, #:upper16:numberString
 2531 1cb2 4FF01001 		mov	r1, #16
 2532 1cb6 40F20002 		movw	r2, #:lower16:.LC19
 2533 1cba C0F20002 		movt	r2, #:upper16:.LC19
 2534 1cbe FFF7FEFF 		bl	snprintf
 2535 1cc2 40F20000 		movw	r0, #:lower16:numberString
 2536 1cc6 C0F20000 		movt	r0, #:upper16:numberString
 2537 1cca FFF7FEFF 		bl	usbPrint
 2538 1cce 40F20003 		movw	r3, #:lower16:sensors
 2539 1cd2 C0F20003 		movt	r3, #:upper16:sensors
 2540 1cd6 93ED087A 		flds	s14, [r3, #32]
 2541 1cda DFED157A 		flds	s15, .L139
 2542 1cde 67EE277A 		fmuls	s15, s14, s15
 2543 1ce2 9FED147A 		flds	s14, .L139+4
 2544 1ce6 C7EE877A 		fdivs	s15, s15, s14
 2545 1cea 17EE900A 		fmrs	r0, s15
 2546 1cee FFF7FEFF 		bl	__aeabi_f2d
 2547 1cf2 0246     		mov	r2, r0
 2548 1cf4 0B46     		mov	r3, r1
 2549 1cf6 CDE90023 		strd	r2, [sp]
 2550 1cfa 40F20000 		movw	r0, #:lower16:numberString
 2551 1cfe C0F20000 		movt	r0, #:upper16:numberString
 2552 1d02 4FF01001 		mov	r1, #16
 2553 1d06 40F20002 		movw	r2, #:lower16:.LC20
 2554 1d0a C0F20002 		movt	r2, #:upper16:.LC20
 2555 1d0e FFF7FEFF 		bl	snprintf
 2556 1d12 40F20000 		movw	r0, #:lower16:numberString
 2557 1d16 C0F20000 		movt	r0, #:upper16:numberString
 2558 1d1a FFF7FEFF 		bl	usbPrint
 2559 1d1e 40F20003 		movw	r3, #:lower16:validCommand
 2560 1d22 C0F20003 		movt	r3, #:upper16:validCommand
 2561 1d26 4FF00002 		mov	r2, #0
 2562 1d2a 1A70     		strb	r2, [r3, #0]
 2563 1d2c 01F0B2B8 		b	.L17
 2564              	.L140:
 2565              		.align	2
 2566              	.L139:
 2567 1d30 00003443 		.word	1127481344
 2568 1d34 DB0F4940 		.word	1078530011
 2569              	.L69:
 2570 1d38 40F20003 		movw	r3, #:lower16:sensors
 2571 1d3c C0F20003 		movt	r3, #:upper16:sensors
 2572 1d40 93ED107A 		flds	s14, [r3, #64]
 2573 1d44 5FED067A 		flds	s15, .L139
 2574 1d48 67EE277A 		fmuls	s15, s14, s15
 2575 1d4c 1FED077A 		flds	s14, .L139+4
 2576 1d50 C7EE877A 		fdivs	s15, s15, s14
 2577 1d54 17EE900A 		fmrs	r0, s15
 2578 1d58 FFF7FEFF 		bl	__aeabi_f2d
 2579 1d5c 0246     		mov	r2, r0
 2580 1d5e 0B46     		mov	r3, r1
 2581 1d60 CDE90023 		strd	r2, [sp]
 2582 1d64 40F20000 		movw	r0, #:lower16:numberString
 2583 1d68 C0F20000 		movt	r0, #:upper16:numberString
 2584 1d6c 4FF01001 		mov	r1, #16
 2585 1d70 40F20002 		movw	r2, #:lower16:.LC21
 2586 1d74 C0F20002 		movt	r2, #:upper16:.LC21
 2587 1d78 FFF7FEFF 		bl	snprintf
 2588 1d7c 40F20000 		movw	r0, #:lower16:numberString
 2589 1d80 C0F20000 		movt	r0, #:upper16:numberString
 2590 1d84 FFF7FEFF 		bl	usbPrint
 2591 1d88 40F20003 		movw	r3, #:lower16:sensors
 2592 1d8c C0F20003 		movt	r3, #:upper16:sensors
 2593 1d90 93ED117A 		flds	s14, [r3, #68]
 2594 1d94 5FED1A7A 		flds	s15, .L139
 2595 1d98 67EE277A 		fmuls	s15, s14, s15
 2596 1d9c 1FED1B7A 		flds	s14, .L139+4
 2597 1da0 C7EE877A 		fdivs	s15, s15, s14
 2598 1da4 17EE900A 		fmrs	r0, s15
 2599 1da8 FFF7FEFF 		bl	__aeabi_f2d
 2600 1dac 0246     		mov	r2, r0
 2601 1dae 0B46     		mov	r3, r1
 2602 1db0 CDE90023 		strd	r2, [sp]
 2603 1db4 40F20000 		movw	r0, #:lower16:numberString
 2604 1db8 C0F20000 		movt	r0, #:upper16:numberString
 2605 1dbc 4FF01001 		mov	r1, #16
 2606 1dc0 40F20002 		movw	r2, #:lower16:.LC21
 2607 1dc4 C0F20002 		movt	r2, #:upper16:.LC21
 2608 1dc8 FFF7FEFF 		bl	snprintf
 2609 1dcc 40F20000 		movw	r0, #:lower16:numberString
 2610 1dd0 C0F20000 		movt	r0, #:upper16:numberString
 2611 1dd4 FFF7FEFF 		bl	usbPrint
 2612 1dd8 40F20003 		movw	r3, #:lower16:sensors
 2613 1ddc C0F20003 		movt	r3, #:upper16:sensors
 2614 1de0 9B6C     		ldr	r3, [r3, #72]	@ float
 2615 1de2 1846     		mov	r0, r3	@ float
 2616 1de4 40F20001 		movw	r1, #:lower16:numberString
 2617 1de8 C0F20001 		movt	r1, #:upper16:numberString
 2618 1dec FFF7FEFF 		bl	ftoa
 2619 1df0 40F20000 		movw	r0, #:lower16:numberString
 2620 1df4 C0F20000 		movt	r0, #:upper16:numberString
 2621 1df8 FFF7FEFF 		bl	usbPrint
 2622 1dfc 40F20000 		movw	r0, #:lower16:.LC18
 2623 1e00 C0F20000 		movt	r0, #:upper16:.LC18
 2624 1e04 FFF7FEFF 		bl	usbPrint
 2625 1e08 40F20003 		movw	r3, #:lower16:sensors
 2626 1e0c C0F20003 		movt	r3, #:upper16:sensors
 2627 1e10 DB6C     		ldr	r3, [r3, #76]	@ float
 2628 1e12 1846     		mov	r0, r3	@ float
 2629 1e14 40F20001 		movw	r1, #:lower16:numberString
 2630 1e18 C0F20001 		movt	r1, #:upper16:numberString
 2631 1e1c FFF7FEFF 		bl	ftoa
 2632 1e20 40F20000 		movw	r0, #:lower16:numberString
 2633 1e24 C0F20000 		movt	r0, #:upper16:numberString
 2634 1e28 FFF7FEFF 		bl	usbPrint
 2635 1e2c 40F20000 		movw	r0, #:lower16:.LC18
 2636 1e30 C0F20000 		movt	r0, #:upper16:.LC18
 2637 1e34 FFF7FEFF 		bl	usbPrint
 2638 1e38 40F20003 		movw	r3, #:lower16:sensors
 2639 1e3c C0F20003 		movt	r3, #:upper16:sensors
 2640 1e40 93ED147A 		flds	s14, [r3, #80]
 2641 1e44 5FED467A 		flds	s15, .L139
 2642 1e48 67EE277A 		fmuls	s15, s14, s15
 2643 1e4c 1FED477A 		flds	s14, .L139+4
 2644 1e50 C7EE877A 		fdivs	s15, s15, s14
 2645 1e54 17EE900A 		fmrs	r0, s15
 2646 1e58 40F20001 		movw	r1, #:lower16:numberString
 2647 1e5c C0F20001 		movt	r1, #:upper16:numberString
 2648 1e60 FFF7FEFF 		bl	ftoa
 2649 1e64 40F20000 		movw	r0, #:lower16:numberString
 2650 1e68 C0F20000 		movt	r0, #:upper16:numberString
 2651 1e6c FFF7FEFF 		bl	usbPrint
 2652 1e70 40F20000 		movw	r0, #:lower16:.LC0
 2653 1e74 C0F20000 		movt	r0, #:upper16:.LC0
 2654 1e78 FFF7FEFF 		bl	usbPrint
 2655 1e7c 40F20003 		movw	r3, #:lower16:validCommand
 2656 1e80 C0F20003 		movt	r3, #:upper16:validCommand
 2657 1e84 4FF00002 		mov	r2, #0
 2658 1e88 1A70     		strb	r2, [r3, #0]
 2659 1e8a 01F003B8 		b	.L17
 2660              	.L70:
 2661 1e8e 40F20003 		movw	r3, #:lower16:sensors
 2662 1e92 C0F20003 		movt	r3, #:upper16:sensors
 2663 1e96 93F85530 		ldrb	r3, [r3, #85]	@ zero_extendqisi2
 2664 1e9a 022B     		cmp	r3, #2
 2665 1e9c 06D1     		bne	.L108
 2666 1e9e 40F20000 		movw	r0, #:lower16:.LC22
 2667 1ea2 C0F20000 		movt	r0, #:upper16:.LC22
 2668 1ea6 FFF7FEFF 		bl	usbPrint
 2669 1eaa 32E0     		b	.L109
 2670              	.L108:
 2671 1eac 40F20003 		movw	r3, #:lower16:sensors
 2672 1eb0 C0F20003 		movt	r3, #:upper16:sensors
 2673 1eb4 93F85530 		ldrb	r3, [r3, #85]	@ zero_extendqisi2
 2674 1eb8 032B     		cmp	r3, #3
 2675 1eba 06D1     		bne	.L110
 2676 1ebc 40F20000 		movw	r0, #:lower16:.LC23
 2677 1ec0 C0F20000 		movt	r0, #:upper16:.LC23
 2678 1ec4 FFF7FEFF 		bl	usbPrint
 2679 1ec8 23E0     		b	.L109
 2680              	.L110:
 2681 1eca 40F20003 		movw	r3, #:lower16:sensors
 2682 1ece C0F20003 		movt	r3, #:upper16:sensors
 2683 1ed2 93F85530 		ldrb	r3, [r3, #85]	@ zero_extendqisi2
 2684 1ed6 062B     		cmp	r3, #6
 2685 1ed8 06D1     		bne	.L111
 2686 1eda 40F20000 		movw	r0, #:lower16:.LC24
 2687 1ede C0F20000 		movt	r0, #:upper16:.LC24
 2688 1ee2 FFF7FEFF 		bl	usbPrint
 2689 1ee6 14E0     		b	.L109
 2690              	.L111:
 2691 1ee8 40F20003 		movw	r3, #:lower16:sensors
 2692 1eec C0F20003 		movt	r3, #:upper16:sensors
 2693 1ef0 93F85530 		ldrb	r3, [r3, #85]	@ zero_extendqisi2
 2694 1ef4 072B     		cmp	r3, #7
 2695 1ef6 06D1     		bne	.L112
 2696 1ef8 40F20000 		movw	r0, #:lower16:.LC25
 2697 1efc C0F20000 		movt	r0, #:upper16:.LC25
 2698 1f00 FFF7FEFF 		bl	usbPrint
 2699 1f04 05E0     		b	.L109
 2700              	.L112:
 2701 1f06 40F20000 		movw	r0, #:lower16:.LC26
 2702 1f0a C0F20000 		movt	r0, #:upper16:.LC26
 2703 1f0e FFF7FEFF 		bl	usbPrint
 2704              	.L109:
 2705 1f12 40F20003 		movw	r3, #:lower16:sensors
 2706 1f16 C0F20003 		movt	r3, #:upper16:sensors
 2707 1f1a 93F85430 		ldrb	r3, [r3, #84]	@ zero_extendqisi2
 2708 1f1e 1846     		mov	r0, r3
 2709 1f20 40F20001 		movw	r1, #:lower16:numberString
 2710 1f24 C0F20001 		movt	r1, #:upper16:numberString
 2711 1f28 4FF00A02 		mov	r2, #10
 2712 1f2c FFF7FEFF 		bl	itoa
 2713 1f30 40F20000 		movw	r0, #:lower16:numberString
 2714 1f34 C0F20000 		movt	r0, #:upper16:numberString
 2715 1f38 FFF7FEFF 		bl	usbPrint
 2716 1f3c 40F20000 		movw	r0, #:lower16:.LC18
 2717 1f40 C0F20000 		movt	r0, #:upper16:.LC18
 2718 1f44 FFF7FEFF 		bl	usbPrint
 2719 1f48 40F20003 		movw	r3, #:lower16:sensors
 2720 1f4c C0F20003 		movt	r3, #:upper16:sensors
 2721 1f50 9B6D     		ldr	r3, [r3, #88]
 2722 1f52 1846     		mov	r0, r3
 2723 1f54 40F20001 		movw	r1, #:lower16:numberString
 2724 1f58 C0F20001 		movt	r1, #:upper16:numberString
 2725 1f5c 4FF00A02 		mov	r2, #10
 2726 1f60 FFF7FEFF 		bl	itoa
 2727 1f64 40F20000 		movw	r0, #:lower16:numberString
 2728 1f68 C0F20000 		movt	r0, #:upper16:numberString
 2729 1f6c FFF7FEFF 		bl	usbPrint
 2730 1f70 40F20000 		movw	r0, #:lower16:.LC27
 2731 1f74 C0F20000 		movt	r0, #:upper16:.LC27
 2732 1f78 FFF7FEFF 		bl	usbPrint
 2733 1f7c 40F20003 		movw	r3, #:lower16:sensors
 2734 1f80 C0F20003 		movt	r3, #:upper16:sensors
 2735 1f84 DB6D     		ldr	r3, [r3, #92]	@ float
 2736 1f86 1846     		mov	r0, r3	@ float
 2737 1f88 40F20001 		movw	r1, #:lower16:numberString
 2738 1f8c C0F20001 		movt	r1, #:upper16:numberString
 2739 1f90 FFF7FEFF 		bl	ftoa
 2740 1f94 40F20000 		movw	r0, #:lower16:numberString
 2741 1f98 C0F20000 		movt	r0, #:upper16:numberString
 2742 1f9c FFF7FEFF 		bl	usbPrint
 2743 1fa0 40F20000 		movw	r0, #:lower16:.LC18
 2744 1fa4 C0F20000 		movt	r0, #:upper16:.LC18
 2745 1fa8 FFF7FEFF 		bl	usbPrint
 2746 1fac 40F20003 		movw	r3, #:lower16:sensors
 2747 1fb0 C0F20003 		movt	r3, #:upper16:sensors
 2748 1fb4 1B6E     		ldr	r3, [r3, #96]	@ float
 2749 1fb6 1846     		mov	r0, r3	@ float
 2750 1fb8 40F20001 		movw	r1, #:lower16:numberString
 2751 1fbc C0F20001 		movt	r1, #:upper16:numberString
 2752 1fc0 FFF7FEFF 		bl	ftoa
 2753 1fc4 40F20000 		movw	r0, #:lower16:numberString
 2754 1fc8 C0F20000 		movt	r0, #:upper16:numberString
 2755 1fcc FFF7FEFF 		bl	usbPrint
 2756 1fd0 40F20000 		movw	r0, #:lower16:.LC0
 2757 1fd4 C0F20000 		movt	r0, #:upper16:.LC0
 2758 1fd8 FFF7FEFF 		bl	usbPrint
 2759 1fdc 40F20003 		movw	r3, #:lower16:validCommand
 2760 1fe0 C0F20003 		movt	r3, #:upper16:validCommand
 2761 1fe4 4FF00002 		mov	r2, #0
 2762 1fe8 1A70     		strb	r2, [r3, #0]
 2763 1fea 00F053BF 		b	.L17
 2764              	.L71:
 2765 1fee 40F20003 		movw	r3, #:lower16:queryType
 2766 1ff2 C0F20003 		movt	r3, #:upper16:queryType
 2767 1ff6 4FF07802 		mov	r2, #120
 2768 1ffa 1A70     		strb	r2, [r3, #0]
 2769 1ffc 40F20003 		movw	r3, #:lower16:validCommand
 2770 2000 C0F20003 		movt	r3, #:upper16:validCommand
 2771 2004 4FF00002 		mov	r2, #0
 2772 2008 1A70     		strb	r2, [r3, #0]
 2773 200a 00F043BF 		b	.L17
 2774              	.L72:
 2775 200e 40F20003 		movw	r3, #:lower16:queryType
 2776 2012 C0F20003 		movt	r3, #:upper16:queryType
 2777 2016 4FF07802 		mov	r2, #120
 2778 201a 1A70     		strb	r2, [r3, #0]
 2779 201c 40F20003 		movw	r3, #:lower16:validCommand
 2780 2020 C0F20003 		movt	r3, #:upper16:validCommand
 2781 2024 4FF00002 		mov	r2, #0
 2782 2028 1A70     		strb	r2, [r3, #0]
 2783 202a 00F033BF 		b	.L17
 2784              	.L73:
 2785 202e 40F20003 		movw	r3, #:lower16:queryType
 2786 2032 C0F20003 		movt	r3, #:upper16:queryType
 2787 2036 4FF07802 		mov	r2, #120
 2788 203a 1A70     		strb	r2, [r3, #0]
 2789 203c 40F20003 		movw	r3, #:lower16:validCommand
 2790 2040 C0F20003 		movt	r3, #:upper16:validCommand
 2791 2044 4FF00002 		mov	r2, #0
 2792 2048 1A70     		strb	r2, [r3, #0]
 2793 204a 00F023BF 		b	.L17
 2794              	.L74:
 2795 204e 40F20003 		movw	r3, #:lower16:flightMode
 2796 2052 C0F20003 		movt	r3, #:upper16:flightMode
 2797 2056 1B78     		ldrb	r3, [r3, #0]	@ zero_extendqisi2
 2798 2058 002B     		cmp	r3, #0
 2799 205a 06D1     		bne	.L113
 2800 205c 40F20000 		movw	r0, #:lower16:.LC28
 2801 2060 C0F20000 		movt	r0, #:upper16:.LC28
 2802 2064 FFF7FEFF 		bl	usbPrint
 2803 2068 1AE0     		b	.L114
 2804              	.L113:
 2805 206a 40F20003 		movw	r3, #:lower16:flightMode
 2806 206e C0F20003 		movt	r3, #:upper16:flightMode
 2807 2072 1B78     		ldrb	r3, [r3, #0]	@ zero_extendqisi2
 2808 2074 012B     		cmp	r3, #1
 2809 2076 06D1     		bne	.L115
 2810 2078 40F20000 		movw	r0, #:lower16:.LC29
 2811 207c C0F20000 		movt	r0, #:upper16:.LC29
 2812 2080 FFF7FEFF 		bl	usbPrint
 2813 2084 0CE0     		b	.L114
 2814              	.L115:
 2815 2086 40F20003 		movw	r3, #:lower16:flightMode
 2816 208a C0F20003 		movt	r3, #:upper16:flightMode
 2817 208e 1B78     		ldrb	r3, [r3, #0]	@ zero_extendqisi2
 2818 2090 022B     		cmp	r3, #2
 2819 2092 05D1     		bne	.L114
 2820 2094 40F20000 		movw	r0, #:lower16:.LC30
 2821 2098 C0F20000 		movt	r0, #:upper16:.LC30
 2822 209c FFF7FEFF 		bl	usbPrint
 2823              	.L114:
 2824 20a0 40F20003 		movw	r3, #:lower16:headingHoldEngaged
 2825 20a4 C0F20003 		movt	r3, #:upper16:headingHoldEngaged
 2826 20a8 1B78     		ldrb	r3, [r3, #0]	@ zero_extendqisi2
 2827 20aa 012B     		cmp	r3, #1
 2828 20ac 06D1     		bne	.L116
 2829 20ae 40F20000 		movw	r0, #:lower16:.LC31
 2830 20b2 C0F20000 		movt	r0, #:upper16:.LC31
 2831 20b6 FFF7FEFF 		bl	usbPrint
 2832 20ba 05E0     		b	.L117
 2833              	.L116:
 2834 20bc 40F20000 		movw	r0, #:lower16:.LC32
 2835 20c0 C0F20000 		movt	r0, #:upper16:.LC32
 2836 20c4 FFF7FEFF 		bl	usbPrint
 2837              	.L117:
 2838 20c8 40F20003 		movw	r3, #:lower16:altitudeHoldState
 2839 20cc C0F20003 		movt	r3, #:upper16:altitudeHoldState
 2840 20d0 1B78     		ldrb	r3, [r3, #0]	@ zero_extendqisi2
 2841 20d2 002B     		cmp	r3, #0
 2842 20d4 06D1     		bne	.L118
 2843 20d6 40F20000 		movw	r0, #:lower16:.LC33
 2844 20da C0F20000 		movt	r0, #:upper16:.LC33
 2845 20de FFF7FEFF 		bl	usbPrint
 2846 20e2 1AE0     		b	.L119
 2847              	.L118:
 2848 20e4 40F20003 		movw	r3, #:lower16:altitudeHoldState
 2849 20e8 C0F20003 		movt	r3, #:upper16:altitudeHoldState
 2850 20ec 1B78     		ldrb	r3, [r3, #0]	@ zero_extendqisi2
 2851 20ee 012B     		cmp	r3, #1
 2852 20f0 06D1     		bne	.L120
 2853 20f2 40F20000 		movw	r0, #:lower16:.LC34
 2854 20f6 C0F20000 		movt	r0, #:upper16:.LC34
 2855 20fa FFF7FEFF 		bl	usbPrint
 2856 20fe 0CE0     		b	.L119
 2857              	.L120:
 2858 2100 40F20003 		movw	r3, #:lower16:altitudeHoldState
 2859 2104 C0F20003 		movt	r3, #:upper16:altitudeHoldState
 2860 2108 1B78     		ldrb	r3, [r3, #0]	@ zero_extendqisi2
 2861 210a 022B     		cmp	r3, #2
 2862 210c 05D1     		bne	.L119
 2863 210e 40F20000 		movw	r0, #:lower16:.LC35
 2864 2112 C0F20000 		movt	r0, #:upper16:.LC35
 2865 2116 FFF7FEFF 		bl	usbPrint
 2866              	.L119:
 2867 211a 40F20003 		movw	r3, #:lower16:validCommand
 2868 211e C0F20003 		movt	r3, #:upper16:validCommand
 2869 2122 4FF00002 		mov	r2, #0
 2870 2126 1A70     		strb	r2, [r3, #0]
 2871 2128 00F0B4BE 		b	.L17
 2872              	.L75:
 2873 212c 40F20003 		movw	r3, #:lower16:eepromConfig
 2874 2130 C0F20003 		movt	r3, #:upper16:eepromConfig
 2875 2134 93F87030 		ldrb	r3, [r3, #112]	@ zero_extendqisi2
 2876 2138 032B     		cmp	r3, #3
 2877 213a 57D1     		bne	.L121
 2878 213c 4FF00003 		mov	r3, #0
 2879 2140 8DF80F30 		strb	r3, [sp, #15]
 2880 2144 22E0     		b	.L122
 2881              	.L123:
 2882 2146 9DF80F20 		ldrb	r2, [sp, #15]	@ zero_extendqisi2
 2883 214a 40F20003 		movw	r3, #:lower16:spektrumChannelData
 2884 214e C0F20003 		movt	r3, #:upper16:spektrumChannelData
 2885 2152 53F82230 		ldr	r3, [r3, r2, lsl #2]
 2886 2156 1846     		mov	r0, r3
 2887 2158 40F20001 		movw	r1, #:lower16:numberString
 2888 215c C0F20001 		movt	r1, #:upper16:numberString
 2889 2160 4FF00A02 		mov	r2, #10
 2890 2164 FFF7FEFF 		bl	itoa
 2891 2168 40F20000 		movw	r0, #:lower16:numberString
 2892 216c C0F20000 		movt	r0, #:upper16:numberString
 2893 2170 FFF7FEFF 		bl	usbPrint
 2894 2174 40F20000 		movw	r0, #:lower16:.LC18
 2895 2178 C0F20000 		movt	r0, #:upper16:.LC18
 2896 217c FFF7FEFF 		bl	usbPrint
 2897 2180 9DF80F30 		ldrb	r3, [sp, #15]
 2898 2184 03F10103 		add	r3, r3, #1
 2899 2188 8DF80F30 		strb	r3, [sp, #15]
 2900              	.L122:
 2901 218c 9DF80F20 		ldrb	r2, [sp, #15]	@ zero_extendqisi2
 2902 2190 40F20003 		movw	r3, #:lower16:eepromConfig
 2903 2194 C0F20003 		movt	r3, #:upper16:eepromConfig
 2904 2198 93F87130 		ldrb	r3, [r3, #113]	@ zero_extendqisi2
 2905 219c 03F1FF33 		add	r3, r3, #-1
 2906 21a0 9A42     		cmp	r2, r3
 2907 21a2 D0DB     		blt	.L123
 2908 21a4 40F20003 		movw	r3, #:lower16:eepromConfig
 2909 21a8 C0F20003 		movt	r3, #:upper16:eepromConfig
 2910 21ac 93F87130 		ldrb	r3, [r3, #113]	@ zero_extendqisi2
 2911 21b0 03F1FF32 		add	r2, r3, #-1
 2912 21b4 40F20003 		movw	r3, #:lower16:spektrumChannelData
 2913 21b8 C0F20003 		movt	r3, #:upper16:spektrumChannelData
 2914 21bc 53F82230 		ldr	r3, [r3, r2, lsl #2]
 2915 21c0 1846     		mov	r0, r3
 2916 21c2 40F20001 		movw	r1, #:lower16:numberString
 2917 21c6 C0F20001 		movt	r1, #:upper16:numberString
 2918 21ca 4FF00A02 		mov	r2, #10
 2919 21ce FFF7FEFF 		bl	itoa
 2920 21d2 40F20000 		movw	r0, #:lower16:numberString
 2921 21d6 C0F20000 		movt	r0, #:upper16:numberString
 2922 21da FFF7FEFF 		bl	usbPrint
 2923 21de 40F20000 		movw	r0, #:lower16:.LC0
 2924 21e2 C0F20000 		movt	r0, #:upper16:.LC0
 2925 21e6 FFF7FEFF 		bl	usbPrint
 2926 21ea 43E0     		b	.L124
 2927              	.L121:
 2928 21ec 4FF00003 		mov	r3, #0
 2929 21f0 8DF80F30 		strb	r3, [sp, #15]
 2930 21f4 20E0     		b	.L125
 2931              	.L126:
 2932 21f6 9DF80F30 		ldrb	r3, [sp, #15]	@ zero_extendqisi2
 2933 21fa 1846     		mov	r0, r3
 2934 21fc FFF7FEFF 		bl	rxRead
 2935 2200 0346     		mov	r3, r0
 2936 2202 1846     		mov	r0, r3
 2937 2204 40F20001 		movw	r1, #:lower16:numberString
 2938 2208 C0F20001 		movt	r1, #:upper16:numberString
 2939 220c 4FF00A02 		mov	r2, #10
 2940 2210 FFF7FEFF 		bl	itoa
 2941 2214 40F20000 		movw	r0, #:lower16:numberString
 2942 2218 C0F20000 		movt	r0, #:upper16:numberString
 2943 221c FFF7FEFF 		bl	usbPrint
 2944 2220 40F20000 		movw	r0, #:lower16:.LC18
 2945 2224 C0F20000 		movt	r0, #:upper16:.LC18
 2946 2228 FFF7FEFF 		bl	usbPrint
 2947 222c 9DF80F30 		ldrb	r3, [sp, #15]
 2948 2230 03F10103 		add	r3, r3, #1
 2949 2234 8DF80F30 		strb	r3, [sp, #15]
 2950              	.L125:
 2951 2238 9DF80F30 		ldrb	r3, [sp, #15]	@ zero_extendqisi2
 2952 223c 062B     		cmp	r3, #6
 2953 223e DAD9     		bls	.L126
 2954 2240 4FF00700 		mov	r0, #7
 2955 2244 FFF7FEFF 		bl	rxRead
 2956 2248 0346     		mov	r3, r0
 2957 224a 1846     		mov	r0, r3
 2958 224c 40F20001 		movw	r1, #:lower16:numberString
 2959 2250 C0F20001 		movt	r1, #:upper16:numberString
 2960 2254 4FF00A02 		mov	r2, #10
 2961 2258 FFF7FEFF 		bl	itoa
 2962 225c 40F20000 		movw	r0, #:lower16:numberString
 2963 2260 C0F20000 		movt	r0, #:upper16:numberString
 2964 2264 FFF7FEFF 		bl	usbPrint
 2965 2268 40F20000 		movw	r0, #:lower16:.LC0
 2966 226c C0F20000 		movt	r0, #:upper16:.LC0
 2967 2270 FFF7FEFF 		bl	usbPrint
 2968              	.L124:
 2969 2274 40F20003 		movw	r3, #:lower16:validCommand
 2970 2278 C0F20003 		movt	r3, #:upper16:validCommand
 2971 227c 4FF00002 		mov	r2, #0
 2972 2280 1A70     		strb	r2, [r3, #0]
 2973 2282 00F007BE 		b	.L17
 2974              	.L76:
 2975 2286 4FF00003 		mov	r3, #0
 2976 228a 8DF80F30 		strb	r3, [sp, #15]
 2977 228e 22E0     		b	.L127
 2978              	.L128:
 2979 2290 9DF80F20 		ldrb	r2, [sp, #15]	@ zero_extendqisi2
 2980 2294 40F20003 		movw	r3, #:lower16:rxCommand
 2981 2298 C0F20003 		movt	r3, #:upper16:rxCommand
 2982 229c 4FEA8202 		lsl	r2, r2, #2
 2983 22a0 9B18     		adds	r3, r3, r2
 2984 22a2 1B68     		ldr	r3, [r3, #0]	@ float
 2985 22a4 1846     		mov	r0, r3	@ float
 2986 22a6 40F20001 		movw	r1, #:lower16:numberString
 2987 22aa C0F20001 		movt	r1, #:upper16:numberString
 2988 22ae FFF7FEFF 		bl	ftoa
 2989 22b2 40F20000 		movw	r0, #:lower16:numberString
 2990 22b6 C0F20000 		movt	r0, #:upper16:numberString
 2991 22ba FFF7FEFF 		bl	usbPrint
 2992 22be 40F20000 		movw	r0, #:lower16:.LC18
 2993 22c2 C0F20000 		movt	r0, #:upper16:.LC18
 2994 22c6 FFF7FEFF 		bl	usbPrint
 2995 22ca 9DF80F30 		ldrb	r3, [sp, #15]
 2996 22ce 03F10103 		add	r3, r3, #1
 2997 22d2 8DF80F30 		strb	r3, [sp, #15]
 2998              	.L127:
 2999 22d6 9DF80F30 		ldrb	r3, [sp, #15]	@ zero_extendqisi2
 3000 22da 062B     		cmp	r3, #6
 3001 22dc D8D9     		bls	.L128
 3002 22de 40F20003 		movw	r3, #:lower16:rxCommand
 3003 22e2 C0F20003 		movt	r3, #:upper16:rxCommand
 3004 22e6 DB69     		ldr	r3, [r3, #28]	@ float
 3005 22e8 1846     		mov	r0, r3	@ float
 3006 22ea 40F20001 		movw	r1, #:lower16:numberString
 3007 22ee C0F20001 		movt	r1, #:upper16:numberString
 3008 22f2 FFF7FEFF 		bl	ftoa
 3009 22f6 40F20000 		movw	r0, #:lower16:numberString
 3010 22fa C0F20000 		movt	r0, #:upper16:numberString
 3011 22fe FFF7FEFF 		bl	usbPrint
 3012 2302 40F20000 		movw	r0, #:lower16:.LC0
 3013 2306 C0F20000 		movt	r0, #:upper16:.LC0
 3014 230a FFF7FEFF 		bl	usbPrint
 3015 230e 40F20003 		movw	r3, #:lower16:validCommand
 3016 2312 C0F20003 		movt	r3, #:upper16:validCommand
 3017 2316 4FF00002 		mov	r2, #0
 3018 231a 1A70     		strb	r2, [r3, #0]
 3019 231c 00F0BABD 		b	.L17
 3020              	.L77:
 3021 2320 40F20003 		movw	r3, #:lower16:commandInDetent
 3022 2324 C0F20003 		movt	r3, #:upper16:commandInDetent
 3023 2328 1B78     		ldrb	r3, [r3, #0]	@ zero_extendqisi2
 3024 232a 012B     		cmp	r3, #1
 3025 232c 06D1     		bne	.L129
 3026 232e 40F20000 		movw	r0, #:lower16:.LC36
 3027 2332 C0F20000 		movt	r0, #:upper16:.LC36
 3028 2336 FFF7FEFF 		bl	usbPrint
 3029 233a 05E0     		b	.L130
 3030              	.L129:
 3031 233c 40F20000 		movw	r0, #:lower16:.LC37
 3032 2340 C0F20000 		movt	r0, #:upper16:.LC37
 3033 2344 FFF7FEFF 		bl	usbPrint
 3034              	.L130:
 3035 2348 40F20000 		movw	r0, #:lower16:.LC18
 3036 234c C0F20000 		movt	r0, #:upper16:.LC18
 3037 2350 FFF7FEFF 		bl	usbPrint
 3038 2354 40F20003 		movw	r3, #:lower16:commandInDetent
 3039 2358 C0F20003 		movt	r3, #:upper16:commandInDetent
 3040 235c 5B78     		ldrb	r3, [r3, #1]	@ zero_extendqisi2
 3041 235e 012B     		cmp	r3, #1
 3042 2360 06D1     		bne	.L131
 3043 2362 40F20000 		movw	r0, #:lower16:.LC36
 3044 2366 C0F20000 		movt	r0, #:upper16:.LC36
 3045 236a FFF7FEFF 		bl	usbPrint
 3046 236e 05E0     		b	.L132
 3047              	.L131:
 3048 2370 40F20000 		movw	r0, #:lower16:.LC37
 3049 2374 C0F20000 		movt	r0, #:upper16:.LC37
 3050 2378 FFF7FEFF 		bl	usbPrint
 3051              	.L132:
 3052 237c 40F20000 		movw	r0, #:lower16:.LC18
 3053 2380 C0F20000 		movt	r0, #:upper16:.LC18
 3054 2384 FFF7FEFF 		bl	usbPrint
 3055 2388 40F20003 		movw	r3, #:lower16:commandInDetent
 3056 238c C0F20003 		movt	r3, #:upper16:commandInDetent
 3057 2390 9B78     		ldrb	r3, [r3, #2]	@ zero_extendqisi2
 3058 2392 012B     		cmp	r3, #1
 3059 2394 06D1     		bne	.L133
 3060 2396 40F20000 		movw	r0, #:lower16:.LC36
 3061 239a C0F20000 		movt	r0, #:upper16:.LC36
 3062 239e FFF7FEFF 		bl	usbPrint
 3063 23a2 05E0     		b	.L134
 3064              	.L133:
 3065 23a4 40F20000 		movw	r0, #:lower16:.LC37
 3066 23a8 C0F20000 		movt	r0, #:upper16:.LC37
 3067 23ac FFF7FEFF 		bl	usbPrint
 3068              	.L134:
 3069 23b0 40F20000 		movw	r0, #:lower16:.LC0
 3070 23b4 C0F20000 		movt	r0, #:upper16:.LC0
 3071 23b8 FFF7FEFF 		bl	usbPrint
 3072 23bc 40F20003 		movw	r3, #:lower16:validCommand
 3073 23c0 C0F20003 		movt	r3, #:upper16:validCommand
 3074 23c4 4FF00002 		mov	r2, #0
 3075 23c8 1A70     		strb	r2, [r3, #0]
 3076 23ca 00F063BD 		b	.L17
 3077              	.L78:
 3078 23ce 4FF48063 		mov	r3, #1024
 3079 23d2 C4F20103 		movt	r3, 16385
 3080 23d6 1B6C     		ldr	r3, [r3, #64]
 3081 23d8 1846     		mov	r0, r3
 3082 23da 40F20001 		movw	r1, #:lower16:numberString
 3083 23de C0F20001 		movt	r1, #:upper16:numberString
 3084 23e2 4FF00A02 		mov	r2, #10
 3085 23e6 FFF7FEFF 		bl	itoa
 3086 23ea 40F20000 		movw	r0, #:lower16:numberString
 3087 23ee C0F20000 		movt	r0, #:upper16:numberString
 3088 23f2 FFF7FEFF 		bl	usbPrint
 3089 23f6 40F20000 		movw	r0, #:lower16:.LC18
 3090 23fa C0F20000 		movt	r0, #:upper16:.LC18
 3091 23fe FFF7FEFF 		bl	usbPrint
 3092 2402 4FF48063 		mov	r3, #1024
 3093 2406 C4F20103 		movt	r3, 16385
 3094 240a DB6B     		ldr	r3, [r3, #60]
 3095 240c 1846     		mov	r0, r3
 3096 240e 40F20001 		movw	r1, #:lower16:numberString
 3097 2412 C0F20001 		movt	r1, #:upper16:numberString
 3098 2416 4FF00A02 		mov	r2, #10
 3099 241a FFF7FEFF 		bl	itoa
 3100 241e 40F20000 		movw	r0, #:lower16:numberString
 3101 2422 C0F20000 		movt	r0, #:upper16:numberString
 3102 2426 FFF7FEFF 		bl	usbPrint
 3103 242a 40F20000 		movw	r0, #:lower16:.LC18
 3104 242e C0F20000 		movt	r0, #:upper16:.LC18
 3105 2432 FFF7FEFF 		bl	usbPrint
 3106 2436 4FF48063 		mov	r3, #1024
 3107 243a C4F20103 		movt	r3, 16385
 3108 243e 9B6B     		ldr	r3, [r3, #56]
 3109 2440 1846     		mov	r0, r3
 3110 2442 40F20001 		movw	r1, #:lower16:numberString
 3111 2446 C0F20001 		movt	r1, #:upper16:numberString
 3112 244a 4FF00A02 		mov	r2, #10
 3113 244e FFF7FEFF 		bl	itoa
 3114 2452 40F20000 		movw	r0, #:lower16:numberString
 3115 2456 C0F20000 		movt	r0, #:upper16:numberString
 3116 245a FFF7FEFF 		bl	usbPrint
 3117 245e 40F20000 		movw	r0, #:lower16:.LC18
 3118 2462 C0F20000 		movt	r0, #:upper16:.LC18
 3119 2466 FFF7FEFF 		bl	usbPrint
 3120 246a 4FF48063 		mov	r3, #1024
 3121 246e C4F20103 		movt	r3, 16385
 3122 2472 5B6B     		ldr	r3, [r3, #52]
 3123 2474 1846     		mov	r0, r3
 3124 2476 40F20001 		movw	r1, #:lower16:numberString
 3125 247a C0F20001 		movt	r1, #:upper16:numberString
 3126 247e 4FF00A02 		mov	r2, #10
 3127 2482 FFF7FEFF 		bl	itoa
 3128 2486 40F20000 		movw	r0, #:lower16:numberString
 3129 248a C0F20000 		movt	r0, #:upper16:numberString
 3130 248e FFF7FEFF 		bl	usbPrint
 3131 2492 40F20000 		movw	r0, #:lower16:.LC18
 3132 2496 C0F20000 		movt	r0, #:upper16:.LC18
 3133 249a FFF7FEFF 		bl	usbPrint
 3134 249e 4FF08043 		mov	r3, #1073741824
 3135 24a2 9B6B     		ldr	r3, [r3, #56]
 3136 24a4 1846     		mov	r0, r3
 3137 24a6 40F20001 		movw	r1, #:lower16:numberString
 3138 24aa C0F20001 		movt	r1, #:upper16:numberString
 3139 24ae 4FF00A02 		mov	r2, #10
 3140 24b2 FFF7FEFF 		bl	itoa
 3141 24b6 40F20000 		movw	r0, #:lower16:numberString
 3142 24ba C0F20000 		movt	r0, #:upper16:numberString
 3143 24be FFF7FEFF 		bl	usbPrint
 3144 24c2 40F20000 		movw	r0, #:lower16:.LC18
 3145 24c6 C0F20000 		movt	r0, #:upper16:.LC18
 3146 24ca FFF7FEFF 		bl	usbPrint
 3147 24ce 4FF48063 		mov	r3, #1024
 3148 24d2 C4F20003 		movt	r3, 16384
 3149 24d6 5B6B     		ldr	r3, [r3, #52]
 3150 24d8 1846     		mov	r0, r3
 3151 24da 40F20001 		movw	r1, #:lower16:numberString
 3152 24de C0F20001 		movt	r1, #:upper16:numberString
 3153 24e2 4FF00A02 		mov	r2, #10
 3154 24e6 FFF7FEFF 		bl	itoa
 3155 24ea 40F20000 		movw	r0, #:lower16:numberString
 3156 24ee C0F20000 		movt	r0, #:upper16:numberString
 3157 24f2 FFF7FEFF 		bl	usbPrint
 3158 24f6 40F20000 		movw	r0, #:lower16:.LC18
 3159 24fa C0F20000 		movt	r0, #:upper16:.LC18
 3160 24fe FFF7FEFF 		bl	usbPrint
 3161 2502 4FF48063 		mov	r3, #1024
 3162 2506 C4F20003 		movt	r3, 16384
 3163 250a 9B6B     		ldr	r3, [r3, #56]
 3164 250c 1846     		mov	r0, r3
 3165 250e 40F20001 		movw	r1, #:lower16:numberString
 3166 2512 C0F20001 		movt	r1, #:upper16:numberString
 3167 2516 4FF00A02 		mov	r2, #10
 3168 251a FFF7FEFF 		bl	itoa
 3169 251e 40F20000 		movw	r0, #:lower16:numberString
 3170 2522 C0F20000 		movt	r0, #:upper16:numberString
 3171 2526 FFF7FEFF 		bl	usbPrint
 3172 252a 40F20000 		movw	r0, #:lower16:.LC18
 3173 252e C0F20000 		movt	r0, #:upper16:.LC18
 3174 2532 FFF7FEFF 		bl	usbPrint
 3175 2536 4FF08043 		mov	r3, #1073741824
 3176 253a 5B6B     		ldr	r3, [r3, #52]
 3177 253c 1846     		mov	r0, r3
 3178 253e 40F20001 		movw	r1, #:lower16:numberString
 3179 2542 C0F20001 		movt	r1, #:upper16:numberString
 3180 2546 4FF00A02 		mov	r2, #10
 3181 254a FFF7FEFF 		bl	itoa
 3182 254e 40F20000 		movw	r0, #:lower16:numberString
 3183 2552 C0F20000 		movt	r0, #:upper16:numberString
 3184 2556 FFF7FEFF 		bl	usbPrint
 3185 255a 40F20000 		movw	r0, #:lower16:.LC0
 3186 255e C0F20000 		movt	r0, #:upper16:.LC0
 3187 2562 FFF7FEFF 		bl	usbPrint
 3188 2566 40F20003 		movw	r3, #:lower16:validCommand
 3189 256a C0F20003 		movt	r3, #:upper16:validCommand
 3190 256e 4FF00002 		mov	r2, #0
 3191 2572 1A70     		strb	r2, [r3, #0]
 3192 2574 00F08EBC 		b	.L17
 3193              	.L79:
 3194 2578 4FF44063 		mov	r3, #3072
 3195 257c C4F20003 		movt	r3, 16384
 3196 2580 DB6B     		ldr	r3, [r3, #60]
 3197 2582 1846     		mov	r0, r3
 3198 2584 40F20001 		movw	r1, #:lower16:numberString
 3199 2588 C0F20001 		movt	r1, #:upper16:numberString
 3200 258c 4FF00A02 		mov	r2, #10
 3201 2590 FFF7FEFF 		bl	itoa
 3202 2594 40F20000 		movw	r0, #:lower16:numberString
 3203 2598 C0F20000 		movt	r0, #:upper16:numberString
 3204 259c FFF7FEFF 		bl	usbPrint
 3205 25a0 40F20000 		movw	r0, #:lower16:.LC18
 3206 25a4 C0F20000 		movt	r0, #:upper16:.LC18
 3207 25a8 FFF7FEFF 		bl	usbPrint
 3208 25ac 4FF44063 		mov	r3, #3072
 3209 25b0 C4F20003 		movt	r3, 16384
 3210 25b4 9B6B     		ldr	r3, [r3, #56]
 3211 25b6 1846     		mov	r0, r3
 3212 25b8 40F20001 		movw	r1, #:lower16:numberString
 3213 25bc C0F20001 		movt	r1, #:upper16:numberString
 3214 25c0 4FF00A02 		mov	r2, #10
 3215 25c4 FFF7FEFF 		bl	itoa
 3216 25c8 40F20000 		movw	r0, #:lower16:numberString
 3217 25cc C0F20000 		movt	r0, #:upper16:numberString
 3218 25d0 FFF7FEFF 		bl	usbPrint
 3219 25d4 40F20000 		movw	r0, #:lower16:.LC18
 3220 25d8 C0F20000 		movt	r0, #:upper16:.LC18
 3221 25dc FFF7FEFF 		bl	usbPrint
 3222 25e0 4FF44063 		mov	r3, #3072
 3223 25e4 C4F20003 		movt	r3, 16384
 3224 25e8 5B6B     		ldr	r3, [r3, #52]
 3225 25ea 1846     		mov	r0, r3
 3226 25ec 40F20001 		movw	r1, #:lower16:numberString
 3227 25f0 C0F20001 		movt	r1, #:upper16:numberString
 3228 25f4 4FF00A02 		mov	r2, #10
 3229 25f8 FFF7FEFF 		bl	itoa
 3230 25fc 40F20000 		movw	r0, #:lower16:numberString
 3231 2600 C0F20000 		movt	r0, #:upper16:numberString
 3232 2604 FFF7FEFF 		bl	usbPrint
 3233 2608 40F20000 		movw	r0, #:lower16:.LC0
 3234 260c C0F20000 		movt	r0, #:upper16:.LC0
 3235 2610 FFF7FEFF 		bl	usbPrint
 3236 2614 40F20003 		movw	r3, #:lower16:validCommand
 3237 2618 C0F20003 		movt	r3, #:upper16:validCommand
 3238 261c 4FF00002 		mov	r2, #0
 3239 2620 1A70     		strb	r2, [r3, #0]
 3240 2622 00F037BC 		b	.L17
 3241              	.L80:
 3242 2626 40F20003 		movw	r3, #:lower16:validCommand
 3243 262a C0F20003 		movt	r3, #:upper16:validCommand
 3244 262e 4FF00002 		mov	r2, #0
 3245 2632 1A70     		strb	r2, [r3, #0]
 3246 2634 00F02EBC 		b	.L17
 3247              	.L81:
 3248 2638 FFF7FEFF 		bl	escCalibration
 3249 263c 40F20003 		movw	r3, #:lower16:queryType
 3250 2640 C0F20003 		movt	r3, #:upper16:queryType
 3251 2644 4FF07802 		mov	r2, #120
 3252 2648 1A70     		strb	r2, [r3, #0]
 3253 264a 00F023BC 		b	.L17
 3254              	.L82:
 3255 264e 40F20003 		movw	r3, #:lower16:queryType
 3256 2652 C0F20003 		movt	r3, #:upper16:queryType
 3257 2656 4FF07802 		mov	r2, #120
 3258 265a 1A70     		strb	r2, [r3, #0]
 3259 265c 00F01ABC 		b	.L17
 3260              	.L21:
 3261 2660 FFF7FEFF 		bl	highSpeedTelemDisable
 3262 2664 40F20003 		movw	r3, #:lower16:highSpeedTelem1Enabled
 3263 2668 C0F20003 		movt	r3, #:upper16:highSpeedTelem1Enabled
 3264 266c 4FF00102 		mov	r2, #1
 3265 2670 1A70     		strb	r2, [r3, #0]
 3266 2672 40F20003 		movw	r3, #:lower16:queryType
 3267 2676 C0F20003 		movt	r3, #:upper16:queryType
 3268 267a 4FF07802 		mov	r2, #120
 3269 267e 1A70     		strb	r2, [r3, #0]
 3270 2680 00F008BC 		b	.L17
 3271              	.L22:
 3272 2684 FFF7FEFF 		bl	highSpeedTelemDisable
 3273 2688 40F20003 		movw	r3, #:lower16:highSpeedTelem2Enabled
 3274 268c C0F20003 		movt	r3, #:upper16:highSpeedTelem2Enabled
 3275 2690 4FF00102 		mov	r2, #1
 3276 2694 1A70     		strb	r2, [r3, #0]
 3277 2696 40F20003 		movw	r3, #:lower16:queryType
 3278 269a C0F20003 		movt	r3, #:upper16:queryType
 3279 269e 4FF07802 		mov	r2, #120
 3280 26a2 1A70     		strb	r2, [r3, #0]
 3281 26a4 F6E3     		b	.L17
 3282              	.L23:
 3283 26a6 FFF7FEFF 		bl	highSpeedTelemDisable
 3284 26aa 40F20003 		movw	r3, #:lower16:highSpeedTelem3Enabled
 3285 26ae C0F20003 		movt	r3, #:upper16:highSpeedTelem3Enabled
 3286 26b2 4FF00102 		mov	r2, #1
 3287 26b6 1A70     		strb	r2, [r3, #0]
 3288 26b8 40F20003 		movw	r3, #:lower16:queryType
 3289 26bc C0F20003 		movt	r3, #:upper16:queryType
 3290 26c0 4FF07802 		mov	r2, #120
 3291 26c4 1A70     		strb	r2, [r3, #0]
 3292 26c6 E5E3     		b	.L17
 3293              	.L24:
 3294 26c8 FFF7FEFF 		bl	highSpeedTelemDisable
 3295 26cc 40F20003 		movw	r3, #:lower16:highSpeedTelem4Enabled
 3296 26d0 C0F20003 		movt	r3, #:upper16:highSpeedTelem4Enabled
 3297 26d4 4FF00102 		mov	r2, #1
 3298 26d8 1A70     		strb	r2, [r3, #0]
 3299 26da 40F20003 		movw	r3, #:lower16:queryType
 3300 26de C0F20003 		movt	r3, #:upper16:queryType
 3301 26e2 4FF07802 		mov	r2, #120
 3302 26e6 1A70     		strb	r2, [r3, #0]
 3303 26e8 D4E3     		b	.L17
 3304              	.L25:
 3305 26ea FFF7FEFF 		bl	highSpeedTelemDisable
 3306 26ee 40F20003 		movw	r3, #:lower16:highSpeedTelem5Enabled
 3307 26f2 C0F20003 		movt	r3, #:upper16:highSpeedTelem5Enabled
 3308 26f6 4FF00102 		mov	r2, #1
 3309 26fa 1A70     		strb	r2, [r3, #0]
 3310 26fc 40F20003 		movw	r3, #:lower16:queryType
 3311 2700 C0F20003 		movt	r3, #:upper16:queryType
 3312 2704 4FF07802 		mov	r2, #120
 3313 2708 1A70     		strb	r2, [r3, #0]
 3314 270a C3E3     		b	.L17
 3315              	.L26:
 3316 270c FFF7FEFF 		bl	highSpeedTelemDisable
 3317 2710 40F20003 		movw	r3, #:lower16:highSpeedTelem6Enabled
 3318 2714 C0F20003 		movt	r3, #:upper16:highSpeedTelem6Enabled
 3319 2718 4FF00102 		mov	r2, #1
 3320 271c 1A70     		strb	r2, [r3, #0]
 3321 271e 40F20003 		movw	r3, #:lower16:queryType
 3322 2722 C0F20003 		movt	r3, #:upper16:queryType
 3323 2726 4FF07802 		mov	r2, #120
 3324 272a 1A70     		strb	r2, [r3, #0]
 3325 272c B2E3     		b	.L17
 3326              	.L27:
 3327 272e FFF7FEFF 		bl	highSpeedTelemDisable
 3328 2732 40F20003 		movw	r3, #:lower16:highSpeedTelem7Enabled
 3329 2736 C0F20003 		movt	r3, #:upper16:highSpeedTelem7Enabled
 3330 273a 4FF00102 		mov	r2, #1
 3331 273e 1A70     		strb	r2, [r3, #0]
 3332 2740 40F20003 		movw	r3, #:lower16:queryType
 3333 2744 C0F20003 		movt	r3, #:upper16:queryType
 3334 2748 4FF07802 		mov	r2, #120
 3335 274c 1A70     		strb	r2, [r3, #0]
 3336 274e A1E3     		b	.L17
 3337              	.L28:
 3338 2750 FFF7FEFF 		bl	highSpeedTelemDisable
 3339 2754 40F20003 		movw	r3, #:lower16:highSpeedTelem8Enabled
 3340 2758 C0F20003 		movt	r3, #:upper16:highSpeedTelem8Enabled
 3341 275c 4FF00102 		mov	r2, #1
 3342 2760 1A70     		strb	r2, [r3, #0]
 3343 2762 40F20003 		movw	r3, #:lower16:queryType
 3344 2766 C0F20003 		movt	r3, #:upper16:queryType
 3345 276a 4FF07802 		mov	r2, #120
 3346 276e 1A70     		strb	r2, [r3, #0]
 3347 2770 90E3     		b	.L17
 3348              	.L29:
 3349 2772 FFF7FEFF 		bl	highSpeedTelemDisable
 3350 2776 40F20003 		movw	r3, #:lower16:highSpeedTelem9Enabled
 3351 277a C0F20003 		movt	r3, #:upper16:highSpeedTelem9Enabled
 3352 277e 4FF00102 		mov	r2, #1
 3353 2782 1A70     		strb	r2, [r3, #0]
 3354 2784 40F20003 		movw	r3, #:lower16:queryType
 3355 2788 C0F20003 		movt	r3, #:upper16:queryType
 3356 278c 4FF07802 		mov	r2, #120
 3357 2790 1A70     		strb	r2, [r3, #0]
 3358 2792 7FE3     		b	.L17
 3359              	.L20:
 3360 2794 FFF7FEFF 		bl	highSpeedTelemDisable
 3361 2798 40F20003 		movw	r3, #:lower16:queryType
 3362 279c C0F20003 		movt	r3, #:upper16:queryType
 3363 27a0 4FF07802 		mov	r2, #120
 3364 27a4 1A70     		strb	r2, [r3, #0]
 3365 27a6 75E3     		b	.L17
 3366              	.L31:
 3367 27a8 4FF00000 		mov	r0, #0
 3368 27ac FFF7FEFF 		bl	readUsbPID
 3369 27b0 40F20000 		movw	r0, #:lower16:.LC38
 3370 27b4 C0F20000 		movt	r0, #:upper16:.LC38
 3371 27b8 FFF7FEFF 		bl	usbPrint
 3372 27bc 40F20003 		movw	r3, #:lower16:queryType
 3373 27c0 C0F20003 		movt	r3, #:upper16:queryType
 3374 27c4 4FF06102 		mov	r2, #97
 3375 27c8 1A70     		strb	r2, [r3, #0]
 3376 27ca 40F20003 		movw	r3, #:lower16:validCommand
 3377 27ce C0F20003 		movt	r3, #:upper16:validCommand
 3378 27d2 4FF00002 		mov	r2, #0
 3379 27d6 1A70     		strb	r2, [r3, #0]
 3380 27d8 5CE3     		b	.L17
 3381              	.L32:
 3382 27da 4FF00100 		mov	r0, #1
 3383 27de FFF7FEFF 		bl	readUsbPID
 3384 27e2 40F20000 		movw	r0, #:lower16:.LC39
 3385 27e6 C0F20000 		movt	r0, #:upper16:.LC39
 3386 27ea FFF7FEFF 		bl	usbPrint
 3387 27ee 40F20003 		movw	r3, #:lower16:queryType
 3388 27f2 C0F20003 		movt	r3, #:upper16:queryType
 3389 27f6 4FF06102 		mov	r2, #97
 3390 27fa 1A70     		strb	r2, [r3, #0]
 3391 27fc 40F20003 		movw	r3, #:lower16:validCommand
 3392 2800 C0F20003 		movt	r3, #:upper16:validCommand
 3393 2804 4FF00002 		mov	r2, #0
 3394 2808 1A70     		strb	r2, [r3, #0]
 3395 280a 43E3     		b	.L17
 3396              	.L33:
 3397 280c 4FF00200 		mov	r0, #2
 3398 2810 FFF7FEFF 		bl	readUsbPID
 3399 2814 40F20000 		movw	r0, #:lower16:.LC40
 3400 2818 C0F20000 		movt	r0, #:upper16:.LC40
 3401 281c FFF7FEFF 		bl	usbPrint
 3402 2820 40F20003 		movw	r3, #:lower16:queryType
 3403 2824 C0F20003 		movt	r3, #:upper16:queryType
 3404 2828 4FF06102 		mov	r2, #97
 3405 282c 1A70     		strb	r2, [r3, #0]
 3406 282e 40F20003 		movw	r3, #:lower16:validCommand
 3407 2832 C0F20003 		movt	r3, #:upper16:validCommand
 3408 2836 4FF00002 		mov	r2, #0
 3409 283a 1A70     		strb	r2, [r3, #0]
 3410 283c 2AE3     		b	.L17
 3411              	.L34:
 3412 283e 4FF00300 		mov	r0, #3
 3413 2842 FFF7FEFF 		bl	readUsbPID
 3414 2846 40F20000 		movw	r0, #:lower16:.LC41
 3415 284a C0F20000 		movt	r0, #:upper16:.LC41
 3416 284e FFF7FEFF 		bl	usbPrint
 3417 2852 40F20003 		movw	r3, #:lower16:queryType
 3418 2856 C0F20003 		movt	r3, #:upper16:queryType
 3419 285a 4FF06202 		mov	r2, #98
 3420 285e 1A70     		strb	r2, [r3, #0]
 3421 2860 40F20003 		movw	r3, #:lower16:validCommand
 3422 2864 C0F20003 		movt	r3, #:upper16:validCommand
 3423 2868 4FF00002 		mov	r2, #0
 3424 286c 1A70     		strb	r2, [r3, #0]
 3425 286e 11E3     		b	.L17
 3426              	.L35:
 3427 2870 4FF00400 		mov	r0, #4
 3428 2874 FFF7FEFF 		bl	readUsbPID
 3429 2878 40F20000 		movw	r0, #:lower16:.LC42
 3430 287c C0F20000 		movt	r0, #:upper16:.LC42
 3431 2880 FFF7FEFF 		bl	usbPrint
 3432 2884 40F20003 		movw	r3, #:lower16:queryType
 3433 2888 C0F20003 		movt	r3, #:upper16:queryType
 3434 288c 4FF06202 		mov	r2, #98
 3435 2890 1A70     		strb	r2, [r3, #0]
 3436 2892 40F20003 		movw	r3, #:lower16:validCommand
 3437 2896 C0F20003 		movt	r3, #:upper16:validCommand
 3438 289a 4FF00002 		mov	r2, #0
 3439 289e 1A70     		strb	r2, [r3, #0]
 3440 28a0 F8E2     		b	.L17
 3441              	.L36:
 3442 28a2 4FF00500 		mov	r0, #5
 3443 28a6 FFF7FEFF 		bl	readUsbPID
 3444 28aa 40F20000 		movw	r0, #:lower16:.LC43
 3445 28ae C0F20000 		movt	r0, #:upper16:.LC43
 3446 28b2 FFF7FEFF 		bl	usbPrint
 3447 28b6 40F20003 		movw	r3, #:lower16:queryType
 3448 28ba C0F20003 		movt	r3, #:upper16:queryType
 3449 28be 4FF06202 		mov	r2, #98
 3450 28c2 1A70     		strb	r2, [r3, #0]
 3451 28c4 40F20003 		movw	r3, #:lower16:validCommand
 3452 28c8 C0F20003 		movt	r3, #:upper16:validCommand
 3453 28cc 4FF00002 		mov	r2, #0
 3454 28d0 1A70     		strb	r2, [r3, #0]
 3455 28d2 DFE2     		b	.L17
 3456              	.L37:
 3457 28d4 4FF00600 		mov	r0, #6
 3458 28d8 FFF7FEFF 		bl	readUsbPID
 3459 28dc 40F20000 		movw	r0, #:lower16:.LC44
 3460 28e0 C0F20000 		movt	r0, #:upper16:.LC44
 3461 28e4 FFF7FEFF 		bl	usbPrint
 3462 28e8 40F20003 		movw	r3, #:lower16:queryType
 3463 28ec C0F20003 		movt	r3, #:upper16:queryType
 3464 28f0 4FF06302 		mov	r2, #99
 3465 28f4 1A70     		strb	r2, [r3, #0]
 3466 28f6 40F20003 		movw	r3, #:lower16:validCommand
 3467 28fa C0F20003 		movt	r3, #:upper16:validCommand
 3468 28fe 4FF00002 		mov	r2, #0
 3469 2902 1A70     		strb	r2, [r3, #0]
 3470 2904 C6E2     		b	.L17
 3471              	.L38:
 3472 2906 4FF00700 		mov	r0, #7
 3473 290a FFF7FEFF 		bl	readUsbPID
 3474 290e 40F20000 		movw	r0, #:lower16:.LC45
 3475 2912 C0F20000 		movt	r0, #:upper16:.LC45
 3476 2916 FFF7FEFF 		bl	usbPrint
 3477 291a 40F20003 		movw	r3, #:lower16:queryType
 3478 291e C0F20003 		movt	r3, #:upper16:queryType
 3479 2922 4FF06302 		mov	r2, #99
 3480 2926 1A70     		strb	r2, [r3, #0]
 3481 2928 40F20003 		movw	r3, #:lower16:validCommand
 3482 292c C0F20003 		movt	r3, #:upper16:validCommand
 3483 2930 4FF00002 		mov	r2, #0
 3484 2934 1A70     		strb	r2, [r3, #0]
 3485 2936 ADE2     		b	.L17
 3486              	.L39:
 3487 2938 4FF00800 		mov	r0, #8
 3488 293c FFF7FEFF 		bl	readUsbPID
 3489 2940 40F20000 		movw	r0, #:lower16:.LC46
 3490 2944 C0F20000 		movt	r0, #:upper16:.LC46
 3491 2948 FFF7FEFF 		bl	usbPrint
 3492 294c 40F20003 		movw	r3, #:lower16:queryType
 3493 2950 C0F20003 		movt	r3, #:upper16:queryType
 3494 2954 4FF06302 		mov	r2, #99
 3495 2958 1A70     		strb	r2, [r3, #0]
 3496 295a 40F20003 		movw	r3, #:lower16:validCommand
 3497 295e C0F20003 		movt	r3, #:upper16:validCommand
 3498 2962 4FF00002 		mov	r2, #0
 3499 2966 1A70     		strb	r2, [r3, #0]
 3500 2968 94E2     		b	.L17
 3501              	.L40:
 3502 296a 4FF00900 		mov	r0, #9
 3503 296e FFF7FEFF 		bl	readUsbPID
 3504 2972 40F20000 		movw	r0, #:lower16:.LC47
 3505 2976 C0F20000 		movt	r0, #:upper16:.LC47
 3506 297a FFF7FEFF 		bl	usbPrint
 3507 297e 40F20003 		movw	r3, #:lower16:queryType
 3508 2982 C0F20003 		movt	r3, #:upper16:queryType
 3509 2986 4FF06402 		mov	r2, #100
 3510 298a 1A70     		strb	r2, [r3, #0]
 3511 298c 40F20003 		movw	r3, #:lower16:validCommand
 3512 2990 C0F20003 		movt	r3, #:upper16:validCommand
 3513 2994 4FF00002 		mov	r2, #0
 3514 2998 1A70     		strb	r2, [r3, #0]
 3515 299a 7BE2     		b	.L17
 3516              	.L41:
 3517 299c 4FF00A00 		mov	r0, #10
 3518 29a0 FFF7FEFF 		bl	readUsbPID
 3519 29a4 40F20000 		movw	r0, #:lower16:.LC48
 3520 29a8 C0F20000 		movt	r0, #:upper16:.LC48
 3521 29ac FFF7FEFF 		bl	usbPrint
 3522 29b0 40F20003 		movw	r3, #:lower16:queryType
 3523 29b4 C0F20003 		movt	r3, #:upper16:queryType
 3524 29b8 4FF06402 		mov	r2, #100
 3525 29bc 1A70     		strb	r2, [r3, #0]
 3526 29be 40F20003 		movw	r3, #:lower16:validCommand
 3527 29c2 C0F20003 		movt	r3, #:upper16:validCommand
 3528 29c6 4FF00002 		mov	r2, #0
 3529 29ca 1A70     		strb	r2, [r3, #0]
 3530 29cc 62E2     		b	.L17
 3531              	.L42:
 3532 29ce 4FF00B00 		mov	r0, #11
 3533 29d2 FFF7FEFF 		bl	readUsbPID
 3534 29d6 40F20000 		movw	r0, #:lower16:.LC49
 3535 29da C0F20000 		movt	r0, #:upper16:.LC49
 3536 29de FFF7FEFF 		bl	usbPrint
 3537 29e2 40F20003 		movw	r3, #:lower16:queryType
 3538 29e6 C0F20003 		movt	r3, #:upper16:queryType
 3539 29ea 4FF06402 		mov	r2, #100
 3540 29ee 1A70     		strb	r2, [r3, #0]
 3541 29f0 40F20003 		movw	r3, #:lower16:validCommand
 3542 29f4 C0F20003 		movt	r3, #:upper16:validCommand
 3543 29f8 4FF00002 		mov	r2, #0
 3544 29fc 1A70     		strb	r2, [r3, #0]
 3545 29fe 49E2     		b	.L17
 3546              	.L43:
 3547 2a00 FFF7FEFF 		bl	max7456CLI
 3548 2a04 40F20003 		movw	r3, #:lower16:queryType
 3549 2a08 C0F20003 		movt	r3, #:upper16:queryType
 3550 2a0c 4FF07802 		mov	r2, #120
 3551 2a10 1A70     		strb	r2, [r3, #0]
 3552 2a12 40F20003 		movw	r3, #:lower16:validCommand
 3553 2a16 C0F20003 		movt	r3, #:upper16:validCommand
 3554 2a1a 4FF00002 		mov	r2, #0
 3555 2a1e 1A70     		strb	r2, [r3, #0]
 3556 2a20 38E2     		b	.L17
 3557              	.L44:
 3558 2a22 FFF7FEFF 		bl	mixerCLI
 3559 2a26 40F20003 		movw	r3, #:lower16:queryType
 3560 2a2a C0F20003 		movt	r3, #:upper16:queryType
 3561 2a2e 4FF07802 		mov	r2, #120
 3562 2a32 1A70     		strb	r2, [r3, #0]
 3563 2a34 40F20003 		movw	r3, #:lower16:validCommand
 3564 2a38 C0F20003 		movt	r3, #:upper16:validCommand
 3565 2a3c 4FF00002 		mov	r2, #0
 3566 2a40 1A70     		strb	r2, [r3, #0]
 3567 2a42 27E2     		b	.L17
 3568              	.L45:
 3569 2a44 FFF7FEFF 		bl	receiverCLI
 3570 2a48 40F20003 		movw	r3, #:lower16:queryType
 3571 2a4c C0F20003 		movt	r3, #:upper16:queryType
 3572 2a50 4FF07802 		mov	r2, #120
 3573 2a54 1A70     		strb	r2, [r3, #0]
 3574 2a56 40F20003 		movw	r3, #:lower16:validCommand
 3575 2a5a C0F20003 		movt	r3, #:upper16:validCommand
 3576 2a5e 4FF00002 		mov	r2, #0
 3577 2a62 1A70     		strb	r2, [r3, #0]
 3578 2a64 16E2     		b	.L17
 3579              	.L46:
 3580 2a66 FFF7FEFF 		bl	sensorCLI
 3581 2a6a 40F20003 		movw	r3, #:lower16:queryType
 3582 2a6e C0F20003 		movt	r3, #:upper16:queryType
 3583 2a72 4FF07802 		mov	r2, #120
 3584 2a76 1A70     		strb	r2, [r3, #0]
 3585 2a78 40F20003 		movw	r3, #:lower16:validCommand
 3586 2a7c C0F20003 		movt	r3, #:upper16:validCommand
 3587 2a80 4FF00002 		mov	r2, #0
 3588 2a84 1A70     		strb	r2, [r3, #0]
 3589 2a86 05E2     		b	.L17
 3590              	.L47:
 3591 2a88 FFF7FEFF 		bl	gpsCLI
 3592 2a8c 40F20003 		movw	r3, #:lower16:queryType
 3593 2a90 C0F20003 		movt	r3, #:upper16:queryType
 3594 2a94 4FF07802 		mov	r2, #120
 3595 2a98 1A70     		strb	r2, [r3, #0]
 3596 2a9a 40F20003 		movw	r3, #:lower16:validCommand
 3597 2a9e C0F20003 		movt	r3, #:upper16:validCommand
 3598 2aa2 4FF00002 		mov	r2, #0
 3599 2aa6 1A70     		strb	r2, [r3, #0]
 3600 2aa8 F4E1     		b	.L17
 3601              	.L48:
 3602 2aaa 40F20000 		movw	r0, #:lower16:.LC50
 3603 2aae C0F20000 		movt	r0, #:upper16:.LC50
 3604 2ab2 FFF7FEFF 		bl	usbPrint
 3605 2ab6 4FF06400 		mov	r0, #100
 3606 2aba FFF7FEFF 		bl	delay
 3607 2abe 4FF00100 		mov	r0, #1
 3608 2ac2 FFF7FEFF 		bl	systemReset
 3609 2ac6 E5E1     		b	.L17
 3610              	.L49:
 3611 2ac8 40F20000 		movw	r0, #:lower16:.LC51
 3612 2acc C0F20000 		movt	r0, #:upper16:.LC51
 3613 2ad0 FFF7FEFF 		bl	usbPrint
 3614 2ad4 4FF06400 		mov	r0, #100
 3615 2ad8 FFF7FEFF 		bl	delay
 3616 2adc 4FF00000 		mov	r0, #0
 3617 2ae0 FFF7FEFF 		bl	systemReset
 3618 2ae4 D6E1     		b	.L17
 3619              	.L50:
 3620 2ae6 40F20003 		movw	r3, #:lower16:queryType
 3621 2aea C0F20003 		movt	r3, #:upper16:queryType
 3622 2aee 4FF07802 		mov	r2, #120
 3623 2af2 1A70     		strb	r2, [r3, #0]
 3624 2af4 40F20003 		movw	r3, #:lower16:validCommand
 3625 2af8 C0F20003 		movt	r3, #:upper16:validCommand
 3626 2afc 4FF00002 		mov	r2, #0
 3627 2b00 1A70     		strb	r2, [r3, #0]
 3628 2b02 C7E1     		b	.L17
 3629              	.L51:
 3630 2b04 40F20003 		movw	r3, #:lower16:queryType
 3631 2b08 C0F20003 		movt	r3, #:upper16:queryType
 3632 2b0c 4FF07802 		mov	r2, #120
 3633 2b10 1A70     		strb	r2, [r3, #0]
 3634 2b12 40F20003 		movw	r3, #:lower16:validCommand
 3635 2b16 C0F20003 		movt	r3, #:upper16:validCommand
 3636 2b1a 4FF00002 		mov	r2, #0
 3637 2b1e 1A70     		strb	r2, [r3, #0]
 3638 2b20 B8E1     		b	.L17
 3639              	.L52:
 3640 2b22 40F20000 		movw	r0, #:lower16:.LC52
 3641 2b26 C0F20000 		movt	r0, #:upper16:.LC52
 3642 2b2a FFF7FEFF 		bl	usbPrint
 3643 2b2e 4FF00100 		mov	r0, #1
 3644 2b32 FFF7FEFF 		bl	checkFirstTime
 3645 2b36 40F20000 		movw	r0, #:lower16:.LC53
 3646 2b3a C0F20000 		movt	r0, #:upper16:.LC53
 3647 2b3e FFF7FEFF 		bl	usbPrint
 3648 2b42 4FF06400 		mov	r0, #100
 3649 2b46 FFF7FEFF 		bl	delay
 3650 2b4a 4FF00000 		mov	r0, #0
 3651 2b4e FFF7FEFF 		bl	systemReset
 3652 2b52 9FE1     		b	.L17
 3653              	.L53:
 3654 2b54 40F20000 		movw	r0, #:lower16:.LC54
 3655 2b58 C0F20000 		movt	r0, #:upper16:.LC54
 3656 2b5c FFF7FEFF 		bl	usbPrint
 3657 2b60 FFF7FEFF 		bl	writeEEPROM
 3658 2b64 40F20003 		movw	r3, #:lower16:queryType
 3659 2b68 C0F20003 		movt	r3, #:upper16:queryType
 3660 2b6c 4FF07802 		mov	r2, #120
 3661 2b70 1A70     		strb	r2, [r3, #0]
 3662 2b72 40F20003 		movw	r3, #:lower16:validCommand
 3663 2b76 C0F20003 		movt	r3, #:upper16:validCommand
 3664 2b7a 4FF00002 		mov	r2, #0
 3665 2b7e 1A70     		strb	r2, [r3, #0]
 3666 2b80 88E1     		b	.L17
 3667              	.L54:
 3668 2b82 40F20003 		movw	r3, #:lower16:queryType
 3669 2b86 C0F20003 		movt	r3, #:upper16:queryType
 3670 2b8a 4FF07802 		mov	r2, #120
 3671 2b8e 1A70     		strb	r2, [r3, #0]
 3672 2b90 40F20003 		movw	r3, #:lower16:validCommand
 3673 2b94 C0F20003 		movt	r3, #:upper16:validCommand
 3674 2b98 4FF00002 		mov	r2, #0
 3675 2b9c 1A70     		strb	r2, [r3, #0]
 3676 2b9e 79E1     		b	.L17
 3677              	.L55:
 3678 2ba0 40F20003 		movw	r3, #:lower16:queryType
 3679 2ba4 C0F20003 		movt	r3, #:upper16:queryType
 3680 2ba8 4FF07802 		mov	r2, #120
 3681 2bac 1A70     		strb	r2, [r3, #0]
 3682 2bae 71E1     		b	.L17
 3683              	.L56:
 3684 2bb0 40F20003 		movw	r3, #:lower16:queryType
 3685 2bb4 C0F20003 		movt	r3, #:upper16:queryType
 3686 2bb8 4FF07802 		mov	r2, #120
 3687 2bbc 1A70     		strb	r2, [r3, #0]
 3688 2bbe 69E1     		b	.L17
 3689              	.L30:
 3690 2bc0 40F20003 		movw	r3, #:lower16:cliBusy
 3691 2bc4 C0F20003 		movt	r3, #:upper16:cliBusy
 3692 2bc8 4FF00102 		mov	r2, #1
 3693 2bcc 1A70     		strb	r2, [r3, #0]
 3694 2bce 40F20000 		movw	r0, #:lower16:.LC0
 3695 2bd2 C0F20000 		movt	r0, #:upper16:.LC0
 3696 2bd6 FFF7FEFF 		bl	usbPrint
 3697 2bda 40F20000 		movw	r0, #:lower16:.LC55
 3698 2bde C0F20000 		movt	r0, #:upper16:.LC55
 3699 2be2 FFF7FEFF 		bl	usbPrint
 3700 2be6 40F20000 		movw	r0, #:lower16:.LC56
 3701 2bea C0F20000 		movt	r0, #:upper16:.LC56
 3702 2bee FFF7FEFF 		bl	usbPrint
 3703 2bf2 40F20000 		movw	r0, #:lower16:.LC57
 3704 2bf6 C0F20000 		movt	r0, #:upper16:.LC57
 3705 2bfa FFF7FEFF 		bl	usbPrint
 3706 2bfe 40F20000 		movw	r0, #:lower16:.LC58
 3707 2c02 C0F20000 		movt	r0, #:upper16:.LC58
 3708 2c06 FFF7FEFF 		bl	usbPrint
 3709 2c0a 40F20000 		movw	r0, #:lower16:.LC59
 3710 2c0e C0F20000 		movt	r0, #:upper16:.LC59
 3711 2c12 FFF7FEFF 		bl	usbPrint
 3712 2c16 40F20000 		movw	r0, #:lower16:.LC60
 3713 2c1a C0F20000 		movt	r0, #:upper16:.LC60
 3714 2c1e FFF7FEFF 		bl	usbPrint
 3715 2c22 40F20000 		movw	r0, #:lower16:.LC61
 3716 2c26 C0F20000 		movt	r0, #:upper16:.LC61
 3717 2c2a FFF7FEFF 		bl	usbPrint
 3718 2c2e 40F20000 		movw	r0, #:lower16:.LC62
 3719 2c32 C0F20000 		movt	r0, #:upper16:.LC62
 3720 2c36 FFF7FEFF 		bl	usbPrint
 3721 2c3a 40F20000 		movw	r0, #:lower16:.LC63
 3722 2c3e C0F20000 		movt	r0, #:upper16:.LC63
 3723 2c42 FFF7FEFF 		bl	usbPrint
 3724 2c46 40F20000 		movw	r0, #:lower16:.LC64
 3725 2c4a C0F20000 		movt	r0, #:upper16:.LC64
 3726 2c4e FFF7FEFF 		bl	usbPrint
 3727 2c52 40F20000 		movw	r0, #:lower16:.LC65
 3728 2c56 C0F20000 		movt	r0, #:upper16:.LC65
 3729 2c5a FFF7FEFF 		bl	usbPrint
 3730 2c5e 40F20000 		movw	r0, #:lower16:.LC66
 3731 2c62 C0F20000 		movt	r0, #:upper16:.LC66
 3732 2c66 FFF7FEFF 		bl	usbPrint
 3733 2c6a 40F20000 		movw	r0, #:lower16:.LC0
 3734 2c6e C0F20000 		movt	r0, #:upper16:.LC0
 3735 2c72 FFF7FEFF 		bl	usbPrint
 3736 2c76 40F20000 		movw	r0, #:lower16:.LC67
 3737 2c7a C0F20000 		movt	r0, #:upper16:.LC67
 3738 2c7e FFF7FEFF 		bl	usbPrint
 3739 2c82 00BF     		nop
 3740              	.L135:
 3741 2c84 FFF7FEFF 		bl	usbAvailable
 3742 2c88 0346     		mov	r3, r0
 3743 2c8a 002B     		cmp	r3, #0
 3744 2c8c FAD0     		beq	.L135
 3745 2c8e FFF7FEFF 		bl	usbRead
 3746 2c92 0346     		mov	r3, r0
 3747 2c94 DAB2     		uxtb	r2, r3
 3748 2c96 40F20003 		movw	r3, #:lower16:queryType
 3749 2c9a C0F20003 		movt	r3, #:upper16:queryType
 3750 2c9e 1A70     		strb	r2, [r3, #0]
 3751 2ca0 40F20003 		movw	r3, #:lower16:queryType
 3752 2ca4 C0F20003 		movt	r3, #:upper16:queryType
 3753 2ca8 1B78     		ldrb	r3, [r3, #0]
 3754 2caa DBB2     		uxtb	r3, r3
 3755 2cac 202B     		cmp	r3, #32
 3756 2cae 0ED0     		beq	.L136
 3757 2cb0 40F20003 		movw	r3, #:lower16:validCommand
 3758 2cb4 C0F20003 		movt	r3, #:upper16:validCommand
 3759 2cb8 4FF00102 		mov	r2, #1
 3760 2cbc 1A70     		strb	r2, [r3, #0]
 3761 2cbe 40F20003 		movw	r3, #:lower16:cliBusy
 3762 2cc2 C0F20003 		movt	r3, #:upper16:cliBusy
 3763 2cc6 4FF00002 		mov	r2, #0
 3764 2cca 1A70     		strb	r2, [r3, #0]
 3765 2ccc E2E0     		b	.L17
 3766              	.L136:
 3767 2cce 40F20000 		movw	r0, #:lower16:.LC0
 3768 2cd2 C0F20000 		movt	r0, #:upper16:.LC0
 3769 2cd6 FFF7FEFF 		bl	usbPrint
 3770 2cda 40F20000 		movw	r0, #:lower16:.LC68
 3771 2cde C0F20000 		movt	r0, #:upper16:.LC68
 3772 2ce2 FFF7FEFF 		bl	usbPrint
 3773 2ce6 40F20000 		movw	r0, #:lower16:.LC69
 3774 2cea C0F20000 		movt	r0, #:upper16:.LC69
 3775 2cee FFF7FEFF 		bl	usbPrint
 3776 2cf2 40F20000 		movw	r0, #:lower16:.LC70
 3777 2cf6 C0F20000 		movt	r0, #:upper16:.LC70
 3778 2cfa FFF7FEFF 		bl	usbPrint
 3779 2cfe 40F20000 		movw	r0, #:lower16:.LC71
 3780 2d02 C0F20000 		movt	r0, #:upper16:.LC71
 3781 2d06 FFF7FEFF 		bl	usbPrint
 3782 2d0a 40F20000 		movw	r0, #:lower16:.LC72
 3783 2d0e C0F20000 		movt	r0, #:upper16:.LC72
 3784 2d12 FFF7FEFF 		bl	usbPrint
 3785 2d16 40F20000 		movw	r0, #:lower16:.LC73
 3786 2d1a C0F20000 		movt	r0, #:upper16:.LC73
 3787 2d1e FFF7FEFF 		bl	usbPrint
 3788 2d22 40F20000 		movw	r0, #:lower16:.LC74
 3789 2d26 C0F20000 		movt	r0, #:upper16:.LC74
 3790 2d2a FFF7FEFF 		bl	usbPrint
 3791 2d2e 40F20000 		movw	r0, #:lower16:.LC75
 3792 2d32 C0F20000 		movt	r0, #:upper16:.LC75
 3793 2d36 FFF7FEFF 		bl	usbPrint
 3794 2d3a 40F20000 		movw	r0, #:lower16:.LC76
 3795 2d3e C0F20000 		movt	r0, #:upper16:.LC76
 3796 2d42 FFF7FEFF 		bl	usbPrint
 3797 2d46 40F20000 		movw	r0, #:lower16:.LC77
 3798 2d4a C0F20000 		movt	r0, #:upper16:.LC77
 3799 2d4e FFF7FEFF 		bl	usbPrint
 3800 2d52 40F20000 		movw	r0, #:lower16:.LC78
 3801 2d56 C0F20000 		movt	r0, #:upper16:.LC78
 3802 2d5a FFF7FEFF 		bl	usbPrint
 3803 2d5e 40F20000 		movw	r0, #:lower16:.LC79
 3804 2d62 C0F20000 		movt	r0, #:upper16:.LC79
 3805 2d66 FFF7FEFF 		bl	usbPrint
 3806 2d6a 40F20000 		movw	r0, #:lower16:.LC0
 3807 2d6e C0F20000 		movt	r0, #:upper16:.LC0
 3808 2d72 FFF7FEFF 		bl	usbPrint
 3809 2d76 40F20000 		movw	r0, #:lower16:.LC67
 3810 2d7a C0F20000 		movt	r0, #:upper16:.LC67
 3811 2d7e FFF7FEFF 		bl	usbPrint
 3812 2d82 00BF     		nop
 3813              	.L137:
 3814 2d84 FFF7FEFF 		bl	usbAvailable
 3815 2d88 0346     		mov	r3, r0
 3816 2d8a 002B     		cmp	r3, #0
 3817 2d8c FAD0     		beq	.L137
 3818 2d8e FFF7FEFF 		bl	usbRead
 3819 2d92 0346     		mov	r3, r0
 3820 2d94 DAB2     		uxtb	r2, r3
 3821 2d96 40F20003 		movw	r3, #:lower16:queryType
 3822 2d9a C0F20003 		movt	r3, #:upper16:queryType
 3823 2d9e 1A70     		strb	r2, [r3, #0]
 3824 2da0 40F20003 		movw	r3, #:lower16:queryType
 3825 2da4 C0F20003 		movt	r3, #:upper16:queryType
 3826 2da8 1B78     		ldrb	r3, [r3, #0]
 3827 2daa DBB2     		uxtb	r3, r3
 3828 2dac 202B     		cmp	r3, #32
 3829 2dae 0ED0     		beq	.L138
 3830 2db0 40F20003 		movw	r3, #:lower16:validCommand
 3831 2db4 C0F20003 		movt	r3, #:upper16:validCommand
 3832 2db8 4FF00102 		mov	r2, #1
 3833 2dbc 1A70     		strb	r2, [r3, #0]
 3834 2dbe 40F20003 		movw	r3, #:lower16:cliBusy
 3835 2dc2 C0F20003 		movt	r3, #:upper16:cliBusy
 3836 2dc6 4FF00002 		mov	r2, #0
 3837 2dca 1A70     		strb	r2, [r3, #0]
 3838 2dcc 62E0     		b	.L17
 3839              	.L138:
 3840 2dce 40F20000 		movw	r0, #:lower16:.LC0
 3841 2dd2 C0F20000 		movt	r0, #:upper16:.LC0
 3842 2dd6 FFF7FEFF 		bl	usbPrint
 3843 2dda 40F20000 		movw	r0, #:lower16:.LC80
 3844 2dde C0F20000 		movt	r0, #:upper16:.LC80
 3845 2de2 FFF7FEFF 		bl	usbPrint
 3846 2de6 40F20000 		movw	r0, #:lower16:.LC81
 3847 2dea C0F20000 		movt	r0, #:upper16:.LC81
 3848 2dee FFF7FEFF 		bl	usbPrint
 3849 2df2 40F20000 		movw	r0, #:lower16:.LC82
 3850 2df6 C0F20000 		movt	r0, #:upper16:.LC82
 3851 2dfa FFF7FEFF 		bl	usbPrint
 3852 2dfe 40F20000 		movw	r0, #:lower16:.LC83
 3853 2e02 C0F20000 		movt	r0, #:upper16:.LC83
 3854 2e06 FFF7FEFF 		bl	usbPrint
 3855 2e0a 40F20000 		movw	r0, #:lower16:.LC84
 3856 2e0e C0F20000 		movt	r0, #:upper16:.LC84
 3857 2e12 FFF7FEFF 		bl	usbPrint
 3858 2e16 40F20000 		movw	r0, #:lower16:.LC85
 3859 2e1a C0F20000 		movt	r0, #:upper16:.LC85
 3860 2e1e FFF7FEFF 		bl	usbPrint
 3861 2e22 40F20000 		movw	r0, #:lower16:.LC86
 3862 2e26 C0F20000 		movt	r0, #:upper16:.LC86
 3863 2e2a FFF7FEFF 		bl	usbPrint
 3864 2e2e 40F20000 		movw	r0, #:lower16:.LC87
 3865 2e32 C0F20000 		movt	r0, #:upper16:.LC87
 3866 2e36 FFF7FEFF 		bl	usbPrint
 3867 2e3a 40F20000 		movw	r0, #:lower16:.LC88
 3868 2e3e C0F20000 		movt	r0, #:upper16:.LC88
 3869 2e42 FFF7FEFF 		bl	usbPrint
 3870 2e46 40F20000 		movw	r0, #:lower16:.LC89
 3871 2e4a C0F20000 		movt	r0, #:upper16:.LC89
 3872 2e4e FFF7FEFF 		bl	usbPrint
 3873 2e52 40F20000 		movw	r0, #:lower16:.LC90
 3874 2e56 C0F20000 		movt	r0, #:upper16:.LC90
 3875 2e5a FFF7FEFF 		bl	usbPrint
 3876 2e5e 40F20000 		movw	r0, #:lower16:.LC91
 3877 2e62 C0F20000 		movt	r0, #:upper16:.LC91
 3878 2e66 FFF7FEFF 		bl	usbPrint
 3879 2e6a 40F20000 		movw	r0, #:lower16:.LC0
 3880 2e6e C0F20000 		movt	r0, #:upper16:.LC0
 3881 2e72 FFF7FEFF 		bl	usbPrint
 3882 2e76 40F20003 		movw	r3, #:lower16:queryType
 3883 2e7a C0F20003 		movt	r3, #:upper16:queryType
 3884 2e7e 4FF07802 		mov	r2, #120
 3885 2e82 1A70     		strb	r2, [r3, #0]
 3886 2e84 40F20003 		movw	r3, #:lower16:cliBusy
 3887 2e88 C0F20003 		movt	r3, #:upper16:cliBusy
 3888 2e8c 4FF00002 		mov	r2, #0
 3889 2e90 1A70     		strb	r2, [r3, #0]
 3890 2e92 00BF     		nop
 3891              	.L17:
 3892 2e94 05B0     		add	sp, sp, #20
 3893 2e96 00BD     		pop	{pc}
 3895              		.ident	"GCC: (Sourcery CodeBench Lite 2012.03-56) 4.6.3"