   1              		.syntax unified
   2              		.cpu cortex-m4
   3              		.eabi_attribute 27, 3
   4              		.fpu fpv4-sp-d16
   5              		.eabi_attribute 20, 1
   6              		.eabi_attribute 21, 1
   7              		.eabi_attribute 23, 3
   8              		.eabi_attribute 24, 1
   9              		.eabi_attribute 25, 1
  10              		.eabi_attribute 26, 1
  11              		.eabi_attribute 30, 6
  12              		.eabi_attribute 34, 1
  13              		.eabi_attribute 18, 4
  14              		.thumb
  15              		.file	"mixer.c"
  16              		.comm	mtk19ProcessDataState,1,1
  17              		.comm	nmeaProcessDataState,1,1
  18              		.comm	ubloxProcessDataState,1,1
  19              		.comm	numberMotor,1,1
  20              		.global	motor
  21              		.data
  22              		.align	2
  25              	motor:
  26 0000 0000FA44 		.word	1157234688
  27 0004 0000FA44 		.word	1157234688
  28 0008 0000FA44 		.word	1157234688
  29 000c 0000FA44 		.word	1157234688
  30 0010 0000FA44 		.word	1157234688
  31 0014 0000FA44 		.word	1157234688
  32 0018 0000FA44 		.word	1157234688
  33 001c 0000FA44 		.word	1157234688
  34              		.global	servo
  35              		.align	2
  38              	servo:
  39 0020 00803B45 		.word	1161527296
  40 0024 00803B45 		.word	1161527296
  41 0028 00803B45 		.word	1161527296
  42              		.text
  43              		.align	2
  44              		.global	initMixer
  45              		.thumb
  46              		.thumb_func
  48              	initMixer:
  49              		@ args = 0, pretend = 0, frame = 0
  50              		@ frame_needed = 0, uses_anonymous_args = 0
  51              		@ link register save eliminated.
  52 0000 40F20003 		movw	r3, #:lower16:eepromConfig
  53 0004 C0F20003 		movt	r3, #:upper16:eepromConfig
  54 0008 93F88030 		ldrb	r3, [r3, #128]	@ zero_extendqisi2
  55 000c 03F1FF33 		add	r3, r3, #-1
  56 0010 142B     		cmp	r3, #20
  57 0012 71D8     		bhi	.L1
  58 0014 01A2     		adr	r2, .L11
  59 0016 52F823F0 		ldr	pc, [r2, r3, lsl #2]
  60 001a 00BF     		.align	2
  61              	.L11:
  62 001c 71000000 		.word	.L3+1
  63 0020 81000000 		.word	.L4+1
  64 0024 91000000 		.word	.L5+1
  65 0028 A1000000 		.word	.L6+1
  66 002c B1000000 		.word	.L7+1
  67 0030 B1000000 		.word	.L7+1
  68 0034 B1000000 		.word	.L7+1
  69 0038 B1000000 		.word	.L7+1
  70 003c B1000000 		.word	.L7+1
  71 0040 B1000000 		.word	.L7+1
  72 0044 B1000000 		.word	.L7+1
  73 0048 B1000000 		.word	.L7+1
  74 004c B1000000 		.word	.L7+1
  75 0050 C1000000 		.word	.L8+1
  76 0054 C1000000 		.word	.L8+1
  77 0058 C1000000 		.word	.L8+1
  78 005c D1000000 		.word	.L9+1
  79 0060 D1000000 		.word	.L9+1
  80 0064 D1000000 		.word	.L9+1
  81 0068 D1000000 		.word	.L9+1
  82 006c E1000000 		.word	.L10+1
  83              	.L3:
  84 0070 40F20003 		movw	r3, #:lower16:numberMotor
  85 0074 C0F20003 		movt	r3, #:upper16:numberMotor
  86 0078 4FF00002 		mov	r2, #0
  87 007c 1A70     		strb	r2, [r3, #0]
  88 007e 3BE0     		b	.L1
  89              	.L4:
  90 0080 40F20003 		movw	r3, #:lower16:numberMotor
  91 0084 C0F20003 		movt	r3, #:upper16:numberMotor
  92 0088 4FF00102 		mov	r2, #1
  93 008c 1A70     		strb	r2, [r3, #0]
  94 008e 33E0     		b	.L1
  95              	.L5:
  96 0090 40F20003 		movw	r3, #:lower16:numberMotor
  97 0094 C0F20003 		movt	r3, #:upper16:numberMotor
  98 0098 4FF00202 		mov	r2, #2
  99 009c 1A70     		strb	r2, [r3, #0]
 100 009e 2BE0     		b	.L1
 101              	.L6:
 102 00a0 40F20003 		movw	r3, #:lower16:numberMotor
 103 00a4 C0F20003 		movt	r3, #:upper16:numberMotor
 104 00a8 4FF00302 		mov	r2, #3
 105 00ac 1A70     		strb	r2, [r3, #0]
 106 00ae 23E0     		b	.L1
 107              	.L7:
 108 00b0 40F20003 		movw	r3, #:lower16:numberMotor
 109 00b4 C0F20003 		movt	r3, #:upper16:numberMotor
 110 00b8 4FF00402 		mov	r2, #4
 111 00bc 1A70     		strb	r2, [r3, #0]
 112 00be 1BE0     		b	.L1
 113              	.L8:
 114 00c0 40F20003 		movw	r3, #:lower16:numberMotor
 115 00c4 C0F20003 		movt	r3, #:upper16:numberMotor
 116 00c8 4FF00602 		mov	r2, #6
 117 00cc 1A70     		strb	r2, [r3, #0]
 118 00ce 13E0     		b	.L1
 119              	.L9:
 120 00d0 40F20003 		movw	r3, #:lower16:numberMotor
 121 00d4 C0F20003 		movt	r3, #:upper16:numberMotor
 122 00d8 4FF00802 		mov	r2, #8
 123 00dc 1A70     		strb	r2, [r3, #0]
 124 00de 0BE0     		b	.L1
 125              	.L10:
 126 00e0 40F20003 		movw	r3, #:lower16:eepromConfig
 127 00e4 C0F20003 		movt	r3, #:upper16:eepromConfig
 128 00e8 93F8E422 		ldrb	r2, [r3, #740]	@ zero_extendqisi2
 129 00ec 40F20003 		movw	r3, #:lower16:numberMotor
 130 00f0 C0F20003 		movt	r3, #:upper16:numberMotor
 131 00f4 1A70     		strb	r2, [r3, #0]
 132 00f6 00BF     		nop
 133              	.L1:
 134 00f8 7047     		bx	lr
 136 00fa 00BF     		.align	2
 137              		.global	writeServos
 138              		.thumb
 139              		.thumb_func
 141              	writeServos:
 142              		@ args = 0, pretend = 0, frame = 0
 143              		@ frame_needed = 0, uses_anonymous_args = 0
 144 00fc 08B5     		push	{r3, lr}
 145 00fe 40F20003 		movw	r3, #:lower16:servo
 146 0102 C0F20003 		movt	r3, #:upper16:servo
 147 0106 D3ED007A 		flds	s15, [r3, #0]
 148 010a FCEEE77A 		ftouizs	s15, s15
 149 010e 17EE903A 		fmrs	r3, s15	@ int
 150 0112 9BB2     		uxth	r3, r3
 151 0114 4FF00000 		mov	r0, #0
 152 0118 1946     		mov	r1, r3
 153 011a FFF7FEFF 		bl	pwmServoWrite
 154 011e 40F20003 		movw	r3, #:lower16:servo
 155 0122 C0F20003 		movt	r3, #:upper16:servo
 156 0126 D3ED017A 		flds	s15, [r3, #4]
 157 012a FCEEE77A 		ftouizs	s15, s15
 158 012e 17EE903A 		fmrs	r3, s15	@ int
 159 0132 9BB2     		uxth	r3, r3
 160 0134 4FF00100 		mov	r0, #1
 161 0138 1946     		mov	r1, r3
 162 013a FFF7FEFF 		bl	pwmServoWrite
 163 013e 40F20003 		movw	r3, #:lower16:servo
 164 0142 C0F20003 		movt	r3, #:upper16:servo
 165 0146 D3ED027A 		flds	s15, [r3, #8]
 166 014a FCEEE77A 		ftouizs	s15, s15
 167 014e 17EE903A 		fmrs	r3, s15	@ int
 168 0152 9BB2     		uxth	r3, r3
 169 0154 4FF00200 		mov	r0, #2
 170 0158 1946     		mov	r1, r3
 171 015a FFF7FEFF 		bl	pwmServoWrite
 172 015e 08BD     		pop	{r3, pc}
 174              		.align	2
 175              		.global	writeMotors
 176              		.thumb
 177              		.thumb_func
 179              	writeMotors:
 180              		@ args = 0, pretend = 0, frame = 8
 181              		@ frame_needed = 0, uses_anonymous_args = 0
 182 0160 00B5     		push	{lr}
 183 0162 83B0     		sub	sp, sp, #12
 184 0164 4FF00003 		mov	r3, #0
 185 0168 8DF80730 		strb	r3, [sp, #7]
 186 016c 1BE0     		b	.L14
 187              	.L15:
 188 016e 9DF80720 		ldrb	r2, [sp, #7]	@ zero_extendqisi2
 189 0172 40F20003 		movw	r3, #:lower16:motor
 190 0176 C0F20003 		movt	r3, #:upper16:motor
 191 017a 4FEA8202 		lsl	r2, r2, #2
 192 017e 9B18     		adds	r3, r3, r2
 193 0180 D3ED007A 		flds	s15, [r3, #0]
 194 0184 FCEEE77A 		ftouizs	s15, s15
 195 0188 17EE903A 		fmrs	r3, s15	@ int
 196 018c 9BB2     		uxth	r3, r3
 197 018e 9DF80720 		ldrb	r2, [sp, #7]	@ zero_extendqisi2
 198 0192 1046     		mov	r0, r2
 199 0194 1946     		mov	r1, r3
 200 0196 FFF7FEFF 		bl	pwmEscWrite
 201 019a 9DF80730 		ldrb	r3, [sp, #7]
 202 019e 03F10103 		add	r3, r3, #1
 203 01a2 8DF80730 		strb	r3, [sp, #7]
 204              	.L14:
 205 01a6 40F20003 		movw	r3, #:lower16:numberMotor
 206 01aa C0F20003 		movt	r3, #:upper16:numberMotor
 207 01ae 1B78     		ldrb	r3, [r3, #0]	@ zero_extendqisi2
 208 01b0 9DF80720 		ldrb	r2, [sp, #7]	@ zero_extendqisi2
 209 01b4 9A42     		cmp	r2, r3
 210 01b6 DAD3     		bcc	.L15
 211 01b8 03B0     		add	sp, sp, #12
 212 01ba 00BD     		pop	{pc}
 214              		.align	2
 215              		.global	writeAllMotors
 216              		.thumb
 217              		.thumb_func
 219              	writeAllMotors:
 220              		@ args = 0, pretend = 0, frame = 16
 221              		@ frame_needed = 0, uses_anonymous_args = 0
 222 01bc 00B5     		push	{lr}
 223 01be 85B0     		sub	sp, sp, #20
 224 01c0 0190     		str	r0, [sp, #4]	@ float
 225 01c2 4FF00003 		mov	r3, #0
 226 01c6 8DF80F30 		strb	r3, [sp, #15]
 227 01ca 10E0     		b	.L17
 228              	.L18:
 229 01cc 9DF80F20 		ldrb	r2, [sp, #15]	@ zero_extendqisi2
 230 01d0 40F20003 		movw	r3, #:lower16:motor
 231 01d4 C0F20003 		movt	r3, #:upper16:motor
 232 01d8 4FEA8202 		lsl	r2, r2, #2
 233 01dc 9B18     		adds	r3, r3, r2
 234 01de 019A     		ldr	r2, [sp, #4]	@ float
 235 01e0 1A60     		str	r2, [r3, #0]	@ float
 236 01e2 9DF80F30 		ldrb	r3, [sp, #15]
 237 01e6 03F10103 		add	r3, r3, #1
 238 01ea 8DF80F30 		strb	r3, [sp, #15]
 239              	.L17:
 240 01ee 40F20003 		movw	r3, #:lower16:numberMotor
 241 01f2 C0F20003 		movt	r3, #:upper16:numberMotor
 242 01f6 1B78     		ldrb	r3, [r3, #0]	@ zero_extendqisi2
 243 01f8 9DF80F20 		ldrb	r2, [sp, #15]	@ zero_extendqisi2
 244 01fc 9A42     		cmp	r2, r3
 245 01fe E5D3     		bcc	.L18
 246 0200 FFF7FEFF 		bl	writeMotors
 247 0204 05B0     		add	sp, sp, #20
 248 0206 00BD     		pop	{pc}
 250              		.align	2
 251              		.global	pulseMotors
 252              		.thumb
 253              		.thumb_func
 255              	pulseMotors:
 256              		@ args = 0, pretend = 0, frame = 16
 257              		@ frame_needed = 0, uses_anonymous_args = 0
 258 0208 00B5     		push	{lr}
 259 020a 85B0     		sub	sp, sp, #20
 260 020c 0346     		mov	r3, r0
 261 020e 8DF80730 		strb	r3, [sp, #7]
 262 0212 4FF00003 		mov	r3, #0
 263 0216 8DF80F30 		strb	r3, [sp, #15]
 264 021a 19E0     		b	.L20
 265              	.L21:
 266 021c 40F20003 		movw	r3, #:lower16:eepromConfig
 267 0220 C0F20003 		movt	r3, #:upper16:eepromConfig
 268 0224 D3F89430 		ldr	r3, [r3, #148]	@ float
 269 0228 1846     		mov	r0, r3	@ float
 270 022a FFF7FEFF 		bl	writeAllMotors
 271 022e 4FF0FA00 		mov	r0, #250
 272 0232 FFF7FEFF 		bl	delay
 273 0236 0A48     		ldr	r0, .L22	@ float
 274 0238 FFF7FEFF 		bl	writeAllMotors
 275 023c 4FF0FA00 		mov	r0, #250
 276 0240 FFF7FEFF 		bl	delay
 277 0244 9DF80F30 		ldrb	r3, [sp, #15]
 278 0248 03F10103 		add	r3, r3, #1
 279 024c 8DF80F30 		strb	r3, [sp, #15]
 280              	.L20:
 281 0250 9DF80F20 		ldrb	r2, [sp, #15]	@ zero_extendqisi2
 282 0254 9DF80730 		ldrb	r3, [sp, #7]	@ zero_extendqisi2
 283 0258 9A42     		cmp	r2, r3
 284 025a DFD3     		bcc	.L21
 285 025c 05B0     		add	sp, sp, #20
 286 025e 00BD     		pop	{pc}
 287              	.L23:
 288              		.align	2
 289              	.L22:
 290 0260 0000FA44 		.word	1157234688
 292              		.global	__aeabi_f2d
 293              		.global	__aeabi_dmul
 294              		.global	__aeabi_dadd
 295              		.global	__aeabi_d2f
 296              		.align	2
 297              		.global	mixTable
 298              		.thumb
 299              		.thumb_func
 301              	mixTable:
 302              		@ args = 0, pretend = 0, frame = 8
 303              		@ frame_needed = 0, uses_anonymous_args = 0
 304 0264 30B5     		push	{r4, r5, lr}
 305 0266 83B0     		sub	sp, sp, #12
 306 0268 40F20003 		movw	r3, #:lower16:eepromConfig
 307 026c C0F20003 		movt	r3, #:upper16:eepromConfig
 308 0270 93F88030 		ldrb	r3, [r3, #128]	@ zero_extendqisi2
 309 0274 03F1FF33 		add	r3, r3, #-1
 310 0278 142B     		cmp	r3, #20
 311 027a 02F28585 		bhi	.L25
 312 027e 01A2     		adr	r2, .L47
 313 0280 52F823F0 		ldr	pc, [r2, r3, lsl #2]
 314              		.align	2
 315              	.L47:
 316 0284 D9020000 		.word	.L26+1
 317 0288 B5030000 		.word	.L27+1
 318 028c D5050000 		.word	.L28+1
 319 0290 81070000 		.word	.L29+1
 320 0294 2D090000 		.word	.L30+1
 321 0298 B10A0000 		.word	.L31+1
 322 029c 150C0000 		.word	.L32+1
 323 02a0 990D0000 		.word	.L33+1
 324 02a4 310F0000 		.word	.L34+1
 325 02a8 F9100000 		.word	.L35+1
 326 02ac A5120000 		.word	.L36+1
 327 02b0 65140000 		.word	.L37+1
 328 02b4 39160000 		.word	.L38+1
 329 02b8 BD170000 		.word	.L39+1
 330 02bc 1D1A0000 		.word	.L40+1
 331 02c0 711C0000 		.word	.L41+1
 332 02c4 9D200000 		.word	.L42+1
 333 02c8 C1230000 		.word	.L43+1
 334 02cc C3260000 		.word	.L44+1
 335 02d0 C9290000 		.word	.L45+1
 336 02d4 8B2C0000 		.word	.L46+1
 337              	.L26:
 338 02d8 40F20003 		movw	r3, #:lower16:eepromConfig
 339 02dc C0F20003 		movt	r3, #:upper16:eepromConfig
 340 02e0 93EDA07A 		flds	s14, [r3, #640]
 341 02e4 40F20003 		movw	r3, #:lower16:eepromConfig
 342 02e8 C0F20003 		movt	r3, #:upper16:eepromConfig
 343 02ec D3EDA26A 		flds	s13, [r3, #648]
 344 02f0 40F20003 		movw	r3, #:lower16:sensors
 345 02f4 C0F20003 		movt	r3, #:upper16:sensors
 346 02f8 D3ED067A 		flds	s15, [r3, #24]
 347 02fc 66EEA77A 		fmuls	s15, s13, s15
 348 0300 37EE277A 		fadds	s14, s14, s15
 349 0304 40F20003 		movw	r3, #:lower16:rxCommand
 350 0308 C0F20003 		movt	r3, #:upper16:rxCommand
 351 030c D3ED007A 		flds	s15, [r3, #0]
 352 0310 77EE277A 		fadds	s15, s14, s15
 353 0314 40F20003 		movw	r3, #:lower16:eepromConfig
 354 0318 C0F20003 		movt	r3, #:upper16:eepromConfig
 355 031c D3F87C22 		ldr	r2, [r3, #636]	@ float
 356 0320 40F20003 		movw	r3, #:lower16:eepromConfig
 357 0324 C0F20003 		movt	r3, #:upper16:eepromConfig
 358 0328 D3F88432 		ldr	r3, [r3, #644]	@ float
 359 032c 17EE900A 		fmrs	r0, s15
 360 0330 1146     		mov	r1, r2	@ float
 361 0332 1A46     		mov	r2, r3	@ float
 362 0334 FFF7FEFF 		bl	constrain
 363 0338 0246     		mov	r2, r0	@ float
 364 033a 40F20003 		movw	r3, #:lower16:servo
 365 033e C0F20003 		movt	r3, #:upper16:servo
 366 0342 1A60     		str	r2, [r3, #0]	@ float
 367 0344 40F20003 		movw	r3, #:lower16:eepromConfig
 368 0348 C0F20003 		movt	r3, #:upper16:eepromConfig
 369 034c 93EDA47A 		flds	s14, [r3, #656]
 370 0350 40F20003 		movw	r3, #:lower16:eepromConfig
 371 0354 C0F20003 		movt	r3, #:upper16:eepromConfig
 372 0358 D3EDA66A 		flds	s13, [r3, #664]
 373 035c 40F20003 		movw	r3, #:lower16:sensors
 374 0360 C0F20003 		movt	r3, #:upper16:sensors
 375 0364 D3ED077A 		flds	s15, [r3, #28]
 376 0368 66EEA77A 		fmuls	s15, s13, s15
 377 036c 37EE277A 		fadds	s14, s14, s15
 378 0370 40F20003 		movw	r3, #:lower16:rxCommand
 379 0374 C0F20003 		movt	r3, #:upper16:rxCommand
 380 0378 D3ED017A 		flds	s15, [r3, #4]
 381 037c 77EE277A 		fadds	s15, s14, s15
 382 0380 40F20003 		movw	r3, #:lower16:eepromConfig
 383 0384 C0F20003 		movt	r3, #:upper16:eepromConfig
 384 0388 D3F88C22 		ldr	r2, [r3, #652]	@ float
 385 038c 40F20003 		movw	r3, #:lower16:eepromConfig
 386 0390 C0F20003 		movt	r3, #:upper16:eepromConfig
 387 0394 D3F89432 		ldr	r3, [r3, #660]	@ float
 388 0398 17EE900A 		fmrs	r0, s15
 389 039c 1146     		mov	r1, r2	@ float
 390 039e 1A46     		mov	r2, r3	@ float
 391 03a0 FFF7FEFF 		bl	constrain
 392 03a4 0246     		mov	r2, r0	@ float
 393 03a6 40F20003 		movw	r3, #:lower16:servo
 394 03aa C0F20003 		movt	r3, #:upper16:servo
 395 03ae 5A60     		str	r2, [r3, #4]	@ float
 396 03b0 02F0EABC 		b	.L25
 397              	.L27:
 398 03b4 40F20003 		movw	r3, #:lower16:rxCommand
 399 03b8 C0F20003 		movt	r3, #:upper16:rxCommand
 400 03bc DA68     		ldr	r2, [r3, #12]	@ float
 401 03be 40F20003 		movw	r3, #:lower16:motor
 402 03c2 C0F20003 		movt	r3, #:upper16:motor
 403 03c6 1A60     		str	r2, [r3, #0]	@ float
 404 03c8 40F20003 		movw	r3, #:lower16:flightMode
 405 03cc C0F20003 		movt	r3, #:upper16:flightMode
 406 03d0 1B78     		ldrb	r3, [r3, #0]	@ zero_extendqisi2
 407 03d2 012B     		cmp	r3, #1
 408 03d4 68D0     		beq	.L48
 409 03d6 40F20003 		movw	r3, #:lower16:eepromConfig
 410 03da C0F20003 		movt	r3, #:upper16:eepromConfig
 411 03de 93EDA97A 		flds	s14, [r3, #676]
 412 03e2 40F20003 		movw	r3, #:lower16:rxCommand
 413 03e6 C0F20003 		movt	r3, #:upper16:rxCommand
 414 03ea D3ED016A 		flds	s13, [r3, #4]
 415 03ee 40F20003 		movw	r3, #:lower16:eepromConfig
 416 03f2 C0F20003 		movt	r3, #:upper16:eepromConfig
 417 03f6 D3ED227A 		flds	s15, [r3, #136]
 418 03fa 76EEE77A 		fsubs	s15, s13, s15
 419 03fe 27EE277A 		fmuls	s14, s14, s15
 420 0402 40F20003 		movw	r3, #:lower16:eepromConfig
 421 0406 C0F20003 		movt	r3, #:upper16:eepromConfig
 422 040a D3EDA76A 		flds	s13, [r3, #668]
 423 040e 40F20003 		movw	r3, #:lower16:rxCommand
 424 0412 C0F20003 		movt	r3, #:upper16:rxCommand
 425 0416 93ED006A 		flds	s12, [r3, #0]
 426 041a 40F20003 		movw	r3, #:lower16:eepromConfig
 427 041e C0F20003 		movt	r3, #:upper16:eepromConfig
 428 0422 D3ED227A 		flds	s15, [r3, #136]
 429 0426 76EE677A 		fsubs	s15, s12, s15
 430 042a 66EEA77A 		fmuls	s15, s13, s15
 431 042e 77EE277A 		fadds	s15, s14, s15
 432 0432 40F20003 		movw	r3, #:lower16:servo
 433 0436 C0F20003 		movt	r3, #:upper16:servo
 434 043a C3ED007A 		fsts	s15, [r3, #0]
 435 043e 40F20003 		movw	r3, #:lower16:eepromConfig
 436 0442 C0F20003 		movt	r3, #:upper16:eepromConfig
 437 0446 93EDAA7A 		flds	s14, [r3, #680]
 438 044a 40F20003 		movw	r3, #:lower16:rxCommand
 439 044e C0F20003 		movt	r3, #:upper16:rxCommand
 440 0452 D3ED016A 		flds	s13, [r3, #4]
 441 0456 40F20003 		movw	r3, #:lower16:eepromConfig
 442 045a C0F20003 		movt	r3, #:upper16:eepromConfig
 443 045e D3ED227A 		flds	s15, [r3, #136]
 444 0462 76EEE77A 		fsubs	s15, s13, s15
 445 0466 27EE277A 		fmuls	s14, s14, s15
 446 046a 40F20003 		movw	r3, #:lower16:eepromConfig
 447 046e C0F20003 		movt	r3, #:upper16:eepromConfig
 448 0472 D3EDA86A 		flds	s13, [r3, #672]
 449 0476 40F20003 		movw	r3, #:lower16:rxCommand
 450 047a C0F20003 		movt	r3, #:upper16:rxCommand
 451 047e 93ED006A 		flds	s12, [r3, #0]
 452 0482 40F20003 		movw	r3, #:lower16:eepromConfig
 453 0486 C0F20003 		movt	r3, #:upper16:eepromConfig
 454 048a D3ED227A 		flds	s15, [r3, #136]
 455 048e 76EE677A 		fsubs	s15, s12, s15
 456 0492 66EEA77A 		fmuls	s15, s13, s15
 457 0496 77EE277A 		fadds	s15, s14, s15
 458 049a 40F20003 		movw	r3, #:lower16:servo
 459 049e C0F20003 		movt	r3, #:upper16:servo
 460 04a2 C3ED017A 		fsts	s15, [r3, #4]
 461 04a6 47E0     		b	.L49
 462              	.L48:
 463 04a8 40F20003 		movw	r3, #:lower16:eepromConfig
 464 04ac C0F20003 		movt	r3, #:upper16:eepromConfig
 465 04b0 93EDA97A 		flds	s14, [r3, #676]
 466 04b4 40F20003 		movw	r3, #:lower16:axisPID
 467 04b8 C0F20003 		movt	r3, #:upper16:axisPID
 468 04bc D3ED017A 		flds	s15, [r3, #4]
 469 04c0 27EE277A 		fmuls	s14, s14, s15
 470 04c4 40F20003 		movw	r3, #:lower16:eepromConfig
 471 04c8 C0F20003 		movt	r3, #:upper16:eepromConfig
 472 04cc D3EDA76A 		flds	s13, [r3, #668]
 473 04d0 40F20003 		movw	r3, #:lower16:axisPID
 474 04d4 C0F20003 		movt	r3, #:upper16:axisPID
 475 04d8 D3ED007A 		flds	s15, [r3, #0]
 476 04dc 66EEA77A 		fmuls	s15, s13, s15
 477 04e0 77EE277A 		fadds	s15, s14, s15
 478 04e4 40F20003 		movw	r3, #:lower16:servo
 479 04e8 C0F20003 		movt	r3, #:upper16:servo
 480 04ec C3ED007A 		fsts	s15, [r3, #0]
 481 04f0 40F20003 		movw	r3, #:lower16:eepromConfig
 482 04f4 C0F20003 		movt	r3, #:upper16:eepromConfig
 483 04f8 93EDAA7A 		flds	s14, [r3, #680]
 484 04fc 40F20003 		movw	r3, #:lower16:axisPID
 485 0500 C0F20003 		movt	r3, #:upper16:axisPID
 486 0504 D3ED017A 		flds	s15, [r3, #4]
 487 0508 27EE277A 		fmuls	s14, s14, s15
 488 050c 40F20003 		movw	r3, #:lower16:eepromConfig
 489 0510 C0F20003 		movt	r3, #:upper16:eepromConfig
 490 0514 D3EDA86A 		flds	s13, [r3, #672]
 491 0518 40F20003 		movw	r3, #:lower16:axisPID
 492 051c C0F20003 		movt	r3, #:upper16:axisPID
 493 0520 D3ED007A 		flds	s15, [r3, #0]
 494 0524 66EEA77A 		fmuls	s15, s13, s15
 495 0528 77EE277A 		fadds	s15, s14, s15
 496 052c 40F20003 		movw	r3, #:lower16:servo
 497 0530 C0F20003 		movt	r3, #:upper16:servo
 498 0534 C3ED017A 		fsts	s15, [r3, #4]
 499              	.L49:
 500 0538 40F20003 		movw	r3, #:lower16:servo
 501 053c C0F20003 		movt	r3, #:upper16:servo
 502 0540 93ED007A 		flds	s14, [r3, #0]
 503 0544 40F20003 		movw	r3, #:lower16:eepromConfig
 504 0548 C0F20003 		movt	r3, #:upper16:eepromConfig
 505 054c D3ED227A 		flds	s15, [r3, #136]
 506 0550 77EE277A 		fadds	s15, s14, s15
 507 0554 40F20003 		movw	r3, #:lower16:eepromConfig
 508 0558 C0F20003 		movt	r3, #:upper16:eepromConfig
 509 055c D3F8AC22 		ldr	r2, [r3, #684]	@ float
 510 0560 40F20003 		movw	r3, #:lower16:eepromConfig
 511 0564 C0F20003 		movt	r3, #:upper16:eepromConfig
 512 0568 D3F8B032 		ldr	r3, [r3, #688]	@ float
 513 056c 17EE900A 		fmrs	r0, s15
 514 0570 1146     		mov	r1, r2	@ float
 515 0572 1A46     		mov	r2, r3	@ float
 516 0574 FFF7FEFF 		bl	constrain
 517 0578 0246     		mov	r2, r0	@ float
 518 057a 40F20003 		movw	r3, #:lower16:servo
 519 057e C0F20003 		movt	r3, #:upper16:servo
 520 0582 1A60     		str	r2, [r3, #0]	@ float
 521 0584 40F20003 		movw	r3, #:lower16:servo
 522 0588 C0F20003 		movt	r3, #:upper16:servo
 523 058c 93ED017A 		flds	s14, [r3, #4]
 524 0590 40F20003 		movw	r3, #:lower16:eepromConfig
 525 0594 C0F20003 		movt	r3, #:upper16:eepromConfig
 526 0598 D3ED227A 		flds	s15, [r3, #136]
 527 059c 77EE277A 		fadds	s15, s14, s15
 528 05a0 40F20003 		movw	r3, #:lower16:eepromConfig
 529 05a4 C0F20003 		movt	r3, #:upper16:eepromConfig
 530 05a8 D3F8B422 		ldr	r2, [r3, #692]	@ float
 531 05ac 40F20003 		movw	r3, #:lower16:eepromConfig
 532 05b0 C0F20003 		movt	r3, #:upper16:eepromConfig
 533 05b4 D3F8B832 		ldr	r3, [r3, #696]	@ float
 534 05b8 17EE900A 		fmrs	r0, s15
 535 05bc 1146     		mov	r1, r2	@ float
 536 05be 1A46     		mov	r2, r3	@ float
 537 05c0 FFF7FEFF 		bl	constrain
 538 05c4 0246     		mov	r2, r0	@ float
 539 05c6 40F20003 		movw	r3, #:lower16:servo
 540 05ca C0F20003 		movt	r3, #:upper16:servo
 541 05ce 5A60     		str	r2, [r3, #4]	@ float
 542 05d0 02F0DABB 		b	.L25
 543              	.L28:
 544 05d4 40F20003 		movw	r3, #:lower16:rxCommand
 545 05d8 C0F20003 		movt	r3, #:upper16:rxCommand
 546 05dc 93ED037A 		flds	s14, [r3, #12]
 547 05e0 40F20003 		movw	r3, #:lower16:axisPID
 548 05e4 C0F20003 		movt	r3, #:upper16:axisPID
 549 05e8 D3ED007A 		flds	s15, [r3, #0]
 550 05ec 37EE277A 		fadds	s14, s14, s15
 551 05f0 40F20003 		movw	r3, #:lower16:axisPID
 552 05f4 C0F20003 		movt	r3, #:upper16:axisPID
 553 05f8 D3ED016A 		flds	s13, [r3, #4]
 554 05fc DFEDCA7A 		flds	s15, .L60+8
 555 0600 66EEA77A 		fmuls	s15, s13, s15
 556 0604 37EE277A 		fadds	s14, s14, s15
 557 0608 40F20003 		movw	r3, #:lower16:eepromConfig
 558 060c C0F20003 		movt	r3, #:upper16:eepromConfig
 559 0610 D3ED216A 		flds	s13, [r3, #132]
 560 0614 40F20003 		movw	r3, #:lower16:axisPID
 561 0618 C0F20003 		movt	r3, #:upper16:axisPID
 562 061c D3ED027A 		flds	s15, [r3, #8]
 563 0620 66EEA77A 		fmuls	s15, s13, s15
 564 0624 DFEDC06A 		flds	s13, .L60+8
 565 0628 67EEA67A 		fmuls	s15, s15, s13
 566 062c 77EE277A 		fadds	s15, s14, s15
 567 0630 40F20003 		movw	r3, #:lower16:motor
 568 0634 C0F20003 		movt	r3, #:upper16:motor
 569 0638 C3ED007A 		fsts	s15, [r3, #0]
 570 063c 40F20003 		movw	r3, #:lower16:rxCommand
 571 0640 C0F20003 		movt	r3, #:upper16:rxCommand
 572 0644 93ED037A 		flds	s14, [r3, #12]
 573 0648 40F20003 		movw	r3, #:lower16:axisPID
 574 064c C0F20003 		movt	r3, #:upper16:axisPID
 575 0650 D3ED007A 		flds	s15, [r3, #0]
 576 0654 37EE677A 		fsubs	s14, s14, s15
 577 0658 40F20003 		movw	r3, #:lower16:axisPID
 578 065c C0F20003 		movt	r3, #:upper16:axisPID
 579 0660 D3ED016A 		flds	s13, [r3, #4]
 580 0664 DFEDB07A 		flds	s15, .L60+8
 581 0668 66EEA77A 		fmuls	s15, s13, s15
 582 066c 37EE277A 		fadds	s14, s14, s15
 583 0670 40F20003 		movw	r3, #:lower16:eepromConfig
 584 0674 C0F20003 		movt	r3, #:upper16:eepromConfig
 585 0678 D3ED216A 		flds	s13, [r3, #132]
 586 067c 40F20003 		movw	r3, #:lower16:axisPID
 587 0680 C0F20003 		movt	r3, #:upper16:axisPID
 588 0684 D3ED027A 		flds	s15, [r3, #8]
 589 0688 66EEA77A 		fmuls	s15, s13, s15
 590 068c DFEDA66A 		flds	s13, .L60+8
 591 0690 67EEA67A 		fmuls	s15, s15, s13
 592 0694 77EE277A 		fadds	s15, s14, s15
 593 0698 40F20003 		movw	r3, #:lower16:motor
 594 069c C0F20003 		movt	r3, #:upper16:motor
 595 06a0 C3ED017A 		fsts	s15, [r3, #4]
 596 06a4 40F20003 		movw	r3, #:lower16:eepromConfig
 597 06a8 C0F20003 		movt	r3, #:upper16:eepromConfig
 598 06ac 93EDB07A 		flds	s14, [r3, #704]
 599 06b0 40F20003 		movw	r3, #:lower16:eepromConfig
 600 06b4 C0F20003 		movt	r3, #:upper16:eepromConfig
 601 06b8 D3ED216A 		flds	s13, [r3, #132]
 602 06bc 40F20003 		movw	r3, #:lower16:axisPID
 603 06c0 C0F20003 		movt	r3, #:upper16:axisPID
 604 06c4 D3ED027A 		flds	s15, [r3, #8]
 605 06c8 66EEA77A 		fmuls	s15, s13, s15
 606 06cc 37EE277A 		fadds	s14, s14, s15
 607 06d0 40F20003 		movw	r3, #:lower16:axisPID
 608 06d4 C0F20003 		movt	r3, #:upper16:axisPID
 609 06d8 D3ED017A 		flds	s15, [r3, #4]
 610 06dc 77EE277A 		fadds	s15, s14, s15
 611 06e0 40F20003 		movw	r3, #:lower16:eepromConfig
 612 06e4 C0F20003 		movt	r3, #:upper16:eepromConfig
 613 06e8 D3F8BC22 		ldr	r2, [r3, #700]	@ float
 614 06ec 40F20003 		movw	r3, #:lower16:eepromConfig
 615 06f0 C0F20003 		movt	r3, #:upper16:eepromConfig
 616 06f4 D3F8C432 		ldr	r3, [r3, #708]	@ float
 617 06f8 17EE900A 		fmrs	r0, s15
 618 06fc 1146     		mov	r1, r2	@ float
 619 06fe 1A46     		mov	r2, r3	@ float
 620 0700 FFF7FEFF 		bl	constrain
 621 0704 0246     		mov	r2, r0	@ float
 622 0706 40F20003 		movw	r3, #:lower16:servo
 623 070a C0F20003 		movt	r3, #:upper16:servo
 624 070e 1A60     		str	r2, [r3, #0]	@ float
 625 0710 40F20003 		movw	r3, #:lower16:eepromConfig
 626 0714 C0F20003 		movt	r3, #:upper16:eepromConfig
 627 0718 93EDB37A 		flds	s14, [r3, #716]
 628 071c 40F20003 		movw	r3, #:lower16:eepromConfig
 629 0720 C0F20003 		movt	r3, #:upper16:eepromConfig
 630 0724 D3ED216A 		flds	s13, [r3, #132]
 631 0728 40F20003 		movw	r3, #:lower16:axisPID
 632 072c C0F20003 		movt	r3, #:upper16:axisPID
 633 0730 D3ED027A 		flds	s15, [r3, #8]
 634 0734 66EEA77A 		fmuls	s15, s13, s15
 635 0738 37EE277A 		fadds	s14, s14, s15
 636 073c 40F20003 		movw	r3, #:lower16:axisPID
 637 0740 C0F20003 		movt	r3, #:upper16:axisPID
 638 0744 D3ED017A 		flds	s15, [r3, #4]
 639 0748 77EE677A 		fsubs	s15, s14, s15
 640 074c 40F20003 		movw	r3, #:lower16:eepromConfig
 641 0750 C0F20003 		movt	r3, #:upper16:eepromConfig
 642 0754 D3F8C822 		ldr	r2, [r3, #712]	@ float
 643 0758 40F20003 		movw	r3, #:lower16:eepromConfig
 644 075c C0F20003 		movt	r3, #:upper16:eepromConfig
 645 0760 D3F8D032 		ldr	r3, [r3, #720]	@ float
 646 0764 17EE900A 		fmrs	r0, s15
 647 0768 1146     		mov	r1, r2	@ float
 648 076a 1A46     		mov	r2, r3	@ float
 649 076c FFF7FEFF 		bl	constrain
 650 0770 0246     		mov	r2, r0	@ float
 651 0772 40F20003 		movw	r3, #:lower16:servo
 652 0776 C0F20003 		movt	r3, #:upper16:servo
 653 077a 5A60     		str	r2, [r3, #4]	@ float
 654 077c 02F004BB 		b	.L25
 655              	.L29:
 656 0780 40F20003 		movw	r3, #:lower16:rxCommand
 657 0784 C0F20003 		movt	r3, #:upper16:rxCommand
 658 0788 93ED037A 		flds	s14, [r3, #12]
 659 078c 40F20003 		movw	r3, #:lower16:axisPID
 660 0790 C0F20003 		movt	r3, #:upper16:axisPID
 661 0794 D3ED007A 		flds	s15, [r3, #0]
 662 0798 37EE277A 		fadds	s14, s14, s15
 663 079c 40F20003 		movw	r3, #:lower16:axisPID
 664 07a0 C0F20003 		movt	r3, #:upper16:axisPID
 665 07a4 D3ED016A 		flds	s13, [r3, #4]
 666 07a8 DFED5D7A 		flds	s15, .L60
 667 07ac 66EEA77A 		fmuls	s15, s13, s15
 668 07b0 37EE277A 		fadds	s14, s14, s15
 669 07b4 40F20003 		movw	r3, #:lower16:eepromConfig
 670 07b8 C0F20003 		movt	r3, #:upper16:eepromConfig
 671 07bc D3ED216A 		flds	s13, [r3, #132]
 672 07c0 40F20003 		movw	r3, #:lower16:axisPID
 673 07c4 C0F20003 		movt	r3, #:upper16:axisPID
 674 07c8 D3ED027A 		flds	s15, [r3, #8]
 675 07cc 66EEA77A 		fmuls	s15, s13, s15
 676 07d0 DFED556A 		flds	s13, .L60+8
 677 07d4 67EEA67A 		fmuls	s15, s15, s13
 678 07d8 77EE277A 		fadds	s15, s14, s15
 679 07dc 40F20003 		movw	r3, #:lower16:motor
 680 07e0 C0F20003 		movt	r3, #:upper16:motor
 681 07e4 C3ED007A 		fsts	s15, [r3, #0]
 682 07e8 40F20003 		movw	r3, #:lower16:rxCommand
 683 07ec C0F20003 		movt	r3, #:upper16:rxCommand
 684 07f0 93ED037A 		flds	s14, [r3, #12]
 685 07f4 40F20003 		movw	r3, #:lower16:axisPID
 686 07f8 C0F20003 		movt	r3, #:upper16:axisPID
 687 07fc D3ED007A 		flds	s15, [r3, #0]
 688 0800 37EE677A 		fsubs	s14, s14, s15
 689 0804 40F20003 		movw	r3, #:lower16:axisPID
 690 0808 C0F20003 		movt	r3, #:upper16:axisPID
 691 080c D3ED016A 		flds	s13, [r3, #4]
 692 0810 DFED437A 		flds	s15, .L60
 693 0814 66EEA77A 		fmuls	s15, s13, s15
 694 0818 37EE277A 		fadds	s14, s14, s15
 695 081c 40F20003 		movw	r3, #:lower16:eepromConfig
 696 0820 C0F20003 		movt	r3, #:upper16:eepromConfig
 697 0824 D3ED216A 		flds	s13, [r3, #132]
 698 0828 40F20003 		movw	r3, #:lower16:axisPID
 699 082c C0F20003 		movt	r3, #:upper16:axisPID
 700 0830 D3ED027A 		flds	s15, [r3, #8]
 701 0834 66EEA77A 		fmuls	s15, s13, s15
 702 0838 DFED3B6A 		flds	s13, .L60+8
 703 083c 67EEA67A 		fmuls	s15, s15, s13
 704 0840 77EE277A 		fadds	s15, s14, s15
 705 0844 40F20003 		movw	r3, #:lower16:motor
 706 0848 C0F20003 		movt	r3, #:upper16:motor
 707 084c C3ED017A 		fsts	s15, [r3, #4]
 708 0850 40F20003 		movw	r3, #:lower16:rxCommand
 709 0854 C0F20003 		movt	r3, #:upper16:rxCommand
 710 0858 93ED037A 		flds	s14, [r3, #12]
 711 085c 40F20003 		movw	r3, #:lower16:axisPID
 712 0860 C0F20003 		movt	r3, #:upper16:axisPID
 713 0864 D3ED006A 		flds	s13, [r3, #0]
 714 0868 DFED2F7A 		flds	s15, .L60+8
 715 086c 66EEA77A 		fmuls	s15, s13, s15
 716 0870 37EE277A 		fadds	s14, s14, s15
 717 0874 40F20003 		movw	r3, #:lower16:axisPID
 718 0878 C0F20003 		movt	r3, #:upper16:axisPID
 719 087c D3ED016A 		flds	s13, [r3, #4]
 720 0880 DFED287A 		flds	s15, .L60+4
 721 0884 66EEA77A 		fmuls	s15, s13, s15
 722 0888 37EE277A 		fadds	s14, s14, s15
 723 088c 40F20003 		movw	r3, #:lower16:eepromConfig
 724 0890 C0F20003 		movt	r3, #:upper16:eepromConfig
 725 0894 D3ED216A 		flds	s13, [r3, #132]
 726 0898 40F20003 		movw	r3, #:lower16:axisPID
 727 089c C0F20003 		movt	r3, #:upper16:axisPID
 728 08a0 D3ED027A 		flds	s15, [r3, #8]
 729 08a4 66EEA77A 		fmuls	s15, s13, s15
 730 08a8 DFED1F6A 		flds	s13, .L60+8
 731 08ac 67EEA67A 		fmuls	s15, s15, s13
 732 08b0 77EE277A 		fadds	s15, s14, s15
 733 08b4 40F20003 		movw	r3, #:lower16:motor
 734 08b8 C0F20003 		movt	r3, #:upper16:motor
 735 08bc C3ED027A 		fsts	s15, [r3, #8]
 736 08c0 40F20003 		movw	r3, #:lower16:eepromConfig
 737 08c4 C0F20003 		movt	r3, #:upper16:eepromConfig
 738 08c8 93EDB67A 		flds	s14, [r3, #728]
 739 08cc 40F20003 		movw	r3, #:lower16:eepromConfig
 740 08d0 C0F20003 		movt	r3, #:upper16:eepromConfig
 741 08d4 D3ED216A 		flds	s13, [r3, #132]
 742 08d8 40F20003 		movw	r3, #:lower16:axisPID
 743 08dc C0F20003 		movt	r3, #:upper16:axisPID
 744 08e0 D3ED027A 		flds	s15, [r3, #8]
 745 08e4 66EEA77A 		fmuls	s15, s13, s15
 746 08e8 77EE277A 		fadds	s15, s14, s15
 747 08ec 40F20003 		movw	r3, #:lower16:eepromConfig
 748 08f0 C0F20003 		movt	r3, #:upper16:eepromConfig
 749 08f4 D3F8D422 		ldr	r2, [r3, #724]	@ float
 750 08f8 40F20003 		movw	r3, #:lower16:eepromConfig
 751 08fc C0F20003 		movt	r3, #:upper16:eepromConfig
 752 0900 D3F8DC32 		ldr	r3, [r3, #732]	@ float
 753 0904 17EE900A 		fmrs	r0, s15
 754 0908 1146     		mov	r1, r2	@ float
 755 090a 1A46     		mov	r2, r3	@ float
 756 090c FFF7FEFF 		bl	constrain
 757 0910 0246     		mov	r2, r0	@ float
 758 0912 40F20003 		movw	r3, #:lower16:servo
 759 0916 C0F20003 		movt	r3, #:upper16:servo
 760 091a 1A60     		str	r2, [r3, #0]	@ float
 761 091c 02F034BA 		b	.L25
 762              	.L61:
 763              		.align	2
 764              	.L60:
 765 0920 B0AA2ABF 		.word	-1087722832
 766 0924 A8AAAA3F 		.word	1068149416
 767 0928 00000000 		.word	0
 768              	.L30:
 769 092c 40F20003 		movw	r3, #:lower16:rxCommand
 770 0930 C0F20003 		movt	r3, #:upper16:rxCommand
 771 0934 93ED037A 		flds	s14, [r3, #12]
 772 0938 40F20003 		movw	r3, #:lower16:axisPID
 773 093c C0F20003 		movt	r3, #:upper16:axisPID
 774 0940 D3ED006A 		flds	s13, [r3, #0]
 775 0944 5FED087A 		flds	s15, .L60+8
 776 0948 66EEA77A 		fmuls	s15, s13, s15
 777 094c 37EE277A 		fadds	s14, s14, s15
 778 0950 40F20003 		movw	r3, #:lower16:axisPID
 779 0954 C0F20003 		movt	r3, #:upper16:axisPID
 780 0958 D3ED017A 		flds	s15, [r3, #4]
 781 095c 37EE677A 		fsubs	s14, s14, s15
 782 0960 40F20003 		movw	r3, #:lower16:eepromConfig
 783 0964 C0F20003 		movt	r3, #:upper16:eepromConfig
 784 0968 D3ED216A 		flds	s13, [r3, #132]
 785 096c 40F20003 		movw	r3, #:lower16:axisPID
 786 0970 C0F20003 		movt	r3, #:upper16:axisPID
 787 0974 D3ED027A 		flds	s15, [r3, #8]
 788 0978 66EEA77A 		fmuls	s15, s13, s15
 789 097c 77EE677A 		fsubs	s15, s14, s15
 790 0980 40F20003 		movw	r3, #:lower16:motor
 791 0984 C0F20003 		movt	r3, #:upper16:motor
 792 0988 C3ED007A 		fsts	s15, [r3, #0]
 793 098c 40F20003 		movw	r3, #:lower16:rxCommand
 794 0990 C0F20003 		movt	r3, #:upper16:rxCommand
 795 0994 93ED037A 		flds	s14, [r3, #12]
 796 0998 40F20003 		movw	r3, #:lower16:axisPID
 797 099c C0F20003 		movt	r3, #:upper16:axisPID
 798 09a0 D3ED007A 		flds	s15, [r3, #0]
 799 09a4 37EE677A 		fsubs	s14, s14, s15
 800 09a8 40F20003 		movw	r3, #:lower16:axisPID
 801 09ac C0F20003 		movt	r3, #:upper16:axisPID
 802 09b0 D3ED016A 		flds	s13, [r3, #4]
 803 09b4 5FED247A 		flds	s15, .L60+8
 804 09b8 66EEA77A 		fmuls	s15, s13, s15
 805 09bc 37EE277A 		fadds	s14, s14, s15
 806 09c0 40F20003 		movw	r3, #:lower16:eepromConfig
 807 09c4 C0F20003 		movt	r3, #:upper16:eepromConfig
 808 09c8 D3ED216A 		flds	s13, [r3, #132]
 809 09cc 40F20003 		movw	r3, #:lower16:axisPID
 810 09d0 C0F20003 		movt	r3, #:upper16:axisPID
 811 09d4 D3ED027A 		flds	s15, [r3, #8]
 812 09d8 66EEA77A 		fmuls	s15, s13, s15
 813 09dc 77EE277A 		fadds	s15, s14, s15
 814 09e0 40F20003 		movw	r3, #:lower16:motor
 815 09e4 C0F20003 		movt	r3, #:upper16:motor
 816 09e8 C3ED017A 		fsts	s15, [r3, #4]
 817 09ec 40F20003 		movw	r3, #:lower16:rxCommand
 818 09f0 C0F20003 		movt	r3, #:upper16:rxCommand
 819 09f4 93ED037A 		flds	s14, [r3, #12]
 820 09f8 40F20003 		movw	r3, #:lower16:axisPID
 821 09fc C0F20003 		movt	r3, #:upper16:axisPID
 822 0a00 D3ED006A 		flds	s13, [r3, #0]
 823 0a04 5FED387A 		flds	s15, .L60+8
 824 0a08 66EEA77A 		fmuls	s15, s13, s15
 825 0a0c 37EE277A 		fadds	s14, s14, s15
 826 0a10 40F20003 		movw	r3, #:lower16:axisPID
 827 0a14 C0F20003 		movt	r3, #:upper16:axisPID
 828 0a18 D3ED017A 		flds	s15, [r3, #4]
 829 0a1c 37EE277A 		fadds	s14, s14, s15
 830 0a20 40F20003 		movw	r3, #:lower16:eepromConfig
 831 0a24 C0F20003 		movt	r3, #:upper16:eepromConfig
 832 0a28 D3ED216A 		flds	s13, [r3, #132]
 833 0a2c 40F20003 		movw	r3, #:lower16:axisPID
 834 0a30 C0F20003 		movt	r3, #:upper16:axisPID
 835 0a34 D3ED027A 		flds	s15, [r3, #8]
 836 0a38 66EEA77A 		fmuls	s15, s13, s15
 837 0a3c 77EE677A 		fsubs	s15, s14, s15
 838 0a40 40F20003 		movw	r3, #:lower16:motor
 839 0a44 C0F20003 		movt	r3, #:upper16:motor
 840 0a48 C3ED027A 		fsts	s15, [r3, #8]
 841 0a4c 40F20003 		movw	r3, #:lower16:rxCommand
 842 0a50 C0F20003 		movt	r3, #:upper16:rxCommand
 843 0a54 93ED037A 		flds	s14, [r3, #12]
 844 0a58 40F20003 		movw	r3, #:lower16:axisPID
 845 0a5c C0F20003 		movt	r3, #:upper16:axisPID
 846 0a60 D3ED007A 		flds	s15, [r3, #0]
 847 0a64 37EE277A 		fadds	s14, s14, s15
 848 0a68 40F20003 		movw	r3, #:lower16:axisPID
 849 0a6c C0F20003 		movt	r3, #:upper16:axisPID
 850 0a70 D3ED016A 		flds	s13, [r3, #4]
 851 0a74 5FED547A 		flds	s15, .L60+8
 852 0a78 66EEA77A 		fmuls	s15, s13, s15
 853 0a7c 37EE277A 		fadds	s14, s14, s15
 854 0a80 40F20003 		movw	r3, #:lower16:eepromConfig
 855 0a84 C0F20003 		movt	r3, #:upper16:eepromConfig
 856 0a88 D3ED216A 		flds	s13, [r3, #132]
 857 0a8c 40F20003 		movw	r3, #:lower16:axisPID
 858 0a90 C0F20003 		movt	r3, #:upper16:axisPID
 859 0a94 D3ED027A 		flds	s15, [r3, #8]
 860 0a98 66EEA77A 		fmuls	s15, s13, s15
 861 0a9c 77EE277A 		fadds	s15, s14, s15
 862 0aa0 40F20003 		movw	r3, #:lower16:motor
 863 0aa4 C0F20003 		movt	r3, #:upper16:motor
 864 0aa8 C3ED037A 		fsts	s15, [r3, #12]
 865 0aac 02F06CB9 		b	.L25
 866              	.L31:
 867 0ab0 40F20003 		movw	r3, #:lower16:rxCommand
 868 0ab4 C0F20003 		movt	r3, #:upper16:rxCommand
 869 0ab8 93ED037A 		flds	s14, [r3, #12]
 870 0abc 40F20003 		movw	r3, #:lower16:axisPID
 871 0ac0 C0F20003 		movt	r3, #:upper16:axisPID
 872 0ac4 D3ED007A 		flds	s15, [r3, #0]
 873 0ac8 37EE277A 		fadds	s14, s14, s15
 874 0acc 40F20003 		movw	r3, #:lower16:axisPID
 875 0ad0 C0F20003 		movt	r3, #:upper16:axisPID
 876 0ad4 D3ED017A 		flds	s15, [r3, #4]
 877 0ad8 37EE677A 		fsubs	s14, s14, s15
 878 0adc 40F20003 		movw	r3, #:lower16:eepromConfig
 879 0ae0 C0F20003 		movt	r3, #:upper16:eepromConfig
 880 0ae4 D3ED216A 		flds	s13, [r3, #132]
 881 0ae8 40F20003 		movw	r3, #:lower16:axisPID
 882 0aec C0F20003 		movt	r3, #:upper16:axisPID
 883 0af0 D3ED027A 		flds	s15, [r3, #8]
 884 0af4 66EEA77A 		fmuls	s15, s13, s15
 885 0af8 77EE677A 		fsubs	s15, s14, s15
 886 0afc 40F20003 		movw	r3, #:lower16:motor
 887 0b00 C0F20003 		movt	r3, #:upper16:motor
 888 0b04 C3ED007A 		fsts	s15, [r3, #0]
 889 0b08 40F20003 		movw	r3, #:lower16:rxCommand
 890 0b0c C0F20003 		movt	r3, #:upper16:rxCommand
 891 0b10 93ED037A 		flds	s14, [r3, #12]
 892 0b14 40F20003 		movw	r3, #:lower16:axisPID
 893 0b18 C0F20003 		movt	r3, #:upper16:axisPID
 894 0b1c D3ED007A 		flds	s15, [r3, #0]
 895 0b20 37EE677A 		fsubs	s14, s14, s15
 896 0b24 40F20003 		movw	r3, #:lower16:axisPID
 897 0b28 C0F20003 		movt	r3, #:upper16:axisPID
 898 0b2c D3ED017A 		flds	s15, [r3, #4]
 899 0b30 37EE677A 		fsubs	s14, s14, s15
 900 0b34 40F20003 		movw	r3, #:lower16:eepromConfig
 901 0b38 C0F20003 		movt	r3, #:upper16:eepromConfig
 902 0b3c D3ED216A 		flds	s13, [r3, #132]
 903 0b40 40F20003 		movw	r3, #:lower16:axisPID
 904 0b44 C0F20003 		movt	r3, #:upper16:axisPID
 905 0b48 D3ED027A 		flds	s15, [r3, #8]
 906 0b4c 66EEA77A 		fmuls	s15, s13, s15
 907 0b50 77EE277A 		fadds	s15, s14, s15
 908 0b54 40F20003 		movw	r3, #:lower16:motor
 909 0b58 C0F20003 		movt	r3, #:upper16:motor
 910 0b5c C3ED017A 		fsts	s15, [r3, #4]
 911 0b60 40F20003 		movw	r3, #:lower16:rxCommand
 912 0b64 C0F20003 		movt	r3, #:upper16:rxCommand
 913 0b68 93ED037A 		flds	s14, [r3, #12]
 914 0b6c 40F20003 		movw	r3, #:lower16:axisPID
 915 0b70 C0F20003 		movt	r3, #:upper16:axisPID
 916 0b74 D3ED007A 		flds	s15, [r3, #0]
 917 0b78 37EE677A 		fsubs	s14, s14, s15
 918 0b7c 40F20003 		movw	r3, #:lower16:axisPID
 919 0b80 C0F20003 		movt	r3, #:upper16:axisPID
 920 0b84 D3ED017A 		flds	s15, [r3, #4]
 921 0b88 37EE277A 		fadds	s14, s14, s15
 922 0b8c 40F20003 		movw	r3, #:lower16:eepromConfig
 923 0b90 C0F20003 		movt	r3, #:upper16:eepromConfig
 924 0b94 D3ED216A 		flds	s13, [r3, #132]
 925 0b98 40F20003 		movw	r3, #:lower16:axisPID
 926 0b9c C0F20003 		movt	r3, #:upper16:axisPID
 927 0ba0 D3ED027A 		flds	s15, [r3, #8]
 928 0ba4 66EEA77A 		fmuls	s15, s13, s15
 929 0ba8 77EE677A 		fsubs	s15, s14, s15
 930 0bac 40F20003 		movw	r3, #:lower16:motor
 931 0bb0 C0F20003 		movt	r3, #:upper16:motor
 932 0bb4 C3ED027A 		fsts	s15, [r3, #8]
 933 0bb8 40F20003 		movw	r3, #:lower16:rxCommand
 934 0bbc C0F20003 		movt	r3, #:upper16:rxCommand
 935 0bc0 93ED037A 		flds	s14, [r3, #12]
 936 0bc4 40F20003 		movw	r3, #:lower16:axisPID
 937 0bc8 C0F20003 		movt	r3, #:upper16:axisPID
 938 0bcc D3ED007A 		flds	s15, [r3, #0]
 939 0bd0 37EE277A 		fadds	s14, s14, s15
 940 0bd4 40F20003 		movw	r3, #:lower16:axisPID
 941 0bd8 C0F20003 		movt	r3, #:upper16:axisPID
 942 0bdc D3ED017A 		flds	s15, [r3, #4]
 943 0be0 37EE277A 		fadds	s14, s14, s15
 944 0be4 40F20003 		movw	r3, #:lower16:eepromConfig
 945 0be8 C0F20003 		movt	r3, #:upper16:eepromConfig
 946 0bec D3ED216A 		flds	s13, [r3, #132]
 947 0bf0 40F20003 		movw	r3, #:lower16:axisPID
 948 0bf4 C0F20003 		movt	r3, #:upper16:axisPID
 949 0bf8 D3ED027A 		flds	s15, [r3, #8]
 950 0bfc 66EEA77A 		fmuls	s15, s13, s15
 951 0c00 77EE277A 		fadds	s15, s14, s15
 952 0c04 40F20003 		movw	r3, #:lower16:motor
 953 0c08 C0F20003 		movt	r3, #:upper16:motor
 954 0c0c C3ED037A 		fsts	s15, [r3, #12]
 955 0c10 02F0BAB8 		b	.L25
 956              	.L32:
 957 0c14 40F20003 		movw	r3, #:lower16:rxCommand
 958 0c18 C0F20003 		movt	r3, #:upper16:rxCommand
 959 0c1c 93ED037A 		flds	s14, [r3, #12]
 960 0c20 40F20003 		movw	r3, #:lower16:axisPID
 961 0c24 C0F20003 		movt	r3, #:upper16:axisPID
 962 0c28 D3ED007A 		flds	s15, [r3, #0]
 963 0c2c 37EE277A 		fadds	s14, s14, s15
 964 0c30 40F20003 		movw	r3, #:lower16:axisPID
 965 0c34 C0F20003 		movt	r3, #:upper16:axisPID
 966 0c38 D3ED017A 		flds	s15, [r3, #4]
 967 0c3c 37EE677A 		fsubs	s14, s14, s15
 968 0c40 40F20003 		movw	r3, #:lower16:eepromConfig
 969 0c44 C0F20003 		movt	r3, #:upper16:eepromConfig
 970 0c48 D3ED216A 		flds	s13, [r3, #132]
 971 0c4c 40F20003 		movw	r3, #:lower16:axisPID
 972 0c50 C0F20003 		movt	r3, #:upper16:axisPID
 973 0c54 D3ED027A 		flds	s15, [r3, #8]
 974 0c58 66EEA77A 		fmuls	s15, s13, s15
 975 0c5c 5FEDCE6A 		flds	s13, .L60+8
 976 0c60 67EEA67A 		fmuls	s15, s15, s13
 977 0c64 77EE277A 		fadds	s15, s14, s15
 978 0c68 40F20003 		movw	r3, #:lower16:motor
 979 0c6c C0F20003 		movt	r3, #:upper16:motor
 980 0c70 C3ED007A 		fsts	s15, [r3, #0]
 981 0c74 40F20003 		movw	r3, #:lower16:rxCommand
 982 0c78 C0F20003 		movt	r3, #:upper16:rxCommand
 983 0c7c 93ED037A 		flds	s14, [r3, #12]
 984 0c80 40F20003 		movw	r3, #:lower16:axisPID
 985 0c84 C0F20003 		movt	r3, #:upper16:axisPID
 986 0c88 D3ED007A 		flds	s15, [r3, #0]
 987 0c8c 37EE677A 		fsubs	s14, s14, s15
 988 0c90 40F20003 		movw	r3, #:lower16:axisPID
 989 0c94 C0F20003 		movt	r3, #:upper16:axisPID
 990 0c98 D3ED017A 		flds	s15, [r3, #4]
 991 0c9c 37EE677A 		fsubs	s14, s14, s15
 992 0ca0 40F20003 		movw	r3, #:lower16:eepromConfig
 993 0ca4 C0F20003 		movt	r3, #:upper16:eepromConfig
 994 0ca8 D3ED216A 		flds	s13, [r3, #132]
 995 0cac 40F20003 		movw	r3, #:lower16:axisPID
 996 0cb0 C0F20003 		movt	r3, #:upper16:axisPID
 997 0cb4 D3ED027A 		flds	s15, [r3, #8]
 998 0cb8 66EEA77A 		fmuls	s15, s13, s15
 999 0cbc 5FEDE66A 		flds	s13, .L60+8
 1000 0cc0 67EEA67A 		fmuls	s15, s15, s13
 1001 0cc4 77EE277A 		fadds	s15, s14, s15
 1002 0cc8 40F20003 		movw	r3, #:lower16:motor
 1003 0ccc C0F20003 		movt	r3, #:upper16:motor
 1004 0cd0 C3ED017A 		fsts	s15, [r3, #4]
 1005 0cd4 40F20003 		movw	r3, #:lower16:rxCommand
 1006 0cd8 C0F20003 		movt	r3, #:upper16:rxCommand
 1007 0cdc 93ED037A 		flds	s14, [r3, #12]
 1008 0ce0 40F20003 		movw	r3, #:lower16:axisPID
 1009 0ce4 C0F20003 		movt	r3, #:upper16:axisPID
 1010 0ce8 D3ED006A 		flds	s13, [r3, #0]
 1011 0cec 5FEDF27A 		flds	s15, .L60+8
 1012 0cf0 66EEA77A 		fmuls	s15, s13, s15
 1013 0cf4 37EE277A 		fadds	s14, s14, s15
 1014 0cf8 40F20003 		movw	r3, #:lower16:axisPID
 1015 0cfc C0F20003 		movt	r3, #:upper16:axisPID
 1016 0d00 D3ED017A 		flds	s15, [r3, #4]
 1017 0d04 37EE277A 		fadds	s14, s14, s15
 1018 0d08 40F20003 		movw	r3, #:lower16:eepromConfig
 1019 0d0c C0F20003 		movt	r3, #:upper16:eepromConfig
 1020 0d10 D3ED216A 		flds	s13, [r3, #132]
 1021 0d14 40F20003 		movw	r3, #:lower16:axisPID
 1022 0d18 C0F20003 		movt	r3, #:upper16:axisPID
 1023 0d1c D3ED027A 		flds	s15, [r3, #8]
 1024 0d20 66EEA77A 		fmuls	s15, s13, s15
 1025 0d24 77EE277A 		fadds	s15, s14, s15
 1026 0d28 40F20003 		movw	r3, #:lower16:motor
 1027 0d2c C0F20003 		movt	r3, #:upper16:motor
 1028 0d30 C3ED027A 		fsts	s15, [r3, #8]
 1029 0d34 40F20003 		movw	r3, #:lower16:rxCommand
 1030 0d38 C0F20003 		movt	r3, #:upper16:rxCommand
 1031 0d3c 93ED037A 		flds	s14, [r3, #12]
 1032 0d40 40F20003 		movw	r3, #:lower16:axisPID
 1033 0d44 C0F20003 		movt	r3, #:upper16:axisPID
 1034 0d48 D3ED006A 		flds	s13, [r3, #0]
 1035 0d4c DFEDE87A 		flds	s15, .L62
 1036 0d50 66EEA77A 		fmuls	s15, s13, s15
 1037 0d54 37EE277A 		fadds	s14, s14, s15
 1038 0d58 40F20003 		movw	r3, #:lower16:axisPID
 1039 0d5c C0F20003 		movt	r3, #:upper16:axisPID
 1040 0d60 D3ED017A 		flds	s15, [r3, #4]
 1041 0d64 37EE277A 		fadds	s14, s14, s15
 1042 0d68 40F20003 		movw	r3, #:lower16:eepromConfig
 1043 0d6c C0F20003 		movt	r3, #:upper16:eepromConfig
 1044 0d70 D3ED216A 		flds	s13, [r3, #132]
 1045 0d74 40F20003 		movw	r3, #:lower16:axisPID
 1046 0d78 C0F20003 		movt	r3, #:upper16:axisPID
 1047 0d7c D3ED027A 		flds	s15, [r3, #8]
 1048 0d80 66EEA77A 		fmuls	s15, s13, s15
 1049 0d84 77EE677A 		fsubs	s15, s14, s15
 1050 0d88 40F20003 		movw	r3, #:lower16:motor
 1051 0d8c C0F20003 		movt	r3, #:upper16:motor
 1052 0d90 C3ED037A 		fsts	s15, [r3, #12]
 1053 0d94 01F0F8BF 		b	.L25
 1054              	.L33:
 1055 0d98 40F20003 		movw	r3, #:lower16:rxCommand
 1056 0d9c C0F20003 		movt	r3, #:upper16:rxCommand
 1057 0da0 93ED037A 		flds	s14, [r3, #12]
 1058 0da4 40F20003 		movw	r3, #:lower16:axisPID
 1059 0da8 C0F20003 		movt	r3, #:upper16:axisPID
 1060 0dac D3ED007A 		flds	s15, [r3, #0]
 1061 0db0 37EE277A 		fadds	s14, s14, s15
 1062 0db4 40F20003 		movw	r3, #:lower16:axisPID
 1063 0db8 C0F20003 		movt	r3, #:upper16:axisPID
 1064 0dbc D3ED017A 		flds	s15, [r3, #4]
 1065 0dc0 37EE677A 		fsubs	s14, s14, s15
 1066 0dc4 40F20003 		movw	r3, #:lower16:eepromConfig
 1067 0dc8 C0F20003 		movt	r3, #:upper16:eepromConfig
 1068 0dcc D3ED216A 		flds	s13, [r3, #132]
 1069 0dd0 40F20003 		movw	r3, #:lower16:axisPID
 1070 0dd4 C0F20003 		movt	r3, #:upper16:axisPID
 1071 0dd8 D3ED027A 		flds	s15, [r3, #8]
 1072 0ddc 66EEA77A 		fmuls	s15, s13, s15
 1073 0de0 40F20003 		movw	r3, #:lower16:vTailThrust
 1074 0de4 C0F20003 		movt	r3, #:upper16:vTailThrust
 1075 0de8 D3ED006A 		flds	s13, [r3, #0]
 1076 0dec 67EEA67A 		fmuls	s15, s15, s13
 1077 0df0 77EE277A 		fadds	s15, s14, s15
 1078 0df4 40F20003 		movw	r3, #:lower16:motor
 1079 0df8 C0F20003 		movt	r3, #:upper16:motor
 1080 0dfc C3ED007A 		fsts	s15, [r3, #0]
 1081 0e00 40F20003 		movw	r3, #:lower16:rxCommand
 1082 0e04 C0F20003 		movt	r3, #:upper16:rxCommand
 1083 0e08 93ED037A 		flds	s14, [r3, #12]
 1084 0e0c 40F20003 		movw	r3, #:lower16:axisPID
 1085 0e10 C0F20003 		movt	r3, #:upper16:axisPID
 1086 0e14 D3ED007A 		flds	s15, [r3, #0]
 1087 0e18 37EE677A 		fsubs	s14, s14, s15
 1088 0e1c 40F20003 		movw	r3, #:lower16:axisPID
 1089 0e20 C0F20003 		movt	r3, #:upper16:axisPID
 1090 0e24 D3ED017A 		flds	s15, [r3, #4]
 1091 0e28 37EE677A 		fsubs	s14, s14, s15
 1092 0e2c 40F20003 		movw	r3, #:lower16:eepromConfig
 1093 0e30 C0F20003 		movt	r3, #:upper16:eepromConfig
 1094 0e34 D3ED216A 		flds	s13, [r3, #132]
 1095 0e38 40F20003 		movw	r3, #:lower16:axisPID
 1096 0e3c C0F20003 		movt	r3, #:upper16:axisPID
 1097 0e40 D3ED027A 		flds	s15, [r3, #8]
 1098 0e44 66EEA77A 		fmuls	s15, s13, s15
 1099 0e48 40F20003 		movw	r3, #:lower16:vTailThrust
 1100 0e4c C0F20003 		movt	r3, #:upper16:vTailThrust
 1101 0e50 D3ED006A 		flds	s13, [r3, #0]
 1102 0e54 F1EE666A 		fnegs	s13, s13
 1103 0e58 67EEA67A 		fmuls	s15, s15, s13
 1104 0e5c 77EE277A 		fadds	s15, s14, s15
 1105 0e60 40F20003 		movw	r3, #:lower16:motor
 1106 0e64 C0F20003 		movt	r3, #:upper16:motor
 1107 0e68 C3ED017A 		fsts	s15, [r3, #4]
 1108 0e6c 40F20003 		movw	r3, #:lower16:rxCommand
 1109 0e70 C0F20003 		movt	r3, #:upper16:rxCommand
 1110 0e74 93ED037A 		flds	s14, [r3, #12]
 1111 0e78 40F20003 		movw	r3, #:lower16:axisPID
 1112 0e7c C0F20003 		movt	r3, #:upper16:axisPID
 1113 0e80 D3ED006A 		flds	s13, [r3, #0]
 1114 0e84 DFED9A7A 		flds	s15, .L62
 1115 0e88 66EEA77A 		fmuls	s15, s13, s15
 1116 0e8c 37EE277A 		fadds	s14, s14, s15
 1117 0e90 40F20003 		movw	r3, #:lower16:axisPID
 1118 0e94 C0F20003 		movt	r3, #:upper16:axisPID
 1119 0e98 D3ED017A 		flds	s15, [r3, #4]
 1120 0e9c 37EE277A 		fadds	s14, s14, s15
 1121 0ea0 40F20003 		movw	r3, #:lower16:eepromConfig
 1122 0ea4 C0F20003 		movt	r3, #:upper16:eepromConfig
 1123 0ea8 D3ED216A 		flds	s13, [r3, #132]
 1124 0eac 40F20003 		movw	r3, #:lower16:axisPID
 1125 0eb0 C0F20003 		movt	r3, #:upper16:axisPID
 1126 0eb4 D3ED027A 		flds	s15, [r3, #8]
 1127 0eb8 66EEA77A 		fmuls	s15, s13, s15
 1128 0ebc 77EE277A 		fadds	s15, s14, s15
 1129 0ec0 40F20003 		movw	r3, #:lower16:motor
 1130 0ec4 C0F20003 		movt	r3, #:upper16:motor
 1131 0ec8 C3ED027A 		fsts	s15, [r3, #8]
 1132 0ecc 40F20003 		movw	r3, #:lower16:rxCommand
 1133 0ed0 C0F20003 		movt	r3, #:upper16:rxCommand
 1134 0ed4 93ED037A 		flds	s14, [r3, #12]
 1135 0ed8 40F20003 		movw	r3, #:lower16:axisPID
 1136 0edc C0F20003 		movt	r3, #:upper16:axisPID
 1137 0ee0 D3ED006A 		flds	s13, [r3, #0]
 1138 0ee4 DFED827A 		flds	s15, .L62
 1139 0ee8 66EEA77A 		fmuls	s15, s13, s15
 1140 0eec 37EE277A 		fadds	s14, s14, s15
 1141 0ef0 40F20003 		movw	r3, #:lower16:axisPID
 1142 0ef4 C0F20003 		movt	r3, #:upper16:axisPID
 1143 0ef8 D3ED017A 		flds	s15, [r3, #4]
 1144 0efc 37EE277A 		fadds	s14, s14, s15
 1145 0f00 40F20003 		movw	r3, #:lower16:eepromConfig
 1146 0f04 C0F20003 		movt	r3, #:upper16:eepromConfig
 1147 0f08 D3ED216A 		flds	s13, [r3, #132]
 1148 0f0c 40F20003 		movw	r3, #:lower16:axisPID
 1149 0f10 C0F20003 		movt	r3, #:upper16:axisPID
 1150 0f14 D3ED027A 		flds	s15, [r3, #8]
 1151 0f18 66EEA77A 		fmuls	s15, s13, s15
 1152 0f1c 77EE677A 		fsubs	s15, s14, s15
 1153 0f20 40F20003 		movw	r3, #:lower16:motor
 1154 0f24 C0F20003 		movt	r3, #:upper16:motor
 1155 0f28 C3ED037A 		fsts	s15, [r3, #12]
 1156 0f2c 01F02CBF 		b	.L25
 1157              	.L34:
 1158 0f30 40F20003 		movw	r3, #:lower16:rxCommand
 1159 0f34 C0F20003 		movt	r3, #:upper16:rxCommand
 1160 0f38 93ED037A 		flds	s14, [r3, #12]
 1161 0f3c 40F20003 		movw	r3, #:lower16:axisPID
 1162 0f40 C0F20003 		movt	r3, #:upper16:axisPID
 1163 0f44 D3ED007A 		flds	s15, [r3, #0]
 1164 0f48 37EE277A 		fadds	s14, s14, s15
 1165 0f4c 40F20003 		movw	r3, #:lower16:axisPID
 1166 0f50 C0F20003 		movt	r3, #:upper16:axisPID
 1167 0f54 D3ED016A 		flds	s13, [r3, #4]
 1168 0f58 40F20003 		movw	r3, #:lower16:vTailThrust
 1169 0f5c C0F20003 		movt	r3, #:upper16:vTailThrust
 1170 0f60 D3ED007A 		flds	s15, [r3, #0]
 1171 0f64 F1EE677A 		fnegs	s15, s15
 1172 0f68 66EEA77A 		fmuls	s15, s13, s15
 1173 0f6c 37EE277A 		fadds	s14, s14, s15
 1174 0f70 40F20003 		movw	r3, #:lower16:eepromConfig
 1175 0f74 C0F20003 		movt	r3, #:upper16:eepromConfig
 1176 0f78 D3ED216A 		flds	s13, [r3, #132]
 1177 0f7c 40F20003 		movw	r3, #:lower16:axisPID
 1178 0f80 C0F20003 		movt	r3, #:upper16:axisPID
 1179 0f84 D3ED027A 		flds	s15, [r3, #8]
 1180 0f88 66EEA77A 		fmuls	s15, s13, s15
 1181 0f8c 40F20003 		movw	r3, #:lower16:vTailThrust
 1182 0f90 C0F20003 		movt	r3, #:upper16:vTailThrust
 1183 0f94 D3ED006A 		flds	s13, [r3, #0]
 1184 0f98 67EEA67A 		fmuls	s15, s15, s13
 1185 0f9c 77EE277A 		fadds	s15, s14, s15
 1186 0fa0 40F20003 		movw	r3, #:lower16:motor
 1187 0fa4 C0F20003 		movt	r3, #:upper16:motor
 1188 0fa8 C3ED007A 		fsts	s15, [r3, #0]
 1189 0fac 40F20003 		movw	r3, #:lower16:rxCommand
 1190 0fb0 C0F20003 		movt	r3, #:upper16:rxCommand
 1191 0fb4 93ED037A 		flds	s14, [r3, #12]
 1192 0fb8 40F20003 		movw	r3, #:lower16:axisPID
 1193 0fbc C0F20003 		movt	r3, #:upper16:axisPID
 1194 0fc0 D3ED007A 		flds	s15, [r3, #0]
 1195 0fc4 37EE677A 		fsubs	s14, s14, s15
 1196 0fc8 40F20003 		movw	r3, #:lower16:axisPID
 1197 0fcc C0F20003 		movt	r3, #:upper16:axisPID
 1198 0fd0 D3ED016A 		flds	s13, [r3, #4]
 1199 0fd4 40F20003 		movw	r3, #:lower16:vTailThrust
 1200 0fd8 C0F20003 		movt	r3, #:upper16:vTailThrust
 1201 0fdc D3ED007A 		flds	s15, [r3, #0]
 1202 0fe0 F1EE677A 		fnegs	s15, s15
 1203 0fe4 66EEA77A 		fmuls	s15, s13, s15
 1204 0fe8 37EE277A 		fadds	s14, s14, s15
 1205 0fec 40F20003 		movw	r3, #:lower16:eepromConfig
 1206 0ff0 C0F20003 		movt	r3, #:upper16:eepromConfig
 1207 0ff4 D3ED216A 		flds	s13, [r3, #132]
 1208 0ff8 40F20003 		movw	r3, #:lower16:axisPID
 1209 0ffc C0F20003 		movt	r3, #:upper16:axisPID
 1210 1000 D3ED027A 		flds	s15, [r3, #8]
 1211 1004 66EEA77A 		fmuls	s15, s13, s15
 1212 1008 40F20003 		movw	r3, #:lower16:vTailThrust
 1213 100c C0F20003 		movt	r3, #:upper16:vTailThrust
 1214 1010 D3ED006A 		flds	s13, [r3, #0]
 1215 1014 F1EE666A 		fnegs	s13, s13
 1216 1018 67EEA67A 		fmuls	s15, s15, s13
 1217 101c 77EE277A 		fadds	s15, s14, s15
 1218 1020 40F20003 		movw	r3, #:lower16:motor
 1219 1024 C0F20003 		movt	r3, #:upper16:motor
 1220 1028 C3ED017A 		fsts	s15, [r3, #4]
 1221 102c 40F20003 		movw	r3, #:lower16:rxCommand
 1222 1030 C0F20003 		movt	r3, #:upper16:rxCommand
 1223 1034 93ED037A 		flds	s14, [r3, #12]
 1224 1038 40F20003 		movw	r3, #:lower16:axisPID
 1225 103c C0F20003 		movt	r3, #:upper16:axisPID
 1226 1040 D3ED006A 		flds	s13, [r3, #0]
 1227 1044 DFED2A7A 		flds	s15, .L62
 1228 1048 66EEA77A 		fmuls	s15, s13, s15
 1229 104c 37EE277A 		fadds	s14, s14, s15
 1230 1050 40F20003 		movw	r3, #:lower16:axisPID
 1231 1054 C0F20003 		movt	r3, #:upper16:axisPID
 1232 1058 D3ED017A 		flds	s15, [r3, #4]
 1233 105c 37EE277A 		fadds	s14, s14, s15
 1234 1060 40F20003 		movw	r3, #:lower16:eepromConfig
 1235 1064 C0F20003 		movt	r3, #:upper16:eepromConfig
 1236 1068 D3ED216A 		flds	s13, [r3, #132]
 1237 106c 40F20003 		movw	r3, #:lower16:axisPID
 1238 1070 C0F20003 		movt	r3, #:upper16:axisPID
 1239 1074 D3ED027A 		flds	s15, [r3, #8]
 1240 1078 66EEA77A 		fmuls	s15, s13, s15
 1241 107c 77EE277A 		fadds	s15, s14, s15
 1242 1080 40F20003 		movw	r3, #:lower16:motor
 1243 1084 C0F20003 		movt	r3, #:upper16:motor
 1244 1088 C3ED027A 		fsts	s15, [r3, #8]
 1245 108c 40F20003 		movw	r3, #:lower16:rxCommand
 1246 1090 C0F20003 		movt	r3, #:upper16:rxCommand
 1247 1094 93ED037A 		flds	s14, [r3, #12]
 1248 1098 40F20003 		movw	r3, #:lower16:axisPID
 1249 109c C0F20003 		movt	r3, #:upper16:axisPID
 1250 10a0 D3ED006A 		flds	s13, [r3, #0]
 1251 10a4 DFED127A 		flds	s15, .L62
 1252 10a8 66EEA77A 		fmuls	s15, s13, s15
 1253 10ac 37EE277A 		fadds	s14, s14, s15
 1254 10b0 40F20003 		movw	r3, #:lower16:axisPID
 1255 10b4 C0F20003 		movt	r3, #:upper16:axisPID
 1256 10b8 D3ED017A 		flds	s15, [r3, #4]
 1257 10bc 37EE277A 		fadds	s14, s14, s15
 1258 10c0 40F20003 		movw	r3, #:lower16:eepromConfig
 1259 10c4 C0F20003 		movt	r3, #:upper16:eepromConfig
 1260 10c8 D3ED216A 		flds	s13, [r3, #132]
 1261 10cc 40F20003 		movw	r3, #:lower16:axisPID
 1262 10d0 C0F20003 		movt	r3, #:upper16:axisPID
 1263 10d4 D3ED027A 		flds	s15, [r3, #8]
 1264 10d8 66EEA77A 		fmuls	s15, s13, s15
 1265 10dc 77EE677A 		fsubs	s15, s14, s15
 1266 10e0 40F20003 		movw	r3, #:lower16:motor
 1267 10e4 C0F20003 		movt	r3, #:upper16:motor
 1268 10e8 C3ED037A 		fsts	s15, [r3, #12]
 1269 10ec 01F04CBE 		b	.L25
 1270              	.L63:
 1271              		.align	2
 1272              	.L62:
 1273 10f0 00000000 		.word	0
 1274 10f4 00000080 		.word	-2147483648
 1275              	.L35:
 1276 10f8 40F20003 		movw	r3, #:lower16:rxCommand
 1277 10fc C0F20003 		movt	r3, #:upper16:rxCommand
 1278 1100 93ED037A 		flds	s14, [r3, #12]
 1279 1104 40F20003 		movw	r3, #:lower16:axisPID
 1280 1108 C0F20003 		movt	r3, #:upper16:axisPID
 1281 110c D3ED006A 		flds	s13, [r3, #0]
 1282 1110 40F20003 		movw	r3, #:lower16:vTailThrust
 1283 1114 C0F20003 		movt	r3, #:upper16:vTailThrust
 1284 1118 D3ED007A 		flds	s15, [r3, #0]
 1285 111c 66EEA77A 		fmuls	s15, s13, s15
 1286 1120 37EE277A 		fadds	s14, s14, s15
 1287 1124 40F20003 		movw	r3, #:lower16:axisPID
 1288 1128 C0F20003 		movt	r3, #:upper16:axisPID
 1289 112c D3ED017A 		flds	s15, [r3, #4]
 1290 1130 37EE677A 		fsubs	s14, s14, s15
 1291 1134 40F20003 		movw	r3, #:lower16:eepromConfig
 1292 1138 C0F20003 		movt	r3, #:upper16:eepromConfig
 1293 113c D3ED216A 		flds	s13, [r3, #132]
 1294 1140 40F20003 		movw	r3, #:lower16:axisPID
 1295 1144 C0F20003 		movt	r3, #:upper16:axisPID
 1296 1148 D3ED027A 		flds	s15, [r3, #8]
 1297 114c 66EEA77A 		fmuls	s15, s13, s15
 1298 1150 40F20003 		movw	r3, #:lower16:vTailThrust
 1299 1154 C0F20003 		movt	r3, #:upper16:vTailThrust
 1300 1158 D3ED006A 		flds	s13, [r3, #0]
 1301 115c 67EEA67A 		fmuls	s15, s15, s13
 1302 1160 77EE277A 		fadds	s15, s14, s15
 1303 1164 40F20003 		movw	r3, #:lower16:motor
 1304 1168 C0F20003 		movt	r3, #:upper16:motor
 1305 116c C3ED007A 		fsts	s15, [r3, #0]
 1306 1170 40F20003 		movw	r3, #:lower16:rxCommand
 1307 1174 C0F20003 		movt	r3, #:upper16:rxCommand
 1308 1178 93ED037A 		flds	s14, [r3, #12]
 1309 117c 40F20003 		movw	r3, #:lower16:axisPID
 1310 1180 C0F20003 		movt	r3, #:upper16:axisPID
 1311 1184 D3ED006A 		flds	s13, [r3, #0]
 1312 1188 40F20003 		movw	r3, #:lower16:vTailThrust
 1313 118c C0F20003 		movt	r3, #:upper16:vTailThrust
 1314 1190 D3ED007A 		flds	s15, [r3, #0]
 1315 1194 F1EE677A 		fnegs	s15, s15
 1316 1198 66EEA77A 		fmuls	s15, s13, s15
 1317 119c 37EE277A 		fadds	s14, s14, s15
 1318 11a0 40F20003 		movw	r3, #:lower16:axisPID
 1319 11a4 C0F20003 		movt	r3, #:upper16:axisPID
 1320 11a8 D3ED017A 		flds	s15, [r3, #4]
 1321 11ac 37EE677A 		fsubs	s14, s14, s15
 1322 11b0 40F20003 		movw	r3, #:lower16:eepromConfig
 1323 11b4 C0F20003 		movt	r3, #:upper16:eepromConfig
 1324 11b8 D3ED216A 		flds	s13, [r3, #132]
 1325 11bc 40F20003 		movw	r3, #:lower16:axisPID
 1326 11c0 C0F20003 		movt	r3, #:upper16:axisPID
 1327 11c4 D3ED027A 		flds	s15, [r3, #8]
 1328 11c8 66EEA77A 		fmuls	s15, s13, s15
 1329 11cc 40F20003 		movw	r3, #:lower16:vTailThrust
 1330 11d0 C0F20003 		movt	r3, #:upper16:vTailThrust
 1331 11d4 D3ED006A 		flds	s13, [r3, #0]
 1332 11d8 F1EE666A 		fnegs	s13, s13
 1333 11dc 67EEA67A 		fmuls	s15, s15, s13
 1334 11e0 77EE277A 		fadds	s15, s14, s15
 1335 11e4 40F20003 		movw	r3, #:lower16:motor
 1336 11e8 C0F20003 		movt	r3, #:upper16:motor
 1337 11ec C3ED017A 		fsts	s15, [r3, #4]
 1338 11f0 40F20003 		movw	r3, #:lower16:rxCommand
 1339 11f4 C0F20003 		movt	r3, #:upper16:rxCommand
 1340 11f8 93ED037A 		flds	s14, [r3, #12]
 1341 11fc 40F20003 		movw	r3, #:lower16:axisPID
 1342 1200 C0F20003 		movt	r3, #:upper16:axisPID
 1343 1204 D3ED007A 		flds	s15, [r3, #0]
 1344 1208 37EE677A 		fsubs	s14, s14, s15
 1345 120c 40F20003 		movw	r3, #:lower16:axisPID
 1346 1210 C0F20003 		movt	r3, #:upper16:axisPID
 1347 1214 D3ED017A 		flds	s15, [r3, #4]
 1348 1218 37EE277A 		fadds	s14, s14, s15
 1349 121c 40F20003 		movw	r3, #:lower16:eepromConfig
 1350 1220 C0F20003 		movt	r3, #:upper16:eepromConfig
 1351 1224 D3ED216A 		flds	s13, [r3, #132]
 1352 1228 40F20003 		movw	r3, #:lower16:axisPID
 1353 122c C0F20003 		movt	r3, #:upper16:axisPID
 1354 1230 D3ED027A 		flds	s15, [r3, #8]
 1355 1234 66EEA77A 		fmuls	s15, s13, s15
 1356 1238 77EE277A 		fadds	s15, s14, s15
 1357 123c 40F20003 		movw	r3, #:lower16:motor
 1358 1240 C0F20003 		movt	r3, #:upper16:motor
 1359 1244 C3ED027A 		fsts	s15, [r3, #8]
 1360 1248 40F20003 		movw	r3, #:lower16:rxCommand
 1361 124c C0F20003 		movt	r3, #:upper16:rxCommand
 1362 1250 93ED037A 		flds	s14, [r3, #12]
 1363 1254 40F20003 		movw	r3, #:lower16:axisPID
 1364 1258 C0F20003 		movt	r3, #:upper16:axisPID
 1365 125c D3ED007A 		flds	s15, [r3, #0]
 1366 1260 37EE277A 		fadds	s14, s14, s15
 1367 1264 40F20003 		movw	r3, #:lower16:axisPID
 1368 1268 C0F20003 		movt	r3, #:upper16:axisPID
 1369 126c D3ED017A 		flds	s15, [r3, #4]
 1370 1270 37EE277A 		fadds	s14, s14, s15
 1371 1274 40F20003 		movw	r3, #:lower16:eepromConfig
 1372 1278 C0F20003 		movt	r3, #:upper16:eepromConfig
 1373 127c D3ED216A 		flds	s13, [r3, #132]
 1374 1280 40F20003 		movw	r3, #:lower16:axisPID
 1375 1284 C0F20003 		movt	r3, #:upper16:axisPID
 1376 1288 D3ED027A 		flds	s15, [r3, #8]
 1377 128c 66EEA77A 		fmuls	s15, s13, s15
 1378 1290 77EE677A 		fsubs	s15, s14, s15
 1379 1294 40F20003 		movw	r3, #:lower16:motor
 1380 1298 C0F20003 		movt	r3, #:upper16:motor
 1381 129c C3ED037A 		fsts	s15, [r3, #12]
 1382 12a0 01F072BD 		b	.L25
 1383              	.L36:
 1384 12a4 40F20003 		movw	r3, #:lower16:rxCommand
 1385 12a8 C0F20003 		movt	r3, #:upper16:rxCommand
 1386 12ac 93ED037A 		flds	s14, [r3, #12]
 1387 12b0 40F20003 		movw	r3, #:lower16:axisPID
 1388 12b4 C0F20003 		movt	r3, #:upper16:axisPID
 1389 12b8 D3ED006A 		flds	s13, [r3, #0]
 1390 12bc 40F20003 		movw	r3, #:lower16:vTailThrust
 1391 12c0 C0F20003 		movt	r3, #:upper16:vTailThrust
 1392 12c4 D3ED007A 		flds	s15, [r3, #0]
 1393 12c8 66EEA77A 		fmuls	s15, s13, s15
 1394 12cc 37EE277A 		fadds	s14, s14, s15
 1395 12d0 40F20003 		movw	r3, #:lower16:axisPID
 1396 12d4 C0F20003 		movt	r3, #:upper16:axisPID
 1397 12d8 D3ED016A 		flds	s13, [r3, #4]
 1398 12dc 40F20003 		movw	r3, #:lower16:vTailThrust
 1399 12e0 C0F20003 		movt	r3, #:upper16:vTailThrust
 1400 12e4 D3ED007A 		flds	s15, [r3, #0]
 1401 12e8 F1EE677A 		fnegs	s15, s15
 1402 12ec 66EEA77A 		fmuls	s15, s13, s15
 1403 12f0 37EE277A 		fadds	s14, s14, s15
 1404 12f4 40F20003 		movw	r3, #:lower16:eepromConfig
 1405 12f8 C0F20003 		movt	r3, #:upper16:eepromConfig
 1406 12fc D3ED216A 		flds	s13, [r3, #132]
 1407 1300 40F20003 		movw	r3, #:lower16:axisPID
 1408 1304 C0F20003 		movt	r3, #:upper16:axisPID
 1409 1308 D3ED027A 		flds	s15, [r3, #8]
 1410 130c 66EEA77A 		fmuls	s15, s13, s15
 1411 1310 5FED896A 		flds	s13, .L62
 1412 1314 67EEA67A 		fmuls	s15, s15, s13
 1413 1318 77EE277A 		fadds	s15, s14, s15
 1414 131c 40F20003 		movw	r3, #:lower16:motor
 1415 1320 C0F20003 		movt	r3, #:upper16:motor
 1416 1324 C3ED007A 		fsts	s15, [r3, #0]
 1417 1328 40F20003 		movw	r3, #:lower16:rxCommand
 1418 132c C0F20003 		movt	r3, #:upper16:rxCommand
 1419 1330 93ED037A 		flds	s14, [r3, #12]
 1420 1334 40F20003 		movw	r3, #:lower16:axisPID
 1421 1338 C0F20003 		movt	r3, #:upper16:axisPID
 1422 133c D3ED006A 		flds	s13, [r3, #0]
 1423 1340 40F20003 		movw	r3, #:lower16:vTailThrust
 1424 1344 C0F20003 		movt	r3, #:upper16:vTailThrust
 1425 1348 D3ED007A 		flds	s15, [r3, #0]
 1426 134c F1EE677A 		fnegs	s15, s15
 1427 1350 66EEA77A 		fmuls	s15, s13, s15
 1428 1354 37EE277A 		fadds	s14, s14, s15
 1429 1358 40F20003 		movw	r3, #:lower16:axisPID
 1430 135c C0F20003 		movt	r3, #:upper16:axisPID
 1431 1360 D3ED016A 		flds	s13, [r3, #4]
 1432 1364 40F20003 		movw	r3, #:lower16:vTailThrust
 1433 1368 C0F20003 		movt	r3, #:upper16:vTailThrust
 1434 136c D3ED007A 		flds	s15, [r3, #0]
 1435 1370 F1EE677A 		fnegs	s15, s15
 1436 1374 66EEA77A 		fmuls	s15, s13, s15
 1437 1378 37EE277A 		fadds	s14, s14, s15
 1438 137c 40F20003 		movw	r3, #:lower16:eepromConfig
 1439 1380 C0F20003 		movt	r3, #:upper16:eepromConfig
 1440 1384 D3ED216A 		flds	s13, [r3, #132]
 1441 1388 40F20003 		movw	r3, #:lower16:axisPID
 1442 138c C0F20003 		movt	r3, #:upper16:axisPID
 1443 1390 D3ED027A 		flds	s15, [r3, #8]
 1444 1394 66EEA77A 		fmuls	s15, s13, s15
 1445 1398 5FEDAA6A 		flds	s13, .L62+4
 1446 139c 67EEA67A 		fmuls	s15, s15, s13
 1447 13a0 77EE277A 		fadds	s15, s14, s15
 1448 13a4 40F20003 		movw	r3, #:lower16:motor
 1449 13a8 C0F20003 		movt	r3, #:upper16:motor
 1450 13ac C3ED017A 		fsts	s15, [r3, #4]
 1451 13b0 40F20003 		movw	r3, #:lower16:rxCommand
 1452 13b4 C0F20003 		movt	r3, #:upper16:rxCommand
 1453 13b8 93ED037A 		flds	s14, [r3, #12]
 1454 13bc 40F20003 		movw	r3, #:lower16:axisPID
 1455 13c0 C0F20003 		movt	r3, #:upper16:axisPID
 1456 13c4 D3ED007A 		flds	s15, [r3, #0]
 1457 13c8 37EE677A 		fsubs	s14, s14, s15
 1458 13cc 40F20003 		movw	r3, #:lower16:axisPID
 1459 13d0 C0F20003 		movt	r3, #:upper16:axisPID
 1460 13d4 D3ED017A 		flds	s15, [r3, #4]
 1461 13d8 37EE277A 		fadds	s14, s14, s15
 1462 13dc 40F20003 		movw	r3, #:lower16:eepromConfig
 1463 13e0 C0F20003 		movt	r3, #:upper16:eepromConfig
 1464 13e4 D3ED216A 		flds	s13, [r3, #132]
 1465 13e8 40F20003 		movw	r3, #:lower16:axisPID
 1466 13ec C0F20003 		movt	r3, #:upper16:axisPID
 1467 13f0 D3ED027A 		flds	s15, [r3, #8]
 1468 13f4 66EEA77A 		fmuls	s15, s13, s15
 1469 13f8 77EE277A 		fadds	s15, s14, s15
 1470 13fc 40F20003 		movw	r3, #:lower16:motor
 1471 1400 C0F20003 		movt	r3, #:upper16:motor
 1472 1404 C3ED027A 		fsts	s15, [r3, #8]
 1473 1408 40F20003 		movw	r3, #:lower16:rxCommand
 1474 140c C0F20003 		movt	r3, #:upper16:rxCommand
 1475 1410 93ED037A 		flds	s14, [r3, #12]
 1476 1414 40F20003 		movw	r3, #:lower16:axisPID
 1477 1418 C0F20003 		movt	r3, #:upper16:axisPID
 1478 141c D3ED007A 		flds	s15, [r3, #0]
 1479 1420 37EE277A 		fadds	s14, s14, s15
 1480 1424 40F20003 		movw	r3, #:lower16:axisPID
 1481 1428 C0F20003 		movt	r3, #:upper16:axisPID
 1482 142c D3ED017A 		flds	s15, [r3, #4]
 1483 1430 37EE277A 		fadds	s14, s14, s15
 1484 1434 40F20003 		movw	r3, #:lower16:eepromConfig
 1485 1438 C0F20003 		movt	r3, #:upper16:eepromConfig
 1486 143c D3ED216A 		flds	s13, [r3, #132]
 1487 1440 40F20003 		movw	r3, #:lower16:axisPID
 1488 1444 C0F20003 		movt	r3, #:upper16:axisPID
 1489 1448 D3ED027A 		flds	s15, [r3, #8]
 1490 144c 66EEA77A 		fmuls	s15, s13, s15
 1491 1450 77EE677A 		fsubs	s15, s14, s15
 1492 1454 40F20003 		movw	r3, #:lower16:motor
 1493 1458 C0F20003 		movt	r3, #:upper16:motor
 1494 145c C3ED037A 		fsts	s15, [r3, #12]
 1495 1460 01F092BC 		b	.L25
 1496              	.L37:
 1497 1464 40F20003 		movw	r3, #:lower16:rxCommand
 1498 1468 C0F20003 		movt	r3, #:upper16:rxCommand
 1499 146c 93ED037A 		flds	s14, [r3, #12]
 1500 1470 40F20003 		movw	r3, #:lower16:axisPID
 1501 1474 C0F20003 		movt	r3, #:upper16:axisPID
 1502 1478 D3ED006A 		flds	s13, [r3, #0]
 1503 147c 40F20003 		movw	r3, #:lower16:vTailThrust
 1504 1480 C0F20003 		movt	r3, #:upper16:vTailThrust
 1505 1484 D3ED007A 		flds	s15, [r3, #0]
 1506 1488 66EEA77A 		fmuls	s15, s13, s15
 1507 148c 37EE277A 		fadds	s14, s14, s15
 1508 1490 40F20003 		movw	r3, #:lower16:axisPID
 1509 1494 C0F20003 		movt	r3, #:upper16:axisPID
 1510 1498 D3ED016A 		flds	s13, [r3, #4]
 1511 149c 40F20003 		movw	r3, #:lower16:vTailThrust
 1512 14a0 C0F20003 		movt	r3, #:upper16:vTailThrust
 1513 14a4 D3ED007A 		flds	s15, [r3, #0]
 1514 14a8 F1EE677A 		fnegs	s15, s15
 1515 14ac 66EEA77A 		fmuls	s15, s13, s15
 1516 14b0 37EE277A 		fadds	s14, s14, s15
 1517 14b4 40F20003 		movw	r3, #:lower16:eepromConfig
 1518 14b8 C0F20003 		movt	r3, #:upper16:eepromConfig
 1519 14bc D3ED216A 		flds	s13, [r3, #132]
 1520 14c0 40F20003 		movw	r3, #:lower16:axisPID
 1521 14c4 C0F20003 		movt	r3, #:upper16:axisPID
 1522 14c8 D3ED027A 		flds	s15, [r3, #8]
 1523 14cc 66EEA77A 		fmuls	s15, s13, s15
 1524 14d0 40F20003 		movw	r3, #:lower16:vTailThrust
 1525 14d4 C0F20003 		movt	r3, #:upper16:vTailThrust
 1526 14d8 D3ED006A 		flds	s13, [r3, #0]
 1527 14dc 67EEA67A 		fmuls	s15, s15, s13
 1528 14e0 77EE277A 		fadds	s15, s14, s15
 1529 14e4 40F20003 		movw	r3, #:lower16:motor
 1530 14e8 C0F20003 		movt	r3, #:upper16:motor
 1531 14ec C3ED007A 		fsts	s15, [r3, #0]
 1532 14f0 40F20003 		movw	r3, #:lower16:rxCommand
 1533 14f4 C0F20003 		movt	r3, #:upper16:rxCommand
 1534 14f8 93ED037A 		flds	s14, [r3, #12]
 1535 14fc 40F20003 		movw	r3, #:lower16:axisPID
 1536 1500 C0F20003 		movt	r3, #:upper16:axisPID
 1537 1504 D3ED006A 		flds	s13, [r3, #0]
 1538 1508 40F20003 		movw	r3, #:lower16:vTailThrust
 1539 150c C0F20003 		movt	r3, #:upper16:vTailThrust
 1540 1510 D3ED007A 		flds	s15, [r3, #0]
 1541 1514 F1EE677A 		fnegs	s15, s15
 1542 1518 66EEA77A 		fmuls	s15, s13, s15
 1543 151c 37EE277A 		fadds	s14, s14, s15
 1544 1520 40F20003 		movw	r3, #:lower16:axisPID
 1545 1524 C0F20003 		movt	r3, #:upper16:axisPID
 1546 1528 D3ED016A 		flds	s13, [r3, #4]
 1547 152c 40F20003 		movw	r3, #:lower16:vTailThrust
 1548 1530 C0F20003 		movt	r3, #:upper16:vTailThrust
 1549 1534 D3ED007A 		flds	s15, [r3, #0]
 1550 1538 F1EE677A 		fnegs	s15, s15
 1551 153c 66EEA77A 		fmuls	s15, s13, s15
 1552 1540 37EE277A 		fadds	s14, s14, s15
 1553 1544 40F20003 		movw	r3, #:lower16:eepromConfig
 1554 1548 C0F20003 		movt	r3, #:upper16:eepromConfig
 1555 154c D3ED216A 		flds	s13, [r3, #132]
 1556 1550 40F20003 		movw	r3, #:lower16:axisPID
 1557 1554 C0F20003 		movt	r3, #:upper16:axisPID
 1558 1558 D3ED027A 		flds	s15, [r3, #8]
 1559 155c 66EEA77A 		fmuls	s15, s13, s15
 1560 1560 40F20003 		movw	r3, #:lower16:vTailThrust
 1561 1564 C0F20003 		movt	r3, #:upper16:vTailThrust
 1562 1568 D3ED006A 		flds	s13, [r3, #0]
 1563 156c F1EE666A 		fnegs	s13, s13
 1564 1570 67EEA67A 		fmuls	s15, s15, s13
 1565 1574 77EE277A 		fadds	s15, s14, s15
 1566 1578 40F20003 		movw	r3, #:lower16:motor
 1567 157c C0F20003 		movt	r3, #:upper16:motor
 1568 1580 C3ED017A 		fsts	s15, [r3, #4]
 1569 1584 40F20003 		movw	r3, #:lower16:rxCommand
 1570 1588 C0F20003 		movt	r3, #:upper16:rxCommand
 1571 158c 93ED037A 		flds	s14, [r3, #12]
 1572 1590 40F20003 		movw	r3, #:lower16:axisPID
 1573 1594 C0F20003 		movt	r3, #:upper16:axisPID
 1574 1598 D3ED007A 		flds	s15, [r3, #0]
 1575 159c 37EE677A 		fsubs	s14, s14, s15
 1576 15a0 40F20003 		movw	r3, #:lower16:axisPID
 1577 15a4 C0F20003 		movt	r3, #:upper16:axisPID
 1578 15a8 D3ED017A 		flds	s15, [r3, #4]
 1579 15ac 37EE277A 		fadds	s14, s14, s15
 1580 15b0 40F20003 		movw	r3, #:lower16:eepromConfig
 1581 15b4 C0F20003 		movt	r3, #:upper16:eepromConfig
 1582 15b8 D3ED216A 		flds	s13, [r3, #132]
 1583 15bc 40F20003 		movw	r3, #:lower16:axisPID
 1584 15c0 C0F20003 		movt	r3, #:upper16:axisPID
 1585 15c4 D3ED027A 		flds	s15, [r3, #8]
 1586 15c8 66EEA77A 		fmuls	s15, s13, s15
 1587 15cc 77EE277A 		fadds	s15, s14, s15
 1588 15d0 40F20003 		movw	r3, #:lower16:motor
 1589 15d4 C0F20003 		movt	r3, #:upper16:motor
 1590 15d8 C3ED027A 		fsts	s15, [r3, #8]
 1591 15dc 40F20003 		movw	r3, #:lower16:rxCommand
 1592 15e0 C0F20003 		movt	r3, #:upper16:rxCommand
 1593 15e4 93ED037A 		flds	s14, [r3, #12]
 1594 15e8 40F20003 		movw	r3, #:lower16:axisPID
 1595 15ec C0F20003 		movt	r3, #:upper16:axisPID
 1596 15f0 D3ED007A 		flds	s15, [r3, #0]
 1597 15f4 37EE277A 		fadds	s14, s14, s15
 1598 15f8 40F20003 		movw	r3, #:lower16:axisPID
 1599 15fc C0F20003 		movt	r3, #:upper16:axisPID
 1600 1600 D3ED017A 		flds	s15, [r3, #4]
 1601 1604 37EE277A 		fadds	s14, s14, s15
 1602 1608 40F20003 		movw	r3, #:lower16:eepromConfig
 1603 160c C0F20003 		movt	r3, #:upper16:eepromConfig
 1604 1610 D3ED216A 		flds	s13, [r3, #132]
 1605 1614 40F20003 		movw	r3, #:lower16:axisPID
 1606 1618 C0F20003 		movt	r3, #:upper16:axisPID
 1607 161c D3ED027A 		flds	s15, [r3, #8]
 1608 1620 66EEA77A 		fmuls	s15, s13, s15
 1609 1624 77EE677A 		fsubs	s15, s14, s15
 1610 1628 40F20003 		movw	r3, #:lower16:motor
 1611 162c C0F20003 		movt	r3, #:upper16:motor
 1612 1630 C3ED037A 		fsts	s15, [r3, #12]
 1613 1634 01F0A8BB 		b	.L25
 1614              	.L38:
 1615 1638 40F20003 		movw	r3, #:lower16:rxCommand
 1616 163c C0F20003 		movt	r3, #:upper16:rxCommand
 1617 1640 93ED037A 		flds	s14, [r3, #12]
 1618 1644 40F20003 		movw	r3, #:lower16:axisPID
 1619 1648 C0F20003 		movt	r3, #:upper16:axisPID
 1620 164c D3ED007A 		flds	s15, [r3, #0]
 1621 1650 37EE277A 		fadds	s14, s14, s15
 1622 1654 40F20003 		movw	r3, #:lower16:axisPID
 1623 1658 C0F20003 		movt	r3, #:upper16:axisPID
 1624 165c D3ED017A 		flds	s15, [r3, #4]
 1625 1660 37EE677A 		fsubs	s14, s14, s15
 1626 1664 40F20003 		movw	r3, #:lower16:eepromConfig
 1627 1668 C0F20003 		movt	r3, #:upper16:eepromConfig
 1628 166c D3ED216A 		flds	s13, [r3, #132]
 1629 1670 40F20003 		movw	r3, #:lower16:axisPID
 1630 1674 C0F20003 		movt	r3, #:upper16:axisPID
 1631 1678 D3ED027A 		flds	s15, [r3, #8]
 1632 167c 66EEA77A 		fmuls	s15, s13, s15
 1633 1680 DFEDE56A 		flds	s13, .L64+8
 1634 1684 67EEA67A 		fmuls	s15, s15, s13
 1635 1688 77EE277A 		fadds	s15, s14, s15
 1636 168c 40F20003 		movw	r3, #:lower16:motor
 1637 1690 C0F20003 		movt	r3, #:upper16:motor
 1638 1694 C3ED007A 		fsts	s15, [r3, #0]
 1639 1698 40F20003 		movw	r3, #:lower16:rxCommand
 1640 169c C0F20003 		movt	r3, #:upper16:rxCommand
 1641 16a0 93ED037A 		flds	s14, [r3, #12]
 1642 16a4 40F20003 		movw	r3, #:lower16:axisPID
 1643 16a8 C0F20003 		movt	r3, #:upper16:axisPID
 1644 16ac D3ED007A 		flds	s15, [r3, #0]
 1645 16b0 37EE677A 		fsubs	s14, s14, s15
 1646 16b4 40F20003 		movw	r3, #:lower16:axisPID
 1647 16b8 C0F20003 		movt	r3, #:upper16:axisPID
 1648 16bc D3ED017A 		flds	s15, [r3, #4]
 1649 16c0 37EE677A 		fsubs	s14, s14, s15
 1650 16c4 40F20003 		movw	r3, #:lower16:eepromConfig
 1651 16c8 C0F20003 		movt	r3, #:upper16:eepromConfig
 1652 16cc D3ED216A 		flds	s13, [r3, #132]
 1653 16d0 40F20003 		movw	r3, #:lower16:axisPID
 1654 16d4 C0F20003 		movt	r3, #:upper16:axisPID
 1655 16d8 D3ED027A 		flds	s15, [r3, #8]
 1656 16dc 66EEA77A 		fmuls	s15, s13, s15
 1657 16e0 DFEDCD6A 		flds	s13, .L64+8
 1658 16e4 67EEA67A 		fmuls	s15, s15, s13
 1659 16e8 77EE277A 		fadds	s15, s14, s15
 1660 16ec 40F20003 		movw	r3, #:lower16:motor
 1661 16f0 C0F20003 		movt	r3, #:upper16:motor
 1662 16f4 C3ED017A 		fsts	s15, [r3, #4]
 1663 16f8 40F20003 		movw	r3, #:lower16:rxCommand
 1664 16fc C0F20003 		movt	r3, #:upper16:rxCommand
 1665 1700 93ED037A 		flds	s14, [r3, #12]
 1666 1704 40F20003 		movw	r3, #:lower16:axisPID
 1667 1708 C0F20003 		movt	r3, #:upper16:axisPID
 1668 170c D3ED006A 		flds	s13, [r3, #0]
 1669 1710 DFEDC17A 		flds	s15, .L64+8
 1670 1714 66EEA77A 		fmuls	s15, s13, s15
 1671 1718 37EE277A 		fadds	s14, s14, s15
 1672 171c 40F20003 		movw	r3, #:lower16:axisPID
 1673 1720 C0F20003 		movt	r3, #:upper16:axisPID
 1674 1724 D3ED017A 		flds	s15, [r3, #4]
 1675 1728 37EE277A 		fadds	s14, s14, s15
 1676 172c 40F20003 		movw	r3, #:lower16:eepromConfig
 1677 1730 C0F20003 		movt	r3, #:upper16:eepromConfig
 1678 1734 D3ED216A 		flds	s13, [r3, #132]
 1679 1738 40F20003 		movw	r3, #:lower16:axisPID
 1680 173c C0F20003 		movt	r3, #:upper16:axisPID
 1681 1740 D3ED027A 		flds	s15, [r3, #8]
 1682 1744 66EEA77A 		fmuls	s15, s13, s15
 1683 1748 77EE677A 		fsubs	s15, s14, s15
 1684 174c 40F20003 		movw	r3, #:lower16:motor
 1685 1750 C0F20003 		movt	r3, #:upper16:motor
 1686 1754 C3ED027A 		fsts	s15, [r3, #8]
 1687 1758 40F20003 		movw	r3, #:lower16:rxCommand
 1688 175c C0F20003 		movt	r3, #:upper16:rxCommand
 1689 1760 93ED037A 		flds	s14, [r3, #12]
 1690 1764 40F20003 		movw	r3, #:lower16:axisPID
 1691 1768 C0F20003 		movt	r3, #:upper16:axisPID
 1692 176c D3ED006A 		flds	s13, [r3, #0]
 1693 1770 DFEDA97A 		flds	s15, .L64+8
 1694 1774 66EEA77A 		fmuls	s15, s13, s15
 1695 1778 37EE277A 		fadds	s14, s14, s15
 1696 177c 40F20003 		movw	r3, #:lower16:axisPID
 1697 1780 C0F20003 		movt	r3, #:upper16:axisPID
 1698 1784 D3ED017A 		flds	s15, [r3, #4]
 1699 1788 37EE277A 		fadds	s14, s14, s15
 1700 178c 40F20003 		movw	r3, #:lower16:eepromConfig
 1701 1790 C0F20003 		movt	r3, #:upper16:eepromConfig
 1702 1794 D3ED216A 		flds	s13, [r3, #132]
 1703 1798 40F20003 		movw	r3, #:lower16:axisPID
 1704 179c C0F20003 		movt	r3, #:upper16:axisPID
 1705 17a0 D3ED027A 		flds	s15, [r3, #8]
 1706 17a4 66EEA77A 		fmuls	s15, s13, s15
 1707 17a8 77EE277A 		fadds	s15, s14, s15
 1708 17ac 40F20003 		movw	r3, #:lower16:motor
 1709 17b0 C0F20003 		movt	r3, #:upper16:motor
 1710 17b4 C3ED037A 		fsts	s15, [r3, #12]
 1711 17b8 01F0E6BA 		b	.L25
 1712              	.L39:
 1713 17bc 40F20003 		movw	r3, #:lower16:rxCommand
 1714 17c0 C0F20003 		movt	r3, #:upper16:rxCommand
 1715 17c4 93ED037A 		flds	s14, [r3, #12]
 1716 17c8 40F20003 		movw	r3, #:lower16:axisPID
 1717 17cc C0F20003 		movt	r3, #:upper16:axisPID
 1718 17d0 D3ED006A 		flds	s13, [r3, #0]
 1719 17d4 DFED907A 		flds	s15, .L64+8
 1720 17d8 66EEA77A 		fmuls	s15, s13, s15
 1721 17dc 37EE277A 		fadds	s14, s14, s15
 1722 17e0 40F20003 		movw	r3, #:lower16:axisPID
 1723 17e4 C0F20003 		movt	r3, #:upper16:axisPID
 1724 17e8 D3ED016A 		flds	s13, [r3, #4]
 1725 17ec DFED887A 		flds	s15, .L64
 1726 17f0 66EEA77A 		fmuls	s15, s13, s15
 1727 17f4 37EE277A 		fadds	s14, s14, s15
 1728 17f8 40F20003 		movw	r3, #:lower16:eepromConfig
 1729 17fc C0F20003 		movt	r3, #:upper16:eepromConfig
 1730 1800 D3ED216A 		flds	s13, [r3, #132]
 1731 1804 40F20003 		movw	r3, #:lower16:axisPID
 1732 1808 C0F20003 		movt	r3, #:upper16:axisPID
 1733 180c D3ED027A 		flds	s15, [r3, #8]
 1734 1810 66EEA77A 		fmuls	s15, s13, s15
 1735 1814 77EE677A 		fsubs	s15, s14, s15
 1736 1818 40F20003 		movw	r3, #:lower16:motor
 1737 181c C0F20003 		movt	r3, #:upper16:motor
 1738 1820 C3ED007A 		fsts	s15, [r3, #0]
 1739 1824 40F20003 		movw	r3, #:lower16:rxCommand
 1740 1828 C0F20003 		movt	r3, #:upper16:rxCommand
 1741 182c 93ED037A 		flds	s14, [r3, #12]
 1742 1830 40F20003 		movw	r3, #:lower16:axisPID
 1743 1834 C0F20003 		movt	r3, #:upper16:axisPID
 1744 1838 D3ED007A 		flds	s15, [r3, #0]
 1745 183c 37EE677A 		fsubs	s14, s14, s15
 1746 1840 40F20003 		movw	r3, #:lower16:axisPID
 1747 1844 C0F20003 		movt	r3, #:upper16:axisPID
 1748 1848 D3ED016A 		flds	s13, [r3, #4]
 1749 184c DFED707A 		flds	s15, .L64
 1750 1850 66EEA77A 		fmuls	s15, s13, s15
 1751 1854 37EE277A 		fadds	s14, s14, s15
 1752 1858 40F20003 		movw	r3, #:lower16:eepromConfig
 1753 185c C0F20003 		movt	r3, #:upper16:eepromConfig
 1754 1860 D3ED216A 		flds	s13, [r3, #132]
 1755 1864 40F20003 		movw	r3, #:lower16:axisPID
 1756 1868 C0F20003 		movt	r3, #:upper16:axisPID
 1757 186c D3ED027A 		flds	s15, [r3, #8]
 1758 1870 66EEA77A 		fmuls	s15, s13, s15
 1759 1874 77EE277A 		fadds	s15, s14, s15
 1760 1878 40F20003 		movw	r3, #:lower16:motor
 1761 187c C0F20003 		movt	r3, #:upper16:motor
 1762 1880 C3ED017A 		fsts	s15, [r3, #4]
 1763 1884 40F20003 		movw	r3, #:lower16:rxCommand
 1764 1888 C0F20003 		movt	r3, #:upper16:rxCommand
 1765 188c 93ED037A 		flds	s14, [r3, #12]
 1766 1890 40F20003 		movw	r3, #:lower16:axisPID
 1767 1894 C0F20003 		movt	r3, #:upper16:axisPID
 1768 1898 D3ED007A 		flds	s15, [r3, #0]
 1769 189c 37EE677A 		fsubs	s14, s14, s15
 1770 18a0 40F20003 		movw	r3, #:lower16:axisPID
 1771 18a4 C0F20003 		movt	r3, #:upper16:axisPID
 1772 18a8 D3ED016A 		flds	s13, [r3, #4]
 1773 18ac DFED597A 		flds	s15, .L64+4
 1774 18b0 66EEA77A 		fmuls	s15, s13, s15
 1775 18b4 37EE277A 		fadds	s14, s14, s15
 1776 18b8 40F20003 		movw	r3, #:lower16:eepromConfig
 1777 18bc C0F20003 		movt	r3, #:upper16:eepromConfig
 1778 18c0 D3ED216A 		flds	s13, [r3, #132]
 1779 18c4 40F20003 		movw	r3, #:lower16:axisPID
 1780 18c8 C0F20003 		movt	r3, #:upper16:axisPID
 1781 18cc D3ED027A 		flds	s15, [r3, #8]
 1782 18d0 66EEA77A 		fmuls	s15, s13, s15
 1783 18d4 77EE677A 		fsubs	s15, s14, s15
 1784 18d8 40F20003 		movw	r3, #:lower16:motor
 1785 18dc C0F20003 		movt	r3, #:upper16:motor
 1786 18e0 C3ED027A 		fsts	s15, [r3, #8]
 1787 18e4 40F20003 		movw	r3, #:lower16:rxCommand
 1788 18e8 C0F20003 		movt	r3, #:upper16:rxCommand
 1789 18ec 93ED037A 		flds	s14, [r3, #12]
 1790 18f0 40F20003 		movw	r3, #:lower16:axisPID
 1791 18f4 C0F20003 		movt	r3, #:upper16:axisPID
 1792 18f8 D3ED006A 		flds	s13, [r3, #0]
 1793 18fc DFED467A 		flds	s15, .L64+8
 1794 1900 66EEA77A 		fmuls	s15, s13, s15
 1795 1904 37EE277A 		fadds	s14, s14, s15
 1796 1908 40F20003 		movw	r3, #:lower16:axisPID
 1797 190c C0F20003 		movt	r3, #:upper16:axisPID
 1798 1910 D3ED016A 		flds	s13, [r3, #4]
 1799 1914 DFED3F7A 		flds	s15, .L64+4
 1800 1918 66EEA77A 		fmuls	s15, s13, s15
 1801 191c 37EE277A 		fadds	s14, s14, s15
 1802 1920 40F20003 		movw	r3, #:lower16:eepromConfig
 1803 1924 C0F20003 		movt	r3, #:upper16:eepromConfig
 1804 1928 D3ED216A 		flds	s13, [r3, #132]
 1805 192c 40F20003 		movw	r3, #:lower16:axisPID
 1806 1930 C0F20003 		movt	r3, #:upper16:axisPID
 1807 1934 D3ED027A 		flds	s15, [r3, #8]
 1808 1938 66EEA77A 		fmuls	s15, s13, s15
 1809 193c 77EE277A 		fadds	s15, s14, s15
 1810 1940 40F20003 		movw	r3, #:lower16:motor
 1811 1944 C0F20003 		movt	r3, #:upper16:motor
 1812 1948 C3ED037A 		fsts	s15, [r3, #12]
 1813 194c 40F20003 		movw	r3, #:lower16:rxCommand
 1814 1950 C0F20003 		movt	r3, #:upper16:rxCommand
 1815 1954 93ED037A 		flds	s14, [r3, #12]
 1816 1958 40F20003 		movw	r3, #:lower16:axisPID
 1817 195c C0F20003 		movt	r3, #:upper16:axisPID
 1818 1960 D3ED007A 		flds	s15, [r3, #0]
 1819 1964 37EE277A 		fadds	s14, s14, s15
 1820 1968 40F20003 		movw	r3, #:lower16:axisPID
 1821 196c C0F20003 		movt	r3, #:upper16:axisPID
 1822 1970 D3ED016A 		flds	s13, [r3, #4]
 1823 1974 DFED277A 		flds	s15, .L64+4
 1824 1978 66EEA77A 		fmuls	s15, s13, s15
 1825 197c 37EE277A 		fadds	s14, s14, s15
 1826 1980 40F20003 		movw	r3, #:lower16:eepromConfig
 1827 1984 C0F20003 		movt	r3, #:upper16:eepromConfig
 1828 1988 D3ED216A 		flds	s13, [r3, #132]
 1829 198c 40F20003 		movw	r3, #:lower16:axisPID
 1830 1990 C0F20003 		movt	r3, #:upper16:axisPID
 1831 1994 D3ED027A 		flds	s15, [r3, #8]
 1832 1998 66EEA77A 		fmuls	s15, s13, s15
 1833 199c 77EE677A 		fsubs	s15, s14, s15
 1834 19a0 40F20003 		movw	r3, #:lower16:motor
 1835 19a4 C0F20003 		movt	r3, #:upper16:motor
 1836 19a8 C3ED047A 		fsts	s15, [r3, #16]
 1837 19ac 40F20003 		movw	r3, #:lower16:rxCommand
 1838 19b0 C0F20003 		movt	r3, #:upper16:rxCommand
 1839 19b4 93ED037A 		flds	s14, [r3, #12]
 1840 19b8 40F20003 		movw	r3, #:lower16:axisPID
 1841 19bc C0F20003 		movt	r3, #:upper16:axisPID
 1842 19c0 D3ED007A 		flds	s15, [r3, #0]
 1843 19c4 37EE277A 		fadds	s14, s14, s15
 1844 19c8 40F20003 		movw	r3, #:lower16:axisPID
 1845 19cc C0F20003 		movt	r3, #:upper16:axisPID
 1846 19d0 D3ED016A 		flds	s13, [r3, #4]
 1847 19d4 DFED0E7A 		flds	s15, .L64
 1848 19d8 66EEA77A 		fmuls	s15, s13, s15
 1849 19dc 37EE277A 		fadds	s14, s14, s15
 1850 19e0 40F20003 		movw	r3, #:lower16:eepromConfig
 1851 19e4 C0F20003 		movt	r3, #:upper16:eepromConfig
 1852 19e8 D3ED216A 		flds	s13, [r3, #132]
 1853 19ec 40F20003 		movw	r3, #:lower16:axisPID
 1854 19f0 C0F20003 		movt	r3, #:upper16:axisPID
 1855 19f4 D3ED027A 		flds	s15, [r3, #8]
 1856 19f8 66EEA77A 		fmuls	s15, s13, s15
 1857 19fc 77EE277A 		fadds	s15, s14, s15
 1858 1a00 40F20003 		movw	r3, #:lower16:motor
 1859 1a04 C0F20003 		movt	r3, #:upper16:motor
 1860 1a08 C3ED057A 		fsts	s15, [r3, #20]
 1861 1a0c 01F0BCB9 		b	.L25
 1862              	.L65:
 1863              		.align	2
 1864              	.L64:
 1865 1a10 D0B35DBF 		.word	-1084378160
 1866 1a14 D0B35D3F 		.word	1063105488
 1867 1a18 00000000 		.word	0
 1868              	.L40:
 1869 1a1c 40F20003 		movw	r3, #:lower16:rxCommand
 1870 1a20 C0F20003 		movt	r3, #:upper16:rxCommand
 1871 1a24 93ED037A 		flds	s14, [r3, #12]
 1872 1a28 40F20003 		movw	r3, #:lower16:axisPID
 1873 1a2c C0F20003 		movt	r3, #:upper16:axisPID
 1874 1a30 D3ED006A 		flds	s13, [r3, #0]
 1875 1a34 5FED097A 		flds	s15, .L64+4
 1876 1a38 66EEA77A 		fmuls	s15, s13, s15
 1877 1a3c 37EE277A 		fadds	s14, s14, s15
 1878 1a40 40F20003 		movw	r3, #:lower16:axisPID
 1879 1a44 C0F20003 		movt	r3, #:upper16:axisPID
 1880 1a48 D3ED017A 		flds	s15, [r3, #4]
 1881 1a4c 37EE677A 		fsubs	s14, s14, s15
 1882 1a50 40F20003 		movw	r3, #:lower16:eepromConfig
 1883 1a54 C0F20003 		movt	r3, #:upper16:eepromConfig
 1884 1a58 D3ED216A 		flds	s13, [r3, #132]
 1885 1a5c 40F20003 		movw	r3, #:lower16:axisPID
 1886 1a60 C0F20003 		movt	r3, #:upper16:axisPID
 1887 1a64 D3ED027A 		flds	s15, [r3, #8]
 1888 1a68 66EEA77A 		fmuls	s15, s13, s15
 1889 1a6c 77EE677A 		fsubs	s15, s14, s15
 1890 1a70 40F20003 		movw	r3, #:lower16:motor
 1891 1a74 C0F20003 		movt	r3, #:upper16:motor
 1892 1a78 C3ED007A 		fsts	s15, [r3, #0]
 1893 1a7c 40F20003 		movw	r3, #:lower16:rxCommand
 1894 1a80 C0F20003 		movt	r3, #:upper16:rxCommand
 1895 1a84 93ED037A 		flds	s14, [r3, #12]
 1896 1a88 40F20003 		movw	r3, #:lower16:axisPID
 1897 1a8c C0F20003 		movt	r3, #:upper16:axisPID
 1898 1a90 D3ED006A 		flds	s13, [r3, #0]
 1899 1a94 5FED227A 		flds	s15, .L64
 1900 1a98 66EEA77A 		fmuls	s15, s13, s15
 1901 1a9c 37EE277A 		fadds	s14, s14, s15
 1902 1aa0 40F20003 		movw	r3, #:lower16:axisPID
 1903 1aa4 C0F20003 		movt	r3, #:upper16:axisPID
 1904 1aa8 D3ED017A 		flds	s15, [r3, #4]
 1905 1aac 37EE677A 		fsubs	s14, s14, s15
 1906 1ab0 40F20003 		movw	r3, #:lower16:eepromConfig
 1907 1ab4 C0F20003 		movt	r3, #:upper16:eepromConfig
 1908 1ab8 D3ED216A 		flds	s13, [r3, #132]
 1909 1abc 40F20003 		movw	r3, #:lower16:axisPID
 1910 1ac0 C0F20003 		movt	r3, #:upper16:axisPID
 1911 1ac4 D3ED027A 		flds	s15, [r3, #8]
 1912 1ac8 66EEA77A 		fmuls	s15, s13, s15
 1913 1acc 77EE277A 		fadds	s15, s14, s15
 1914 1ad0 40F20003 		movw	r3, #:lower16:motor
 1915 1ad4 C0F20003 		movt	r3, #:upper16:motor
 1916 1ad8 C3ED017A 		fsts	s15, [r3, #4]
 1917 1adc 40F20003 		movw	r3, #:lower16:rxCommand
 1918 1ae0 C0F20003 		movt	r3, #:upper16:rxCommand
 1919 1ae4 93ED037A 		flds	s14, [r3, #12]
 1920 1ae8 40F20003 		movw	r3, #:lower16:axisPID
 1921 1aec C0F20003 		movt	r3, #:upper16:axisPID
 1922 1af0 D3ED006A 		flds	s13, [r3, #0]
 1923 1af4 5FED3A7A 		flds	s15, .L64
 1924 1af8 66EEA77A 		fmuls	s15, s13, s15
 1925 1afc 37EE277A 		fadds	s14, s14, s15
 1926 1b00 40F20003 		movw	r3, #:lower16:axisPID
 1927 1b04 C0F20003 		movt	r3, #:upper16:axisPID
 1928 1b08 D3ED016A 		flds	s13, [r3, #4]
 1929 1b0c 5FED3E7A 		flds	s15, .L64+8
 1930 1b10 66EEA77A 		fmuls	s15, s13, s15
 1931 1b14 37EE277A 		fadds	s14, s14, s15
 1932 1b18 40F20003 		movw	r3, #:lower16:eepromConfig
 1933 1b1c C0F20003 		movt	r3, #:upper16:eepromConfig
 1934 1b20 D3ED216A 		flds	s13, [r3, #132]
 1935 1b24 40F20003 		movw	r3, #:lower16:axisPID
 1936 1b28 C0F20003 		movt	r3, #:upper16:axisPID
 1937 1b2c D3ED027A 		flds	s15, [r3, #8]
 1938 1b30 66EEA77A 		fmuls	s15, s13, s15
 1939 1b34 77EE677A 		fsubs	s15, s14, s15
 1940 1b38 40F20003 		movw	r3, #:lower16:motor
 1941 1b3c C0F20003 		movt	r3, #:upper16:motor
 1942 1b40 C3ED027A 		fsts	s15, [r3, #8]
 1943 1b44 40F20003 		movw	r3, #:lower16:rxCommand
 1944 1b48 C0F20003 		movt	r3, #:upper16:rxCommand
 1945 1b4c 93ED037A 		flds	s14, [r3, #12]
 1946 1b50 40F20003 		movw	r3, #:lower16:axisPID
 1947 1b54 C0F20003 		movt	r3, #:upper16:axisPID
 1948 1b58 D3ED006A 		flds	s13, [r3, #0]
 1949 1b5c 5FED547A 		flds	s15, .L64
 1950 1b60 66EEA77A 		fmuls	s15, s13, s15
 1951 1b64 37EE277A 		fadds	s14, s14, s15
 1952 1b68 40F20003 		movw	r3, #:lower16:axisPID
 1953 1b6c C0F20003 		movt	r3, #:upper16:axisPID
 1954 1b70 D3ED017A 		flds	s15, [r3, #4]
 1955 1b74 37EE277A 		fadds	s14, s14, s15
 1956 1b78 40F20003 		movw	r3, #:lower16:eepromConfig
 1957 1b7c C0F20003 		movt	r3, #:upper16:eepromConfig
 1958 1b80 D3ED216A 		flds	s13, [r3, #132]
 1959 1b84 40F20003 		movw	r3, #:lower16:axisPID
 1960 1b88 C0F20003 		movt	r3, #:upper16:axisPID
 1961 1b8c D3ED027A 		flds	s15, [r3, #8]
 1962 1b90 66EEA77A 		fmuls	s15, s13, s15
 1963 1b94 77EE277A 		fadds	s15, s14, s15
 1964 1b98 40F20003 		movw	r3, #:lower16:motor
 1965 1b9c C0F20003 		movt	r3, #:upper16:motor
 1966 1ba0 C3ED037A 		fsts	s15, [r3, #12]
 1967 1ba4 40F20003 		movw	r3, #:lower16:rxCommand
 1968 1ba8 C0F20003 		movt	r3, #:upper16:rxCommand
 1969 1bac 93ED037A 		flds	s14, [r3, #12]
 1970 1bb0 40F20003 		movw	r3, #:lower16:axisPID
 1971 1bb4 C0F20003 		movt	r3, #:upper16:axisPID
 1972 1bb8 D3ED006A 		flds	s13, [r3, #0]
 1973 1bbc 5FED6B7A 		flds	s15, .L64+4
 1974 1bc0 66EEA77A 		fmuls	s15, s13, s15
 1975 1bc4 37EE277A 		fadds	s14, s14, s15
 1976 1bc8 40F20003 		movw	r3, #:lower16:axisPID
 1977 1bcc C0F20003 		movt	r3, #:upper16:axisPID
 1978 1bd0 D3ED017A 		flds	s15, [r3, #4]
 1979 1bd4 37EE277A 		fadds	s14, s14, s15
 1980 1bd8 40F20003 		movw	r3, #:lower16:eepromConfig
 1981 1bdc C0F20003 		movt	r3, #:upper16:eepromConfig
 1982 1be0 D3ED216A 		flds	s13, [r3, #132]
 1983 1be4 40F20003 		movw	r3, #:lower16:axisPID
 1984 1be8 C0F20003 		movt	r3, #:upper16:axisPID
 1985 1bec D3ED027A 		flds	s15, [r3, #8]
 1986 1bf0 66EEA77A 		fmuls	s15, s13, s15
 1987 1bf4 77EE677A 		fsubs	s15, s14, s15
 1988 1bf8 40F20003 		movw	r3, #:lower16:motor
 1989 1bfc C0F20003 		movt	r3, #:upper16:motor
 1990 1c00 C3ED047A 		fsts	s15, [r3, #16]
 1991 1c04 40F20003 		movw	r3, #:lower16:rxCommand
 1992 1c08 C0F20003 		movt	r3, #:upper16:rxCommand
 1993 1c0c 93ED037A 		flds	s14, [r3, #12]
 1994 1c10 40F20003 		movw	r3, #:lower16:axisPID
 1995 1c14 C0F20003 		movt	r3, #:upper16:axisPID
 1996 1c18 D3ED006A 		flds	s13, [r3, #0]
 1997 1c1c 5FED837A 		flds	s15, .L64+4
 1998 1c20 66EEA77A 		fmuls	s15, s13, s15
 1999 1c24 37EE277A 		fadds	s14, s14, s15
 2000 1c28 40F20003 		movw	r3, #:lower16:axisPID
 2001 1c2c C0F20003 		movt	r3, #:upper16:axisPID
 2002 1c30 D3ED016A 		flds	s13, [r3, #4]
 2003 1c34 5FED887A 		flds	s15, .L64+8
 2004 1c38 66EEA77A 		fmuls	s15, s13, s15
 2005 1c3c 37EE277A 		fadds	s14, s14, s15
 2006 1c40 40F20003 		movw	r3, #:lower16:eepromConfig
 2007 1c44 C0F20003 		movt	r3, #:upper16:eepromConfig
 2008 1c48 D3ED216A 		flds	s13, [r3, #132]
 2009 1c4c 40F20003 		movw	r3, #:lower16:axisPID
 2010 1c50 C0F20003 		movt	r3, #:upper16:axisPID
 2011 1c54 D3ED027A 		flds	s15, [r3, #8]
 2012 1c58 66EEA77A 		fmuls	s15, s13, s15
 2013 1c5c 77EE277A 		fadds	s15, s14, s15
 2014 1c60 40F20003 		movw	r3, #:lower16:motor
 2015 1c64 C0F20003 		movt	r3, #:upper16:motor
 2016 1c68 C3ED057A 		fsts	s15, [r3, #20]
 2017 1c6c 01F08CB8 		b	.L25
 2018              	.L41:
 2019 1c70 40F20003 		movw	r3, #:lower16:rxCommand
 2020 1c74 C0F20003 		movt	r3, #:upper16:rxCommand
 2021 1c78 93ED037A 		flds	s14, [r3, #12]
 2022 1c7c 40F20003 		movw	r3, #:lower16:axisPID
 2023 1c80 C0F20003 		movt	r3, #:upper16:axisPID
 2024 1c84 D3ED007A 		flds	s15, [r3, #0]
 2025 1c88 77EE277A 		fadds	s15, s14, s15
 2026 1c8c 17EE900A 		fmrs	r0, s15
 2027 1c90 FFF7FEFF 		bl	__aeabi_f2d
 2028 1c94 0446     		mov	r4, r0
 2029 1c96 0D46     		mov	r5, r1
 2030 1c98 40F20003 		movw	r3, #:lower16:axisPID
 2031 1c9c C0F20003 		movt	r3, #:upper16:axisPID
 2032 1ca0 5B68     		ldr	r3, [r3, #4]	@ float
 2033 1ca2 1846     		mov	r0, r3	@ float
 2034 1ca4 FFF7FEFF 		bl	__aeabi_f2d
 2035 1ca8 0246     		mov	r2, r0
 2036 1caa 0B46     		mov	r3, r1
 2037 1cac 1046     		mov	r0, r2
 2038 1cae 1946     		mov	r1, r3
 2039 1cb0 F5A3     		adr	r3, .L66+8
 2040 1cb2 D3E90023 		ldrd	r2, [r3]
 2041 1cb6 FFF7FEFF 		bl	__aeabi_dmul
 2042 1cba 0246     		mov	r2, r0
 2043 1cbc 0B46     		mov	r3, r1
 2044 1cbe 2046     		mov	r0, r4
 2045 1cc0 2946     		mov	r1, r5
 2046 1cc2 FFF7FEFF 		bl	__aeabi_dadd
 2047 1cc6 0246     		mov	r2, r0
 2048 1cc8 0B46     		mov	r3, r1
 2049 1cca 1446     		mov	r4, r2
 2050 1ccc 1D46     		mov	r5, r3
 2051 1cce 40F20003 		movw	r3, #:lower16:eepromConfig
 2052 1cd2 C0F20003 		movt	r3, #:upper16:eepromConfig
 2053 1cd6 93ED217A 		flds	s14, [r3, #132]
 2054 1cda 40F20003 		movw	r3, #:lower16:axisPID
 2055 1cde C0F20003 		movt	r3, #:upper16:axisPID
 2056 1ce2 D3ED027A 		flds	s15, [r3, #8]
 2057 1ce6 67EE277A 		fmuls	s15, s14, s15
 2058 1cea F1EE677A 		fnegs	s15, s15
 2059 1cee 17EE903A 		fmrs	r3, s15
 2060 1cf2 1846     		mov	r0, r3	@ float
 2061 1cf4 FFF7FEFF 		bl	__aeabi_f2d
 2062 1cf8 0246     		mov	r2, r0
 2063 1cfa 0B46     		mov	r3, r1
 2064 1cfc 2046     		mov	r0, r4
 2065 1cfe 2946     		mov	r1, r5
 2066 1d00 FFF7FEFF 		bl	__aeabi_dadd
 2067 1d04 0246     		mov	r2, r0
 2068 1d06 0B46     		mov	r3, r1
 2069 1d08 1046     		mov	r0, r2
 2070 1d0a 1946     		mov	r1, r3
 2071 1d0c FFF7FEFF 		bl	__aeabi_d2f
 2072 1d10 0246     		mov	r2, r0	@ float
 2073 1d12 40F20003 		movw	r3, #:lower16:motor
 2074 1d16 C0F20003 		movt	r3, #:upper16:motor
 2075 1d1a 1A60     		str	r2, [r3, #0]	@ float
 2076 1d1c 40F20003 		movw	r3, #:lower16:rxCommand
 2077 1d20 C0F20003 		movt	r3, #:upper16:rxCommand
 2078 1d24 93ED037A 		flds	s14, [r3, #12]
 2079 1d28 40F20003 		movw	r3, #:lower16:axisPID
 2080 1d2c C0F20003 		movt	r3, #:upper16:axisPID
 2081 1d30 D3ED007A 		flds	s15, [r3, #0]
 2082 1d34 77EE677A 		fsubs	s15, s14, s15
 2083 1d38 17EE900A 		fmrs	r0, s15
 2084 1d3c FFF7FEFF 		bl	__aeabi_f2d
 2085 1d40 0446     		mov	r4, r0
 2086 1d42 0D46     		mov	r5, r1
 2087 1d44 40F20003 		movw	r3, #:lower16:axisPID
 2088 1d48 C0F20003 		movt	r3, #:upper16:axisPID
 2089 1d4c 5B68     		ldr	r3, [r3, #4]	@ float
 2090 1d4e 1846     		mov	r0, r3	@ float
 2091 1d50 FFF7FEFF 		bl	__aeabi_f2d
 2092 1d54 0246     		mov	r2, r0
 2093 1d56 0B46     		mov	r3, r1
 2094 1d58 1046     		mov	r0, r2
 2095 1d5a 1946     		mov	r1, r3
 2096 1d5c CAA3     		adr	r3, .L66+8
 2097 1d5e D3E90023 		ldrd	r2, [r3]
 2098 1d62 FFF7FEFF 		bl	__aeabi_dmul
 2099 1d66 0246     		mov	r2, r0
 2100 1d68 0B46     		mov	r3, r1
 2101 1d6a 2046     		mov	r0, r4
 2102 1d6c 2946     		mov	r1, r5
 2103 1d6e FFF7FEFF 		bl	__aeabi_dadd
 2104 1d72 0246     		mov	r2, r0
 2105 1d74 0B46     		mov	r3, r1
 2106 1d76 1446     		mov	r4, r2
 2107 1d78 1D46     		mov	r5, r3
 2108 1d7a 40F20003 		movw	r3, #:lower16:eepromConfig
 2109 1d7e C0F20003 		movt	r3, #:upper16:eepromConfig
 2110 1d82 93ED217A 		flds	s14, [r3, #132]
 2111 1d86 40F20003 		movw	r3, #:lower16:axisPID
 2112 1d8a C0F20003 		movt	r3, #:upper16:axisPID
 2113 1d8e D3ED027A 		flds	s15, [r3, #8]
 2114 1d92 67EE277A 		fmuls	s15, s14, s15
 2115 1d96 F1EE677A 		fnegs	s15, s15
 2116 1d9a 17EE903A 		fmrs	r3, s15
 2117 1d9e 1846     		mov	r0, r3	@ float
 2118 1da0 FFF7FEFF 		bl	__aeabi_f2d
 2119 1da4 0246     		mov	r2, r0
 2120 1da6 0B46     		mov	r3, r1
 2121 1da8 2046     		mov	r0, r4
 2122 1daa 2946     		mov	r1, r5
 2123 1dac FFF7FEFF 		bl	__aeabi_dadd
 2124 1db0 0246     		mov	r2, r0
 2125 1db2 0B46     		mov	r3, r1
 2126 1db4 1046     		mov	r0, r2
 2127 1db6 1946     		mov	r1, r3
 2128 1db8 FFF7FEFF 		bl	__aeabi_d2f
 2129 1dbc 0246     		mov	r2, r0	@ float
 2130 1dbe 40F20003 		movw	r3, #:lower16:motor
 2131 1dc2 C0F20003 		movt	r3, #:upper16:motor
 2132 1dc6 5A60     		str	r2, [r3, #4]	@ float
 2133 1dc8 40F20003 		movw	r3, #:lower16:rxCommand
 2134 1dcc C0F20003 		movt	r3, #:upper16:rxCommand
 2135 1dd0 93ED037A 		flds	s14, [r3, #12]
 2136 1dd4 40F20003 		movw	r3, #:lower16:axisPID
 2137 1dd8 C0F20003 		movt	r3, #:upper16:axisPID
 2138 1ddc D3ED006A 		flds	s13, [r3, #0]
 2139 1de0 DFEDAB7A 		flds	s15, .L66+16
 2140 1de4 66EEA77A 		fmuls	s15, s13, s15
 2141 1de8 77EE277A 		fadds	s15, s14, s15
 2142 1dec 17EE900A 		fmrs	r0, s15
 2143 1df0 FFF7FEFF 		bl	__aeabi_f2d
 2144 1df4 0446     		mov	r4, r0
 2145 1df6 0D46     		mov	r5, r1
 2146 1df8 40F20003 		movw	r3, #:lower16:axisPID
 2147 1dfc C0F20003 		movt	r3, #:upper16:axisPID
 2148 1e00 5B68     		ldr	r3, [r3, #4]	@ float
 2149 1e02 1846     		mov	r0, r3	@ float
 2150 1e04 FFF7FEFF 		bl	__aeabi_f2d
 2151 1e08 0246     		mov	r2, r0
 2152 1e0a 0B46     		mov	r3, r1
 2153 1e0c 1046     		mov	r0, r2
 2154 1e0e 1946     		mov	r1, r3
 2155 1e10 9BA3     		adr	r3, .L66
 2156 1e12 D3E90023 		ldrd	r2, [r3]
 2157 1e16 FFF7FEFF 		bl	__aeabi_dmul
 2158 1e1a 0246     		mov	r2, r0
 2159 1e1c 0B46     		mov	r3, r1
 2160 1e1e 2046     		mov	r0, r4
 2161 1e20 2946     		mov	r1, r5
 2162 1e22 FFF7FEFF 		bl	__aeabi_dadd
 2163 1e26 0246     		mov	r2, r0
 2164 1e28 0B46     		mov	r3, r1
 2165 1e2a 1446     		mov	r4, r2
 2166 1e2c 1D46     		mov	r5, r3
 2167 1e2e 40F20003 		movw	r3, #:lower16:eepromConfig
 2168 1e32 C0F20003 		movt	r3, #:upper16:eepromConfig
 2169 1e36 93ED217A 		flds	s14, [r3, #132]
 2170 1e3a 40F20003 		movw	r3, #:lower16:axisPID
 2171 1e3e C0F20003 		movt	r3, #:upper16:axisPID
 2172 1e42 D3ED027A 		flds	s15, [r3, #8]
 2173 1e46 67EE277A 		fmuls	s15, s14, s15
 2174 1e4a 17EE900A 		fmrs	r0, s15
 2175 1e4e FFF7FEFF 		bl	__aeabi_f2d
 2176 1e52 0246     		mov	r2, r0
 2177 1e54 0B46     		mov	r3, r1
 2178 1e56 2046     		mov	r0, r4
 2179 1e58 2946     		mov	r1, r5
 2180 1e5a FFF7FEFF 		bl	__aeabi_dadd
 2181 1e5e 0246     		mov	r2, r0
 2182 1e60 0B46     		mov	r3, r1
 2183 1e62 1046     		mov	r0, r2
 2184 1e64 1946     		mov	r1, r3
 2185 1e66 FFF7FEFF 		bl	__aeabi_d2f
 2186 1e6a 0246     		mov	r2, r0	@ float
 2187 1e6c 40F20003 		movw	r3, #:lower16:motor
 2188 1e70 C0F20003 		movt	r3, #:upper16:motor
 2189 1e74 9A60     		str	r2, [r3, #8]	@ float
 2190 1e76 40F20003 		movw	r3, #:lower16:rxCommand
 2191 1e7a C0F20003 		movt	r3, #:upper16:rxCommand
 2192 1e7e 93ED037A 		flds	s14, [r3, #12]
 2193 1e82 40F20003 		movw	r3, #:lower16:axisPID
 2194 1e86 C0F20003 		movt	r3, #:upper16:axisPID
 2195 1e8a D3ED007A 		flds	s15, [r3, #0]
 2196 1e8e 77EE277A 		fadds	s15, s14, s15
 2197 1e92 17EE900A 		fmrs	r0, s15
 2198 1e96 FFF7FEFF 		bl	__aeabi_f2d
 2199 1e9a 0446     		mov	r4, r0
 2200 1e9c 0D46     		mov	r5, r1
 2201 1e9e 40F20003 		movw	r3, #:lower16:axisPID
 2202 1ea2 C0F20003 		movt	r3, #:upper16:axisPID
 2203 1ea6 5B68     		ldr	r3, [r3, #4]	@ float
 2204 1ea8 1846     		mov	r0, r3	@ float
 2205 1eaa FFF7FEFF 		bl	__aeabi_f2d
 2206 1eae 0246     		mov	r2, r0
 2207 1eb0 0B46     		mov	r3, r1
 2208 1eb2 1046     		mov	r0, r2
 2209 1eb4 1946     		mov	r1, r3
 2210 1eb6 74A3     		adr	r3, .L66+8
 2211 1eb8 D3E90023 		ldrd	r2, [r3]
 2212 1ebc FFF7FEFF 		bl	__aeabi_dmul
 2213 1ec0 0246     		mov	r2, r0
 2214 1ec2 0B46     		mov	r3, r1
 2215 1ec4 2046     		mov	r0, r4
 2216 1ec6 2946     		mov	r1, r5
 2217 1ec8 FFF7FEFF 		bl	__aeabi_dadd
 2218 1ecc 0246     		mov	r2, r0
 2219 1ece 0B46     		mov	r3, r1
 2220 1ed0 1446     		mov	r4, r2
 2221 1ed2 1D46     		mov	r5, r3
 2222 1ed4 40F20003 		movw	r3, #:lower16:eepromConfig
 2223 1ed8 C0F20003 		movt	r3, #:upper16:eepromConfig
 2224 1edc 93ED217A 		flds	s14, [r3, #132]
 2225 1ee0 40F20003 		movw	r3, #:lower16:axisPID
 2226 1ee4 C0F20003 		movt	r3, #:upper16:axisPID
 2227 1ee8 D3ED027A 		flds	s15, [r3, #8]
 2228 1eec 67EE277A 		fmuls	s15, s14, s15
 2229 1ef0 17EE900A 		fmrs	r0, s15
 2230 1ef4 FFF7FEFF 		bl	__aeabi_f2d
 2231 1ef8 0246     		mov	r2, r0
 2232 1efa 0B46     		mov	r3, r1
 2233 1efc 2046     		mov	r0, r4
 2234 1efe 2946     		mov	r1, r5
 2235 1f00 FFF7FEFF 		bl	__aeabi_dadd
 2236 1f04 0246     		mov	r2, r0
 2237 1f06 0B46     		mov	r3, r1
 2238 1f08 1046     		mov	r0, r2
 2239 1f0a 1946     		mov	r1, r3
 2240 1f0c FFF7FEFF 		bl	__aeabi_d2f
 2241 1f10 0246     		mov	r2, r0	@ float
 2242 1f12 40F20003 		movw	r3, #:lower16:motor
 2243 1f16 C0F20003 		movt	r3, #:upper16:motor
 2244 1f1a DA60     		str	r2, [r3, #12]	@ float
 2245 1f1c 40F20003 		movw	r3, #:lower16:rxCommand
 2246 1f20 C0F20003 		movt	r3, #:upper16:rxCommand
 2247 1f24 93ED037A 		flds	s14, [r3, #12]
 2248 1f28 40F20003 		movw	r3, #:lower16:axisPID
 2249 1f2c C0F20003 		movt	r3, #:upper16:axisPID
 2250 1f30 D3ED007A 		flds	s15, [r3, #0]
 2251 1f34 77EE677A 		fsubs	s15, s14, s15
 2252 1f38 17EE900A 		fmrs	r0, s15
 2253 1f3c FFF7FEFF 		bl	__aeabi_f2d
 2254 1f40 0446     		mov	r4, r0
 2255 1f42 0D46     		mov	r5, r1
 2256 1f44 40F20003 		movw	r3, #:lower16:axisPID
 2257 1f48 C0F20003 		movt	r3, #:upper16:axisPID
 2258 1f4c 5B68     		ldr	r3, [r3, #4]	@ float
 2259 1f4e 1846     		mov	r0, r3	@ float
 2260 1f50 FFF7FEFF 		bl	__aeabi_f2d
 2261 1f54 0246     		mov	r2, r0
 2262 1f56 0B46     		mov	r3, r1
 2263 1f58 1046     		mov	r0, r2
 2264 1f5a 1946     		mov	r1, r3
 2265 1f5c 4AA3     		adr	r3, .L66+8
 2266 1f5e D3E90023 		ldrd	r2, [r3]
 2267 1f62 FFF7FEFF 		bl	__aeabi_dmul
 2268 1f66 0246     		mov	r2, r0
 2269 1f68 0B46     		mov	r3, r1
 2270 1f6a 2046     		mov	r0, r4
 2271 1f6c 2946     		mov	r1, r5
 2272 1f6e FFF7FEFF 		bl	__aeabi_dadd
 2273 1f72 0246     		mov	r2, r0
 2274 1f74 0B46     		mov	r3, r1
 2275 1f76 1446     		mov	r4, r2
 2276 1f78 1D46     		mov	r5, r3
 2277 1f7a 40F20003 		movw	r3, #:lower16:eepromConfig
 2278 1f7e C0F20003 		movt	r3, #:upper16:eepromConfig
 2279 1f82 93ED217A 		flds	s14, [r3, #132]
 2280 1f86 40F20003 		movw	r3, #:lower16:axisPID
 2281 1f8a C0F20003 		movt	r3, #:upper16:axisPID
 2282 1f8e D3ED027A 		flds	s15, [r3, #8]
 2283 1f92 67EE277A 		fmuls	s15, s14, s15
 2284 1f96 17EE900A 		fmrs	r0, s15
 2285 1f9a FFF7FEFF 		bl	__aeabi_f2d
 2286 1f9e 0246     		mov	r2, r0
 2287 1fa0 0B46     		mov	r3, r1
 2288 1fa2 2046     		mov	r0, r4
 2289 1fa4 2946     		mov	r1, r5
 2290 1fa6 FFF7FEFF 		bl	__aeabi_dadd
 2291 1faa 0246     		mov	r2, r0
 2292 1fac 0B46     		mov	r3, r1
 2293 1fae 1046     		mov	r0, r2
 2294 1fb0 1946     		mov	r1, r3
 2295 1fb2 FFF7FEFF 		bl	__aeabi_d2f
 2296 1fb6 0246     		mov	r2, r0	@ float
 2297 1fb8 40F20003 		movw	r3, #:lower16:motor
 2298 1fbc C0F20003 		movt	r3, #:upper16:motor
 2299 1fc0 1A61     		str	r2, [r3, #16]	@ float
 2300 1fc2 40F20003 		movw	r3, #:lower16:rxCommand
 2301 1fc6 C0F20003 		movt	r3, #:upper16:rxCommand
 2302 1fca 93ED037A 		flds	s14, [r3, #12]
 2303 1fce 40F20003 		movw	r3, #:lower16:axisPID
 2304 1fd2 C0F20003 		movt	r3, #:upper16:axisPID
 2305 1fd6 D3ED006A 		flds	s13, [r3, #0]
 2306 1fda DFED2D7A 		flds	s15, .L66+16
 2307 1fde 66EEA77A 		fmuls	s15, s13, s15
 2308 1fe2 77EE277A 		fadds	s15, s14, s15
 2309 1fe6 17EE900A 		fmrs	r0, s15
 2310 1fea FFF7FEFF 		bl	__aeabi_f2d
 2311 1fee 0446     		mov	r4, r0
 2312 1ff0 0D46     		mov	r5, r1
 2313 1ff2 40F20003 		movw	r3, #:lower16:axisPID
 2314 1ff6 C0F20003 		movt	r3, #:upper16:axisPID
 2315 1ffa 5B68     		ldr	r3, [r3, #4]	@ float
 2316 1ffc 1846     		mov	r0, r3	@ float
 2317 1ffe FFF7FEFF 		bl	__aeabi_f2d
 2318 2002 0246     		mov	r2, r0
 2319 2004 0B46     		mov	r3, r1
 2320 2006 1046     		mov	r0, r2
 2321 2008 1946     		mov	r1, r3
 2322 200a 1DA3     		adr	r3, .L66
 2323 200c D3E90023 		ldrd	r2, [r3]
 2324 2010 FFF7FEFF 		bl	__aeabi_dmul
 2325 2014 0246     		mov	r2, r0
 2326 2016 0B46     		mov	r3, r1
 2327 2018 2046     		mov	r0, r4
 2328 201a 2946     		mov	r1, r5
 2329 201c FFF7FEFF 		bl	__aeabi_dadd
 2330 2020 0246     		mov	r2, r0
 2331 2022 0B46     		mov	r3, r1
 2332 2024 1446     		mov	r4, r2
 2333 2026 1D46     		mov	r5, r3
 2334 2028 40F20003 		movw	r3, #:lower16:eepromConfig
 2335 202c C0F20003 		movt	r3, #:upper16:eepromConfig
 2336 2030 93ED217A 		flds	s14, [r3, #132]
 2337 2034 40F20003 		movw	r3, #:lower16:axisPID
 2338 2038 C0F20003 		movt	r3, #:upper16:axisPID
 2339 203c D3ED027A 		flds	s15, [r3, #8]
 2340 2040 67EE277A 		fmuls	s15, s14, s15
 2341 2044 F1EE677A 		fnegs	s15, s15
 2342 2048 17EE903A 		fmrs	r3, s15
 2343 204c 1846     		mov	r0, r3	@ float
 2344 204e FFF7FEFF 		bl	__aeabi_f2d
 2345 2052 0246     		mov	r2, r0
 2346 2054 0B46     		mov	r3, r1
 2347 2056 2046     		mov	r0, r4
 2348 2058 2946     		mov	r1, r5
 2349 205a FFF7FEFF 		bl	__aeabi_dadd
 2350 205e 0246     		mov	r2, r0
 2351 2060 0B46     		mov	r3, r1
 2352 2062 1046     		mov	r0, r2
 2353 2064 1946     		mov	r1, r3
 2354 2066 FFF7FEFF 		bl	__aeabi_d2f
 2355 206a 0246     		mov	r2, r0	@ float
 2356 206c 40F20003 		movw	r3, #:lower16:motor
 2357 2070 C0F20003 		movt	r3, #:upper16:motor
 2358 2074 5A61     		str	r2, [r3, #20]	@ float
 2359 2076 00F087BE 		b	.L25
 2360              	.L67:
 2361 207a 00BFAFF3 		.align	3
 2361      0080
 2362              	.L66:
 2363 2080 52D7DAFB 		.word	-69544110
 2364 2084 5455F53F 		.word	1073042772
 2365 2088 5D514A08 		.word	139088221
 2366 208c 5655E5BF 		.word	-1075489450
 2367 2090 00000000 		.word	0
 2368 2094 3333333F 		.word	1060320051
 2369 2098 333333BF 		.word	-1087163597
 2370              	.L42:
 2371 209c 40F20003 		movw	r3, #:lower16:rxCommand
 2372 20a0 C0F20003 		movt	r3, #:upper16:rxCommand
 2373 20a4 93ED037A 		flds	s14, [r3, #12]
 2374 20a8 40F20003 		movw	r3, #:lower16:axisPID
 2375 20ac C0F20003 		movt	r3, #:upper16:axisPID
 2376 20b0 D3ED006A 		flds	s13, [r3, #0]
 2377 20b4 5FED0A7A 		flds	s15, .L66+16
 2378 20b8 66EEA77A 		fmuls	s15, s13, s15
 2379 20bc 37EE277A 		fadds	s14, s14, s15
 2380 20c0 40F20003 		movw	r3, #:lower16:axisPID
 2381 20c4 C0F20003 		movt	r3, #:upper16:axisPID
 2382 20c8 D3ED017A 		flds	s15, [r3, #4]
 2383 20cc 37EE677A 		fsubs	s14, s14, s15
 2384 20d0 40F20003 		movw	r3, #:lower16:eepromConfig
 2385 20d4 C0F20003 		movt	r3, #:upper16:eepromConfig
 2386 20d8 D3ED216A 		flds	s13, [r3, #132]
 2387 20dc 40F20003 		movw	r3, #:lower16:axisPID
 2388 20e0 C0F20003 		movt	r3, #:upper16:axisPID
 2389 20e4 D3ED027A 		flds	s15, [r3, #8]
 2390 20e8 66EEA77A 		fmuls	s15, s13, s15
 2391 20ec 77EE677A 		fsubs	s15, s14, s15
 2392 20f0 40F20003 		movw	r3, #:lower16:motor
 2393 20f4 C0F20003 		movt	r3, #:upper16:motor
 2394 20f8 C3ED007A 		fsts	s15, [r3, #0]
 2395 20fc 40F20003 		movw	r3, #:lower16:rxCommand
 2396 2100 C0F20003 		movt	r3, #:upper16:rxCommand
 2397 2104 93ED037A 		flds	s14, [r3, #12]
 2398 2108 40F20003 		movw	r3, #:lower16:axisPID
 2399 210c C0F20003 		movt	r3, #:upper16:axisPID
 2400 2110 D3ED006A 		flds	s13, [r3, #0]
 2401 2114 5FED207A 		flds	s15, .L66+24
 2402 2118 66EEA77A 		fmuls	s15, s13, s15
 2403 211c 37EE277A 		fadds	s14, s14, s15
 2404 2120 40F20003 		movw	r3, #:lower16:axisPID
 2405 2124 C0F20003 		movt	r3, #:upper16:axisPID
 2406 2128 D3ED016A 		flds	s13, [r3, #4]
 2407 212c 5FED267A 		flds	s15, .L66+24
 2408 2130 66EEA77A 		fmuls	s15, s13, s15
 2409 2134 37EE277A 		fadds	s14, s14, s15
 2410 2138 40F20003 		movw	r3, #:lower16:eepromConfig
 2411 213c C0F20003 		movt	r3, #:upper16:eepromConfig
 2412 2140 D3ED216A 		flds	s13, [r3, #132]
 2413 2144 40F20003 		movw	r3, #:lower16:axisPID
 2414 2148 C0F20003 		movt	r3, #:upper16:axisPID
 2415 214c D3ED027A 		flds	s15, [r3, #8]
 2416 2150 66EEA77A 		fmuls	s15, s13, s15
 2417 2154 77EE277A 		fadds	s15, s14, s15
 2418 2158 40F20003 		movw	r3, #:lower16:motor
 2419 215c C0F20003 		movt	r3, #:upper16:motor
 2420 2160 C3ED017A 		fsts	s15, [r3, #4]
 2421 2164 40F20003 		movw	r3, #:lower16:rxCommand
 2422 2168 C0F20003 		movt	r3, #:upper16:rxCommand
 2423 216c 93ED037A 		flds	s14, [r3, #12]
 2424 2170 40F20003 		movw	r3, #:lower16:axisPID
 2425 2174 C0F20003 		movt	r3, #:upper16:axisPID
 2426 2178 D3ED007A 		flds	s15, [r3, #0]
 2427 217c 37EE677A 		fsubs	s14, s14, s15
 2428 2180 40F20003 		movw	r3, #:lower16:axisPID
 2429 2184 C0F20003 		movt	r3, #:upper16:axisPID
 2430 2188 D3ED016A 		flds	s13, [r3, #4]
 2431 218c 5FED407A 		flds	s15, .L66+16
 2432 2190 66EEA77A 		fmuls	s15, s13, s15
 2433 2194 37EE277A 		fadds	s14, s14, s15
 2434 2198 40F20003 		movw	r3, #:lower16:eepromConfig
 2435 219c C0F20003 		movt	r3, #:upper16:eepromConfig
 2436 21a0 D3ED216A 		flds	s13, [r3, #132]
 2437 21a4 40F20003 		movw	r3, #:lower16:axisPID
 2438 21a8 C0F20003 		movt	r3, #:upper16:axisPID
 2439 21ac D3ED027A 		flds	s15, [r3, #8]
 2440 21b0 66EEA77A 		fmuls	s15, s13, s15
 2441 21b4 77EE677A 		fsubs	s15, s14, s15
 2442 21b8 40F20003 		movw	r3, #:lower16:motor
 2443 21bc C0F20003 		movt	r3, #:upper16:motor
 2444 21c0 C3ED027A 		fsts	s15, [r3, #8]
 2445 21c4 40F20003 		movw	r3, #:lower16:rxCommand
 2446 21c8 C0F20003 		movt	r3, #:upper16:rxCommand
 2447 21cc 93ED037A 		flds	s14, [r3, #12]
 2448 21d0 40F20003 		movw	r3, #:lower16:axisPID
 2449 21d4 C0F20003 		movt	r3, #:upper16:axisPID
 2450 21d8 D3ED006A 		flds	s13, [r3, #0]
 2451 21dc 5FED527A 		flds	s15, .L66+24
 2452 21e0 66EEA77A 		fmuls	s15, s13, s15
 2453 21e4 37EE277A 		fadds	s14, s14, s15
 2454 21e8 40F20003 		movw	r3, #:lower16:axisPID
 2455 21ec C0F20003 		movt	r3, #:upper16:axisPID
 2456 21f0 D3ED016A 		flds	s13, [r3, #4]
 2457 21f4 5FED597A 		flds	s15, .L66+20
 2458 21f8 66EEA77A 		fmuls	s15, s13, s15
 2459 21fc 37EE277A 		fadds	s14, s14, s15
 2460 2200 40F20003 		movw	r3, #:lower16:eepromConfig
 2461 2204 C0F20003 		movt	r3, #:upper16:eepromConfig
 2462 2208 D3ED216A 		flds	s13, [r3, #132]
 2463 220c 40F20003 		movw	r3, #:lower16:axisPID
 2464 2210 C0F20003 		movt	r3, #:upper16:axisPID
 2465 2214 D3ED027A 		flds	s15, [r3, #8]
 2466 2218 66EEA77A 		fmuls	s15, s13, s15
 2467 221c 77EE277A 		fadds	s15, s14, s15
 2468 2220 40F20003 		movw	r3, #:lower16:motor
 2469 2224 C0F20003 		movt	r3, #:upper16:motor
 2470 2228 C3ED037A 		fsts	s15, [r3, #12]
 2471 222c 40F20003 		movw	r3, #:lower16:rxCommand
 2472 2230 C0F20003 		movt	r3, #:upper16:rxCommand
 2473 2234 93ED037A 		flds	s14, [r3, #12]
 2474 2238 40F20003 		movw	r3, #:lower16:axisPID
 2475 223c C0F20003 		movt	r3, #:upper16:axisPID
 2476 2240 D3ED006A 		flds	s13, [r3, #0]
 2477 2244 5FED6E7A 		flds	s15, .L66+16
 2478 2248 66EEA77A 		fmuls	s15, s13, s15
 2479 224c 37EE277A 		fadds	s14, s14, s15
 2480 2250 40F20003 		movw	r3, #:lower16:axisPID
 2481 2254 C0F20003 		movt	r3, #:upper16:axisPID
 2482 2258 D3ED017A 		flds	s15, [r3, #4]
 2483 225c 37EE277A 		fadds	s14, s14, s15
 2484 2260 40F20003 		movw	r3, #:lower16:eepromConfig
 2485 2264 C0F20003 		movt	r3, #:upper16:eepromConfig
 2486 2268 D3ED216A 		flds	s13, [r3, #132]
 2487 226c 40F20003 		movw	r3, #:lower16:axisPID
 2488 2270 C0F20003 		movt	r3, #:upper16:axisPID
 2489 2274 D3ED027A 		flds	s15, [r3, #8]
 2490 2278 66EEA77A 		fmuls	s15, s13, s15
 2491 227c 77EE677A 		fsubs	s15, s14, s15
 2492 2280 40F20003 		movw	r3, #:lower16:motor
 2493 2284 C0F20003 		movt	r3, #:upper16:motor
 2494 2288 C3ED047A 		fsts	s15, [r3, #16]
 2495 228c 40F20003 		movw	r3, #:lower16:rxCommand
 2496 2290 C0F20003 		movt	r3, #:upper16:rxCommand
 2497 2294 93ED037A 		flds	s14, [r3, #12]
 2498 2298 40F20003 		movw	r3, #:lower16:axisPID
 2499 229c C0F20003 		movt	r3, #:upper16:axisPID
 2500 22a0 D3ED006A 		flds	s13, [r3, #0]
 2501 22a4 5FED857A 		flds	s15, .L66+20
 2502 22a8 66EEA77A 		fmuls	s15, s13, s15
 2503 22ac 37EE277A 		fadds	s14, s14, s15
 2504 22b0 40F20003 		movw	r3, #:lower16:axisPID
 2505 22b4 C0F20003 		movt	r3, #:upper16:axisPID
 2506 22b8 D3ED016A 		flds	s13, [r3, #4]
 2507 22bc 5FED8B7A 		flds	s15, .L66+20
 2508 22c0 66EEA77A 		fmuls	s15, s13, s15
 2509 22c4 37EE277A 		fadds	s14, s14, s15
 2510 22c8 40F20003 		movw	r3, #:lower16:eepromConfig
 2511 22cc C0F20003 		movt	r3, #:upper16:eepromConfig
 2512 22d0 D3ED216A 		flds	s13, [r3, #132]
 2513 22d4 40F20003 		movw	r3, #:lower16:axisPID
 2514 22d8 C0F20003 		movt	r3, #:upper16:axisPID
 2515 22dc D3ED027A 		flds	s15, [r3, #8]
 2516 22e0 66EEA77A 		fmuls	s15, s13, s15
 2517 22e4 77EE277A 		fadds	s15, s14, s15
 2518 22e8 40F20003 		movw	r3, #:lower16:motor
 2519 22ec C0F20003 		movt	r3, #:upper16:motor
 2520 22f0 C3ED057A 		fsts	s15, [r3, #20]
 2521 22f4 40F20003 		movw	r3, #:lower16:rxCommand
 2522 22f8 C0F20003 		movt	r3, #:upper16:rxCommand
 2523 22fc 93ED037A 		flds	s14, [r3, #12]
 2524 2300 40F20003 		movw	r3, #:lower16:axisPID
 2525 2304 C0F20003 		movt	r3, #:upper16:axisPID
 2526 2308 D3ED007A 		flds	s15, [r3, #0]
 2527 230c 37EE277A 		fadds	s14, s14, s15
 2528 2310 40F20003 		movw	r3, #:lower16:axisPID
 2529 2314 C0F20003 		movt	r3, #:upper16:axisPID
 2530 2318 D3ED016A 		flds	s13, [r3, #4]
 2531 231c 5FEDA47A 		flds	s15, .L66+16
 2532 2320 66EEA77A 		fmuls	s15, s13, s15
 2533 2324 37EE277A 		fadds	s14, s14, s15
 2534 2328 40F20003 		movw	r3, #:lower16:eepromConfig
 2535 232c C0F20003 		movt	r3, #:upper16:eepromConfig
 2536 2330 D3ED216A 		flds	s13, [r3, #132]
 2537 2334 40F20003 		movw	r3, #:lower16:axisPID
 2538 2338 C0F20003 		movt	r3, #:upper16:axisPID
 2539 233c D3ED027A 		flds	s15, [r3, #8]
 2540 2340 66EEA77A 		fmuls	s15, s13, s15
 2541 2344 77EE677A 		fsubs	s15, s14, s15
 2542 2348 40F20003 		movw	r3, #:lower16:motor
 2543 234c C0F20003 		movt	r3, #:upper16:motor
 2544 2350 C3ED067A 		fsts	s15, [r3, #24]
 2545 2354 40F20003 		movw	r3, #:lower16:rxCommand
 2546 2358 C0F20003 		movt	r3, #:upper16:rxCommand
 2547 235c 93ED037A 		flds	s14, [r3, #12]
 2548 2360 40F20003 		movw	r3, #:lower16:axisPID
 2549 2364 C0F20003 		movt	r3, #:upper16:axisPID
 2550 2368 D3ED006A 		flds	s13, [r3, #0]
 2551 236c 5FEDB77A 		flds	s15, .L66+20
 2552 2370 66EEA77A 		fmuls	s15, s13, s15
 2553 2374 37EE277A 		fadds	s14, s14, s15
 2554 2378 40F20003 		movw	r3, #:lower16:axisPID
 2555 237c C0F20003 		movt	r3, #:upper16:axisPID
 2556 2380 D3ED016A 		flds	s13, [r3, #4]
 2557 2384 5FEDBC7A 		flds	s15, .L66+24
 2558 2388 66EEA77A 		fmuls	s15, s13, s15
 2559 238c 37EE277A 		fadds	s14, s14, s15
 2560 2390 40F20003 		movw	r3, #:lower16:eepromConfig
 2561 2394 C0F20003 		movt	r3, #:upper16:eepromConfig
 2562 2398 D3ED216A 		flds	s13, [r3, #132]
 2563 239c 40F20003 		movw	r3, #:lower16:axisPID
 2564 23a0 C0F20003 		movt	r3, #:upper16:axisPID
 2565 23a4 D3ED027A 		flds	s15, [r3, #8]
 2566 23a8 66EEA77A 		fmuls	s15, s13, s15
 2567 23ac 77EE277A 		fadds	s15, s14, s15
 2568 23b0 40F20003 		movw	r3, #:lower16:motor
 2569 23b4 C0F20003 		movt	r3, #:upper16:motor
 2570 23b8 C3ED077A 		fsts	s15, [r3, #28]
 2571 23bc 00F0E4BC 		b	.L25
 2572              	.L43:
 2573 23c0 40F20003 		movw	r3, #:lower16:rxCommand
 2574 23c4 C0F20003 		movt	r3, #:upper16:rxCommand
 2575 23c8 93ED037A 		flds	s14, [r3, #12]
 2576 23cc 40F20003 		movw	r3, #:lower16:axisPID
 2577 23d0 C0F20003 		movt	r3, #:upper16:axisPID
 2578 23d4 D3ED006A 		flds	s13, [r3, #0]
 2579 23d8 F6EE007A 		fconsts	s15, #96
 2580 23dc 66EEA77A 		fmuls	s15, s13, s15
 2581 23e0 37EE277A 		fadds	s14, s14, s15
 2582 23e4 40F20003 		movw	r3, #:lower16:axisPID
 2583 23e8 C0F20003 		movt	r3, #:upper16:axisPID
 2584 23ec D3ED017A 		flds	s15, [r3, #4]
 2585 23f0 37EE677A 		fsubs	s14, s14, s15
 2586 23f4 40F20003 		movw	r3, #:lower16:eepromConfig
 2587 23f8 C0F20003 		movt	r3, #:upper16:eepromConfig
 2588 23fc D3ED216A 		flds	s13, [r3, #132]
 2589 2400 40F20003 		movw	r3, #:lower16:axisPID
 2590 2404 C0F20003 		movt	r3, #:upper16:axisPID
 2591 2408 D3ED027A 		flds	s15, [r3, #8]
 2592 240c 66EEA77A 		fmuls	s15, s13, s15
 2593 2410 77EE677A 		fsubs	s15, s14, s15
 2594 2414 40F20003 		movw	r3, #:lower16:motor
 2595 2418 C0F20003 		movt	r3, #:upper16:motor
 2596 241c C3ED007A 		fsts	s15, [r3, #0]
 2597 2420 40F20003 		movw	r3, #:lower16:rxCommand
 2598 2424 C0F20003 		movt	r3, #:upper16:rxCommand
 2599 2428 93ED037A 		flds	s14, [r3, #12]
 2600 242c 40F20003 		movw	r3, #:lower16:axisPID
 2601 2430 C0F20003 		movt	r3, #:upper16:axisPID
 2602 2434 D3ED006A 		flds	s13, [r3, #0]
 2603 2438 FEEE007A 		fconsts	s15, #224
 2604 243c 66EEA77A 		fmuls	s15, s13, s15
 2605 2440 37EE277A 		fadds	s14, s14, s15
 2606 2444 40F20003 		movw	r3, #:lower16:axisPID
 2607 2448 C0F20003 		movt	r3, #:upper16:axisPID
 2608 244c D3ED017A 		flds	s15, [r3, #4]
 2609 2450 37EE677A 		fsubs	s14, s14, s15
 2610 2454 40F20003 		movw	r3, #:lower16:eepromConfig
 2611 2458 C0F20003 		movt	r3, #:upper16:eepromConfig
 2612 245c D3ED216A 		flds	s13, [r3, #132]
 2613 2460 40F20003 		movw	r3, #:lower16:axisPID
 2614 2464 C0F20003 		movt	r3, #:upper16:axisPID
 2615 2468 D3ED027A 		flds	s15, [r3, #8]
 2616 246c 66EEA77A 		fmuls	s15, s13, s15
 2617 2470 77EE277A 		fadds	s15, s14, s15
 2618 2474 40F20003 		movw	r3, #:lower16:motor
 2619 2478 C0F20003 		movt	r3, #:upper16:motor
 2620 247c C3ED017A 		fsts	s15, [r3, #4]
 2621 2480 40F20003 		movw	r3, #:lower16:rxCommand
 2622 2484 C0F20003 		movt	r3, #:upper16:rxCommand
 2623 2488 93ED037A 		flds	s14, [r3, #12]
 2624 248c 40F20003 		movw	r3, #:lower16:axisPID
 2625 2490 C0F20003 		movt	r3, #:upper16:axisPID
 2626 2494 D3ED007A 		flds	s15, [r3, #0]
 2627 2498 37EE677A 		fsubs	s14, s14, s15
 2628 249c 40F20003 		movw	r3, #:lower16:axisPID
 2629 24a0 C0F20003 		movt	r3, #:upper16:axisPID
 2630 24a4 D3ED016A 		flds	s13, [r3, #4]
 2631 24a8 FEEE007A 		fconsts	s15, #224
 2632 24ac 66EEA77A 		fmuls	s15, s13, s15
 2633 24b0 37EE277A 		fadds	s14, s14, s15
 2634 24b4 40F20003 		movw	r3, #:lower16:eepromConfig
 2635 24b8 C0F20003 		movt	r3, #:upper16:eepromConfig
 2636 24bc D3ED216A 		flds	s13, [r3, #132]
 2637 24c0 40F20003 		movw	r3, #:lower16:axisPID
 2638 24c4 C0F20003 		movt	r3, #:upper16:axisPID
 2639 24c8 D3ED027A 		flds	s15, [r3, #8]
 2640 24cc 66EEA77A 		fmuls	s15, s13, s15
 2641 24d0 77EE677A 		fsubs	s15, s14, s15
 2642 24d4 40F20003 		movw	r3, #:lower16:motor
 2643 24d8 C0F20003 		movt	r3, #:upper16:motor
 2644 24dc C3ED027A 		fsts	s15, [r3, #8]
 2645 24e0 40F20003 		movw	r3, #:lower16:rxCommand
 2646 24e4 C0F20003 		movt	r3, #:upper16:rxCommand
 2647 24e8 93ED037A 		flds	s14, [r3, #12]
 2648 24ec 40F20003 		movw	r3, #:lower16:axisPID
 2649 24f0 C0F20003 		movt	r3, #:upper16:axisPID
 2650 24f4 D3ED007A 		flds	s15, [r3, #0]
 2651 24f8 37EE677A 		fsubs	s14, s14, s15
 2652 24fc 40F20003 		movw	r3, #:lower16:axisPID
 2653 2500 C0F20003 		movt	r3, #:upper16:axisPID
 2654 2504 D3ED016A 		flds	s13, [r3, #4]
 2655 2508 F6EE007A 		fconsts	s15, #96
 2656 250c 66EEA77A 		fmuls	s15, s13, s15
 2657 2510 37EE277A 		fadds	s14, s14, s15
 2658 2514 40F20003 		movw	r3, #:lower16:eepromConfig
 2659 2518 C0F20003 		movt	r3, #:upper16:eepromConfig
 2660 251c D3ED216A 		flds	s13, [r3, #132]
 2661 2520 40F20003 		movw	r3, #:lower16:axisPID
 2662 2524 C0F20003 		movt	r3, #:upper16:axisPID
 2663 2528 D3ED027A 		flds	s15, [r3, #8]
 2664 252c 66EEA77A 		fmuls	s15, s13, s15
 2665 2530 77EE277A 		fadds	s15, s14, s15
 2666 2534 40F20003 		movw	r3, #:lower16:motor
 2667 2538 C0F20003 		movt	r3, #:upper16:motor
 2668 253c C3ED037A 		fsts	s15, [r3, #12]
 2669 2540 40F20003 		movw	r3, #:lower16:rxCommand
 2670 2544 C0F20003 		movt	r3, #:upper16:rxCommand
 2671 2548 93ED037A 		flds	s14, [r3, #12]
 2672 254c 40F20003 		movw	r3, #:lower16:axisPID
 2673 2550 C0F20003 		movt	r3, #:upper16:axisPID
 2674 2554 D3ED006A 		flds	s13, [r3, #0]
 2675 2558 FEEE007A 		fconsts	s15, #224
 2676 255c 66EEA77A 		fmuls	s15, s13, s15
 2677 2560 37EE277A 		fadds	s14, s14, s15
 2678 2564 40F20003 		movw	r3, #:lower16:axisPID
 2679 2568 C0F20003 		movt	r3, #:upper16:axisPID
 2680 256c D3ED017A 		flds	s15, [r3, #4]
 2681 2570 37EE277A 		fadds	s14, s14, s15
 2682 2574 40F20003 		movw	r3, #:lower16:eepromConfig
 2683 2578 C0F20003 		movt	r3, #:upper16:eepromConfig
 2684 257c D3ED216A 		flds	s13, [r3, #132]
 2685 2580 40F20003 		movw	r3, #:lower16:axisPID
 2686 2584 C0F20003 		movt	r3, #:upper16:axisPID
 2687 2588 D3ED027A 		flds	s15, [r3, #8]
 2688 258c 66EEA77A 		fmuls	s15, s13, s15
 2689 2590 77EE677A 		fsubs	s15, s14, s15
 2690 2594 40F20003 		movw	r3, #:lower16:motor
 2691 2598 C0F20003 		movt	r3, #:upper16:motor
 2692 259c C3ED047A 		fsts	s15, [r3, #16]
 2693 25a0 40F20003 		movw	r3, #:lower16:rxCommand
 2694 25a4 C0F20003 		movt	r3, #:upper16:rxCommand
 2695 25a8 93ED037A 		flds	s14, [r3, #12]
 2696 25ac 40F20003 		movw	r3, #:lower16:axisPID
 2697 25b0 C0F20003 		movt	r3, #:upper16:axisPID
 2698 25b4 D3ED006A 		flds	s13, [r3, #0]
 2699 25b8 F6EE007A 		fconsts	s15, #96
 2700 25bc 66EEA77A 		fmuls	s15, s13, s15
 2701 25c0 37EE277A 		fadds	s14, s14, s15
 2702 25c4 40F20003 		movw	r3, #:lower16:axisPID
 2703 25c8 C0F20003 		movt	r3, #:upper16:axisPID
 2704 25cc D3ED017A 		flds	s15, [r3, #4]
 2705 25d0 37EE277A 		fadds	s14, s14, s15
 2706 25d4 40F20003 		movw	r3, #:lower16:eepromConfig
 2707 25d8 C0F20003 		movt	r3, #:upper16:eepromConfig
 2708 25dc D3ED216A 		flds	s13, [r3, #132]
 2709 25e0 40F20003 		movw	r3, #:lower16:axisPID
 2710 25e4 C0F20003 		movt	r3, #:upper16:axisPID
 2711 25e8 D3ED027A 		flds	s15, [r3, #8]
 2712 25ec 66EEA77A 		fmuls	s15, s13, s15
 2713 25f0 77EE277A 		fadds	s15, s14, s15
 2714 25f4 40F20003 		movw	r3, #:lower16:motor
 2715 25f8 C0F20003 		movt	r3, #:upper16:motor
 2716 25fc C3ED057A 		fsts	s15, [r3, #20]
 2717 2600 40F20003 		movw	r3, #:lower16:rxCommand
 2718 2604 C0F20003 		movt	r3, #:upper16:rxCommand
 2719 2608 93ED037A 		flds	s14, [r3, #12]
 2720 260c 40F20003 		movw	r3, #:lower16:axisPID
 2721 2610 C0F20003 		movt	r3, #:upper16:axisPID
 2722 2614 D3ED007A 		flds	s15, [r3, #0]
 2723 2618 37EE277A 		fadds	s14, s14, s15
 2724 261c 40F20003 		movw	r3, #:lower16:axisPID
 2725 2620 C0F20003 		movt	r3, #:upper16:axisPID
 2726 2624 D3ED016A 		flds	s13, [r3, #4]
 2727 2628 F6EE007A 		fconsts	s15, #96
 2728 262c 66EEA77A 		fmuls	s15, s13, s15
 2729 2630 37EE277A 		fadds	s14, s14, s15
 2730 2634 40F20003 		movw	r3, #:lower16:eepromConfig
 2731 2638 C0F20003 		movt	r3, #:upper16:eepromConfig
 2732 263c D3ED216A 		flds	s13, [r3, #132]
 2733 2640 40F20003 		movw	r3, #:lower16:axisPID
 2734 2644 C0F20003 		movt	r3, #:upper16:axisPID
 2735 2648 D3ED027A 		flds	s15, [r3, #8]
 2736 264c 66EEA77A 		fmuls	s15, s13, s15
 2737 2650 77EE677A 		fsubs	s15, s14, s15
 2738 2654 40F20003 		movw	r3, #:lower16:motor
 2739 2658 C0F20003 		movt	r3, #:upper16:motor
 2740 265c C3ED067A 		fsts	s15, [r3, #24]
 2741 2660 40F20003 		movw	r3, #:lower16:rxCommand
 2742 2664 C0F20003 		movt	r3, #:upper16:rxCommand
 2743 2668 93ED037A 		flds	s14, [r3, #12]
 2744 266c 40F20003 		movw	r3, #:lower16:axisPID
 2745 2670 C0F20003 		movt	r3, #:upper16:axisPID
 2746 2674 D3ED007A 		flds	s15, [r3, #0]
 2747 2678 37EE277A 		fadds	s14, s14, s15
 2748 267c 40F20003 		movw	r3, #:lower16:axisPID
 2749 2680 C0F20003 		movt	r3, #:upper16:axisPID
 2750 2684 D3ED016A 		flds	s13, [r3, #4]
 2751 2688 FEEE007A 		fconsts	s15, #224
 2752 268c 66EEA77A 		fmuls	s15, s13, s15
 2753 2690 37EE277A 		fadds	s14, s14, s15
 2754 2694 40F20003 		movw	r3, #:lower16:eepromConfig
 2755 2698 C0F20003 		movt	r3, #:upper16:eepromConfig
 2756 269c D3ED216A 		flds	s13, [r3, #132]
 2757 26a0 40F20003 		movw	r3, #:lower16:axisPID
 2758 26a4 C0F20003 		movt	r3, #:upper16:axisPID
 2759 26a8 D3ED027A 		flds	s15, [r3, #8]
 2760 26ac 66EEA77A 		fmuls	s15, s13, s15
 2761 26b0 77EE277A 		fadds	s15, s14, s15
 2762 26b4 40F20003 		movw	r3, #:lower16:motor
 2763 26b8 C0F20003 		movt	r3, #:upper16:motor
 2764 26bc C3ED077A 		fsts	s15, [r3, #28]
 2765 26c0 62E3     		b	.L25
 2766              	.L44:
 2767 26c2 40F20003 		movw	r3, #:lower16:rxCommand
 2768 26c6 C0F20003 		movt	r3, #:upper16:rxCommand
 2769 26ca 93ED037A 		flds	s14, [r3, #12]
 2770 26ce 40F20003 		movw	r3, #:lower16:axisPID
 2771 26d2 C0F20003 		movt	r3, #:upper16:axisPID
 2772 26d6 D3ED006A 		flds	s13, [r3, #0]
 2773 26da DFEDBA7A 		flds	s15, .L68
 2774 26de 66EEA77A 		fmuls	s15, s13, s15
 2775 26e2 37EE277A 		fadds	s14, s14, s15
 2776 26e6 40F20003 		movw	r3, #:lower16:axisPID
 2777 26ea C0F20003 		movt	r3, #:upper16:axisPID
 2778 26ee D3ED017A 		flds	s15, [r3, #4]
 2779 26f2 37EE677A 		fsubs	s14, s14, s15
 2780 26f6 40F20003 		movw	r3, #:lower16:eepromConfig
 2781 26fa C0F20003 		movt	r3, #:upper16:eepromConfig
 2782 26fe D3ED216A 		flds	s13, [r3, #132]
 2783 2702 40F20003 		movw	r3, #:lower16:axisPID
 2784 2706 C0F20003 		movt	r3, #:upper16:axisPID
 2785 270a D3ED027A 		flds	s15, [r3, #8]
 2786 270e 66EEA77A 		fmuls	s15, s13, s15
 2787 2712 77EE677A 		fsubs	s15, s14, s15
 2788 2716 40F20003 		movw	r3, #:lower16:motor
 2789 271a C0F20003 		movt	r3, #:upper16:motor
 2790 271e C3ED007A 		fsts	s15, [r3, #0]
 2791 2722 40F20003 		movw	r3, #:lower16:rxCommand
 2792 2726 C0F20003 		movt	r3, #:upper16:rxCommand
 2793 272a 93ED037A 		flds	s14, [r3, #12]
 2794 272e 40F20003 		movw	r3, #:lower16:axisPID
 2795 2732 C0F20003 		movt	r3, #:upper16:axisPID
 2796 2736 D3ED007A 		flds	s15, [r3, #0]
 2797 273a 37EE677A 		fsubs	s14, s14, s15
 2798 273e 40F20003 		movw	r3, #:lower16:axisPID
 2799 2742 C0F20003 		movt	r3, #:upper16:axisPID
 2800 2746 D3ED016A 		flds	s13, [r3, #4]
 2801 274a DFED9E7A 		flds	s15, .L68
 2802 274e 66EEA77A 		fmuls	s15, s13, s15
 2803 2752 37EE277A 		fadds	s14, s14, s15
 2804 2756 40F20003 		movw	r3, #:lower16:eepromConfig
 2805 275a C0F20003 		movt	r3, #:upper16:eepromConfig
 2806 275e D3ED216A 		flds	s13, [r3, #132]
 2807 2762 40F20003 		movw	r3, #:lower16:axisPID
 2808 2766 C0F20003 		movt	r3, #:upper16:axisPID
 2809 276a D3ED027A 		flds	s15, [r3, #8]
 2810 276e 66EEA77A 		fmuls	s15, s13, s15
 2811 2772 77EE277A 		fadds	s15, s14, s15
 2812 2776 40F20003 		movw	r3, #:lower16:motor
 2813 277a C0F20003 		movt	r3, #:upper16:motor
 2814 277e C3ED017A 		fsts	s15, [r3, #4]
 2815 2782 40F20003 		movw	r3, #:lower16:rxCommand
 2816 2786 C0F20003 		movt	r3, #:upper16:rxCommand
 2817 278a 93ED037A 		flds	s14, [r3, #12]
 2818 278e 40F20003 		movw	r3, #:lower16:axisPID
 2819 2792 C0F20003 		movt	r3, #:upper16:axisPID
 2820 2796 D3ED006A 		flds	s13, [r3, #0]
 2821 279a DFED8A7A 		flds	s15, .L68
 2822 279e 66EEA77A 		fmuls	s15, s13, s15
 2823 27a2 37EE277A 		fadds	s14, s14, s15
 2824 27a6 40F20003 		movw	r3, #:lower16:axisPID
 2825 27aa C0F20003 		movt	r3, #:upper16:axisPID
 2826 27ae D3ED017A 		flds	s15, [r3, #4]
 2827 27b2 37EE277A 		fadds	s14, s14, s15
 2828 27b6 40F20003 		movw	r3, #:lower16:eepromConfig
 2829 27ba C0F20003 		movt	r3, #:upper16:eepromConfig
 2830 27be D3ED216A 		flds	s13, [r3, #132]
 2831 27c2 40F20003 		movw	r3, #:lower16:axisPID
 2832 27c6 C0F20003 		movt	r3, #:upper16:axisPID
 2833 27ca D3ED027A 		flds	s15, [r3, #8]
 2834 27ce 66EEA77A 		fmuls	s15, s13, s15
 2835 27d2 77EE677A 		fsubs	s15, s14, s15
 2836 27d6 40F20003 		movw	r3, #:lower16:motor
 2837 27da C0F20003 		movt	r3, #:upper16:motor
 2838 27de C3ED027A 		fsts	s15, [r3, #8]
 2839 27e2 40F20003 		movw	r3, #:lower16:rxCommand
 2840 27e6 C0F20003 		movt	r3, #:upper16:rxCommand
 2841 27ea 93ED037A 		flds	s14, [r3, #12]
 2842 27ee 40F20003 		movw	r3, #:lower16:axisPID
 2843 27f2 C0F20003 		movt	r3, #:upper16:axisPID
 2844 27f6 D3ED007A 		flds	s15, [r3, #0]
 2845 27fa 37EE277A 		fadds	s14, s14, s15
 2846 27fe 40F20003 		movw	r3, #:lower16:axisPID
 2847 2802 C0F20003 		movt	r3, #:upper16:axisPID
 2848 2806 D3ED016A 		flds	s13, [r3, #4]
 2849 280a DFED6E7A 		flds	s15, .L68
 2850 280e 66EEA77A 		fmuls	s15, s13, s15
 2851 2812 37EE277A 		fadds	s14, s14, s15
 2852 2816 40F20003 		movw	r3, #:lower16:eepromConfig
 2853 281a C0F20003 		movt	r3, #:upper16:eepromConfig
 2854 281e D3ED216A 		flds	s13, [r3, #132]
 2855 2822 40F20003 		movw	r3, #:lower16:axisPID
 2856 2826 C0F20003 		movt	r3, #:upper16:axisPID
 2857 282a D3ED027A 		flds	s15, [r3, #8]
 2858 282e 66EEA77A 		fmuls	s15, s13, s15
 2859 2832 77EE277A 		fadds	s15, s14, s15
 2860 2836 40F20003 		movw	r3, #:lower16:motor
 2861 283a C0F20003 		movt	r3, #:upper16:motor
 2862 283e C3ED037A 		fsts	s15, [r3, #12]
 2863 2842 40F20003 		movw	r3, #:lower16:rxCommand
 2864 2846 C0F20003 		movt	r3, #:upper16:rxCommand
 2865 284a 93ED037A 		flds	s14, [r3, #12]
 2866 284e 40F20003 		movw	r3, #:lower16:axisPID
 2867 2852 C0F20003 		movt	r3, #:upper16:axisPID
 2868 2856 D3ED006A 		flds	s13, [r3, #0]
 2869 285a DFED5A7A 		flds	s15, .L68
 2870 285e 66EEA77A 		fmuls	s15, s13, s15
 2871 2862 37EE277A 		fadds	s14, s14, s15
 2872 2866 40F20003 		movw	r3, #:lower16:axisPID
 2873 286a C0F20003 		movt	r3, #:upper16:axisPID
 2874 286e D3ED017A 		flds	s15, [r3, #4]
 2875 2872 37EE677A 		fsubs	s14, s14, s15
 2876 2876 40F20003 		movw	r3, #:lower16:eepromConfig
 2877 287a C0F20003 		movt	r3, #:upper16:eepromConfig
 2878 287e D3ED216A 		flds	s13, [r3, #132]
 2879 2882 40F20003 		movw	r3, #:lower16:axisPID
 2880 2886 C0F20003 		movt	r3, #:upper16:axisPID
 2881 288a D3ED027A 		flds	s15, [r3, #8]
 2882 288e 66EEA77A 		fmuls	s15, s13, s15
 2883 2892 77EE677A 		fsubs	s15, s14, s15
 2884 2896 40F20003 		movw	r3, #:lower16:motor
 2885 289a C0F20003 		movt	r3, #:upper16:motor
 2886 289e C3ED047A 		fsts	s15, [r3, #16]
 2887 28a2 40F20003 		movw	r3, #:lower16:rxCommand
 2888 28a6 C0F20003 		movt	r3, #:upper16:rxCommand
 2889 28aa 93ED037A 		flds	s14, [r3, #12]
 2890 28ae 40F20003 		movw	r3, #:lower16:axisPID
 2891 28b2 C0F20003 		movt	r3, #:upper16:axisPID
 2892 28b6 D3ED007A 		flds	s15, [r3, #0]
 2893 28ba 37EE677A 		fsubs	s14, s14, s15
 2894 28be 40F20003 		movw	r3, #:lower16:axisPID
 2895 28c2 C0F20003 		movt	r3, #:upper16:axisPID
 2896 28c6 D3ED016A 		flds	s13, [r3, #4]
 2897 28ca DFED3E7A 		flds	s15, .L68
 2898 28ce 66EEA77A 		fmuls	s15, s13, s15
 2899 28d2 37EE277A 		fadds	s14, s14, s15
 2900 28d6 40F20003 		movw	r3, #:lower16:eepromConfig
 2901 28da C0F20003 		movt	r3, #:upper16:eepromConfig
 2902 28de D3ED216A 		flds	s13, [r3, #132]
 2903 28e2 40F20003 		movw	r3, #:lower16:axisPID
 2904 28e6 C0F20003 		movt	r3, #:upper16:axisPID
 2905 28ea D3ED027A 		flds	s15, [r3, #8]
 2906 28ee 66EEA77A 		fmuls	s15, s13, s15
 2907 28f2 77EE277A 		fadds	s15, s14, s15
 2908 28f6 40F20003 		movw	r3, #:lower16:motor
 2909 28fa C0F20003 		movt	r3, #:upper16:motor
 2910 28fe C3ED057A 		fsts	s15, [r3, #20]
 2911 2902 40F20003 		movw	r3, #:lower16:rxCommand
 2912 2906 C0F20003 		movt	r3, #:upper16:rxCommand
 2913 290a 93ED037A 		flds	s14, [r3, #12]
 2914 290e 40F20003 		movw	r3, #:lower16:axisPID
 2915 2912 C0F20003 		movt	r3, #:upper16:axisPID
 2916 2916 D3ED006A 		flds	s13, [r3, #0]
 2917 291a DFED2A7A 		flds	s15, .L68
 2918 291e 66EEA77A 		fmuls	s15, s13, s15
 2919 2922 37EE277A 		fadds	s14, s14, s15
 2920 2926 40F20003 		movw	r3, #:lower16:axisPID
 2921 292a C0F20003 		movt	r3, #:upper16:axisPID
 2922 292e D3ED017A 		flds	s15, [r3, #4]
 2923 2932 37EE277A 		fadds	s14, s14, s15
 2924 2936 40F20003 		movw	r3, #:lower16:eepromConfig
 2925 293a C0F20003 		movt	r3, #:upper16:eepromConfig
 2926 293e D3ED216A 		flds	s13, [r3, #132]
 2927 2942 40F20003 		movw	r3, #:lower16:axisPID
 2928 2946 C0F20003 		movt	r3, #:upper16:axisPID
 2929 294a D3ED027A 		flds	s15, [r3, #8]
 2930 294e 66EEA77A 		fmuls	s15, s13, s15
 2931 2952 77EE677A 		fsubs	s15, s14, s15
 2932 2956 40F20003 		movw	r3, #:lower16:motor
 2933 295a C0F20003 		movt	r3, #:upper16:motor
 2934 295e C3ED067A 		fsts	s15, [r3, #24]
 2935 2962 40F20003 		movw	r3, #:lower16:rxCommand
 2936 2966 C0F20003 		movt	r3, #:upper16:rxCommand
 2937 296a 93ED037A 		flds	s14, [r3, #12]
 2938 296e 40F20003 		movw	r3, #:lower16:axisPID
 2939 2972 C0F20003 		movt	r3, #:upper16:axisPID
 2940 2976 D3ED007A 		flds	s15, [r3, #0]
 2941 297a 37EE277A 		fadds	s14, s14, s15
 2942 297e 40F20003 		movw	r3, #:lower16:axisPID
 2943 2982 C0F20003 		movt	r3, #:upper16:axisPID
 2944 2986 D3ED016A 		flds	s13, [r3, #4]
 2945 298a DFED0E7A 		flds	s15, .L68
 2946 298e 66EEA77A 		fmuls	s15, s13, s15
 2947 2992 37EE277A 		fadds	s14, s14, s15
 2948 2996 40F20003 		movw	r3, #:lower16:eepromConfig
 2949 299a C0F20003 		movt	r3, #:upper16:eepromConfig
 2950 299e D3ED216A 		flds	s13, [r3, #132]
 2951 29a2 40F20003 		movw	r3, #:lower16:axisPID
 2952 29a6 C0F20003 		movt	r3, #:upper16:axisPID
 2953 29aa D3ED027A 		flds	s15, [r3, #8]
 2954 29ae 66EEA77A 		fmuls	s15, s13, s15
 2955 29b2 77EE277A 		fadds	s15, s14, s15
 2956 29b6 40F20003 		movw	r3, #:lower16:motor
 2957 29ba C0F20003 		movt	r3, #:upper16:motor
 2958 29be C3ED077A 		fsts	s15, [r3, #28]
 2959 29c2 E1E1     		b	.L25
 2960              	.L69:
 2961              		.align	2
 2962              	.L68:
 2963 29c4 00000000 		.word	0
 2964              	.L45:
 2965 29c8 40F20003 		movw	r3, #:lower16:rxCommand
 2966 29cc C0F20003 		movt	r3, #:upper16:rxCommand
 2967 29d0 93ED037A 		flds	s14, [r3, #12]
 2968 29d4 40F20003 		movw	r3, #:lower16:axisPID
 2969 29d8 C0F20003 		movt	r3, #:upper16:axisPID
 2970 29dc D3ED007A 		flds	s15, [r3, #0]
 2971 29e0 37EE277A 		fadds	s14, s14, s15
 2972 29e4 40F20003 		movw	r3, #:lower16:axisPID
 2973 29e8 C0F20003 		movt	r3, #:upper16:axisPID
 2974 29ec D3ED017A 		flds	s15, [r3, #4]
 2975 29f0 37EE677A 		fsubs	s14, s14, s15
 2976 29f4 40F20003 		movw	r3, #:lower16:eepromConfig
 2977 29f8 C0F20003 		movt	r3, #:upper16:eepromConfig
 2978 29fc D3ED216A 		flds	s13, [r3, #132]
 2979 2a00 40F20003 		movw	r3, #:lower16:axisPID
 2980 2a04 C0F20003 		movt	r3, #:upper16:axisPID
 2981 2a08 D3ED027A 		flds	s15, [r3, #8]
 2982 2a0c 66EEA77A 		fmuls	s15, s13, s15
 2983 2a10 77EE677A 		fsubs	s15, s14, s15
 2984 2a14 40F20003 		movw	r3, #:lower16:motor
 2985 2a18 C0F20003 		movt	r3, #:upper16:motor
 2986 2a1c C3ED007A 		fsts	s15, [r3, #0]
 2987 2a20 40F20003 		movw	r3, #:lower16:rxCommand
 2988 2a24 C0F20003 		movt	r3, #:upper16:rxCommand
 2989 2a28 93ED037A 		flds	s14, [r3, #12]
 2990 2a2c 40F20003 		movw	r3, #:lower16:axisPID
 2991 2a30 C0F20003 		movt	r3, #:upper16:axisPID
 2992 2a34 D3ED007A 		flds	s15, [r3, #0]
 2993 2a38 37EE677A 		fsubs	s14, s14, s15
 2994 2a3c 40F20003 		movw	r3, #:lower16:axisPID
 2995 2a40 C0F20003 		movt	r3, #:upper16:axisPID
 2996 2a44 D3ED017A 		flds	s15, [r3, #4]
 2997 2a48 37EE677A 		fsubs	s14, s14, s15
 2998 2a4c 40F20003 		movw	r3, #:lower16:eepromConfig
 2999 2a50 C0F20003 		movt	r3, #:upper16:eepromConfig
 3000 2a54 D3ED216A 		flds	s13, [r3, #132]
 3001 2a58 40F20003 		movw	r3, #:lower16:axisPID
 3002 2a5c C0F20003 		movt	r3, #:upper16:axisPID
 3003 2a60 D3ED027A 		flds	s15, [r3, #8]
 3004 2a64 66EEA77A 		fmuls	s15, s13, s15
 3005 2a68 77EE277A 		fadds	s15, s14, s15
 3006 2a6c 40F20003 		movw	r3, #:lower16:motor
 3007 2a70 C0F20003 		movt	r3, #:upper16:motor
 3008 2a74 C3ED017A 		fsts	s15, [r3, #4]
 3009 2a78 40F20003 		movw	r3, #:lower16:rxCommand
 3010 2a7c C0F20003 		movt	r3, #:upper16:rxCommand
 3011 2a80 93ED037A 		flds	s14, [r3, #12]
 3012 2a84 40F20003 		movw	r3, #:lower16:axisPID
 3013 2a88 C0F20003 		movt	r3, #:upper16:axisPID
 3014 2a8c D3ED007A 		flds	s15, [r3, #0]
 3015 2a90 37EE677A 		fsubs	s14, s14, s15
 3016 2a94 40F20003 		movw	r3, #:lower16:axisPID
 3017 2a98 C0F20003 		movt	r3, #:upper16:axisPID
 3018 2a9c D3ED017A 		flds	s15, [r3, #4]
 3019 2aa0 37EE277A 		fadds	s14, s14, s15
 3020 2aa4 40F20003 		movw	r3, #:lower16:eepromConfig
 3021 2aa8 C0F20003 		movt	r3, #:upper16:eepromConfig
 3022 2aac D3ED216A 		flds	s13, [r3, #132]
 3023 2ab0 40F20003 		movw	r3, #:lower16:axisPID
 3024 2ab4 C0F20003 		movt	r3, #:upper16:axisPID
 3025 2ab8 D3ED027A 		flds	s15, [r3, #8]
 3026 2abc 66EEA77A 		fmuls	s15, s13, s15
 3027 2ac0 77EE677A 		fsubs	s15, s14, s15
 3028 2ac4 40F20003 		movw	r3, #:lower16:motor
 3029 2ac8 C0F20003 		movt	r3, #:upper16:motor
 3030 2acc C3ED027A 		fsts	s15, [r3, #8]
 3031 2ad0 40F20003 		movw	r3, #:lower16:rxCommand
 3032 2ad4 C0F20003 		movt	r3, #:upper16:rxCommand
 3033 2ad8 93ED037A 		flds	s14, [r3, #12]
 3034 2adc 40F20003 		movw	r3, #:lower16:axisPID
 3035 2ae0 C0F20003 		movt	r3, #:upper16:axisPID
 3036 2ae4 D3ED007A 		flds	s15, [r3, #0]
 3037 2ae8 37EE277A 		fadds	s14, s14, s15
 3038 2aec 40F20003 		movw	r3, #:lower16:axisPID
 3039 2af0 C0F20003 		movt	r3, #:upper16:axisPID
 3040 2af4 D3ED017A 		flds	s15, [r3, #4]
 3041 2af8 37EE277A 		fadds	s14, s14, s15
 3042 2afc 40F20003 		movw	r3, #:lower16:eepromConfig
 3043 2b00 C0F20003 		movt	r3, #:upper16:eepromConfig
 3044 2b04 D3ED216A 		flds	s13, [r3, #132]
 3045 2b08 40F20003 		movw	r3, #:lower16:axisPID
 3046 2b0c C0F20003 		movt	r3, #:upper16:axisPID
 3047 2b10 D3ED027A 		flds	s15, [r3, #8]
 3048 2b14 66EEA77A 		fmuls	s15, s13, s15
 3049 2b18 77EE277A 		fadds	s15, s14, s15
 3050 2b1c 40F20003 		movw	r3, #:lower16:motor
 3051 2b20 C0F20003 		movt	r3, #:upper16:motor
 3052 2b24 C3ED037A 		fsts	s15, [r3, #12]
 3053 2b28 40F20003 		movw	r3, #:lower16:rxCommand
 3054 2b2c C0F20003 		movt	r3, #:upper16:rxCommand
 3055 2b30 93ED037A 		flds	s14, [r3, #12]
 3056 2b34 40F20003 		movw	r3, #:lower16:axisPID
 3057 2b38 C0F20003 		movt	r3, #:upper16:axisPID
 3058 2b3c D3ED007A 		flds	s15, [r3, #0]
 3059 2b40 37EE277A 		fadds	s14, s14, s15
 3060 2b44 40F20003 		movw	r3, #:lower16:axisPID
 3061 2b48 C0F20003 		movt	r3, #:upper16:axisPID
 3062 2b4c D3ED017A 		flds	s15, [r3, #4]
 3063 2b50 37EE677A 		fsubs	s14, s14, s15
 3064 2b54 40F20003 		movw	r3, #:lower16:eepromConfig
 3065 2b58 C0F20003 		movt	r3, #:upper16:eepromConfig
 3066 2b5c D3ED216A 		flds	s13, [r3, #132]
 3067 2b60 40F20003 		movw	r3, #:lower16:axisPID
 3068 2b64 C0F20003 		movt	r3, #:upper16:axisPID
 3069 2b68 D3ED027A 		flds	s15, [r3, #8]
 3070 2b6c 66EEA77A 		fmuls	s15, s13, s15
 3071 2b70 77EE677A 		fsubs	s15, s14, s15
 3072 2b74 40F20003 		movw	r3, #:lower16:motor
 3073 2b78 C0F20003 		movt	r3, #:upper16:motor
 3074 2b7c C3ED047A 		fsts	s15, [r3, #16]
 3075 2b80 40F20003 		movw	r3, #:lower16:rxCommand
 3076 2b84 C0F20003 		movt	r3, #:upper16:rxCommand
 3077 2b88 93ED037A 		flds	s14, [r3, #12]
 3078 2b8c 40F20003 		movw	r3, #:lower16:axisPID
 3079 2b90 C0F20003 		movt	r3, #:upper16:axisPID
 3080 2b94 D3ED007A 		flds	s15, [r3, #0]
 3081 2b98 37EE677A 		fsubs	s14, s14, s15
 3082 2b9c 40F20003 		movw	r3, #:lower16:axisPID
 3083 2ba0 C0F20003 		movt	r3, #:upper16:axisPID
 3084 2ba4 D3ED017A 		flds	s15, [r3, #4]
 3085 2ba8 37EE677A 		fsubs	s14, s14, s15
 3086 2bac 40F20003 		movw	r3, #:lower16:eepromConfig
 3087 2bb0 C0F20003 		movt	r3, #:upper16:eepromConfig
 3088 2bb4 D3ED216A 		flds	s13, [r3, #132]
 3089 2bb8 40F20003 		movw	r3, #:lower16:axisPID
 3090 2bbc C0F20003 		movt	r3, #:upper16:axisPID
 3091 2bc0 D3ED027A 		flds	s15, [r3, #8]
 3092 2bc4 66EEA77A 		fmuls	s15, s13, s15
 3093 2bc8 77EE277A 		fadds	s15, s14, s15
 3094 2bcc 40F20003 		movw	r3, #:lower16:motor
 3095 2bd0 C0F20003 		movt	r3, #:upper16:motor
 3096 2bd4 C3ED057A 		fsts	s15, [r3, #20]
 3097 2bd8 40F20003 		movw	r3, #:lower16:rxCommand
 3098 2bdc C0F20003 		movt	r3, #:upper16:rxCommand
 3099 2be0 93ED037A 		flds	s14, [r3, #12]
 3100 2be4 40F20003 		movw	r3, #:lower16:axisPID
 3101 2be8 C0F20003 		movt	r3, #:upper16:axisPID
 3102 2bec D3ED007A 		flds	s15, [r3, #0]
 3103 2bf0 37EE677A 		fsubs	s14, s14, s15
 3104 2bf4 40F20003 		movw	r3, #:lower16:axisPID
 3105 2bf8 C0F20003 		movt	r3, #:upper16:axisPID
 3106 2bfc D3ED017A 		flds	s15, [r3, #4]
 3107 2c00 37EE277A 		fadds	s14, s14, s15
 3108 2c04 40F20003 		movw	r3, #:lower16:eepromConfig
 3109 2c08 C0F20003 		movt	r3, #:upper16:eepromConfig
 3110 2c0c D3ED216A 		flds	s13, [r3, #132]
 3111 2c10 40F20003 		movw	r3, #:lower16:axisPID
 3112 2c14 C0F20003 		movt	r3, #:upper16:axisPID
 3113 2c18 D3ED027A 		flds	s15, [r3, #8]
 3114 2c1c 66EEA77A 		fmuls	s15, s13, s15
 3115 2c20 77EE677A 		fsubs	s15, s14, s15
 3116 2c24 40F20003 		movw	r3, #:lower16:motor
 3117 2c28 C0F20003 		movt	r3, #:upper16:motor
 3118 2c2c C3ED067A 		fsts	s15, [r3, #24]
 3119 2c30 40F20003 		movw	r3, #:lower16:rxCommand
 3120 2c34 C0F20003 		movt	r3, #:upper16:rxCommand
 3121 2c38 93ED037A 		flds	s14, [r3, #12]
 3122 2c3c 40F20003 		movw	r3, #:lower16:axisPID
 3123 2c40 C0F20003 		movt	r3, #:upper16:axisPID
 3124 2c44 D3ED007A 		flds	s15, [r3, #0]
 3125 2c48 37EE277A 		fadds	s14, s14, s15
 3126 2c4c 40F20003 		movw	r3, #:lower16:axisPID
 3127 2c50 C0F20003 		movt	r3, #:upper16:axisPID
 3128 2c54 D3ED017A 		flds	s15, [r3, #4]
 3129 2c58 37EE277A 		fadds	s14, s14, s15
 3130 2c5c 40F20003 		movw	r3, #:lower16:eepromConfig
 3131 2c60 C0F20003 		movt	r3, #:upper16:eepromConfig
 3132 2c64 D3ED216A 		flds	s13, [r3, #132]
 3133 2c68 40F20003 		movw	r3, #:lower16:axisPID
 3134 2c6c C0F20003 		movt	r3, #:upper16:axisPID
 3135 2c70 D3ED027A 		flds	s15, [r3, #8]
 3136 2c74 66EEA77A 		fmuls	s15, s13, s15
 3137 2c78 77EE277A 		fadds	s15, s14, s15
 3138 2c7c 40F20003 		movw	r3, #:lower16:motor
 3139 2c80 C0F20003 		movt	r3, #:upper16:motor
 3140 2c84 C3ED077A 		fsts	s15, [r3, #28]
 3141 2c88 7EE0     		b	.L25
 3142              	.L46:
 3143 2c8a 4FF00003 		mov	r3, #0
 3144 2c8e 8DF80530 		strb	r3, [sp, #5]
 3145 2c92 6FE0     		b	.L50
 3146              	.L51:
 3147 2c94 9DF80500 		ldrb	r0, [sp, #5]	@ zero_extendqisi2
 3148 2c98 40F20003 		movw	r3, #:lower16:rxCommand
 3149 2c9c C0F20003 		movt	r3, #:upper16:rxCommand
 3150 2ca0 93ED037A 		flds	s14, [r3, #12]
 3151 2ca4 40F20003 		movw	r3, #:lower16:axisPID
 3152 2ca8 C0F20003 		movt	r3, #:upper16:axisPID
 3153 2cac D3ED006A 		flds	s13, [r3, #0]
 3154 2cb0 9DF80510 		ldrb	r1, [sp, #5]	@ zero_extendqisi2
 3155 2cb4 40F20002 		movw	r2, #:lower16:eepromConfig
 3156 2cb8 C0F20002 		movt	r2, #:upper16:eepromConfig
 3157 2cbc 0B46     		mov	r3, r1
 3158 2cbe 4FEA4303 		lsl	r3, r3, #1
 3159 2cc2 5B18     		adds	r3, r3, r1
 3160 2cc4 4FEA8303 		lsl	r3, r3, #2
 3161 2cc8 D318     		adds	r3, r2, r3
 3162 2cca 03F53A73 		add	r3, r3, #744
 3163 2cce D3ED007A 		flds	s15, [r3, #0]
 3164 2cd2 66EEA77A 		fmuls	s15, s13, s15
 3165 2cd6 37EE277A 		fadds	s14, s14, s15
 3166 2cda 40F20003 		movw	r3, #:lower16:axisPID
 3167 2cde C0F20003 		movt	r3, #:upper16:axisPID
 3168 2ce2 D3ED016A 		flds	s13, [r3, #4]
 3169 2ce6 9DF80510 		ldrb	r1, [sp, #5]	@ zero_extendqisi2
 3170 2cea 40F20002 		movw	r2, #:lower16:eepromConfig
 3171 2cee C0F20002 		movt	r2, #:upper16:eepromConfig
 3172 2cf2 0B46     		mov	r3, r1
 3173 2cf4 4FEA4303 		lsl	r3, r3, #1
 3174 2cf8 5B18     		adds	r3, r3, r1
 3175 2cfa 4FEA8303 		lsl	r3, r3, #2
 3176 2cfe D318     		adds	r3, r2, r3
 3177 2d00 03F53B73 		add	r3, r3, #748
 3178 2d04 D3ED007A 		flds	s15, [r3, #0]
 3179 2d08 66EEA77A 		fmuls	s15, s13, s15
 3180 2d0c 37EE277A 		fadds	s14, s14, s15
 3181 2d10 40F20003 		movw	r3, #:lower16:eepromConfig
 3182 2d14 C0F20003 		movt	r3, #:upper16:eepromConfig
 3183 2d18 D3ED216A 		flds	s13, [r3, #132]
 3184 2d1c 40F20003 		movw	r3, #:lower16:axisPID
 3185 2d20 C0F20003 		movt	r3, #:upper16:axisPID
 3186 2d24 D3ED027A 		flds	s15, [r3, #8]
 3187 2d28 66EEA77A 		fmuls	s15, s13, s15
 3188 2d2c 9DF80510 		ldrb	r1, [sp, #5]	@ zero_extendqisi2
 3189 2d30 40F20002 		movw	r2, #:lower16:eepromConfig
 3190 2d34 C0F20002 		movt	r2, #:upper16:eepromConfig
 3191 2d38 0B46     		mov	r3, r1
 3192 2d3a 4FEA4303 		lsl	r3, r3, #1
 3193 2d3e 5B18     		adds	r3, r3, r1
 3194 2d40 4FEA8303 		lsl	r3, r3, #2
 3195 2d44 D318     		adds	r3, r2, r3
 3196 2d46 03F53C73 		add	r3, r3, #752
 3197 2d4a D3ED006A 		flds	s13, [r3, #0]
 3198 2d4e 67EEA67A 		fmuls	s15, s15, s13
 3199 2d52 77EE277A 		fadds	s15, s14, s15
 3200 2d56 40F20003 		movw	r3, #:lower16:motor
 3201 2d5a C0F20003 		movt	r3, #:upper16:motor
 3202 2d5e 4FEA8002 		lsl	r2, r0, #2
 3203 2d62 9B18     		adds	r3, r3, r2
 3204 2d64 C3ED007A 		fsts	s15, [r3, #0]
 3205 2d68 9DF80530 		ldrb	r3, [sp, #5]
 3206 2d6c 03F10103 		add	r3, r3, #1
 3207 2d70 8DF80530 		strb	r3, [sp, #5]
 3208              	.L50:
 3209 2d74 40F20003 		movw	r3, #:lower16:numberMotor
 3210 2d78 C0F20003 		movt	r3, #:upper16:numberMotor
 3211 2d7c 1B78     		ldrb	r3, [r3, #0]	@ zero_extendqisi2
 3212 2d7e 9DF80520 		ldrb	r2, [sp, #5]	@ zero_extendqisi2
 3213 2d82 9A42     		cmp	r2, r3
 3214 2d84 86D3     		bcc	.L51
 3215 2d86 00BF     		nop
 3216              	.L25:
 3217 2d88 40F20003 		movw	r3, #:lower16:motor
 3218 2d8c C0F20003 		movt	r3, #:upper16:motor
 3219 2d90 D3ED007A 		flds	s15, [r3, #0]
 3220 2d94 FDEEE77A 		ftosizs	s15, s15
 3221 2d98 17EE903A 		fmrs	r3, s15	@ int
 3222 2d9c ADF80630 		strh	r3, [sp, #6]	@ movhi
 3223 2da0 4FF00103 		mov	r3, #1
 3224 2da4 8DF80530 		strb	r3, [sp, #5]
 3225 2da8 31E0     		b	.L52
 3226              	.L54:
 3227 2daa 9DF80520 		ldrb	r2, [sp, #5]	@ zero_extendqisi2
 3228 2dae 40F20003 		movw	r3, #:lower16:motor
 3229 2db2 C0F20003 		movt	r3, #:upper16:motor
 3230 2db6 4FEA8202 		lsl	r2, r2, #2
 3231 2dba 9B18     		adds	r3, r3, r2
 3232 2dbc 93ED007A 		flds	s14, [r3, #0]
 3233 2dc0 BDF90630 		ldrsh	r3, [sp, #6]
 3234 2dc4 06EE903A 		fmsr	s13, r3	@ int
 3235 2dc8 F8EEE67A 		fsitos	s15, s13
 3236 2dcc B4EEE77A 		fcmpes	s14, s15
 3237 2dd0 F1EE10FA 		fmstat
 3238 2dd4 D4BF     		ite	le
 3239 2dd6 0023     		movle	r3, #0
 3240 2dd8 0123     		movgt	r3, #1
 3241 2dda DBB2     		uxtb	r3, r3
 3242 2ddc 002B     		cmp	r3, #0
 3243 2dde 10D0     		beq	.L53
 3244 2de0 9DF80520 		ldrb	r2, [sp, #5]	@ zero_extendqisi2
 3245 2de4 40F20003 		movw	r3, #:lower16:motor
 3246 2de8 C0F20003 		movt	r3, #:upper16:motor
 3247 2dec 4FEA8202 		lsl	r2, r2, #2
 3248 2df0 9B18     		adds	r3, r3, r2
 3249 2df2 D3ED007A 		flds	s15, [r3, #0]
 3250 2df6 FDEEE77A 		ftosizs	s15, s15
 3251 2dfa 17EE903A 		fmrs	r3, s15	@ int
 3252 2dfe ADF80630 		strh	r3, [sp, #6]	@ movhi
 3253              	.L53:
 3254 2e02 9DF80530 		ldrb	r3, [sp, #5]
 3255 2e06 03F10103 		add	r3, r3, #1
 3256 2e0a 8DF80530 		strb	r3, [sp, #5]
 3257              	.L52:
 3258 2e0e 40F20003 		movw	r3, #:lower16:numberMotor
 3259 2e12 C0F20003 		movt	r3, #:upper16:numberMotor
 3260 2e16 1B78     		ldrb	r3, [r3, #0]	@ zero_extendqisi2
 3261 2e18 9DF80520 		ldrb	r2, [sp, #5]	@ zero_extendqisi2
 3262 2e1c 9A42     		cmp	r2, r3
 3263 2e1e C4D3     		bcc	.L54
 3264 2e20 4FF00003 		mov	r3, #0
 3265 2e24 8DF80530 		strb	r3, [sp, #5]
 3266 2e28 9FE0     		b	.L55
 3267              	.L59:
 3268 2e2a BDF90630 		ldrsh	r3, [sp, #6]
 3269 2e2e 07EE903A 		fmsr	s15, r3	@ int
 3270 2e32 B8EEE77A 		fsitos	s14, s15
 3271 2e36 40F20003 		movw	r3, #:lower16:eepromConfig
 3272 2e3a C0F20003 		movt	r3, #:upper16:eepromConfig
 3273 2e3e D3ED267A 		flds	s15, [r3, #152]
 3274 2e42 B4EEE77A 		fcmpes	s14, s15
 3275 2e46 F1EE10FA 		fmstat
 3276 2e4a D4BF     		ite	le
 3277 2e4c 0023     		movle	r3, #0
 3278 2e4e 0123     		movgt	r3, #1
 3279 2e50 DBB2     		uxtb	r3, r3
 3280 2e52 002B     		cmp	r3, #0
 3281 2e54 25D0     		beq	.L56
 3282 2e56 9DF80520 		ldrb	r2, [sp, #5]	@ zero_extendqisi2
 3283 2e5a 9DF80510 		ldrb	r1, [sp, #5]	@ zero_extendqisi2
 3284 2e5e 40F20003 		movw	r3, #:lower16:motor
 3285 2e62 C0F20003 		movt	r3, #:upper16:motor
 3286 2e66 4FEA8101 		lsl	r1, r1, #2
 3287 2e6a 5B18     		adds	r3, r3, r1
 3288 2e6c 93ED007A 		flds	s14, [r3, #0]
 3289 2e70 BDF90630 		ldrsh	r3, [sp, #6]
 3290 2e74 07EE903A 		fmsr	s15, r3	@ int
 3291 2e78 F8EEE76A 		fsitos	s13, s15
 3292 2e7c 40F20003 		movw	r3, #:lower16:eepromConfig
 3293 2e80 C0F20003 		movt	r3, #:upper16:eepromConfig
 3294 2e84 D3ED267A 		flds	s15, [r3, #152]
 3295 2e88 76EEE77A 		fsubs	s15, s13, s15
 3296 2e8c 77EE677A 		fsubs	s15, s14, s15
 3297 2e90 40F20003 		movw	r3, #:lower16:motor
 3298 2e94 C0F20003 		movt	r3, #:upper16:motor
 3299 2e98 4FEA8202 		lsl	r2, r2, #2
 3300 2e9c 9B18     		adds	r3, r3, r2
 3301 2e9e C3ED007A 		fsts	s15, [r3, #0]
 3302              	.L56:
 3303 2ea2 9DF80540 		ldrb	r4, [sp, #5]	@ zero_extendqisi2
 3304 2ea6 9DF80520 		ldrb	r2, [sp, #5]	@ zero_extendqisi2
 3305 2eaa 40F20003 		movw	r3, #:lower16:motor
 3306 2eae C0F20003 		movt	r3, #:upper16:motor
 3307 2eb2 4FEA8202 		lsl	r2, r2, #2
 3308 2eb6 9B18     		adds	r3, r3, r2
 3309 2eb8 1968     		ldr	r1, [r3, #0]	@ float
 3310 2eba 40F20003 		movw	r3, #:lower16:eepromConfig
 3311 2ebe C0F20003 		movt	r3, #:upper16:eepromConfig
 3312 2ec2 D3F89420 		ldr	r2, [r3, #148]	@ float
 3313 2ec6 40F20003 		movw	r3, #:lower16:eepromConfig
 3314 2eca C0F20003 		movt	r3, #:upper16:eepromConfig
 3315 2ece D3F89830 		ldr	r3, [r3, #152]	@ float
 3316 2ed2 0846     		mov	r0, r1	@ float
 3317 2ed4 1146     		mov	r1, r2	@ float
 3318 2ed6 1A46     		mov	r2, r3	@ float
 3319 2ed8 FFF7FEFF 		bl	constrain
 3320 2edc 0246     		mov	r2, r0	@ float
 3321 2ede 40F20003 		movw	r3, #:lower16:motor
 3322 2ee2 C0F20003 		movt	r3, #:upper16:motor
 3323 2ee6 4FEA8401 		lsl	r1, r4, #2
 3324 2eea 5B18     		adds	r3, r3, r1
 3325 2eec 1A60     		str	r2, [r3, #0]	@ float
 3326 2eee 40F20003 		movw	r3, #:lower16:rxCommand
 3327 2ef2 C0F20003 		movt	r3, #:upper16:rxCommand
 3328 2ef6 93ED037A 		flds	s14, [r3, #12]
 3329 2efa 40F20003 		movw	r3, #:lower16:eepromConfig
 3330 2efe C0F20003 		movt	r3, #:upper16:eepromConfig
 3331 2f02 D3ED237A 		flds	s15, [r3, #140]
 3332 2f06 B4EEE77A 		fcmpes	s14, s15
 3333 2f0a F1EE10FA 		fmstat
 3334 2f0e 54BF     		ite	pl
 3335 2f10 0023     		movpl	r3, #0
 3336 2f12 0123     		movmi	r3, #1
 3337 2f14 DBB2     		uxtb	r3, r3
 3338 2f16 002B     		cmp	r3, #0
 3339 2f18 0FD0     		beq	.L57
 3340 2f1a 9DF80510 		ldrb	r1, [sp, #5]	@ zero_extendqisi2
 3341 2f1e 40F20003 		movw	r3, #:lower16:eepromConfig
 3342 2f22 C0F20003 		movt	r3, #:upper16:eepromConfig
 3343 2f26 D3F89420 		ldr	r2, [r3, #148]	@ float
 3344 2f2a 40F20003 		movw	r3, #:lower16:motor
 3345 2f2e C0F20003 		movt	r3, #:upper16:motor
 3346 2f32 4FEA8101 		lsl	r1, r1, #2
 3347 2f36 5B18     		adds	r3, r3, r1
 3348 2f38 1A60     		str	r2, [r3, #0]	@ float
 3349              	.L57:
 3350 2f3a 40F20003 		movw	r3, #:lower16:armed
 3351 2f3e C0F20003 		movt	r3, #:upper16:armed
 3352 2f42 1B78     		ldrb	r3, [r3, #0]	@ zero_extendqisi2
 3353 2f44 002B     		cmp	r3, #0
 3354 2f46 0AD1     		bne	.L58
 3355 2f48 9DF80520 		ldrb	r2, [sp, #5]	@ zero_extendqisi2
 3356 2f4c 40F20003 		movw	r3, #:lower16:motor
 3357 2f50 C0F20003 		movt	r3, #:upper16:motor
 3358 2f54 4FEA8202 		lsl	r2, r2, #2
 3359 2f58 9B18     		adds	r3, r3, r2
 3360 2f5a 0A4A     		ldr	r2, .L70	@ float
 3361 2f5c 1A60     		str	r2, [r3, #0]	@ float
 3362              	.L58:
 3363 2f5e 9DF80530 		ldrb	r3, [sp, #5]
 3364 2f62 03F10103 		add	r3, r3, #1
 3365 2f66 8DF80530 		strb	r3, [sp, #5]
 3366              	.L55:
 3367 2f6a 40F20003 		movw	r3, #:lower16:numberMotor
 3368 2f6e C0F20003 		movt	r3, #:upper16:numberMotor
 3369 2f72 1B78     		ldrb	r3, [r3, #0]	@ zero_extendqisi2
 3370 2f74 9DF80520 		ldrb	r2, [sp, #5]	@ zero_extendqisi2
 3371 2f78 9A42     		cmp	r2, r3
 3372 2f7a FFF456AF 		bcc	.L59
 3373 2f7e 03B0     		add	sp, sp, #12
 3374 2f80 30BD     		pop	{r4, r5, pc}
 3375              	.L71:
 3376 2f82 00BF     		.align	2
 3377              	.L70:
 3378 2f84 0000FA44 		.word	1157234688
 3380              		.ident	"GCC: (Sourcery CodeBench Lite 2012.03-56) 4.6.3"