   1              		.syntax unified
   2              		.cpu cortex-m4
   3              		.eabi_attribute 27, 3
   4              		.fpu fpv4-sp-d16
   5              		.eabi_attribute 20, 1
   6              		.eabi_attribute 21, 1
   7              		.eabi_attribute 23, 3
   8              		.eabi_attribute 24, 1
   9              		.eabi_attribute 25, 1
  10              		.eabi_attribute 26, 1
  11              		.eabi_attribute 30, 6
  12              		.eabi_attribute 34, 1
  13              		.eabi_attribute 18, 4
  14              		.thumb
  15              		.file	"pid.c"
  16              		.global	holdIntegrators
  17              		.data
  20              	holdIntegrators:
  21 0000 01       		.byte	1
  22              		.comm	rc,4,4
  23              		.text
  24              		.align	2
  25              		.global	initPID
  26              		.thumb
  27              		.thumb_func
  29              	initPID:
  30              		@ args = 0, pretend = 0, frame = 8
  31              		@ frame_needed = 0, uses_anonymous_args = 0
  32              		@ link register save eliminated.
  33 0000 82B0     		sub	sp, sp, #8
  34 0002 40F20003 		movw	r3, #:lower16:rc
  35 0006 C0F20003 		movt	r3, #:upper16:rc
  36 000a 2B4A     		ldr	r2, .L4	@ float
  37 000c 1A60     		str	r2, [r3, #0]	@ float
  38 000e 4FF00003 		mov	r3, #0
  39 0012 8DF80730 		strb	r3, [sp, #7]
  40 0016 49E0     		b	.L2
  41              	.L3:
  42 0018 9DF80710 		ldrb	r1, [sp, #7]	@ zero_extendqisi2
  43 001c 40F20002 		movw	r2, #:lower16:eepromConfig
  44 0020 C0F20002 		movt	r2, #:upper16:eepromConfig
  45 0024 0B46     		mov	r3, r1
  46 0026 4FEA8303 		lsl	r3, r3, #2
  47 002a 5B18     		adds	r3, r3, r1
  48 002c 4FEAC303 		lsl	r3, r3, #3
  49 0030 D318     		adds	r3, r2, r3
  50 0032 03F19003 		add	r3, r3, #144
  51 0036 214A     		ldr	r2, .L4+4	@ float
  52 0038 1A60     		str	r2, [r3, #0]	@ float
  53 003a 9DF80710 		ldrb	r1, [sp, #7]	@ zero_extendqisi2
  54 003e 40F20002 		movw	r2, #:lower16:eepromConfig
  55 0042 C0F20002 		movt	r2, #:upper16:eepromConfig
  56 0046 0B46     		mov	r3, r1
  57 0048 4FEA8303 		lsl	r3, r3, #2
  58 004c 5B18     		adds	r3, r3, r1
  59 004e 4FEAC303 		lsl	r3, r3, #3
  60 0052 D318     		adds	r3, r2, r3
  61 0054 03F19803 		add	r3, r3, #152
  62 0058 184A     		ldr	r2, .L4+4	@ float
  63 005a 1A60     		str	r2, [r3, #0]	@ float
  64 005c 9DF80710 		ldrb	r1, [sp, #7]	@ zero_extendqisi2
  65 0060 40F20002 		movw	r2, #:lower16:eepromConfig
  66 0064 C0F20002 		movt	r2, #:upper16:eepromConfig
  67 0068 0B46     		mov	r3, r1
  68 006a 4FEA8303 		lsl	r3, r3, #2
  69 006e 5B18     		adds	r3, r3, r1
  70 0070 4FEAC303 		lsl	r3, r3, #3
  71 0074 D318     		adds	r3, r2, r3
  72 0076 03F19C03 		add	r3, r3, #156
  73 007a 104A     		ldr	r2, .L4+4	@ float
  74 007c 1A60     		str	r2, [r3, #0]	@ float
  75 007e 9DF80710 		ldrb	r1, [sp, #7]	@ zero_extendqisi2
  76 0082 40F20002 		movw	r2, #:lower16:eepromConfig
  77 0086 C0F20002 		movt	r2, #:upper16:eepromConfig
  78 008a 0B46     		mov	r3, r1
  79 008c 4FEA8303 		lsl	r3, r3, #2
  80 0090 5B18     		adds	r3, r3, r1
  81 0092 4FEAC303 		lsl	r3, r3, #3
  82 0096 D318     		adds	r3, r2, r3
  83 0098 03F1A003 		add	r3, r3, #160
  84 009c 074A     		ldr	r2, .L4+4	@ float
  85 009e 1A60     		str	r2, [r3, #0]	@ float
  86 00a0 9DF80730 		ldrb	r3, [sp, #7]
  87 00a4 03F10103 		add	r3, r3, #1
  88 00a8 8DF80730 		strb	r3, [sp, #7]
  89              	.L2:
  90 00ac 9DF80730 		ldrb	r3, [sp, #7]	@ zero_extendqisi2
  91 00b0 052B     		cmp	r3, #5
  92 00b2 B1D9     		bls	.L3
  93 00b4 02B0     		add	sp, sp, #8
  94 00b6 7047     		bx	lr
  95              	.L5:
  96              		.align	2
  97              	.L4:
  98 00b8 3661023C 		.word	1006788918
  99 00bc 00000000 		.word	0
 101              		.align	2
 102              		.global	updatePID
 103              		.thumb
 104              		.thumb_func
 106              	updatePID:
 107              		@ args = 4, pretend = 0, frame = 32
 108              		@ frame_needed = 0, uses_anonymous_args = 0
 109 00c0 00B5     		push	{lr}
 110 00c2 89B0     		sub	sp, sp, #36
 111 00c4 0390     		str	r0, [sp, #12]	@ float
 112 00c6 0291     		str	r1, [sp, #8]	@ float
 113 00c8 0192     		str	r2, [sp, #4]	@ float
 114 00ca 8DF80330 		strb	r3, [sp, #3]
 115 00ce 9DED037A 		flds	s14, [sp, #12]
 116 00d2 DDED027A 		flds	s15, [sp, #8]
 117 00d6 77EE677A 		fsubs	s15, s14, s15
 118 00da CDED077A 		fsts	s15, [sp, #28]
 119 00de 0A9B     		ldr	r3, [sp, #40]
 120 00e0 93F82430 		ldrb	r3, [r3, #36]	@ zero_extendqisi2
 121 00e4 012B     		cmp	r3, #1
 122 00e6 03D1     		bne	.L7
 123 00e8 0798     		ldr	r0, [sp, #28]	@ float
 124 00ea FFF7FEFF 		bl	standardRadianFormat
 125 00ee 0790     		str	r0, [sp, #28]	@ float
 126              	.L7:
 127 00f0 9DF80330 		ldrb	r3, [sp, #3]	@ zero_extendqisi2
 128 00f4 002B     		cmp	r3, #0
 129 00f6 1FD1     		bne	.L8
 130 00f8 0A9B     		ldr	r3, [sp, #40]
 131 00fa 93ED047A 		flds	s14, [r3, #16]
 132 00fe DDED076A 		flds	s13, [sp, #28]
 133 0102 DDED017A 		flds	s15, [sp, #4]
 134 0106 66EEA77A 		fmuls	s15, s13, s15
 135 010a 77EE277A 		fadds	s15, s14, s15
 136 010e 0A9B     		ldr	r3, [sp, #40]
 137 0110 C3ED047A 		fsts	s15, [r3, #16]
 138 0114 0A9B     		ldr	r3, [sp, #40]
 139 0116 1A69     		ldr	r2, [r3, #16]	@ float
 140 0118 0A9B     		ldr	r3, [sp, #40]
 141 011a D3ED057A 		flds	s15, [r3, #20]
 142 011e F1EE677A 		fnegs	s15, s15
 143 0122 17EE901A 		fmrs	r1, s15
 144 0126 0A9B     		ldr	r3, [sp, #40]
 145 0128 5B69     		ldr	r3, [r3, #20]	@ float
 146 012a 1046     		mov	r0, r2	@ float
 147 012c 1A46     		mov	r2, r3	@ float
 148 012e FFF7FEFF 		bl	constrain
 149 0132 0246     		mov	r2, r0	@ float
 150 0134 0A9B     		ldr	r3, [sp, #40]
 151 0136 1A61     		str	r2, [r3, #16]	@ float
 152              	.L8:
 153 0138 0A9B     		ldr	r3, [sp, #40]
 154 013a D3ED067A 		flds	s15, [r3, #24]
 155 013e 9DED077A 		flds	s14, [sp, #28]
 156 0142 37EE677A 		fsubs	s14, s14, s15
 157 0146 DDED017A 		flds	s15, [sp, #4]
 158 014a C7EE277A 		fdivs	s15, s14, s15
 159 014e CDED067A 		fsts	s15, [sp, #24]
 160 0152 0A9B     		ldr	r3, [sp, #40]
 161 0154 079A     		ldr	r2, [sp, #28]	@ float
 162 0156 9A61     		str	r2, [r3, #24]	@ float
 163 0158 0A9B     		ldr	r3, [sp, #40]
 164 015a 93ED077A 		flds	s14, [r3, #28]
 165 015e 40F20003 		movw	r3, #:lower16:rc
 166 0162 C0F20003 		movt	r3, #:upper16:rc
 167 0166 D3ED006A 		flds	s13, [r3, #0]
 168 016a DDED017A 		flds	s15, [sp, #4]
 169 016e 76EEA77A 		fadds	s15, s13, s15
 170 0172 DDED016A 		flds	s13, [sp, #4]
 171 0176 C6EEA77A 		fdivs	s15, s13, s15
 172 017a 0A9B     		ldr	r3, [sp, #40]
 173 017c D3ED076A 		flds	s13, [r3, #28]
 174 0180 9DED066A 		flds	s12, [sp, #24]
 175 0184 76EE666A 		fsubs	s13, s12, s13
 176 0188 67EEA67A 		fmuls	s15, s15, s13
 177 018c 77EE277A 		fadds	s15, s14, s15
 178 0190 CDED057A 		fsts	s15, [sp, #20]
 179 0194 0A9B     		ldr	r3, [sp, #40]
 180 0196 93ED077A 		flds	s14, [r3, #28]
 181 019a DDED057A 		flds	s15, [sp, #20]
 182 019e 37EE277A 		fadds	s14, s14, s15
 183 01a2 0A9B     		ldr	r3, [sp, #40]
 184 01a4 D3ED087A 		flds	s15, [r3, #32]
 185 01a8 37EE277A 		fadds	s14, s14, s15
 186 01ac DFED367A 		flds	s15, .L11
 187 01b0 67EE277A 		fmuls	s15, s14, s15
 188 01b4 CDED047A 		fsts	s15, [sp, #16]
 189 01b8 0A9B     		ldr	r3, [sp, #40]
 190 01ba DA69     		ldr	r2, [r3, #28]	@ float
 191 01bc 0A9B     		ldr	r3, [sp, #40]
 192 01be 1A62     		str	r2, [r3, #32]	@ float
 193 01c0 0A9B     		ldr	r3, [sp, #40]
 194 01c2 059A     		ldr	r2, [sp, #20]	@ float
 195 01c4 DA61     		str	r2, [r3, #28]	@ float
 196 01c6 0A9B     		ldr	r3, [sp, #40]
 197 01c8 93F82430 		ldrb	r3, [r3, #36]	@ zero_extendqisi2
 198 01cc 012B     		cmp	r3, #1
 199 01ce 2ED1     		bne	.L9
 200 01d0 0A9B     		ldr	r3, [sp, #40]
 201 01d2 93ED017A 		flds	s14, [r3, #4]
 202 01d6 0A9B     		ldr	r3, [sp, #40]
 203 01d8 D3ED007A 		flds	s15, [r3, #0]
 204 01dc 67EE277A 		fmuls	s15, s14, s15
 205 01e0 9DED037A 		flds	s14, [sp, #12]
 206 01e4 27EE877A 		fmuls	s14, s15, s14
 207 01e8 0A9B     		ldr	r3, [sp, #40]
 208 01ea D3ED026A 		flds	s13, [r3, #8]
 209 01ee 0A9B     		ldr	r3, [sp, #40]
 210 01f0 D3ED047A 		flds	s15, [r3, #16]
 211 01f4 66EEA77A 		fmuls	s15, s13, s15
 212 01f8 37EE277A 		fadds	s14, s14, s15
 213 01fc 0A9B     		ldr	r3, [sp, #40]
 214 01fe D3ED036A 		flds	s13, [r3, #12]
 215 0202 DDED047A 		flds	s15, [sp, #16]
 216 0206 66EEA77A 		fmuls	s15, s13, s15
 217 020a 37EE277A 		fadds	s14, s14, s15
 218 020e 0A9B     		ldr	r3, [sp, #40]
 219 0210 D3ED016A 		flds	s13, [r3, #4]
 220 0214 DDED027A 		flds	s15, [sp, #8]
 221 0218 66EEA77A 		fmuls	s15, s13, s15
 222 021c 77EE677A 		fsubs	s15, s14, s15
 223 0220 17EE900A 		fmrs	r0, s15
 224 0224 FFF7FEFF 		bl	standardRadianFormat
 225 0228 07EE900A 		fmsr	s15, r0
 226 022c 27E0     		b	.L10
 227              	.L9:
 228 022e 0A9B     		ldr	r3, [sp, #40]
 229 0230 93ED017A 		flds	s14, [r3, #4]
 230 0234 0A9B     		ldr	r3, [sp, #40]
 231 0236 D3ED007A 		flds	s15, [r3, #0]
 232 023a 67EE277A 		fmuls	s15, s14, s15
 233 023e 9DED037A 		flds	s14, [sp, #12]
 234 0242 27EE877A 		fmuls	s14, s15, s14
 235 0246 0A9B     		ldr	r3, [sp, #40]
 236 0248 D3ED026A 		flds	s13, [r3, #8]
 237 024c 0A9B     		ldr	r3, [sp, #40]
 238 024e D3ED047A 		flds	s15, [r3, #16]
 239 0252 66EEA77A 		fmuls	s15, s13, s15
 240 0256 37EE277A 		fadds	s14, s14, s15
 241 025a 0A9B     		ldr	r3, [sp, #40]
 242 025c D3ED036A 		flds	s13, [r3, #12]
 243 0260 DDED047A 		flds	s15, [sp, #16]
 244 0264 66EEA77A 		fmuls	s15, s13, s15
 245 0268 37EE277A 		fadds	s14, s14, s15
 246 026c 0A9B     		ldr	r3, [sp, #40]
 247 026e D3ED016A 		flds	s13, [r3, #4]
 248 0272 DDED027A 		flds	s15, [sp, #8]
 249 0276 66EEA77A 		fmuls	s15, s13, s15
 250 027a 77EE677A 		fsubs	s15, s14, s15
 251              	.L10:
 252 027e 17EE903A 		fmrs	r3, s15
 253 0282 1846     		mov	r0, r3	@ float
 254 0284 09B0     		add	sp, sp, #36
 255 0286 00BD     		pop	{pc}
 256              	.L12:
 257              		.align	2
 258              	.L11:
 259 0288 9FAAAA3E 		.word	1051372191
 261              		.align	2
 262              		.global	setPIDintegralError
 263              		.thumb
 264              		.thumb_func
 266              	setPIDintegralError:
 267              		@ args = 0, pretend = 0, frame = 8
 268              		@ frame_needed = 0, uses_anonymous_args = 0
 269              		@ link register save eliminated.
 270 028c 82B0     		sub	sp, sp, #8
 271 028e 0346     		mov	r3, r0
 272 0290 0091     		str	r1, [sp, #0]	@ float
 273 0292 8DF80730 		strb	r3, [sp, #7]
 274 0296 9DF80710 		ldrb	r1, [sp, #7]	@ zero_extendqisi2
 275 029a 40F20002 		movw	r2, #:lower16:eepromConfig
 276 029e C0F20002 		movt	r2, #:upper16:eepromConfig
 277 02a2 0B46     		mov	r3, r1
 278 02a4 4FEA8303 		lsl	r3, r3, #2
 279 02a8 5B18     		adds	r3, r3, r1
 280 02aa 4FEAC303 		lsl	r3, r3, #3
 281 02ae D318     		adds	r3, r2, r3
 282 02b0 03F19003 		add	r3, r3, #144
 283 02b4 009A     		ldr	r2, [sp, #0]	@ float
 284 02b6 1A60     		str	r2, [r3, #0]	@ float
 285 02b8 02B0     		add	sp, sp, #8
 286 02ba 7047     		bx	lr
 288              		.align	2
 289              		.global	zeroPIDintegralError
 290              		.thumb
 291              		.thumb_func
 293              	zeroPIDintegralError:
 294              		@ args = 0, pretend = 0, frame = 8
 295              		@ frame_needed = 0, uses_anonymous_args = 0
 296 02bc 00B5     		push	{lr}
 297 02be 83B0     		sub	sp, sp, #12
 298 02c0 4FF00003 		mov	r3, #0
 299 02c4 8DF80730 		strb	r3, [sp, #7]
 300 02c8 0BE0     		b	.L15
 301              	.L16:
 302 02ca 9DF80730 		ldrb	r3, [sp, #7]	@ zero_extendqisi2
 303 02ce 1846     		mov	r0, r3
 304 02d0 0749     		ldr	r1, .L17	@ float
 305 02d2 FFF7FEFF 		bl	setPIDintegralError
 306 02d6 9DF80730 		ldrb	r3, [sp, #7]
 307 02da 03F10103 		add	r3, r3, #1
 308 02de 8DF80730 		strb	r3, [sp, #7]
 309              	.L15:
 310 02e2 9DF80730 		ldrb	r3, [sp, #7]	@ zero_extendqisi2
 311 02e6 052B     		cmp	r3, #5
 312 02e8 EFD9     		bls	.L16
 313 02ea 03B0     		add	sp, sp, #12
 314 02ec 00BD     		pop	{pc}
 315              	.L18:
 316 02ee 00BF     		.align	2
 317              	.L17:
 318 02f0 00000000 		.word	0
 320              		.align	2
 321              		.global	zeroPIDstates
 322              		.thumb
 323              		.thumb_func
 325              	zeroPIDstates:
 326              		@ args = 0, pretend = 0, frame = 8
 327              		@ frame_needed = 0, uses_anonymous_args = 0
 328              		@ link register save eliminated.
 329 02f4 82B0     		sub	sp, sp, #8
 330 02f6 4FF00003 		mov	r3, #0
 331 02fa 8DF80730 		strb	r3, [sp, #7]
 332 02fe 38E0     		b	.L20
 333              	.L21:
 334 0300 9DF80710 		ldrb	r1, [sp, #7]	@ zero_extendqisi2
 335 0304 40F20002 		movw	r2, #:lower16:eepromConfig
 336 0308 C0F20002 		movt	r2, #:upper16:eepromConfig
 337 030c 0B46     		mov	r3, r1
 338 030e 4FEA8303 		lsl	r3, r3, #2
 339 0312 5B18     		adds	r3, r3, r1
 340 0314 4FEAC303 		lsl	r3, r3, #3
 341 0318 D318     		adds	r3, r2, r3
 342 031a 03F19803 		add	r3, r3, #152
 343 031e 184A     		ldr	r2, .L22	@ float
 344 0320 1A60     		str	r2, [r3, #0]	@ float
 345 0322 9DF80710 		ldrb	r1, [sp, #7]	@ zero_extendqisi2
 346 0326 40F20002 		movw	r2, #:lower16:eepromConfig
 347 032a C0F20002 		movt	r2, #:upper16:eepromConfig
 348 032e 0B46     		mov	r3, r1
 349 0330 4FEA8303 		lsl	r3, r3, #2
 350 0334 5B18     		adds	r3, r3, r1
 351 0336 4FEAC303 		lsl	r3, r3, #3
 352 033a D318     		adds	r3, r2, r3
 353 033c 03F19C03 		add	r3, r3, #156
 354 0340 0F4A     		ldr	r2, .L22	@ float
 355 0342 1A60     		str	r2, [r3, #0]	@ float
 356 0344 9DF80710 		ldrb	r1, [sp, #7]	@ zero_extendqisi2
 357 0348 40F20002 		movw	r2, #:lower16:eepromConfig
 358 034c C0F20002 		movt	r2, #:upper16:eepromConfig
 359 0350 0B46     		mov	r3, r1
 360 0352 4FEA8303 		lsl	r3, r3, #2
 361 0356 5B18     		adds	r3, r3, r1
 362 0358 4FEAC303 		lsl	r3, r3, #3
 363 035c D318     		adds	r3, r2, r3
 364 035e 03F1A003 		add	r3, r3, #160
 365 0362 074A     		ldr	r2, .L22	@ float
 366 0364 1A60     		str	r2, [r3, #0]	@ float
 367 0366 9DF80730 		ldrb	r3, [sp, #7]
 368 036a 03F10103 		add	r3, r3, #1
 369 036e 8DF80730 		strb	r3, [sp, #7]
 370              	.L20:
 371 0372 9DF80730 		ldrb	r3, [sp, #7]	@ zero_extendqisi2
 372 0376 052B     		cmp	r3, #5
 373 0378 C2D9     		bls	.L21
 374 037a 02B0     		add	sp, sp, #8
 375 037c 7047     		bx	lr
 376              	.L23:
 377 037e 00BF     		.align	2
 378              	.L22:
 379 0380 00000000 		.word	0
 381              		.ident	"GCC: (Sourcery CodeBench Lite 2012.03-56) 4.6.3"