   1              		.syntax unified
   2              		.cpu cortex-m4
   3              		.eabi_attribute 27, 3
   4              		.fpu fpv4-sp-d16
   5              		.eabi_attribute 20, 1
   6              		.eabi_attribute 21, 1
   7              		.eabi_attribute 23, 3
   8              		.eabi_attribute 24, 1
   9              		.eabi_attribute 25, 1
  10              		.eabi_attribute 26, 1
  11              		.eabi_attribute 30, 6
  12              		.eabi_attribute 34, 1
  13              		.eabi_attribute 18, 4
  14              		.thumb
  15              		.file	"rfTelem.c"
  16              		.comm	mtk19ProcessDataState,1,1
  17              		.comm	nmeaProcessDataState,1,1
  18              		.comm	ubloxProcessDataState,1,1
  19              		.global	rfBusy
  20              		.bss
  23              	rfBusy:
  24 0000 00       		.space	1
  25              	rfQueryType:
  26 0001 00       		.space	1
  27              	validRFCommand:
  28 0002 00       		.space	1
  29              		.text
  30              		.align	2
  31              		.global	readFloatRF
  32              		.thumb
  33              		.thumb_func
  35              	readFloatRF:
  36              		@ args = 0, pretend = 0, frame = 16
  37              		@ frame_needed = 0, uses_anonymous_args = 0
  38 0000 10B5     		push	{r4, lr}
  39 0002 84B0     		sub	sp, sp, #16
  40 0004 4FF00003 		mov	r3, #0
  41 0008 8DF80F30 		strb	r3, [sp, #15]
  42 000c 4FF00003 		mov	r3, #0
  43 0010 8DF80E30 		strb	r3, [sp, #14]
  44 0014 4FF00003 		mov	r3, #0
  45 0018 0093     		str	r3, [sp, #0]
  46 001a 01AB     		add	r3, sp, #4
  47 001c 4FF00002 		mov	r2, #0
  48 0020 1A60     		str	r2, [r3, #0]
  49 0022 03F10403 		add	r3, r3, #4
  50 0026 4FF00002 		mov	r2, #0
  51 002a 1A60     		str	r2, [r3, #0]
  52 002c 03F10403 		add	r3, r3, #4
  53 0030 4FF00002 		mov	r2, #0
  54 0034 1A70     		strb	r2, [r3, #0]
  55 0036 03F10103 		add	r3, r3, #1
  56              	.L6:
  57 003a FFF7FEFF 		bl	uart3Available
  58 003e 0346     		mov	r3, r0
  59 0040 002B     		cmp	r3, #0
  60 0042 0AD1     		bne	.L2
  61 0044 4FF00A00 		mov	r0, #10
  62 0048 FFF7FEFF 		bl	delay
  63 004c 9DF80E30 		ldrb	r3, [sp, #14]
  64 0050 03F10103 		add	r3, r3, #1
  65 0054 8DF80E30 		strb	r3, [sp, #14]
  66 0058 13E0     		b	.L3
  67              	.L2:
  68 005a 9DF80F40 		ldrb	r4, [sp, #15]	@ zero_extendqisi2
  69 005e FFF7FEFF 		bl	uart3Read
  70 0062 0346     		mov	r3, r0
  71 0064 DAB2     		uxtb	r2, r3
  72 0066 04A9     		add	r1, sp, #16
  73 0068 0B19     		adds	r3, r1, r4
  74 006a 03F8102C 		strb	r2, [r3, #-16]
  75 006e 4FF00003 		mov	r3, #0
  76 0072 8DF80E30 		strb	r3, [sp, #14]
  77 0076 9DF80F30 		ldrb	r3, [sp, #15]
  78 007a 03F10103 		add	r3, r3, #1
  79 007e 8DF80F30 		strb	r3, [sp, #15]
  80              	.L3:
  81 0082 9DF80F30 		ldrb	r3, [sp, #15]	@ zero_extendqisi2
  82 0086 002B     		cmp	r3, #0
  83 0088 0AD0     		beq	.L4
  84 008a 9DF80F30 		ldrb	r3, [sp, #15]	@ zero_extendqisi2
  85 008e 03F1FF33 		add	r3, r3, #-1
  86 0092 04AA     		add	r2, sp, #16
  87 0094 D318     		adds	r3, r2, r3
  88 0096 13F8103C 		ldrb	r3, [r3, #-16]	@ zero_extendqisi2
  89 009a 5BB2     		sxtb	r3, r3
  90 009c 3B2B     		cmp	r3, #59
  91 009e 07D0     		beq	.L5
  92              	.L4:
  93 00a0 9DF80E30 		ldrb	r3, [sp, #14]	@ zero_extendqisi2
  94 00a4 042B     		cmp	r3, #4
  95 00a6 03D8     		bhi	.L5
  96 00a8 9DF80F30 		ldrb	r3, [sp, #15]	@ zero_extendqisi2
  97 00ac 0B2B     		cmp	r3, #11
  98 00ae C4D9     		bls	.L6
  99              	.L5:
 100 00b0 9DF80F30 		ldrb	r3, [sp, #15]	@ zero_extendqisi2
 101 00b4 04A9     		add	r1, sp, #16
 102 00b6 CB18     		adds	r3, r1, r3
 103 00b8 4FF00002 		mov	r2, #0
 104 00bc 03F8102C 		strb	r2, [r3, #-16]
 105 00c0 6B46     		mov	r3, sp
 106 00c2 1846     		mov	r0, r3
 107 00c4 FFF7FEFF 		bl	stringToFloat
 108 00c8 0346     		mov	r3, r0	@ float
 109 00ca 1846     		mov	r0, r3	@ float
 110 00cc 04B0     		add	sp, sp, #16
 111 00ce 10BD     		pop	{r4, pc}
 113              		.align	2
 114              		.global	readRFPID
 115              		.thumb
 116              		.thumb_func
 118              	readRFPID:
 119              		@ args = 0, pretend = 0, frame = 16
 120              		@ frame_needed = 0, uses_anonymous_args = 0
 121 00d0 00B5     		push	{lr}
 122 00d2 85B0     		sub	sp, sp, #20
 123 00d4 0346     		mov	r3, r0
 124 00d6 8DF80730 		strb	r3, [sp, #7]
 125 00da 9DF80720 		ldrb	r2, [sp, #7]	@ zero_extendqisi2
 126 00de 1346     		mov	r3, r2
 127 00e0 4FEA8303 		lsl	r3, r3, #2
 128 00e4 9B18     		adds	r3, r3, r2
 129 00e6 4FEAC303 		lsl	r3, r3, #3
 130 00ea 1A46     		mov	r2, r3
 131 00ec 1A4B     		ldr	r3, .L8
 132 00ee D318     		adds	r3, r2, r3
 133 00f0 0393     		str	r3, [sp, #12]
 134 00f2 FFF7FEFF 		bl	readFloatRF
 135 00f6 0246     		mov	r2, r0	@ float
 136 00f8 039B     		ldr	r3, [sp, #12]
 137 00fa 1A60     		str	r2, [r3, #0]	@ float
 138 00fc FFF7FEFF 		bl	readFloatRF
 139 0100 0246     		mov	r2, r0	@ float
 140 0102 039B     		ldr	r3, [sp, #12]
 141 0104 5A60     		str	r2, [r3, #4]	@ float
 142 0106 FFF7FEFF 		bl	readFloatRF
 143 010a 0246     		mov	r2, r0	@ float
 144 010c 039B     		ldr	r3, [sp, #12]
 145 010e 9A60     		str	r2, [r3, #8]	@ float
 146 0110 FFF7FEFF 		bl	readFloatRF
 147 0114 0246     		mov	r2, r0	@ float
 148 0116 039B     		ldr	r3, [sp, #12]
 149 0118 DA60     		str	r2, [r3, #12]	@ float
 150 011a FFF7FEFF 		bl	readFloatRF
 151 011e 0246     		mov	r2, r0	@ float
 152 0120 039B     		ldr	r3, [sp, #12]
 153 0122 5A61     		str	r2, [r3, #20]	@ float
 154 0124 039B     		ldr	r3, [sp, #12]
 155 0126 0D4A     		ldr	r2, .L8+4	@ float
 156 0128 1A61     		str	r2, [r3, #16]	@ float
 157 012a 039B     		ldr	r3, [sp, #12]
 158 012c 0B4A     		ldr	r2, .L8+4	@ float
 159 012e 9A61     		str	r2, [r3, #24]	@ float
 160 0130 039B     		ldr	r3, [sp, #12]
 161 0132 0A4A     		ldr	r2, .L8+4	@ float
 162 0134 DA61     		str	r2, [r3, #28]	@ float
 163 0136 039B     		ldr	r3, [sp, #12]
 164 0138 084A     		ldr	r2, .L8+4	@ float
 165 013a 1A62     		str	r2, [r3, #32]	@ float
 166 013c FFF7FEFF 		bl	readFloatRF
 167 0140 07EE900A 		fmsr	s15, r0
 168 0144 FCEEE77A 		ftouizs	s15, s15
 169 0148 17EE903A 		fmrs	r3, s15	@ int
 170 014c DAB2     		uxtb	r2, r3
 171 014e 039B     		ldr	r3, [sp, #12]
 172 0150 83F82420 		strb	r2, [r3, #36]
 173 0154 05B0     		add	sp, sp, #20
 174 0156 00BD     		pop	{pc}
 175              	.L9:
 176              		.align	2
 177              	.L8:
 178 0158 9C000000 		.word	eepromConfig+156
 179 015c 00000000 		.word	0
 181              		.section	.rodata
 182              		.align	2
 183              	.LC0:
 184 0000 0A00     		.ascii	"\012\000"
 185 0002 0000     		.align	2
 186              	.LC1:
 187 0004 526F6C6C 		.ascii	"Roll Rate PID:  \000"
 187      20526174 
 187      65205049 
 187      443A2020 
 187      00
 188              		.global	__aeabi_f2d
 189 0015 000000   		.align	2
 190              	.LC2:
 191 0018 25382E34 		.ascii	"%8.4f, \000"
 191      662C2000 
 192              		.align	2
 193              	.LC3:
 194 0020 4572726F 		.ascii	"Error\012\000"
 194      720A00
 195 0027 00       		.align	2
 196              	.LC4:
 197 0028 53746174 		.ascii	"State\012\000"
 197      650A00
 198 002f 00       		.align	2
 199              	.LC5:
 200 0030 50697463 		.ascii	"Pitch Rate PID: \000"
 200      68205261 
 200      74652050 
 200      49443A20 
 200      00
 201 0041 000000   		.align	2
 202              	.LC6:
 203 0044 59617720 		.ascii	"Yaw Rate PID:   \000"
 203      52617465 
 203      20504944 
 203      3A202020 
 203      00
 204 0055 000000   		.align	2
 205              	.LC7:
 206 0058 526F6C6C 		.ascii	"Roll Attitude PID:  \000"
 206      20417474 
 206      69747564 
 206      65205049 
 206      443A2020 
 207 006d 000000   		.align	2
 208              	.LC8:
 209 0070 50697463 		.ascii	"Pitch Attitude PID: \000"
 209      68204174 
 209      74697475 
 209      64652050 
 209      49443A20 
 210 0085 000000   		.align	2
 211              	.LC9:
 212 0088 48656164 		.ascii	"Heading PID:        \000"
 212      696E6720 
 212      5049443A 
 212      20202020 
 212      20202020 
 213 009d 000000   		.align	2
 214              	.LC10:
 215 00a0 6E446F74 		.ascii	"nDot PID:  \000"
 215      20504944 
 215      3A202000 
 216              		.align	2
 217              	.LC11:
 218 00ac 65446F74 		.ascii	"eDot PID:  \000"
 218      20504944 
 218      3A202000 
 219              		.align	2
 220              	.LC12:
 221 00b8 68446F74 		.ascii	"hDot PID:  \000"
 221      20504944 
 221      3A202000 
 222              		.align	2
 223              	.LC13:
 224 00c4 6E205049 		.ascii	"n PID:  \000"
 224      443A2020 
 224      00
 225 00cd 000000   		.align	2
 226              	.LC14:
 227 00d0 65205049 		.ascii	"e PID:  \000"
 227      443A2020 
 227      00
 228 00d9 000000   		.align	2
 229              	.LC15:
 230 00dc 68205049 		.ascii	"h PID:  \000"
 230      443A2020 
 230      00
 231 00e5 000000   		.align	2
 232              	.LC16:
 233 00e8 0A526F6C 		.ascii	"\012Roll Rate PID Received....\012\000"
 233      6C205261 
 233      74652050 
 233      49442052 
 233      65636569 
 234 0105 000000   		.align	2
 235              	.LC17:
 236 0108 0A506974 		.ascii	"\012Pitch Rate PID Received....\012\000"
 236      63682052 
 236      61746520 
 236      50494420 
 236      52656365 
 237 0126 0000     		.align	2
 238              	.LC18:
 239 0128 0A596177 		.ascii	"\012Yaw Rate PID Received....\012\000"
 239      20526174 
 239      65205049 
 239      44205265 
 239      63656976 
 240              		.align	2
 241              	.LC19:
 242 0144 0A526F6C 		.ascii	"\012Roll Attitude PID Received....\012\000"
 242      6C204174 
 242      74697475 
 242      64652050 
 242      49442052 
 243 0165 000000   		.align	2
 244              	.LC20:
 245 0168 0A506974 		.ascii	"\012Pitch Attitude PID Received....\012\000"
 245      63682041 
 245      74746974 
 245      75646520 
 245      50494420 
 246 018a 0000     		.align	2
 247              	.LC21:
 248 018c 0A486561 		.ascii	"\012Heading PID Received....\012\000"
 248      64696E67 
 248      20504944 
 248      20526563 
 248      65697665 
 249 01a7 00       		.align	2
 250              	.LC22:
 251 01a8 0A6E446F 		.ascii	"\012nDot PID Received....\012\000"
 251      74205049 
 251      44205265 
 251      63656976 
 251      65642E2E 
 252              		.align	2
 253              	.LC23:
 254 01c0 0A65446F 		.ascii	"\012eDot PID Received....\012\000"
 254      74205049 
 254      44205265 
 254      63656976 
 254      65642E2E 
 255              		.align	2
 256              	.LC24:
 257 01d8 0A68446F 		.ascii	"\012hDot PID Received....\012\000"
 257      74205049 
 257      44205265 
 257      63656976 
 257      65642E2E 
 258              		.align	2
 259              	.LC25:
 260 01f0 0A6E2050 		.ascii	"\012n PID Received....\012\000"
 260      49442052 
 260      65636569 
 260      7665642E 
 260      2E2E2E0A 
 261 0205 000000   		.align	2
 262              	.LC26:
 263 0208 0A652050 		.ascii	"\012e PID Received....\012\000"
 263      49442052 
 263      65636569 
 263      7665642E 
 263      2E2E2E0A 
 264 021d 000000   		.align	2
 265              	.LC27:
 266 0220 0A682050 		.ascii	"\012h PID Received....\012\000"
 266      49442052 
 266      65636569 
 266      7665642E 
 266      2E2E2E0A 
 267 0235 000000   		.align	2
 268              	.LC28:
 269 0238 0A577269 		.ascii	"\012Writing EEPROM Parameters....\012\000"
 269      74696E67 
 269      20454550 
 269      524F4D20 
 269      50617261 
 270              		.align	2
 271              	.LC29:
 272 0258 27612720 		.ascii	"'a' Rate PIDs                              'A' Set "
 272      52617465 
 272      20504944 
 272      73202020 
 272      20202020 
 273 028b 526F6C6C 		.ascii	"Roll Rate PID Data   AB;P;I;D;windupGuard;dErrorCal"
 273      20526174 
 273      65205049 
 273      44204461 
 273      74612020 
 274 02be 630A00   		.ascii	"c\012\000"
 275 02c1 000000   		.align	2
 276              	.LC30:
 277 02c4 27622720 		.ascii	"'b' Attitude PIDs                          'B' Set "
 277      41747469 
 277      74756465 
 277      20504944 
 277      73202020 
 278 02f7 50697463 		.ascii	"Pitch Rate PID Data  BB;P;I;D;windupGuard;dErrorCal"
 278      68205261 
 278      74652050 
 278      49442044 
 278      61746120 
 279 032a 630A00   		.ascii	"c\012\000"
 280 032d 000000   		.align	2
 281              	.LC31:
 282 0330 27632720 		.ascii	"'c' Velocity PIDs                          'C' Set "
 282      56656C6F 
 282      63697479 
 282      20504944 
 282      73202020 
 283 0363 59617720 		.ascii	"Yaw Rate PID Data    CB;P;I;D;windupGuard;dErrorCal"
 283      52617465 
 283      20504944 
 283      20446174 
 283      61202020 
 284 0396 630A00   		.ascii	"c\012\000"
 285 0399 000000   		.align	2
 286              	.LC32:
 287 039c 27642720 		.ascii	"'d' Position PIDs                          'D' Set "
 287      506F7369 
 287      74696F6E 
 287      20504944 
 287      73202020 
 288 03cf 526F6C6C 		.ascii	"Roll Att PID Data    DB;P;I;D;windupGuard;dErrorCal"
 288      20417474 
 288      20504944 
 288      20446174 
 288      61202020 
 289 0402 630A00   		.ascii	"c\012\000"
 290 0405 000000   		.align	2
 291              	.LC33:
 292 0408 27782720 		.ascii	"'x' Terminate Serial Communication         'E' Set "
 292      5465726D 
 292      696E6174 
 292      65205365 
 292      7269616C 
 293 043b 50697463 		.ascii	"Pitch Att PID Data   EB;P;I;D;windupGuard;dErrorCal"
 293      68204174 
 293      74205049 
 293      44204461 
 293      74612020 
 294 046e 630A00   		.ascii	"c\012\000"
 295 0471 000000   		.align	2
 296              	.LC34:
 297 0474 27312720 		.ascii	"'1' High Speed Telemetry 1 Enable          'F' Set "
 297      48696768 
 297      20537065 
 297      65642054 
 297      656C656D 
 298 04a7 48646720 		.ascii	"Hdg Hold PID Data    FB;P;I;D;windupGuard;dErrorCal"
 298      486F6C64 
 298      20504944 
 298      20446174 
 298      61202020 
 299 04da 630A00   		.ascii	"c\012\000"
 300 04dd 000000   		.align	2
 301              	.LC35:
 302 04e0 27322720 		.ascii	"'2' High Speed Telemetry 2 Enable          'G' Set "
 302      48696768 
 302      20537065 
 302      65642054 
 302      656C656D 
 303 0513 6E446F74 		.ascii	"nDot PID Data        GB;P;I;D;windupGuard;dErrorCal"
 303      20504944 
 303      20446174 
 303      61202020 
 303      20202020 
 304 0546 630A00   		.ascii	"c\012\000"
 305 0549 000000   		.align	2
 306              	.LC36:
 307 054c 27332720 		.ascii	"'3' High Speed Telemetry 3 Enable          'H' Set "
 307      48696768 
 307      20537065 
 307      65642054 
 307      656C656D 
 308 057f 65446F74 		.ascii	"eDot PID Data        HB;P;I;D;windupGuard;dErrorCal"
 308      20504944 
 308      20446174 
 308      61202020 
 308      20202020 
 309 05b2 630A00   		.ascii	"c\012\000"
 310 05b5 000000   		.align	2
 311              	.LC37:
 312 05b8 27342720 		.ascii	"'4' High Speed Telemetry 4 Enable          'I' Set "
 312      48696768 
 312      20537065 
 312      65642054 
 312      656C656D 
 313 05eb 68446F74 		.ascii	"hDot PID Data        IB;P;I;D;windupGuard;dErrorCal"
 313      20504944 
 313      20446174 
 313      61202020 
 313      20202020 
 314 061e 630A00   		.ascii	"c\012\000"
 315 0621 000000   		.align	2
 316              	.LC38:
 317 0624 27352720 		.ascii	"'5' High Speed Telemetry 5 Enable          'J' Set "
 317      48696768 
 317      20537065 
 317      65642054 
 317      656C656D 
 318 0657 6E205049 		.ascii	"n PID Data           JB;P;I;D;windupGuard;dErrorCal"
 318      44204461 
 318      74612020 
 318      20202020 
 318      20202020 
 319 068a 630A00   		.ascii	"c\012\000"
 320 068d 000000   		.align	2
 321              	.LC39:
 322 0690 27362720 		.ascii	"'6' High Speed Telemetry 6 Enable          'K' Set "
 322      48696768 
 322      20537065 
 322      65642054 
 322      656C656D 
 323 06c3 65205049 		.ascii	"e PID Data           KB;P;I;D;windupGuard;dErrorCal"
 323      44204461 
 323      74612020 
 323      20202020 
 323      20202020 
 324 06f6 630A00   		.ascii	"c\012\000"
 325 06f9 000000   		.align	2
 326              	.LC40:
 327 06fc 27372720 		.ascii	"'7' High Speed Telemetry 7 Enable          'L' Set "
 327      48696768 
 327      20537065 
 327      65642054 
 327      656C656D 
 328 072f 68205049 		.ascii	"h PID Data           LB;P;I;D;windupGuard;dErrorCal"
 328      44204461 
 328      74612020 
 328      20202020 
 328      20202020 
 329 0762 630A00   		.ascii	"c\012\000"
 330 0765 000000   		.align	2
 331              	.LC41:
 332 0768 27382720 		.ascii	"'8' High Speed Telemetry 8 Enable          'W' Writ"
 332      48696768 
 332      20537065 
 332      65642054 
 332      656C656D 
 333 079b 65204545 		.ascii	"e EEPROM Parameters\012\000"
 333      50524F4D 
 333      20506172 
 333      616D6574 
 333      6572730A 
 334              		.align	2
 335              	.LC42:
 336 07b0 27392720 		.ascii	"'9' High Speed Telemetry 9 Enable\012\000"
 336      48696768 
 336      20537065 
 336      65642054 
 336      656C656D 
 337 07d3 00       		.align	2
 338              	.LC43:
 339 07d4 27302720 		.ascii	"'0' High Speed Telemetry Disable           '?' Comm"
 339      48696768 
 339      20537065 
 339      65642054 
 339      656C656D 
 340 0807 616E6420 		.ascii	"and Summary\012\000"
 340      53756D6D 
 340      6172790A 
 340      00
 341              		.text
 342              		.align	2
 343              		.global	rfCom
 344              		.thumb
 345              		.thumb_func
 347              	rfCom:
 348              		@ args = 0, pretend = 0, frame = 0
 349              		@ frame_needed = 0, uses_anonymous_args = 0
 350 0160 00B5     		push	{lr}
 351 0162 83B0     		sub	sp, sp, #12
 352 0164 FFF7FEFF 		bl	uart3Available
 353 0168 0346     		mov	r3, r0
 354 016a 002B     		cmp	r3, #0
 355 016c 10D0     		beq	.L11
 356 016e 40F20003 		movw	r3, #:lower16:validRFCommand
 357 0172 C0F20003 		movt	r3, #:upper16:validRFCommand
 358 0176 1B78     		ldrb	r3, [r3, #0]
 359 0178 DBB2     		uxtb	r3, r3
 360 017a 002B     		cmp	r3, #0
 361 017c 08D1     		bne	.L11
 362 017e FFF7FEFF 		bl	uart3Read
 363 0182 0346     		mov	r3, r0
 364 0184 1A46     		mov	r2, r3
 365 0186 40F20003 		movw	r3, #:lower16:rfQueryType
 366 018a C0F20003 		movt	r3, #:upper16:rfQueryType
 367 018e 1A70     		strb	r2, [r3, #0]
 368              	.L11:
 369 0190 40F20003 		movw	r3, #:lower16:rfQueryType
 370 0194 C0F20003 		movt	r3, #:upper16:rfQueryType
 371 0198 1B78     		ldrb	r3, [r3, #0]
 372 019a DBB2     		uxtb	r3, r3
 373 019c A3F13003 		sub	r3, r3, #48
 374 01a0 482B     		cmp	r3, #72
 375 01a2 01F2C183 		bhi	.L10
 376 01a6 01A2     		adr	r2, .L42
 377 01a8 52F823F0 		ldr	pc, [r2, r3, lsl #2]
 378              		.align	2
 379              	.L42:
 380 01ac C1150000 		.word	.L13+1
 381 01b0 8F140000 		.word	.L14+1
 382 01b4 B1140000 		.word	.L15+1
 383 01b8 D3140000 		.word	.L16+1
 384 01bc F5140000 		.word	.L17+1
 385 01c0 17150000 		.word	.L18+1
 386 01c4 39150000 		.word	.L19+1
 387 01c8 5B150000 		.word	.L20+1
 388 01cc 7D150000 		.word	.L21+1
 389 01d0 9F150000 		.word	.L22+1
 390 01d4 29190000 		.word	.L10+1
 391 01d8 29190000 		.word	.L10+1
 392 01dc 29190000 		.word	.L10+1
 393 01e0 29190000 		.word	.L10+1
 394 01e4 29190000 		.word	.L10+1
 395 01e8 4D180000 		.word	.L23+1
 396 01ec 29190000 		.word	.L10+1
 397 01f0 D5150000 		.word	.L24+1
 398 01f4 07160000 		.word	.L25+1
 399 01f8 39160000 		.word	.L26+1
 400 01fc 6B160000 		.word	.L27+1
 401 0200 9D160000 		.word	.L28+1
 402 0204 CF160000 		.word	.L29+1
 403 0208 01170000 		.word	.L30+1
 404 020c 33170000 		.word	.L31+1
 405 0210 65170000 		.word	.L32+1
 406 0214 97170000 		.word	.L33+1
 407 0218 C9170000 		.word	.L34+1
 408 021c FB170000 		.word	.L35+1
 409 0220 29190000 		.word	.L10+1
 410 0224 29190000 		.word	.L10+1
 411 0228 29190000 		.word	.L10+1
 412 022c 29190000 		.word	.L10+1
 413 0230 29190000 		.word	.L10+1
 414 0234 29190000 		.word	.L10+1
 415 0238 29190000 		.word	.L10+1
 416 023c 29190000 		.word	.L10+1
 417 0240 29190000 		.word	.L10+1
 418 0244 29190000 		.word	.L10+1
 419 0248 2D180000 		.word	.L36+1
 420 024c 29190000 		.word	.L10+1
 421 0250 29190000 		.word	.L10+1
 422 0254 29190000 		.word	.L10+1
 423 0258 29190000 		.word	.L10+1
 424 025c 29190000 		.word	.L10+1
 425 0260 29190000 		.word	.L10+1
 426 0264 29190000 		.word	.L10+1
 427 0268 29190000 		.word	.L10+1
 428 026c 29190000 		.word	.L10+1
 429 0270 D1020000 		.word	.L37+1
 430 0274 41070000 		.word	.L38+1
 431 0278 B10B0000 		.word	.L39+1
 432 027c 21100000 		.word	.L40+1
 433 0280 29190000 		.word	.L10+1
 434 0284 29190000 		.word	.L10+1
 435 0288 29190000 		.word	.L10+1
 436 028c 29190000 		.word	.L10+1
 437 0290 29190000 		.word	.L10+1
 438 0294 29190000 		.word	.L10+1
 439 0298 29190000 		.word	.L10+1
 440 029c 29190000 		.word	.L10+1
 441 02a0 29190000 		.word	.L10+1
 442 02a4 29190000 		.word	.L10+1
 443 02a8 29190000 		.word	.L10+1
 444 02ac 29190000 		.word	.L10+1
 445 02b0 29190000 		.word	.L10+1
 446 02b4 29190000 		.word	.L10+1
 447 02b8 29190000 		.word	.L10+1
 448 02bc 29190000 		.word	.L10+1
 449 02c0 29190000 		.word	.L10+1
 450 02c4 29190000 		.word	.L10+1
 451 02c8 29190000 		.word	.L10+1
 452 02cc 29190000 		.word	.L10+1
 453              	.L37:
 454 02d0 40F20000 		movw	r0, #:lower16:.LC0
 455 02d4 C0F20000 		movt	r0, #:upper16:.LC0
 456 02d8 FFF7FEFF 		bl	uart3Print
 457 02dc 40F20000 		movw	r0, #:lower16:.LC1
 458 02e0 C0F20000 		movt	r0, #:upper16:.LC1
 459 02e4 FFF7FEFF 		bl	uart3Print
 460 02e8 40F20003 		movw	r3, #:lower16:eepromConfig
 461 02ec C0F20003 		movt	r3, #:upper16:eepromConfig
 462 02f0 D3F89C30 		ldr	r3, [r3, #156]	@ float
 463 02f4 1846     		mov	r0, r3	@ float
 464 02f6 FFF7FEFF 		bl	__aeabi_f2d
 465 02fa 0246     		mov	r2, r0
 466 02fc 0B46     		mov	r3, r1
 467 02fe CDE90023 		strd	r2, [sp]
 468 0302 40F20000 		movw	r0, #:lower16:numberString
 469 0306 C0F20000 		movt	r0, #:upper16:numberString
 470 030a 4FF01001 		mov	r1, #16
 471 030e 40F20002 		movw	r2, #:lower16:.LC2
 472 0312 C0F20002 		movt	r2, #:upper16:.LC2
 473 0316 FFF7FEFF 		bl	snprintf
 474 031a 40F20000 		movw	r0, #:lower16:numberString
 475 031e C0F20000 		movt	r0, #:upper16:numberString
 476 0322 FFF7FEFF 		bl	uart3Print
 477 0326 40F20003 		movw	r3, #:lower16:eepromConfig
 478 032a C0F20003 		movt	r3, #:upper16:eepromConfig
 479 032e D3F8A030 		ldr	r3, [r3, #160]	@ float
 480 0332 1846     		mov	r0, r3	@ float
 481 0334 FFF7FEFF 		bl	__aeabi_f2d
 482 0338 0246     		mov	r2, r0
 483 033a 0B46     		mov	r3, r1
 484 033c CDE90023 		strd	r2, [sp]
 485 0340 40F20000 		movw	r0, #:lower16:numberString
 486 0344 C0F20000 		movt	r0, #:upper16:numberString
 487 0348 4FF01001 		mov	r1, #16
 488 034c 40F20002 		movw	r2, #:lower16:.LC2
 489 0350 C0F20002 		movt	r2, #:upper16:.LC2
 490 0354 FFF7FEFF 		bl	snprintf
 491 0358 40F20000 		movw	r0, #:lower16:numberString
 492 035c C0F20000 		movt	r0, #:upper16:numberString
 493 0360 FFF7FEFF 		bl	uart3Print
 494 0364 40F20003 		movw	r3, #:lower16:eepromConfig
 495 0368 C0F20003 		movt	r3, #:upper16:eepromConfig
 496 036c D3F8A430 		ldr	r3, [r3, #164]	@ float
 497 0370 1846     		mov	r0, r3	@ float
 498 0372 FFF7FEFF 		bl	__aeabi_f2d
 499 0376 0246     		mov	r2, r0
 500 0378 0B46     		mov	r3, r1
 501 037a CDE90023 		strd	r2, [sp]
 502 037e 40F20000 		movw	r0, #:lower16:numberString
 503 0382 C0F20000 		movt	r0, #:upper16:numberString
 504 0386 4FF01001 		mov	r1, #16
 505 038a 40F20002 		movw	r2, #:lower16:.LC2
 506 038e C0F20002 		movt	r2, #:upper16:.LC2
 507 0392 FFF7FEFF 		bl	snprintf
 508 0396 40F20000 		movw	r0, #:lower16:numberString
 509 039a C0F20000 		movt	r0, #:upper16:numberString
 510 039e FFF7FEFF 		bl	uart3Print
 511 03a2 40F20003 		movw	r3, #:lower16:eepromConfig
 512 03a6 C0F20003 		movt	r3, #:upper16:eepromConfig
 513 03aa D3F8A830 		ldr	r3, [r3, #168]	@ float
 514 03ae 1846     		mov	r0, r3	@ float
 515 03b0 FFF7FEFF 		bl	__aeabi_f2d
 516 03b4 0246     		mov	r2, r0
 517 03b6 0B46     		mov	r3, r1
 518 03b8 CDE90023 		strd	r2, [sp]
 519 03bc 40F20000 		movw	r0, #:lower16:numberString
 520 03c0 C0F20000 		movt	r0, #:upper16:numberString
 521 03c4 4FF01001 		mov	r1, #16
 522 03c8 40F20002 		movw	r2, #:lower16:.LC2
 523 03cc C0F20002 		movt	r2, #:upper16:.LC2
 524 03d0 FFF7FEFF 		bl	snprintf
 525 03d4 40F20000 		movw	r0, #:lower16:numberString
 526 03d8 C0F20000 		movt	r0, #:upper16:numberString
 527 03dc FFF7FEFF 		bl	uart3Print
 528 03e0 40F20003 		movw	r3, #:lower16:eepromConfig
 529 03e4 C0F20003 		movt	r3, #:upper16:eepromConfig
 530 03e8 D3F8B030 		ldr	r3, [r3, #176]	@ float
 531 03ec 1846     		mov	r0, r3	@ float
 532 03ee FFF7FEFF 		bl	__aeabi_f2d
 533 03f2 0246     		mov	r2, r0
 534 03f4 0B46     		mov	r3, r1
 535 03f6 CDE90023 		strd	r2, [sp]
 536 03fa 40F20000 		movw	r0, #:lower16:numberString
 537 03fe C0F20000 		movt	r0, #:upper16:numberString
 538 0402 4FF01001 		mov	r1, #16
 539 0406 40F20002 		movw	r2, #:lower16:.LC2
 540 040a C0F20002 		movt	r2, #:upper16:.LC2
 541 040e FFF7FEFF 		bl	snprintf
 542 0412 40F20000 		movw	r0, #:lower16:numberString
 543 0416 C0F20000 		movt	r0, #:upper16:numberString
 544 041a FFF7FEFF 		bl	uart3Print
 545 041e 40F20003 		movw	r3, #:lower16:eepromConfig
 546 0422 C0F20003 		movt	r3, #:upper16:eepromConfig
 547 0426 93F8C030 		ldrb	r3, [r3, #192]	@ zero_extendqisi2
 548 042a 002B     		cmp	r3, #0
 549 042c 06D0     		beq	.L43
 550 042e 40F20000 		movw	r0, #:lower16:.LC3
 551 0432 C0F20000 		movt	r0, #:upper16:.LC3
 552 0436 FFF7FEFF 		bl	uart3Print
 553 043a 05E0     		b	.L44
 554              	.L43:
 555 043c 40F20000 		movw	r0, #:lower16:.LC4
 556 0440 C0F20000 		movt	r0, #:upper16:.LC4
 557 0444 FFF7FEFF 		bl	uart3Print
 558              	.L44:
 559 0448 40F20000 		movw	r0, #:lower16:.LC5
 560 044c C0F20000 		movt	r0, #:upper16:.LC5
 561 0450 FFF7FEFF 		bl	uart3Print
 562 0454 40F20003 		movw	r3, #:lower16:eepromConfig
 563 0458 C0F20003 		movt	r3, #:upper16:eepromConfig
 564 045c D3F8C430 		ldr	r3, [r3, #196]	@ float
 565 0460 1846     		mov	r0, r3	@ float
 566 0462 FFF7FEFF 		bl	__aeabi_f2d
 567 0466 0246     		mov	r2, r0
 568 0468 0B46     		mov	r3, r1
 569 046a CDE90023 		strd	r2, [sp]
 570 046e 40F20000 		movw	r0, #:lower16:numberString
 571 0472 C0F20000 		movt	r0, #:upper16:numberString
 572 0476 4FF01001 		mov	r1, #16
 573 047a 40F20002 		movw	r2, #:lower16:.LC2
 574 047e C0F20002 		movt	r2, #:upper16:.LC2
 575 0482 FFF7FEFF 		bl	snprintf
 576 0486 40F20000 		movw	r0, #:lower16:numberString
 577 048a C0F20000 		movt	r0, #:upper16:numberString
 578 048e FFF7FEFF 		bl	uart3Print
 579 0492 40F20003 		movw	r3, #:lower16:eepromConfig
 580 0496 C0F20003 		movt	r3, #:upper16:eepromConfig
 581 049a D3F8C830 		ldr	r3, [r3, #200]	@ float
 582 049e 1846     		mov	r0, r3	@ float
 583 04a0 FFF7FEFF 		bl	__aeabi_f2d
 584 04a4 0246     		mov	r2, r0
 585 04a6 0B46     		mov	r3, r1
 586 04a8 CDE90023 		strd	r2, [sp]
 587 04ac 40F20000 		movw	r0, #:lower16:numberString
 588 04b0 C0F20000 		movt	r0, #:upper16:numberString
 589 04b4 4FF01001 		mov	r1, #16
 590 04b8 40F20002 		movw	r2, #:lower16:.LC2
 591 04bc C0F20002 		movt	r2, #:upper16:.LC2
 592 04c0 FFF7FEFF 		bl	snprintf
 593 04c4 40F20000 		movw	r0, #:lower16:numberString
 594 04c8 C0F20000 		movt	r0, #:upper16:numberString
 595 04cc FFF7FEFF 		bl	uart3Print
 596 04d0 40F20003 		movw	r3, #:lower16:eepromConfig
 597 04d4 C0F20003 		movt	r3, #:upper16:eepromConfig
 598 04d8 D3F8CC30 		ldr	r3, [r3, #204]	@ float
 599 04dc 1846     		mov	r0, r3	@ float
 600 04de FFF7FEFF 		bl	__aeabi_f2d
 601 04e2 0246     		mov	r2, r0
 602 04e4 0B46     		mov	r3, r1
 603 04e6 CDE90023 		strd	r2, [sp]
 604 04ea 40F20000 		movw	r0, #:lower16:numberString
 605 04ee C0F20000 		movt	r0, #:upper16:numberString
 606 04f2 4FF01001 		mov	r1, #16
 607 04f6 40F20002 		movw	r2, #:lower16:.LC2
 608 04fa C0F20002 		movt	r2, #:upper16:.LC2
 609 04fe FFF7FEFF 		bl	snprintf
 610 0502 40F20000 		movw	r0, #:lower16:numberString
 611 0506 C0F20000 		movt	r0, #:upper16:numberString
 612 050a FFF7FEFF 		bl	uart3Print
 613 050e 40F20003 		movw	r3, #:lower16:eepromConfig
 614 0512 C0F20003 		movt	r3, #:upper16:eepromConfig
 615 0516 D3F8D030 		ldr	r3, [r3, #208]	@ float
 616 051a 1846     		mov	r0, r3	@ float
 617 051c FFF7FEFF 		bl	__aeabi_f2d
 618 0520 0246     		mov	r2, r0
 619 0522 0B46     		mov	r3, r1
 620 0524 CDE90023 		strd	r2, [sp]
 621 0528 40F20000 		movw	r0, #:lower16:numberString
 622 052c C0F20000 		movt	r0, #:upper16:numberString
 623 0530 4FF01001 		mov	r1, #16
 624 0534 40F20002 		movw	r2, #:lower16:.LC2
 625 0538 C0F20002 		movt	r2, #:upper16:.LC2
 626 053c FFF7FEFF 		bl	snprintf
 627 0540 40F20000 		movw	r0, #:lower16:numberString
 628 0544 C0F20000 		movt	r0, #:upper16:numberString
 629 0548 FFF7FEFF 		bl	uart3Print
 630 054c 40F20003 		movw	r3, #:lower16:eepromConfig
 631 0550 C0F20003 		movt	r3, #:upper16:eepromConfig
 632 0554 D3F8D830 		ldr	r3, [r3, #216]	@ float
 633 0558 1846     		mov	r0, r3	@ float
 634 055a FFF7FEFF 		bl	__aeabi_f2d
 635 055e 0246     		mov	r2, r0
 636 0560 0B46     		mov	r3, r1
 637 0562 CDE90023 		strd	r2, [sp]
 638 0566 40F20000 		movw	r0, #:lower16:numberString
 639 056a C0F20000 		movt	r0, #:upper16:numberString
 640 056e 4FF01001 		mov	r1, #16
 641 0572 40F20002 		movw	r2, #:lower16:.LC2
 642 0576 C0F20002 		movt	r2, #:upper16:.LC2
 643 057a FFF7FEFF 		bl	snprintf
 644 057e 40F20000 		movw	r0, #:lower16:numberString
 645 0582 C0F20000 		movt	r0, #:upper16:numberString
 646 0586 FFF7FEFF 		bl	uart3Print
 647 058a 40F20003 		movw	r3, #:lower16:eepromConfig
 648 058e C0F20003 		movt	r3, #:upper16:eepromConfig
 649 0592 93F8E830 		ldrb	r3, [r3, #232]	@ zero_extendqisi2
 650 0596 002B     		cmp	r3, #0
 651 0598 06D0     		beq	.L45
 652 059a 40F20000 		movw	r0, #:lower16:.LC3
 653 059e C0F20000 		movt	r0, #:upper16:.LC3
 654 05a2 FFF7FEFF 		bl	uart3Print
 655 05a6 05E0     		b	.L46
 656              	.L45:
 657 05a8 40F20000 		movw	r0, #:lower16:.LC4
 658 05ac C0F20000 		movt	r0, #:upper16:.LC4
 659 05b0 FFF7FEFF 		bl	uart3Print
 660              	.L46:
 661 05b4 40F20000 		movw	r0, #:lower16:.LC6
 662 05b8 C0F20000 		movt	r0, #:upper16:.LC6
 663 05bc FFF7FEFF 		bl	uart3Print
 664 05c0 40F20003 		movw	r3, #:lower16:eepromConfig
 665 05c4 C0F20003 		movt	r3, #:upper16:eepromConfig
 666 05c8 D3F8EC30 		ldr	r3, [r3, #236]	@ float
 667 05cc 1846     		mov	r0, r3	@ float
 668 05ce FFF7FEFF 		bl	__aeabi_f2d
 669 05d2 0246     		mov	r2, r0
 670 05d4 0B46     		mov	r3, r1
 671 05d6 CDE90023 		strd	r2, [sp]
 672 05da 40F20000 		movw	r0, #:lower16:numberString
 673 05de C0F20000 		movt	r0, #:upper16:numberString
 674 05e2 4FF01001 		mov	r1, #16
 675 05e6 40F20002 		movw	r2, #:lower16:.LC2
 676 05ea C0F20002 		movt	r2, #:upper16:.LC2
 677 05ee FFF7FEFF 		bl	snprintf
 678 05f2 40F20000 		movw	r0, #:lower16:numberString
 679 05f6 C0F20000 		movt	r0, #:upper16:numberString
 680 05fa FFF7FEFF 		bl	uart3Print
 681 05fe 40F20003 		movw	r3, #:lower16:eepromConfig
 682 0602 C0F20003 		movt	r3, #:upper16:eepromConfig
 683 0606 D3F8F030 		ldr	r3, [r3, #240]	@ float
 684 060a 1846     		mov	r0, r3	@ float
 685 060c FFF7FEFF 		bl	__aeabi_f2d
 686 0610 0246     		mov	r2, r0
 687 0612 0B46     		mov	r3, r1
 688 0614 CDE90023 		strd	r2, [sp]
 689 0618 40F20000 		movw	r0, #:lower16:numberString
 690 061c C0F20000 		movt	r0, #:upper16:numberString
 691 0620 4FF01001 		mov	r1, #16
 692 0624 40F20002 		movw	r2, #:lower16:.LC2
 693 0628 C0F20002 		movt	r2, #:upper16:.LC2
 694 062c FFF7FEFF 		bl	snprintf
 695 0630 40F20000 		movw	r0, #:lower16:numberString
 696 0634 C0F20000 		movt	r0, #:upper16:numberString
 697 0638 FFF7FEFF 		bl	uart3Print
 698 063c 40F20003 		movw	r3, #:lower16:eepromConfig
 699 0640 C0F20003 		movt	r3, #:upper16:eepromConfig
 700 0644 D3F8F430 		ldr	r3, [r3, #244]	@ float
 701 0648 1846     		mov	r0, r3	@ float
 702 064a FFF7FEFF 		bl	__aeabi_f2d
 703 064e 0246     		mov	r2, r0
 704 0650 0B46     		mov	r3, r1
 705 0652 CDE90023 		strd	r2, [sp]
 706 0656 40F20000 		movw	r0, #:lower16:numberString
 707 065a C0F20000 		movt	r0, #:upper16:numberString
 708 065e 4FF01001 		mov	r1, #16
 709 0662 40F20002 		movw	r2, #:lower16:.LC2
 710 0666 C0F20002 		movt	r2, #:upper16:.LC2
 711 066a FFF7FEFF 		bl	snprintf
 712 066e 40F20000 		movw	r0, #:lower16:numberString
 713 0672 C0F20000 		movt	r0, #:upper16:numberString
 714 0676 FFF7FEFF 		bl	uart3Print
 715 067a 40F20003 		movw	r3, #:lower16:eepromConfig
 716 067e C0F20003 		movt	r3, #:upper16:eepromConfig
 717 0682 D3F8F830 		ldr	r3, [r3, #248]	@ float
 718 0686 1846     		mov	r0, r3	@ float
 719 0688 FFF7FEFF 		bl	__aeabi_f2d
 720 068c 0246     		mov	r2, r0
 721 068e 0B46     		mov	r3, r1
 722 0690 CDE90023 		strd	r2, [sp]
 723 0694 40F20000 		movw	r0, #:lower16:numberString
 724 0698 C0F20000 		movt	r0, #:upper16:numberString
 725 069c 4FF01001 		mov	r1, #16
 726 06a0 40F20002 		movw	r2, #:lower16:.LC2
 727 06a4 C0F20002 		movt	r2, #:upper16:.LC2
 728 06a8 FFF7FEFF 		bl	snprintf
 729 06ac 40F20000 		movw	r0, #:lower16:numberString
 730 06b0 C0F20000 		movt	r0, #:upper16:numberString
 731 06b4 FFF7FEFF 		bl	uart3Print
 732 06b8 40F20003 		movw	r3, #:lower16:eepromConfig
 733 06bc C0F20003 		movt	r3, #:upper16:eepromConfig
 734 06c0 D3F80031 		ldr	r3, [r3, #256]	@ float
 735 06c4 1846     		mov	r0, r3	@ float
 736 06c6 FFF7FEFF 		bl	__aeabi_f2d
 737 06ca 0246     		mov	r2, r0
 738 06cc 0B46     		mov	r3, r1
 739 06ce CDE90023 		strd	r2, [sp]
 740 06d2 40F20000 		movw	r0, #:lower16:numberString
 741 06d6 C0F20000 		movt	r0, #:upper16:numberString
 742 06da 4FF01001 		mov	r1, #16
 743 06de 40F20002 		movw	r2, #:lower16:.LC2
 744 06e2 C0F20002 		movt	r2, #:upper16:.LC2
 745 06e6 FFF7FEFF 		bl	snprintf
 746 06ea 40F20000 		movw	r0, #:lower16:numberString
 747 06ee C0F20000 		movt	r0, #:upper16:numberString
 748 06f2 FFF7FEFF 		bl	uart3Print
 749 06f6 40F20003 		movw	r3, #:lower16:eepromConfig
 750 06fa C0F20003 		movt	r3, #:upper16:eepromConfig
 751 06fe 93F81031 		ldrb	r3, [r3, #272]	@ zero_extendqisi2
 752 0702 002B     		cmp	r3, #0
 753 0704 06D0     		beq	.L47
 754 0706 40F20000 		movw	r0, #:lower16:.LC3
 755 070a C0F20000 		movt	r0, #:upper16:.LC3
 756 070e FFF7FEFF 		bl	uart3Print
 757 0712 05E0     		b	.L48
 758              	.L47:
 759 0714 40F20000 		movw	r0, #:lower16:.LC4
 760 0718 C0F20000 		movt	r0, #:upper16:.LC4
 761 071c FFF7FEFF 		bl	uart3Print
 762              	.L48:
 763 0720 40F20003 		movw	r3, #:lower16:rfQueryType
 764 0724 C0F20003 		movt	r3, #:upper16:rfQueryType
 765 0728 4FF07802 		mov	r2, #120
 766 072c 1A70     		strb	r2, [r3, #0]
 767 072e 40F20003 		movw	r3, #:lower16:validRFCommand
 768 0732 C0F20003 		movt	r3, #:upper16:validRFCommand
 769 0736 4FF00002 		mov	r2, #0
 770 073a 1A70     		strb	r2, [r3, #0]
 771 073c 01F0F4B8 		b	.L10
 772              	.L38:
 773 0740 40F20000 		movw	r0, #:lower16:.LC0
 774 0744 C0F20000 		movt	r0, #:upper16:.LC0
 775 0748 FFF7FEFF 		bl	uart3Print
 776 074c 40F20000 		movw	r0, #:lower16:.LC7
 777 0750 C0F20000 		movt	r0, #:upper16:.LC7
 778 0754 FFF7FEFF 		bl	uart3Print
 779 0758 40F20003 		movw	r3, #:lower16:eepromConfig
 780 075c C0F20003 		movt	r3, #:upper16:eepromConfig
 781 0760 D3F81431 		ldr	r3, [r3, #276]	@ float
 782 0764 1846     		mov	r0, r3	@ float
 783 0766 FFF7FEFF 		bl	__aeabi_f2d
 784 076a 0246     		mov	r2, r0
 785 076c 0B46     		mov	r3, r1
 786 076e CDE90023 		strd	r2, [sp]
 787 0772 40F20000 		movw	r0, #:lower16:numberString
 788 0776 C0F20000 		movt	r0, #:upper16:numberString
 789 077a 4FF01001 		mov	r1, #16
 790 077e 40F20002 		movw	r2, #:lower16:.LC2
 791 0782 C0F20002 		movt	r2, #:upper16:.LC2
 792 0786 FFF7FEFF 		bl	snprintf
 793 078a 40F20000 		movw	r0, #:lower16:numberString
 794 078e C0F20000 		movt	r0, #:upper16:numberString
 795 0792 FFF7FEFF 		bl	uart3Print
 796 0796 40F20003 		movw	r3, #:lower16:eepromConfig
 797 079a C0F20003 		movt	r3, #:upper16:eepromConfig
 798 079e D3F81831 		ldr	r3, [r3, #280]	@ float
 799 07a2 1846     		mov	r0, r3	@ float
 800 07a4 FFF7FEFF 		bl	__aeabi_f2d
 801 07a8 0246     		mov	r2, r0
 802 07aa 0B46     		mov	r3, r1
 803 07ac CDE90023 		strd	r2, [sp]
 804 07b0 40F20000 		movw	r0, #:lower16:numberString
 805 07b4 C0F20000 		movt	r0, #:upper16:numberString
 806 07b8 4FF01001 		mov	r1, #16
 807 07bc 40F20002 		movw	r2, #:lower16:.LC2
 808 07c0 C0F20002 		movt	r2, #:upper16:.LC2
 809 07c4 FFF7FEFF 		bl	snprintf
 810 07c8 40F20000 		movw	r0, #:lower16:numberString
 811 07cc C0F20000 		movt	r0, #:upper16:numberString
 812 07d0 FFF7FEFF 		bl	uart3Print
 813 07d4 40F20003 		movw	r3, #:lower16:eepromConfig
 814 07d8 C0F20003 		movt	r3, #:upper16:eepromConfig
 815 07dc D3F81C31 		ldr	r3, [r3, #284]	@ float
 816 07e0 1846     		mov	r0, r3	@ float
 817 07e2 FFF7FEFF 		bl	__aeabi_f2d
 818 07e6 0246     		mov	r2, r0
 819 07e8 0B46     		mov	r3, r1
 820 07ea CDE90023 		strd	r2, [sp]
 821 07ee 40F20000 		movw	r0, #:lower16:numberString
 822 07f2 C0F20000 		movt	r0, #:upper16:numberString
 823 07f6 4FF01001 		mov	r1, #16
 824 07fa 40F20002 		movw	r2, #:lower16:.LC2
 825 07fe C0F20002 		movt	r2, #:upper16:.LC2
 826 0802 FFF7FEFF 		bl	snprintf
 827 0806 40F20000 		movw	r0, #:lower16:numberString
 828 080a C0F20000 		movt	r0, #:upper16:numberString
 829 080e FFF7FEFF 		bl	uart3Print
 830 0812 40F20003 		movw	r3, #:lower16:eepromConfig
 831 0816 C0F20003 		movt	r3, #:upper16:eepromConfig
 832 081a D3F82031 		ldr	r3, [r3, #288]	@ float
 833 081e 1846     		mov	r0, r3	@ float
 834 0820 FFF7FEFF 		bl	__aeabi_f2d
 835 0824 0246     		mov	r2, r0
 836 0826 0B46     		mov	r3, r1
 837 0828 CDE90023 		strd	r2, [sp]
 838 082c 40F20000 		movw	r0, #:lower16:numberString
 839 0830 C0F20000 		movt	r0, #:upper16:numberString
 840 0834 4FF01001 		mov	r1, #16
 841 0838 40F20002 		movw	r2, #:lower16:.LC2
 842 083c C0F20002 		movt	r2, #:upper16:.LC2
 843 0840 FFF7FEFF 		bl	snprintf
 844 0844 40F20000 		movw	r0, #:lower16:numberString
 845 0848 C0F20000 		movt	r0, #:upper16:numberString
 846 084c FFF7FEFF 		bl	uart3Print
 847 0850 40F20003 		movw	r3, #:lower16:eepromConfig
 848 0854 C0F20003 		movt	r3, #:upper16:eepromConfig
 849 0858 D3F82831 		ldr	r3, [r3, #296]	@ float
 850 085c 1846     		mov	r0, r3	@ float
 851 085e FFF7FEFF 		bl	__aeabi_f2d
 852 0862 0246     		mov	r2, r0
 853 0864 0B46     		mov	r3, r1
 854 0866 CDE90023 		strd	r2, [sp]
 855 086a 40F20000 		movw	r0, #:lower16:numberString
 856 086e C0F20000 		movt	r0, #:upper16:numberString
 857 0872 4FF01001 		mov	r1, #16
 858 0876 40F20002 		movw	r2, #:lower16:.LC2
 859 087a C0F20002 		movt	r2, #:upper16:.LC2
 860 087e FFF7FEFF 		bl	snprintf
 861 0882 40F20000 		movw	r0, #:lower16:numberString
 862 0886 C0F20000 		movt	r0, #:upper16:numberString
 863 088a FFF7FEFF 		bl	uart3Print
 864 088e 40F20003 		movw	r3, #:lower16:eepromConfig
 865 0892 C0F20003 		movt	r3, #:upper16:eepromConfig
 866 0896 93F83831 		ldrb	r3, [r3, #312]	@ zero_extendqisi2
 867 089a 002B     		cmp	r3, #0
 868 089c 06D0     		beq	.L49
 869 089e 40F20000 		movw	r0, #:lower16:.LC3
 870 08a2 C0F20000 		movt	r0, #:upper16:.LC3
 871 08a6 FFF7FEFF 		bl	uart3Print
 872 08aa 05E0     		b	.L50
 873              	.L49:
 874 08ac 40F20000 		movw	r0, #:lower16:.LC4
 875 08b0 C0F20000 		movt	r0, #:upper16:.LC4
 876 08b4 FFF7FEFF 		bl	uart3Print
 877              	.L50:
 878 08b8 40F20000 		movw	r0, #:lower16:.LC8
 879 08bc C0F20000 		movt	r0, #:upper16:.LC8
 880 08c0 FFF7FEFF 		bl	uart3Print
 881 08c4 40F20003 		movw	r3, #:lower16:eepromConfig
 882 08c8 C0F20003 		movt	r3, #:upper16:eepromConfig
 883 08cc D3F83C31 		ldr	r3, [r3, #316]	@ float
 884 08d0 1846     		mov	r0, r3	@ float
 885 08d2 FFF7FEFF 		bl	__aeabi_f2d
 886 08d6 0246     		mov	r2, r0
 887 08d8 0B46     		mov	r3, r1
 888 08da CDE90023 		strd	r2, [sp]
 889 08de 40F20000 		movw	r0, #:lower16:numberString
 890 08e2 C0F20000 		movt	r0, #:upper16:numberString
 891 08e6 4FF01001 		mov	r1, #16
 892 08ea 40F20002 		movw	r2, #:lower16:.LC2
 893 08ee C0F20002 		movt	r2, #:upper16:.LC2
 894 08f2 FFF7FEFF 		bl	snprintf
 895 08f6 40F20000 		movw	r0, #:lower16:numberString
 896 08fa C0F20000 		movt	r0, #:upper16:numberString
 897 08fe FFF7FEFF 		bl	uart3Print
 898 0902 40F20003 		movw	r3, #:lower16:eepromConfig
 899 0906 C0F20003 		movt	r3, #:upper16:eepromConfig
 900 090a D3F84031 		ldr	r3, [r3, #320]	@ float
 901 090e 1846     		mov	r0, r3	@ float
 902 0910 FFF7FEFF 		bl	__aeabi_f2d
 903 0914 0246     		mov	r2, r0
 904 0916 0B46     		mov	r3, r1
 905 0918 CDE90023 		strd	r2, [sp]
 906 091c 40F20000 		movw	r0, #:lower16:numberString
 907 0920 C0F20000 		movt	r0, #:upper16:numberString
 908 0924 4FF01001 		mov	r1, #16
 909 0928 40F20002 		movw	r2, #:lower16:.LC2
 910 092c C0F20002 		movt	r2, #:upper16:.LC2
 911 0930 FFF7FEFF 		bl	snprintf
 912 0934 40F20000 		movw	r0, #:lower16:numberString
 913 0938 C0F20000 		movt	r0, #:upper16:numberString
 914 093c FFF7FEFF 		bl	uart3Print
 915 0940 40F20003 		movw	r3, #:lower16:eepromConfig
 916 0944 C0F20003 		movt	r3, #:upper16:eepromConfig
 917 0948 D3F84431 		ldr	r3, [r3, #324]	@ float
 918 094c 1846     		mov	r0, r3	@ float
 919 094e FFF7FEFF 		bl	__aeabi_f2d
 920 0952 0246     		mov	r2, r0
 921 0954 0B46     		mov	r3, r1
 922 0956 CDE90023 		strd	r2, [sp]
 923 095a 40F20000 		movw	r0, #:lower16:numberString
 924 095e C0F20000 		movt	r0, #:upper16:numberString
 925 0962 4FF01001 		mov	r1, #16
 926 0966 40F20002 		movw	r2, #:lower16:.LC2
 927 096a C0F20002 		movt	r2, #:upper16:.LC2
 928 096e FFF7FEFF 		bl	snprintf
 929 0972 40F20000 		movw	r0, #:lower16:numberString
 930 0976 C0F20000 		movt	r0, #:upper16:numberString
 931 097a FFF7FEFF 		bl	uart3Print
 932 097e 40F20003 		movw	r3, #:lower16:eepromConfig
 933 0982 C0F20003 		movt	r3, #:upper16:eepromConfig
 934 0986 D3F84831 		ldr	r3, [r3, #328]	@ float
 935 098a 1846     		mov	r0, r3	@ float
 936 098c FFF7FEFF 		bl	__aeabi_f2d
 937 0990 0246     		mov	r2, r0
 938 0992 0B46     		mov	r3, r1
 939 0994 CDE90023 		strd	r2, [sp]
 940 0998 40F20000 		movw	r0, #:lower16:numberString
 941 099c C0F20000 		movt	r0, #:upper16:numberString
 942 09a0 4FF01001 		mov	r1, #16
 943 09a4 40F20002 		movw	r2, #:lower16:.LC2
 944 09a8 C0F20002 		movt	r2, #:upper16:.LC2
 945 09ac FFF7FEFF 		bl	snprintf
 946 09b0 40F20000 		movw	r0, #:lower16:numberString
 947 09b4 C0F20000 		movt	r0, #:upper16:numberString
 948 09b8 FFF7FEFF 		bl	uart3Print
 949 09bc 40F20003 		movw	r3, #:lower16:eepromConfig
 950 09c0 C0F20003 		movt	r3, #:upper16:eepromConfig
 951 09c4 D3F85031 		ldr	r3, [r3, #336]	@ float
 952 09c8 1846     		mov	r0, r3	@ float
 953 09ca FFF7FEFF 		bl	__aeabi_f2d
 954 09ce 0246     		mov	r2, r0
 955 09d0 0B46     		mov	r3, r1
 956 09d2 CDE90023 		strd	r2, [sp]
 957 09d6 40F20000 		movw	r0, #:lower16:numberString
 958 09da C0F20000 		movt	r0, #:upper16:numberString
 959 09de 4FF01001 		mov	r1, #16
 960 09e2 40F20002 		movw	r2, #:lower16:.LC2
 961 09e6 C0F20002 		movt	r2, #:upper16:.LC2
 962 09ea FFF7FEFF 		bl	snprintf
 963 09ee 40F20000 		movw	r0, #:lower16:numberString
 964 09f2 C0F20000 		movt	r0, #:upper16:numberString
 965 09f6 FFF7FEFF 		bl	uart3Print
 966 09fa 40F20003 		movw	r3, #:lower16:eepromConfig
 967 09fe C0F20003 		movt	r3, #:upper16:eepromConfig
 968 0a02 93F86031 		ldrb	r3, [r3, #352]	@ zero_extendqisi2
 969 0a06 002B     		cmp	r3, #0
 970 0a08 06D0     		beq	.L51
 971 0a0a 40F20000 		movw	r0, #:lower16:.LC3
 972 0a0e C0F20000 		movt	r0, #:upper16:.LC3
 973 0a12 FFF7FEFF 		bl	uart3Print
 974 0a16 05E0     		b	.L52
 975              	.L51:
 976 0a18 40F20000 		movw	r0, #:lower16:.LC4
 977 0a1c C0F20000 		movt	r0, #:upper16:.LC4
 978 0a20 FFF7FEFF 		bl	uart3Print
 979              	.L52:
 980 0a24 40F20000 		movw	r0, #:lower16:.LC9
 981 0a28 C0F20000 		movt	r0, #:upper16:.LC9
 982 0a2c FFF7FEFF 		bl	uart3Print
 983 0a30 40F20003 		movw	r3, #:lower16:eepromConfig
 984 0a34 C0F20003 		movt	r3, #:upper16:eepromConfig
 985 0a38 D3F86431 		ldr	r3, [r3, #356]	@ float
 986 0a3c 1846     		mov	r0, r3	@ float
 987 0a3e FFF7FEFF 		bl	__aeabi_f2d
 988 0a42 0246     		mov	r2, r0
 989 0a44 0B46     		mov	r3, r1
 990 0a46 CDE90023 		strd	r2, [sp]
 991 0a4a 40F20000 		movw	r0, #:lower16:numberString
 992 0a4e C0F20000 		movt	r0, #:upper16:numberString
 993 0a52 4FF01001 		mov	r1, #16
 994 0a56 40F20002 		movw	r2, #:lower16:.LC2
 995 0a5a C0F20002 		movt	r2, #:upper16:.LC2
 996 0a5e FFF7FEFF 		bl	snprintf
 997 0a62 40F20000 		movw	r0, #:lower16:numberString
 998 0a66 C0F20000 		movt	r0, #:upper16:numberString
 999 0a6a FFF7FEFF 		bl	uart3Print
 1000 0a6e 40F20003 		movw	r3, #:lower16:eepromConfig
 1001 0a72 C0F20003 		movt	r3, #:upper16:eepromConfig
 1002 0a76 D3F86831 		ldr	r3, [r3, #360]	@ float
 1003 0a7a 1846     		mov	r0, r3	@ float
 1004 0a7c FFF7FEFF 		bl	__aeabi_f2d
 1005 0a80 0246     		mov	r2, r0
 1006 0a82 0B46     		mov	r3, r1
 1007 0a84 CDE90023 		strd	r2, [sp]
 1008 0a88 40F20000 		movw	r0, #:lower16:numberString
 1009 0a8c C0F20000 		movt	r0, #:upper16:numberString
 1010 0a90 4FF01001 		mov	r1, #16
 1011 0a94 40F20002 		movw	r2, #:lower16:.LC2
 1012 0a98 C0F20002 		movt	r2, #:upper16:.LC2
 1013 0a9c FFF7FEFF 		bl	snprintf
 1014 0aa0 40F20000 		movw	r0, #:lower16:numberString
 1015 0aa4 C0F20000 		movt	r0, #:upper16:numberString
 1016 0aa8 FFF7FEFF 		bl	uart3Print
 1017 0aac 40F20003 		movw	r3, #:lower16:eepromConfig
 1018 0ab0 C0F20003 		movt	r3, #:upper16:eepromConfig
 1019 0ab4 D3F86C31 		ldr	r3, [r3, #364]	@ float
 1020 0ab8 1846     		mov	r0, r3	@ float
 1021 0aba FFF7FEFF 		bl	__aeabi_f2d
 1022 0abe 0246     		mov	r2, r0
 1023 0ac0 0B46     		mov	r3, r1
 1024 0ac2 CDE90023 		strd	r2, [sp]
 1025 0ac6 40F20000 		movw	r0, #:lower16:numberString
 1026 0aca C0F20000 		movt	r0, #:upper16:numberString
 1027 0ace 4FF01001 		mov	r1, #16
 1028 0ad2 40F20002 		movw	r2, #:lower16:.LC2
 1029 0ad6 C0F20002 		movt	r2, #:upper16:.LC2
 1030 0ada FFF7FEFF 		bl	snprintf
 1031 0ade 40F20000 		movw	r0, #:lower16:numberString
 1032 0ae2 C0F20000 		movt	r0, #:upper16:numberString
 1033 0ae6 FFF7FEFF 		bl	uart3Print
 1034 0aea 40F20003 		movw	r3, #:lower16:eepromConfig
 1035 0aee C0F20003 		movt	r3, #:upper16:eepromConfig
 1036 0af2 D3F87031 		ldr	r3, [r3, #368]	@ float
 1037 0af6 1846     		mov	r0, r3	@ float
 1038 0af8 FFF7FEFF 		bl	__aeabi_f2d
 1039 0afc 0246     		mov	r2, r0
 1040 0afe 0B46     		mov	r3, r1
 1041 0b00 CDE90023 		strd	r2, [sp]
 1042 0b04 40F20000 		movw	r0, #:lower16:numberString
 1043 0b08 C0F20000 		movt	r0, #:upper16:numberString
 1044 0b0c 4FF01001 		mov	r1, #16
 1045 0b10 40F20002 		movw	r2, #:lower16:.LC2
 1046 0b14 C0F20002 		movt	r2, #:upper16:.LC2
 1047 0b18 FFF7FEFF 		bl	snprintf
 1048 0b1c 40F20000 		movw	r0, #:lower16:numberString
 1049 0b20 C0F20000 		movt	r0, #:upper16:numberString
 1050 0b24 FFF7FEFF 		bl	uart3Print
 1051 0b28 40F20003 		movw	r3, #:lower16:eepromConfig
 1052 0b2c C0F20003 		movt	r3, #:upper16:eepromConfig
 1053 0b30 D3F87831 		ldr	r3, [r3, #376]	@ float
 1054 0b34 1846     		mov	r0, r3	@ float
 1055 0b36 FFF7FEFF 		bl	__aeabi_f2d
 1056 0b3a 0246     		mov	r2, r0
 1057 0b3c 0B46     		mov	r3, r1
 1058 0b3e CDE90023 		strd	r2, [sp]
 1059 0b42 40F20000 		movw	r0, #:lower16:numberString
 1060 0b46 C0F20000 		movt	r0, #:upper16:numberString
 1061 0b4a 4FF01001 		mov	r1, #16
 1062 0b4e 40F20002 		movw	r2, #:lower16:.LC2
 1063 0b52 C0F20002 		movt	r2, #:upper16:.LC2
 1064 0b56 FFF7FEFF 		bl	snprintf
 1065 0b5a 40F20000 		movw	r0, #:lower16:numberString
 1066 0b5e C0F20000 		movt	r0, #:upper16:numberString
 1067 0b62 FFF7FEFF 		bl	uart3Print
 1068 0b66 40F20003 		movw	r3, #:lower16:eepromConfig
 1069 0b6a C0F20003 		movt	r3, #:upper16:eepromConfig
 1070 0b6e 93F88831 		ldrb	r3, [r3, #392]	@ zero_extendqisi2
 1071 0b72 002B     		cmp	r3, #0
 1072 0b74 06D0     		beq	.L53
 1073 0b76 40F20000 		movw	r0, #:lower16:.LC3
 1074 0b7a C0F20000 		movt	r0, #:upper16:.LC3
 1075 0b7e FFF7FEFF 		bl	uart3Print
 1076 0b82 05E0     		b	.L54
 1077              	.L53:
 1078 0b84 40F20000 		movw	r0, #:lower16:.LC4
 1079 0b88 C0F20000 		movt	r0, #:upper16:.LC4
 1080 0b8c FFF7FEFF 		bl	uart3Print
 1081              	.L54:
 1082 0b90 40F20003 		movw	r3, #:lower16:rfQueryType
 1083 0b94 C0F20003 		movt	r3, #:upper16:rfQueryType
 1084 0b98 4FF07802 		mov	r2, #120
 1085 0b9c 1A70     		strb	r2, [r3, #0]
 1086 0b9e 40F20003 		movw	r3, #:lower16:validRFCommand
 1087 0ba2 C0F20003 		movt	r3, #:upper16:validRFCommand
 1088 0ba6 4FF00002 		mov	r2, #0
 1089 0baa 1A70     		strb	r2, [r3, #0]
 1090 0bac 00F0BCBE 		b	.L10
 1091              	.L39:
 1092 0bb0 40F20000 		movw	r0, #:lower16:.LC0
 1093 0bb4 C0F20000 		movt	r0, #:upper16:.LC0
 1094 0bb8 FFF7FEFF 		bl	uart3Print
 1095 0bbc 40F20000 		movw	r0, #:lower16:.LC10
 1096 0bc0 C0F20000 		movt	r0, #:upper16:.LC10
 1097 0bc4 FFF7FEFF 		bl	uart3Print
 1098 0bc8 40F20003 		movw	r3, #:lower16:eepromConfig
 1099 0bcc C0F20003 		movt	r3, #:upper16:eepromConfig
 1100 0bd0 D3F88C31 		ldr	r3, [r3, #396]	@ float
 1101 0bd4 1846     		mov	r0, r3	@ float
 1102 0bd6 FFF7FEFF 		bl	__aeabi_f2d
 1103 0bda 0246     		mov	r2, r0
 1104 0bdc 0B46     		mov	r3, r1
 1105 0bde CDE90023 		strd	r2, [sp]
 1106 0be2 40F20000 		movw	r0, #:lower16:numberString
 1107 0be6 C0F20000 		movt	r0, #:upper16:numberString
 1108 0bea 4FF01001 		mov	r1, #16
 1109 0bee 40F20002 		movw	r2, #:lower16:.LC2
 1110 0bf2 C0F20002 		movt	r2, #:upper16:.LC2
 1111 0bf6 FFF7FEFF 		bl	snprintf
 1112 0bfa 40F20000 		movw	r0, #:lower16:numberString
 1113 0bfe C0F20000 		movt	r0, #:upper16:numberString
 1114 0c02 FFF7FEFF 		bl	uart3Print
 1115 0c06 40F20003 		movw	r3, #:lower16:eepromConfig
 1116 0c0a C0F20003 		movt	r3, #:upper16:eepromConfig
 1117 0c0e D3F89031 		ldr	r3, [r3, #400]	@ float
 1118 0c12 1846     		mov	r0, r3	@ float
 1119 0c14 FFF7FEFF 		bl	__aeabi_f2d
 1120 0c18 0246     		mov	r2, r0
 1121 0c1a 0B46     		mov	r3, r1
 1122 0c1c CDE90023 		strd	r2, [sp]
 1123 0c20 40F20000 		movw	r0, #:lower16:numberString
 1124 0c24 C0F20000 		movt	r0, #:upper16:numberString
 1125 0c28 4FF01001 		mov	r1, #16
 1126 0c2c 40F20002 		movw	r2, #:lower16:.LC2
 1127 0c30 C0F20002 		movt	r2, #:upper16:.LC2
 1128 0c34 FFF7FEFF 		bl	snprintf
 1129 0c38 40F20000 		movw	r0, #:lower16:numberString
 1130 0c3c C0F20000 		movt	r0, #:upper16:numberString
 1131 0c40 FFF7FEFF 		bl	uart3Print
 1132 0c44 40F20003 		movw	r3, #:lower16:eepromConfig
 1133 0c48 C0F20003 		movt	r3, #:upper16:eepromConfig
 1134 0c4c D3F89431 		ldr	r3, [r3, #404]	@ float
 1135 0c50 1846     		mov	r0, r3	@ float
 1136 0c52 FFF7FEFF 		bl	__aeabi_f2d
 1137 0c56 0246     		mov	r2, r0
 1138 0c58 0B46     		mov	r3, r1
 1139 0c5a CDE90023 		strd	r2, [sp]
 1140 0c5e 40F20000 		movw	r0, #:lower16:numberString
 1141 0c62 C0F20000 		movt	r0, #:upper16:numberString
 1142 0c66 4FF01001 		mov	r1, #16
 1143 0c6a 40F20002 		movw	r2, #:lower16:.LC2
 1144 0c6e C0F20002 		movt	r2, #:upper16:.LC2
 1145 0c72 FFF7FEFF 		bl	snprintf
 1146 0c76 40F20000 		movw	r0, #:lower16:numberString
 1147 0c7a C0F20000 		movt	r0, #:upper16:numberString
 1148 0c7e FFF7FEFF 		bl	uart3Print
 1149 0c82 40F20003 		movw	r3, #:lower16:eepromConfig
 1150 0c86 C0F20003 		movt	r3, #:upper16:eepromConfig
 1151 0c8a D3F89831 		ldr	r3, [r3, #408]	@ float
 1152 0c8e 1846     		mov	r0, r3	@ float
 1153 0c90 FFF7FEFF 		bl	__aeabi_f2d
 1154 0c94 0246     		mov	r2, r0
 1155 0c96 0B46     		mov	r3, r1
 1156 0c98 CDE90023 		strd	r2, [sp]
 1157 0c9c 40F20000 		movw	r0, #:lower16:numberString
 1158 0ca0 C0F20000 		movt	r0, #:upper16:numberString
 1159 0ca4 4FF01001 		mov	r1, #16
 1160 0ca8 40F20002 		movw	r2, #:lower16:.LC2
 1161 0cac C0F20002 		movt	r2, #:upper16:.LC2
 1162 0cb0 FFF7FEFF 		bl	snprintf
 1163 0cb4 40F20000 		movw	r0, #:lower16:numberString
 1164 0cb8 C0F20000 		movt	r0, #:upper16:numberString
 1165 0cbc FFF7FEFF 		bl	uart3Print
 1166 0cc0 40F20003 		movw	r3, #:lower16:eepromConfig
 1167 0cc4 C0F20003 		movt	r3, #:upper16:eepromConfig
 1168 0cc8 D3F8A031 		ldr	r3, [r3, #416]	@ float
 1169 0ccc 1846     		mov	r0, r3	@ float
 1170 0cce FFF7FEFF 		bl	__aeabi_f2d
 1171 0cd2 0246     		mov	r2, r0
 1172 0cd4 0B46     		mov	r3, r1
 1173 0cd6 CDE90023 		strd	r2, [sp]
 1174 0cda 40F20000 		movw	r0, #:lower16:numberString
 1175 0cde C0F20000 		movt	r0, #:upper16:numberString
 1176 0ce2 4FF01001 		mov	r1, #16
 1177 0ce6 40F20002 		movw	r2, #:lower16:.LC2
 1178 0cea C0F20002 		movt	r2, #:upper16:.LC2
 1179 0cee FFF7FEFF 		bl	snprintf
 1180 0cf2 40F20000 		movw	r0, #:lower16:numberString
 1181 0cf6 C0F20000 		movt	r0, #:upper16:numberString
 1182 0cfa FFF7FEFF 		bl	uart3Print
 1183 0cfe 40F20003 		movw	r3, #:lower16:eepromConfig
 1184 0d02 C0F20003 		movt	r3, #:upper16:eepromConfig
 1185 0d06 93F8B031 		ldrb	r3, [r3, #432]	@ zero_extendqisi2
 1186 0d0a 002B     		cmp	r3, #0
 1187 0d0c 06D0     		beq	.L55
 1188 0d0e 40F20000 		movw	r0, #:lower16:.LC3
 1189 0d12 C0F20000 		movt	r0, #:upper16:.LC3
 1190 0d16 FFF7FEFF 		bl	uart3Print
 1191 0d1a 05E0     		b	.L56
 1192              	.L55:
 1193 0d1c 40F20000 		movw	r0, #:lower16:.LC4
 1194 0d20 C0F20000 		movt	r0, #:upper16:.LC4
 1195 0d24 FFF7FEFF 		bl	uart3Print
 1196              	.L56:
 1197 0d28 40F20000 		movw	r0, #:lower16:.LC11
 1198 0d2c C0F20000 		movt	r0, #:upper16:.LC11
 1199 0d30 FFF7FEFF 		bl	uart3Print
 1200 0d34 40F20003 		movw	r3, #:lower16:eepromConfig
 1201 0d38 C0F20003 		movt	r3, #:upper16:eepromConfig
 1202 0d3c D3F8B431 		ldr	r3, [r3, #436]	@ float
 1203 0d40 1846     		mov	r0, r3	@ float
 1204 0d42 FFF7FEFF 		bl	__aeabi_f2d
 1205 0d46 0246     		mov	r2, r0
 1206 0d48 0B46     		mov	r3, r1
 1207 0d4a CDE90023 		strd	r2, [sp]
 1208 0d4e 40F20000 		movw	r0, #:lower16:numberString
 1209 0d52 C0F20000 		movt	r0, #:upper16:numberString
 1210 0d56 4FF01001 		mov	r1, #16
 1211 0d5a 40F20002 		movw	r2, #:lower16:.LC2
 1212 0d5e C0F20002 		movt	r2, #:upper16:.LC2
 1213 0d62 FFF7FEFF 		bl	snprintf
 1214 0d66 40F20000 		movw	r0, #:lower16:numberString
 1215 0d6a C0F20000 		movt	r0, #:upper16:numberString
 1216 0d6e FFF7FEFF 		bl	uart3Print
 1217 0d72 40F20003 		movw	r3, #:lower16:eepromConfig
 1218 0d76 C0F20003 		movt	r3, #:upper16:eepromConfig
 1219 0d7a D3F8B831 		ldr	r3, [r3, #440]	@ float
 1220 0d7e 1846     		mov	r0, r3	@ float
 1221 0d80 FFF7FEFF 		bl	__aeabi_f2d
 1222 0d84 0246     		mov	r2, r0
 1223 0d86 0B46     		mov	r3, r1
 1224 0d88 CDE90023 		strd	r2, [sp]
 1225 0d8c 40F20000 		movw	r0, #:lower16:numberString
 1226 0d90 C0F20000 		movt	r0, #:upper16:numberString
 1227 0d94 4FF01001 		mov	r1, #16
 1228 0d98 40F20002 		movw	r2, #:lower16:.LC2
 1229 0d9c C0F20002 		movt	r2, #:upper16:.LC2
 1230 0da0 FFF7FEFF 		bl	snprintf
 1231 0da4 40F20000 		movw	r0, #:lower16:numberString
 1232 0da8 C0F20000 		movt	r0, #:upper16:numberString
 1233 0dac FFF7FEFF 		bl	uart3Print
 1234 0db0 40F20003 		movw	r3, #:lower16:eepromConfig
 1235 0db4 C0F20003 		movt	r3, #:upper16:eepromConfig
 1236 0db8 D3F8BC31 		ldr	r3, [r3, #444]	@ float
 1237 0dbc 1846     		mov	r0, r3	@ float
 1238 0dbe FFF7FEFF 		bl	__aeabi_f2d
 1239 0dc2 0246     		mov	r2, r0
 1240 0dc4 0B46     		mov	r3, r1
 1241 0dc6 CDE90023 		strd	r2, [sp]
 1242 0dca 40F20000 		movw	r0, #:lower16:numberString
 1243 0dce C0F20000 		movt	r0, #:upper16:numberString
 1244 0dd2 4FF01001 		mov	r1, #16
 1245 0dd6 40F20002 		movw	r2, #:lower16:.LC2
 1246 0dda C0F20002 		movt	r2, #:upper16:.LC2
 1247 0dde FFF7FEFF 		bl	snprintf
 1248 0de2 40F20000 		movw	r0, #:lower16:numberString
 1249 0de6 C0F20000 		movt	r0, #:upper16:numberString
 1250 0dea FFF7FEFF 		bl	uart3Print
 1251 0dee 40F20003 		movw	r3, #:lower16:eepromConfig
 1252 0df2 C0F20003 		movt	r3, #:upper16:eepromConfig
 1253 0df6 D3F8C031 		ldr	r3, [r3, #448]	@ float
 1254 0dfa 1846     		mov	r0, r3	@ float
 1255 0dfc FFF7FEFF 		bl	__aeabi_f2d
 1256 0e00 0246     		mov	r2, r0
 1257 0e02 0B46     		mov	r3, r1
 1258 0e04 CDE90023 		strd	r2, [sp]
 1259 0e08 40F20000 		movw	r0, #:lower16:numberString
 1260 0e0c C0F20000 		movt	r0, #:upper16:numberString
 1261 0e10 4FF01001 		mov	r1, #16
 1262 0e14 40F20002 		movw	r2, #:lower16:.LC2
 1263 0e18 C0F20002 		movt	r2, #:upper16:.LC2
 1264 0e1c FFF7FEFF 		bl	snprintf
 1265 0e20 40F20000 		movw	r0, #:lower16:numberString
 1266 0e24 C0F20000 		movt	r0, #:upper16:numberString
 1267 0e28 FFF7FEFF 		bl	uart3Print
 1268 0e2c 40F20003 		movw	r3, #:lower16:eepromConfig
 1269 0e30 C0F20003 		movt	r3, #:upper16:eepromConfig
 1270 0e34 D3F8C831 		ldr	r3, [r3, #456]	@ float
 1271 0e38 1846     		mov	r0, r3	@ float
 1272 0e3a FFF7FEFF 		bl	__aeabi_f2d
 1273 0e3e 0246     		mov	r2, r0
 1274 0e40 0B46     		mov	r3, r1
 1275 0e42 CDE90023 		strd	r2, [sp]
 1276 0e46 40F20000 		movw	r0, #:lower16:numberString
 1277 0e4a C0F20000 		movt	r0, #:upper16:numberString
 1278 0e4e 4FF01001 		mov	r1, #16
 1279 0e52 40F20002 		movw	r2, #:lower16:.LC2
 1280 0e56 C0F20002 		movt	r2, #:upper16:.LC2
 1281 0e5a FFF7FEFF 		bl	snprintf
 1282 0e5e 40F20000 		movw	r0, #:lower16:numberString
 1283 0e62 C0F20000 		movt	r0, #:upper16:numberString
 1284 0e66 FFF7FEFF 		bl	uart3Print
 1285 0e6a 40F20003 		movw	r3, #:lower16:eepromConfig
 1286 0e6e C0F20003 		movt	r3, #:upper16:eepromConfig
 1287 0e72 93F8D831 		ldrb	r3, [r3, #472]	@ zero_extendqisi2
 1288 0e76 002B     		cmp	r3, #0
 1289 0e78 06D0     		beq	.L57
 1290 0e7a 40F20000 		movw	r0, #:lower16:.LC3
 1291 0e7e C0F20000 		movt	r0, #:upper16:.LC3
 1292 0e82 FFF7FEFF 		bl	uart3Print
 1293 0e86 05E0     		b	.L58
 1294              	.L57:
 1295 0e88 40F20000 		movw	r0, #:lower16:.LC4
 1296 0e8c C0F20000 		movt	r0, #:upper16:.LC4
 1297 0e90 FFF7FEFF 		bl	uart3Print
 1298              	.L58:
 1299 0e94 40F20000 		movw	r0, #:lower16:.LC12
 1300 0e98 C0F20000 		movt	r0, #:upper16:.LC12
 1301 0e9c FFF7FEFF 		bl	uart3Print
 1302 0ea0 40F20003 		movw	r3, #:lower16:eepromConfig
 1303 0ea4 C0F20003 		movt	r3, #:upper16:eepromConfig
 1304 0ea8 D3F8DC31 		ldr	r3, [r3, #476]	@ float
 1305 0eac 1846     		mov	r0, r3	@ float
 1306 0eae FFF7FEFF 		bl	__aeabi_f2d
 1307 0eb2 0246     		mov	r2, r0
 1308 0eb4 0B46     		mov	r3, r1
 1309 0eb6 CDE90023 		strd	r2, [sp]
 1310 0eba 40F20000 		movw	r0, #:lower16:numberString
 1311 0ebe C0F20000 		movt	r0, #:upper16:numberString
 1312 0ec2 4FF01001 		mov	r1, #16
 1313 0ec6 40F20002 		movw	r2, #:lower16:.LC2
 1314 0eca C0F20002 		movt	r2, #:upper16:.LC2
 1315 0ece FFF7FEFF 		bl	snprintf
 1316 0ed2 40F20000 		movw	r0, #:lower16:numberString
 1317 0ed6 C0F20000 		movt	r0, #:upper16:numberString
 1318 0eda FFF7FEFF 		bl	uart3Print
 1319 0ede 40F20003 		movw	r3, #:lower16:eepromConfig
 1320 0ee2 C0F20003 		movt	r3, #:upper16:eepromConfig
 1321 0ee6 D3F8E031 		ldr	r3, [r3, #480]	@ float
 1322 0eea 1846     		mov	r0, r3	@ float
 1323 0eec FFF7FEFF 		bl	__aeabi_f2d
 1324 0ef0 0246     		mov	r2, r0
 1325 0ef2 0B46     		mov	r3, r1
 1326 0ef4 CDE90023 		strd	r2, [sp]
 1327 0ef8 40F20000 		movw	r0, #:lower16:numberString
 1328 0efc C0F20000 		movt	r0, #:upper16:numberString
 1329 0f00 4FF01001 		mov	r1, #16
 1330 0f04 40F20002 		movw	r2, #:lower16:.LC2
 1331 0f08 C0F20002 		movt	r2, #:upper16:.LC2
 1332 0f0c FFF7FEFF 		bl	snprintf
 1333 0f10 40F20000 		movw	r0, #:lower16:numberString
 1334 0f14 C0F20000 		movt	r0, #:upper16:numberString
 1335 0f18 FFF7FEFF 		bl	uart3Print
 1336 0f1c 40F20003 		movw	r3, #:lower16:eepromConfig
 1337 0f20 C0F20003 		movt	r3, #:upper16:eepromConfig
 1338 0f24 D3F8E431 		ldr	r3, [r3, #484]	@ float
 1339 0f28 1846     		mov	r0, r3	@ float
 1340 0f2a FFF7FEFF 		bl	__aeabi_f2d
 1341 0f2e 0246     		mov	r2, r0
 1342 0f30 0B46     		mov	r3, r1
 1343 0f32 CDE90023 		strd	r2, [sp]
 1344 0f36 40F20000 		movw	r0, #:lower16:numberString
 1345 0f3a C0F20000 		movt	r0, #:upper16:numberString
 1346 0f3e 4FF01001 		mov	r1, #16
 1347 0f42 40F20002 		movw	r2, #:lower16:.LC2
 1348 0f46 C0F20002 		movt	r2, #:upper16:.LC2
 1349 0f4a FFF7FEFF 		bl	snprintf
 1350 0f4e 40F20000 		movw	r0, #:lower16:numberString
 1351 0f52 C0F20000 		movt	r0, #:upper16:numberString
 1352 0f56 FFF7FEFF 		bl	uart3Print
 1353 0f5a 40F20003 		movw	r3, #:lower16:eepromConfig
 1354 0f5e C0F20003 		movt	r3, #:upper16:eepromConfig
 1355 0f62 D3F8E831 		ldr	r3, [r3, #488]	@ float
 1356 0f66 1846     		mov	r0, r3	@ float
 1357 0f68 FFF7FEFF 		bl	__aeabi_f2d
 1358 0f6c 0246     		mov	r2, r0
 1359 0f6e 0B46     		mov	r3, r1
 1360 0f70 CDE90023 		strd	r2, [sp]
 1361 0f74 40F20000 		movw	r0, #:lower16:numberString
 1362 0f78 C0F20000 		movt	r0, #:upper16:numberString
 1363 0f7c 4FF01001 		mov	r1, #16
 1364 0f80 40F20002 		movw	r2, #:lower16:.LC2
 1365 0f84 C0F20002 		movt	r2, #:upper16:.LC2
 1366 0f88 FFF7FEFF 		bl	snprintf
 1367 0f8c 40F20000 		movw	r0, #:lower16:numberString
 1368 0f90 C0F20000 		movt	r0, #:upper16:numberString
 1369 0f94 FFF7FEFF 		bl	uart3Print
 1370 0f98 40F20003 		movw	r3, #:lower16:eepromConfig
 1371 0f9c C0F20003 		movt	r3, #:upper16:eepromConfig
 1372 0fa0 D3F8F031 		ldr	r3, [r3, #496]	@ float
 1373 0fa4 1846     		mov	r0, r3	@ float
 1374 0fa6 FFF7FEFF 		bl	__aeabi_f2d
 1375 0faa 0246     		mov	r2, r0
 1376 0fac 0B46     		mov	r3, r1
 1377 0fae CDE90023 		strd	r2, [sp]
 1378 0fb2 40F20000 		movw	r0, #:lower16:numberString
 1379 0fb6 C0F20000 		movt	r0, #:upper16:numberString
 1380 0fba 4FF01001 		mov	r1, #16
 1381 0fbe 40F20002 		movw	r2, #:lower16:.LC2
 1382 0fc2 C0F20002 		movt	r2, #:upper16:.LC2
 1383 0fc6 FFF7FEFF 		bl	snprintf
 1384 0fca 40F20000 		movw	r0, #:lower16:numberString
 1385 0fce C0F20000 		movt	r0, #:upper16:numberString
 1386 0fd2 FFF7FEFF 		bl	uart3Print
 1387 0fd6 40F20003 		movw	r3, #:lower16:eepromConfig
 1388 0fda C0F20003 		movt	r3, #:upper16:eepromConfig
 1389 0fde 93F80032 		ldrb	r3, [r3, #512]	@ zero_extendqisi2
 1390 0fe2 002B     		cmp	r3, #0
 1391 0fe4 06D0     		beq	.L59
 1392 0fe6 40F20000 		movw	r0, #:lower16:.LC3
 1393 0fea C0F20000 		movt	r0, #:upper16:.LC3
 1394 0fee FFF7FEFF 		bl	uart3Print
 1395 0ff2 05E0     		b	.L60
 1396              	.L59:
 1397 0ff4 40F20000 		movw	r0, #:lower16:.LC4
 1398 0ff8 C0F20000 		movt	r0, #:upper16:.LC4
 1399 0ffc FFF7FEFF 		bl	uart3Print
 1400              	.L60:
 1401 1000 40F20003 		movw	r3, #:lower16:rfQueryType
 1402 1004 C0F20003 		movt	r3, #:upper16:rfQueryType
 1403 1008 4FF07802 		mov	r2, #120
 1404 100c 1A70     		strb	r2, [r3, #0]
 1405 100e 40F20003 		movw	r3, #:lower16:validRFCommand
 1406 1012 C0F20003 		movt	r3, #:upper16:validRFCommand
 1407 1016 4FF00002 		mov	r2, #0
 1408 101a 1A70     		strb	r2, [r3, #0]
 1409 101c 00F084BC 		b	.L10
 1410              	.L40:
 1411 1020 40F20000 		movw	r0, #:lower16:.LC0
 1412 1024 C0F20000 		movt	r0, #:upper16:.LC0
 1413 1028 FFF7FEFF 		bl	uart3Print
 1414 102c 40F20000 		movw	r0, #:lower16:.LC13
 1415 1030 C0F20000 		movt	r0, #:upper16:.LC13
 1416 1034 FFF7FEFF 		bl	uart3Print
 1417 1038 40F20003 		movw	r3, #:lower16:eepromConfig
 1418 103c C0F20003 		movt	r3, #:upper16:eepromConfig
 1419 1040 D3F80432 		ldr	r3, [r3, #516]	@ float
 1420 1044 1846     		mov	r0, r3	@ float
 1421 1046 FFF7FEFF 		bl	__aeabi_f2d
 1422 104a 0246     		mov	r2, r0
 1423 104c 0B46     		mov	r3, r1
 1424 104e CDE90023 		strd	r2, [sp]
 1425 1052 40F20000 		movw	r0, #:lower16:numberString
 1426 1056 C0F20000 		movt	r0, #:upper16:numberString
 1427 105a 4FF01001 		mov	r1, #16
 1428 105e 40F20002 		movw	r2, #:lower16:.LC2
 1429 1062 C0F20002 		movt	r2, #:upper16:.LC2
 1430 1066 FFF7FEFF 		bl	snprintf
 1431 106a 40F20000 		movw	r0, #:lower16:numberString
 1432 106e C0F20000 		movt	r0, #:upper16:numberString
 1433 1072 FFF7FEFF 		bl	uart3Print
 1434 1076 40F20003 		movw	r3, #:lower16:eepromConfig
 1435 107a C0F20003 		movt	r3, #:upper16:eepromConfig
 1436 107e D3F80832 		ldr	r3, [r3, #520]	@ float
 1437 1082 1846     		mov	r0, r3	@ float
 1438 1084 FFF7FEFF 		bl	__aeabi_f2d
 1439 1088 0246     		mov	r2, r0
 1440 108a 0B46     		mov	r3, r1
 1441 108c CDE90023 		strd	r2, [sp]
 1442 1090 40F20000 		movw	r0, #:lower16:numberString
 1443 1094 C0F20000 		movt	r0, #:upper16:numberString
 1444 1098 4FF01001 		mov	r1, #16
 1445 109c 40F20002 		movw	r2, #:lower16:.LC2
 1446 10a0 C0F20002 		movt	r2, #:upper16:.LC2
 1447 10a4 FFF7FEFF 		bl	snprintf
 1448 10a8 40F20000 		movw	r0, #:lower16:numberString
 1449 10ac C0F20000 		movt	r0, #:upper16:numberString
 1450 10b0 FFF7FEFF 		bl	uart3Print
 1451 10b4 40F20003 		movw	r3, #:lower16:eepromConfig
 1452 10b8 C0F20003 		movt	r3, #:upper16:eepromConfig
 1453 10bc D3F80C32 		ldr	r3, [r3, #524]	@ float
 1454 10c0 1846     		mov	r0, r3	@ float
 1455 10c2 FFF7FEFF 		bl	__aeabi_f2d
 1456 10c6 0246     		mov	r2, r0
 1457 10c8 0B46     		mov	r3, r1
 1458 10ca CDE90023 		strd	r2, [sp]
 1459 10ce 40F20000 		movw	r0, #:lower16:numberString
 1460 10d2 C0F20000 		movt	r0, #:upper16:numberString
 1461 10d6 4FF01001 		mov	r1, #16
 1462 10da 40F20002 		movw	r2, #:lower16:.LC2
 1463 10de C0F20002 		movt	r2, #:upper16:.LC2
 1464 10e2 FFF7FEFF 		bl	snprintf
 1465 10e6 40F20000 		movw	r0, #:lower16:numberString
 1466 10ea C0F20000 		movt	r0, #:upper16:numberString
 1467 10ee FFF7FEFF 		bl	uart3Print
 1468 10f2 40F20003 		movw	r3, #:lower16:eepromConfig
 1469 10f6 C0F20003 		movt	r3, #:upper16:eepromConfig
 1470 10fa D3F81032 		ldr	r3, [r3, #528]	@ float
 1471 10fe 1846     		mov	r0, r3	@ float
 1472 1100 FFF7FEFF 		bl	__aeabi_f2d
 1473 1104 0246     		mov	r2, r0
 1474 1106 0B46     		mov	r3, r1
 1475 1108 CDE90023 		strd	r2, [sp]
 1476 110c 40F20000 		movw	r0, #:lower16:numberString
 1477 1110 C0F20000 		movt	r0, #:upper16:numberString
 1478 1114 4FF01001 		mov	r1, #16
 1479 1118 40F20002 		movw	r2, #:lower16:.LC2
 1480 111c C0F20002 		movt	r2, #:upper16:.LC2
 1481 1120 FFF7FEFF 		bl	snprintf
 1482 1124 40F20000 		movw	r0, #:lower16:numberString
 1483 1128 C0F20000 		movt	r0, #:upper16:numberString
 1484 112c FFF7FEFF 		bl	uart3Print
 1485 1130 40F20003 		movw	r3, #:lower16:eepromConfig
 1486 1134 C0F20003 		movt	r3, #:upper16:eepromConfig
 1487 1138 D3F81832 		ldr	r3, [r3, #536]	@ float
 1488 113c 1846     		mov	r0, r3	@ float
 1489 113e FFF7FEFF 		bl	__aeabi_f2d
 1490 1142 0246     		mov	r2, r0
 1491 1144 0B46     		mov	r3, r1
 1492 1146 CDE90023 		strd	r2, [sp]
 1493 114a 40F20000 		movw	r0, #:lower16:numberString
 1494 114e C0F20000 		movt	r0, #:upper16:numberString
 1495 1152 4FF01001 		mov	r1, #16
 1496 1156 40F20002 		movw	r2, #:lower16:.LC2
 1497 115a C0F20002 		movt	r2, #:upper16:.LC2
 1498 115e FFF7FEFF 		bl	snprintf
 1499 1162 40F20000 		movw	r0, #:lower16:numberString
 1500 1166 C0F20000 		movt	r0, #:upper16:numberString
 1501 116a FFF7FEFF 		bl	uart3Print
 1502 116e 40F20003 		movw	r3, #:lower16:eepromConfig
 1503 1172 C0F20003 		movt	r3, #:upper16:eepromConfig
 1504 1176 93F82832 		ldrb	r3, [r3, #552]	@ zero_extendqisi2
 1505 117a 002B     		cmp	r3, #0
 1506 117c 06D0     		beq	.L61
 1507 117e 40F20000 		movw	r0, #:lower16:.LC3
 1508 1182 C0F20000 		movt	r0, #:upper16:.LC3
 1509 1186 FFF7FEFF 		bl	uart3Print
 1510 118a 05E0     		b	.L62
 1511              	.L61:
 1512 118c 40F20000 		movw	r0, #:lower16:.LC4
 1513 1190 C0F20000 		movt	r0, #:upper16:.LC4
 1514 1194 FFF7FEFF 		bl	uart3Print
 1515              	.L62:
 1516 1198 40F20000 		movw	r0, #:lower16:.LC14
 1517 119c C0F20000 		movt	r0, #:upper16:.LC14
 1518 11a0 FFF7FEFF 		bl	uart3Print
 1519 11a4 40F20003 		movw	r3, #:lower16:eepromConfig
 1520 11a8 C0F20003 		movt	r3, #:upper16:eepromConfig
 1521 11ac D3F82C32 		ldr	r3, [r3, #556]	@ float
 1522 11b0 1846     		mov	r0, r3	@ float
 1523 11b2 FFF7FEFF 		bl	__aeabi_f2d
 1524 11b6 0246     		mov	r2, r0
 1525 11b8 0B46     		mov	r3, r1
 1526 11ba CDE90023 		strd	r2, [sp]
 1527 11be 40F20000 		movw	r0, #:lower16:numberString
 1528 11c2 C0F20000 		movt	r0, #:upper16:numberString
 1529 11c6 4FF01001 		mov	r1, #16
 1530 11ca 40F20002 		movw	r2, #:lower16:.LC2
 1531 11ce C0F20002 		movt	r2, #:upper16:.LC2
 1532 11d2 FFF7FEFF 		bl	snprintf
 1533 11d6 40F20000 		movw	r0, #:lower16:numberString
 1534 11da C0F20000 		movt	r0, #:upper16:numberString
 1535 11de FFF7FEFF 		bl	uart3Print
 1536 11e2 40F20003 		movw	r3, #:lower16:eepromConfig
 1537 11e6 C0F20003 		movt	r3, #:upper16:eepromConfig
 1538 11ea D3F83032 		ldr	r3, [r3, #560]	@ float
 1539 11ee 1846     		mov	r0, r3	@ float
 1540 11f0 FFF7FEFF 		bl	__aeabi_f2d
 1541 11f4 0246     		mov	r2, r0
 1542 11f6 0B46     		mov	r3, r1
 1543 11f8 CDE90023 		strd	r2, [sp]
 1544 11fc 40F20000 		movw	r0, #:lower16:numberString
 1545 1200 C0F20000 		movt	r0, #:upper16:numberString
 1546 1204 4FF01001 		mov	r1, #16
 1547 1208 40F20002 		movw	r2, #:lower16:.LC2
 1548 120c C0F20002 		movt	r2, #:upper16:.LC2
 1549 1210 FFF7FEFF 		bl	snprintf
 1550 1214 40F20000 		movw	r0, #:lower16:numberString
 1551 1218 C0F20000 		movt	r0, #:upper16:numberString
 1552 121c FFF7FEFF 		bl	uart3Print
 1553 1220 40F20003 		movw	r3, #:lower16:eepromConfig
 1554 1224 C0F20003 		movt	r3, #:upper16:eepromConfig
 1555 1228 D3F83432 		ldr	r3, [r3, #564]	@ float
 1556 122c 1846     		mov	r0, r3	@ float
 1557 122e FFF7FEFF 		bl	__aeabi_f2d
 1558 1232 0246     		mov	r2, r0
 1559 1234 0B46     		mov	r3, r1
 1560 1236 CDE90023 		strd	r2, [sp]
 1561 123a 40F20000 		movw	r0, #:lower16:numberString
 1562 123e C0F20000 		movt	r0, #:upper16:numberString
 1563 1242 4FF01001 		mov	r1, #16
 1564 1246 40F20002 		movw	r2, #:lower16:.LC2
 1565 124a C0F20002 		movt	r2, #:upper16:.LC2
 1566 124e FFF7FEFF 		bl	snprintf
 1567 1252 40F20000 		movw	r0, #:lower16:numberString
 1568 1256 C0F20000 		movt	r0, #:upper16:numberString
 1569 125a FFF7FEFF 		bl	uart3Print
 1570 125e 40F20003 		movw	r3, #:lower16:eepromConfig
 1571 1262 C0F20003 		movt	r3, #:upper16:eepromConfig
 1572 1266 D3F83832 		ldr	r3, [r3, #568]	@ float
 1573 126a 1846     		mov	r0, r3	@ float
 1574 126c FFF7FEFF 		bl	__aeabi_f2d
 1575 1270 0246     		mov	r2, r0
 1576 1272 0B46     		mov	r3, r1
 1577 1274 CDE90023 		strd	r2, [sp]
 1578 1278 40F20000 		movw	r0, #:lower16:numberString
 1579 127c C0F20000 		movt	r0, #:upper16:numberString
 1580 1280 4FF01001 		mov	r1, #16
 1581 1284 40F20002 		movw	r2, #:lower16:.LC2
 1582 1288 C0F20002 		movt	r2, #:upper16:.LC2
 1583 128c FFF7FEFF 		bl	snprintf
 1584 1290 40F20000 		movw	r0, #:lower16:numberString
 1585 1294 C0F20000 		movt	r0, #:upper16:numberString
 1586 1298 FFF7FEFF 		bl	uart3Print
 1587 129c 40F20003 		movw	r3, #:lower16:eepromConfig
 1588 12a0 C0F20003 		movt	r3, #:upper16:eepromConfig
 1589 12a4 D3F84032 		ldr	r3, [r3, #576]	@ float
 1590 12a8 1846     		mov	r0, r3	@ float
 1591 12aa FFF7FEFF 		bl	__aeabi_f2d
 1592 12ae 0246     		mov	r2, r0
 1593 12b0 0B46     		mov	r3, r1
 1594 12b2 CDE90023 		strd	r2, [sp]
 1595 12b6 40F20000 		movw	r0, #:lower16:numberString
 1596 12ba C0F20000 		movt	r0, #:upper16:numberString
 1597 12be 4FF01001 		mov	r1, #16
 1598 12c2 40F20002 		movw	r2, #:lower16:.LC2
 1599 12c6 C0F20002 		movt	r2, #:upper16:.LC2
 1600 12ca FFF7FEFF 		bl	snprintf
 1601 12ce 40F20000 		movw	r0, #:lower16:numberString
 1602 12d2 C0F20000 		movt	r0, #:upper16:numberString
 1603 12d6 FFF7FEFF 		bl	uart3Print
 1604 12da 40F20003 		movw	r3, #:lower16:eepromConfig
 1605 12de C0F20003 		movt	r3, #:upper16:eepromConfig
 1606 12e2 93F85032 		ldrb	r3, [r3, #592]	@ zero_extendqisi2
 1607 12e6 002B     		cmp	r3, #0
 1608 12e8 06D0     		beq	.L63
 1609 12ea 40F20000 		movw	r0, #:lower16:.LC3
 1610 12ee C0F20000 		movt	r0, #:upper16:.LC3
 1611 12f2 FFF7FEFF 		bl	uart3Print
 1612 12f6 05E0     		b	.L64
 1613              	.L63:
 1614 12f8 40F20000 		movw	r0, #:lower16:.LC4
 1615 12fc C0F20000 		movt	r0, #:upper16:.LC4
 1616 1300 FFF7FEFF 		bl	uart3Print
 1617              	.L64:
 1618 1304 40F20000 		movw	r0, #:lower16:.LC15
 1619 1308 C0F20000 		movt	r0, #:upper16:.LC15
 1620 130c FFF7FEFF 		bl	uart3Print
 1621 1310 40F20003 		movw	r3, #:lower16:eepromConfig
 1622 1314 C0F20003 		movt	r3, #:upper16:eepromConfig
 1623 1318 D3F85432 		ldr	r3, [r3, #596]	@ float
 1624 131c 1846     		mov	r0, r3	@ float
 1625 131e FFF7FEFF 		bl	__aeabi_f2d
 1626 1322 0246     		mov	r2, r0
 1627 1324 0B46     		mov	r3, r1
 1628 1326 CDE90023 		strd	r2, [sp]
 1629 132a 40F20000 		movw	r0, #:lower16:numberString
 1630 132e C0F20000 		movt	r0, #:upper16:numberString
 1631 1332 4FF01001 		mov	r1, #16
 1632 1336 40F20002 		movw	r2, #:lower16:.LC2
 1633 133a C0F20002 		movt	r2, #:upper16:.LC2
 1634 133e FFF7FEFF 		bl	snprintf
 1635 1342 40F20000 		movw	r0, #:lower16:numberString
 1636 1346 C0F20000 		movt	r0, #:upper16:numberString
 1637 134a FFF7FEFF 		bl	uart3Print
 1638 134e 40F20003 		movw	r3, #:lower16:eepromConfig
 1639 1352 C0F20003 		movt	r3, #:upper16:eepromConfig
 1640 1356 D3F85832 		ldr	r3, [r3, #600]	@ float
 1641 135a 1846     		mov	r0, r3	@ float
 1642 135c FFF7FEFF 		bl	__aeabi_f2d
 1643 1360 0246     		mov	r2, r0
 1644 1362 0B46     		mov	r3, r1
 1645 1364 CDE90023 		strd	r2, [sp]
 1646 1368 40F20000 		movw	r0, #:lower16:numberString
 1647 136c C0F20000 		movt	r0, #:upper16:numberString
 1648 1370 4FF01001 		mov	r1, #16
 1649 1374 40F20002 		movw	r2, #:lower16:.LC2
 1650 1378 C0F20002 		movt	r2, #:upper16:.LC2
 1651 137c FFF7FEFF 		bl	snprintf
 1652 1380 40F20000 		movw	r0, #:lower16:numberString
 1653 1384 C0F20000 		movt	r0, #:upper16:numberString
 1654 1388 FFF7FEFF 		bl	uart3Print
 1655 138c 40F20003 		movw	r3, #:lower16:eepromConfig
 1656 1390 C0F20003 		movt	r3, #:upper16:eepromConfig
 1657 1394 D3F85C32 		ldr	r3, [r3, #604]	@ float
 1658 1398 1846     		mov	r0, r3	@ float
 1659 139a FFF7FEFF 		bl	__aeabi_f2d
 1660 139e 0246     		mov	r2, r0
 1661 13a0 0B46     		mov	r3, r1
 1662 13a2 CDE90023 		strd	r2, [sp]
 1663 13a6 40F20000 		movw	r0, #:lower16:numberString
 1664 13aa C0F20000 		movt	r0, #:upper16:numberString
 1665 13ae 4FF01001 		mov	r1, #16
 1666 13b2 40F20002 		movw	r2, #:lower16:.LC2
 1667 13b6 C0F20002 		movt	r2, #:upper16:.LC2
 1668 13ba FFF7FEFF 		bl	snprintf
 1669 13be 40F20000 		movw	r0, #:lower16:numberString
 1670 13c2 C0F20000 		movt	r0, #:upper16:numberString
 1671 13c6 FFF7FEFF 		bl	uart3Print
 1672 13ca 40F20003 		movw	r3, #:lower16:eepromConfig
 1673 13ce C0F20003 		movt	r3, #:upper16:eepromConfig
 1674 13d2 D3F86032 		ldr	r3, [r3, #608]	@ float
 1675 13d6 1846     		mov	r0, r3	@ float
 1676 13d8 FFF7FEFF 		bl	__aeabi_f2d
 1677 13dc 0246     		mov	r2, r0
 1678 13de 0B46     		mov	r3, r1
 1679 13e0 CDE90023 		strd	r2, [sp]
 1680 13e4 40F20000 		movw	r0, #:lower16:numberString
 1681 13e8 C0F20000 		movt	r0, #:upper16:numberString
 1682 13ec 4FF01001 		mov	r1, #16
 1683 13f0 40F20002 		movw	r2, #:lower16:.LC2
 1684 13f4 C0F20002 		movt	r2, #:upper16:.LC2
 1685 13f8 FFF7FEFF 		bl	snprintf
 1686 13fc 40F20000 		movw	r0, #:lower16:numberString
 1687 1400 C0F20000 		movt	r0, #:upper16:numberString
 1688 1404 FFF7FEFF 		bl	uart3Print
 1689 1408 40F20003 		movw	r3, #:lower16:eepromConfig
 1690 140c C0F20003 		movt	r3, #:upper16:eepromConfig
 1691 1410 D3F86832 		ldr	r3, [r3, #616]	@ float
 1692 1414 1846     		mov	r0, r3	@ float
 1693 1416 FFF7FEFF 		bl	__aeabi_f2d
 1694 141a 0246     		mov	r2, r0
 1695 141c 0B46     		mov	r3, r1
 1696 141e CDE90023 		strd	r2, [sp]
 1697 1422 40F20000 		movw	r0, #:lower16:numberString
 1698 1426 C0F20000 		movt	r0, #:upper16:numberString
 1699 142a 4FF01001 		mov	r1, #16
 1700 142e 40F20002 		movw	r2, #:lower16:.LC2
 1701 1432 C0F20002 		movt	r2, #:upper16:.LC2
 1702 1436 FFF7FEFF 		bl	snprintf
 1703 143a 40F20000 		movw	r0, #:lower16:numberString
 1704 143e C0F20000 		movt	r0, #:upper16:numberString
 1705 1442 FFF7FEFF 		bl	uart3Print
 1706 1446 40F20003 		movw	r3, #:lower16:eepromConfig
 1707 144a C0F20003 		movt	r3, #:upper16:eepromConfig
 1708 144e 93F87832 		ldrb	r3, [r3, #632]	@ zero_extendqisi2
 1709 1452 002B     		cmp	r3, #0
 1710 1454 06D0     		beq	.L65
 1711 1456 40F20000 		movw	r0, #:lower16:.LC3
 1712 145a C0F20000 		movt	r0, #:upper16:.LC3
 1713 145e FFF7FEFF 		bl	uart3Print
 1714 1462 05E0     		b	.L66
 1715              	.L65:
 1716 1464 40F20000 		movw	r0, #:lower16:.LC4
 1717 1468 C0F20000 		movt	r0, #:upper16:.LC4
 1718 146c FFF7FEFF 		bl	uart3Print
 1719              	.L66:
 1720 1470 40F20003 		movw	r3, #:lower16:rfQueryType
 1721 1474 C0F20003 		movt	r3, #:upper16:rfQueryType
 1722 1478 4FF07802 		mov	r2, #120
 1723 147c 1A70     		strb	r2, [r3, #0]
 1724 147e 40F20003 		movw	r3, #:lower16:validRFCommand
 1725 1482 C0F20003 		movt	r3, #:upper16:validRFCommand
 1726 1486 4FF00002 		mov	r2, #0
 1727 148a 1A70     		strb	r2, [r3, #0]
 1728 148c 4CE2     		b	.L10
 1729              	.L14:
 1730 148e FFF7FEFF 		bl	highSpeedTelemDisable
 1731 1492 40F20003 		movw	r3, #:lower16:highSpeedTelem1Enabled
 1732 1496 C0F20003 		movt	r3, #:upper16:highSpeedTelem1Enabled
 1733 149a 4FF00102 		mov	r2, #1
 1734 149e 1A70     		strb	r2, [r3, #0]
 1735 14a0 40F20003 		movw	r3, #:lower16:rfQueryType
 1736 14a4 C0F20003 		movt	r3, #:upper16:rfQueryType
 1737 14a8 4FF07802 		mov	r2, #120
 1738 14ac 1A70     		strb	r2, [r3, #0]
 1739 14ae 3BE2     		b	.L10
 1740              	.L15:
 1741 14b0 FFF7FEFF 		bl	highSpeedTelemDisable
 1742 14b4 40F20003 		movw	r3, #:lower16:highSpeedTelem2Enabled
 1743 14b8 C0F20003 		movt	r3, #:upper16:highSpeedTelem2Enabled
 1744 14bc 4FF00102 		mov	r2, #1
 1745 14c0 1A70     		strb	r2, [r3, #0]
 1746 14c2 40F20003 		movw	r3, #:lower16:rfQueryType
 1747 14c6 C0F20003 		movt	r3, #:upper16:rfQueryType
 1748 14ca 4FF07802 		mov	r2, #120
 1749 14ce 1A70     		strb	r2, [r3, #0]
 1750 14d0 2AE2     		b	.L10
 1751              	.L16:
 1752 14d2 FFF7FEFF 		bl	highSpeedTelemDisable
 1753 14d6 40F20003 		movw	r3, #:lower16:highSpeedTelem3Enabled
 1754 14da C0F20003 		movt	r3, #:upper16:highSpeedTelem3Enabled
 1755 14de 4FF00102 		mov	r2, #1
 1756 14e2 1A70     		strb	r2, [r3, #0]
 1757 14e4 40F20003 		movw	r3, #:lower16:rfQueryType
 1758 14e8 C0F20003 		movt	r3, #:upper16:rfQueryType
 1759 14ec 4FF07802 		mov	r2, #120
 1760 14f0 1A70     		strb	r2, [r3, #0]
 1761 14f2 19E2     		b	.L10
 1762              	.L17:
 1763 14f4 FFF7FEFF 		bl	highSpeedTelemDisable
 1764 14f8 40F20003 		movw	r3, #:lower16:highSpeedTelem4Enabled
 1765 14fc C0F20003 		movt	r3, #:upper16:highSpeedTelem4Enabled
 1766 1500 4FF00102 		mov	r2, #1
 1767 1504 1A70     		strb	r2, [r3, #0]
 1768 1506 40F20003 		movw	r3, #:lower16:rfQueryType
 1769 150a C0F20003 		movt	r3, #:upper16:rfQueryType
 1770 150e 4FF07802 		mov	r2, #120
 1771 1512 1A70     		strb	r2, [r3, #0]
 1772 1514 08E2     		b	.L10
 1773              	.L18:
 1774 1516 FFF7FEFF 		bl	highSpeedTelemDisable
 1775 151a 40F20003 		movw	r3, #:lower16:highSpeedTelem5Enabled
 1776 151e C0F20003 		movt	r3, #:upper16:highSpeedTelem5Enabled
 1777 1522 4FF00102 		mov	r2, #1
 1778 1526 1A70     		strb	r2, [r3, #0]
 1779 1528 40F20003 		movw	r3, #:lower16:rfQueryType
 1780 152c C0F20003 		movt	r3, #:upper16:rfQueryType
 1781 1530 4FF07802 		mov	r2, #120
 1782 1534 1A70     		strb	r2, [r3, #0]
 1783 1536 F7E1     		b	.L10
 1784              	.L19:
 1785 1538 FFF7FEFF 		bl	highSpeedTelemDisable
 1786 153c 40F20003 		movw	r3, #:lower16:highSpeedTelem6Enabled
 1787 1540 C0F20003 		movt	r3, #:upper16:highSpeedTelem6Enabled
 1788 1544 4FF00102 		mov	r2, #1
 1789 1548 1A70     		strb	r2, [r3, #0]
 1790 154a 40F20003 		movw	r3, #:lower16:rfQueryType
 1791 154e C0F20003 		movt	r3, #:upper16:rfQueryType
 1792 1552 4FF07802 		mov	r2, #120
 1793 1556 1A70     		strb	r2, [r3, #0]
 1794 1558 E6E1     		b	.L10
 1795              	.L20:
 1796 155a FFF7FEFF 		bl	highSpeedTelemDisable
 1797 155e 40F20003 		movw	r3, #:lower16:highSpeedTelem7Enabled
 1798 1562 C0F20003 		movt	r3, #:upper16:highSpeedTelem7Enabled
 1799 1566 4FF00102 		mov	r2, #1
 1800 156a 1A70     		strb	r2, [r3, #0]
 1801 156c 40F20003 		movw	r3, #:lower16:rfQueryType
 1802 1570 C0F20003 		movt	r3, #:upper16:rfQueryType
 1803 1574 4FF07802 		mov	r2, #120
 1804 1578 1A70     		strb	r2, [r3, #0]
 1805 157a D5E1     		b	.L10
 1806              	.L21:
 1807 157c FFF7FEFF 		bl	highSpeedTelemDisable
 1808 1580 40F20003 		movw	r3, #:lower16:highSpeedTelem8Enabled
 1809 1584 C0F20003 		movt	r3, #:upper16:highSpeedTelem8Enabled
 1810 1588 4FF00102 		mov	r2, #1
 1811 158c 1A70     		strb	r2, [r3, #0]
 1812 158e 40F20003 		movw	r3, #:lower16:rfQueryType
 1813 1592 C0F20003 		movt	r3, #:upper16:rfQueryType
 1814 1596 4FF07802 		mov	r2, #120
 1815 159a 1A70     		strb	r2, [r3, #0]
 1816 159c C4E1     		b	.L10
 1817              	.L22:
 1818 159e FFF7FEFF 		bl	highSpeedTelemDisable
 1819 15a2 40F20003 		movw	r3, #:lower16:highSpeedTelem9Enabled
 1820 15a6 C0F20003 		movt	r3, #:upper16:highSpeedTelem9Enabled
 1821 15aa 4FF00102 		mov	r2, #1
 1822 15ae 1A70     		strb	r2, [r3, #0]
 1823 15b0 40F20003 		movw	r3, #:lower16:rfQueryType
 1824 15b4 C0F20003 		movt	r3, #:upper16:rfQueryType
 1825 15b8 4FF07802 		mov	r2, #120
 1826 15bc 1A70     		strb	r2, [r3, #0]
 1827 15be B3E1     		b	.L10
 1828              	.L13:
 1829 15c0 FFF7FEFF 		bl	highSpeedTelemDisable
 1830 15c4 40F20003 		movw	r3, #:lower16:rfQueryType
 1831 15c8 C0F20003 		movt	r3, #:upper16:rfQueryType
 1832 15cc 4FF07802 		mov	r2, #120
 1833 15d0 1A70     		strb	r2, [r3, #0]
 1834 15d2 A9E1     		b	.L10
 1835              	.L24:
 1836 15d4 4FF00000 		mov	r0, #0
 1837 15d8 FFF7FEFF 		bl	readRFPID
 1838 15dc 40F20000 		movw	r0, #:lower16:.LC16
 1839 15e0 C0F20000 		movt	r0, #:upper16:.LC16
 1840 15e4 FFF7FEFF 		bl	uart3Print
 1841 15e8 40F20003 		movw	r3, #:lower16:rfQueryType
 1842 15ec C0F20003 		movt	r3, #:upper16:rfQueryType
 1843 15f0 4FF06102 		mov	r2, #97
 1844 15f4 1A70     		strb	r2, [r3, #0]
 1845 15f6 40F20003 		movw	r3, #:lower16:validRFCommand
 1846 15fa C0F20003 		movt	r3, #:upper16:validRFCommand
 1847 15fe 4FF00102 		mov	r2, #1
 1848 1602 1A70     		strb	r2, [r3, #0]
 1849 1604 90E1     		b	.L10
 1850              	.L25:
 1851 1606 4FF00100 		mov	r0, #1
 1852 160a FFF7FEFF 		bl	readRFPID
 1853 160e 40F20000 		movw	r0, #:lower16:.LC17
 1854 1612 C0F20000 		movt	r0, #:upper16:.LC17
 1855 1616 FFF7FEFF 		bl	uart3Print
 1856 161a 40F20003 		movw	r3, #:lower16:rfQueryType
 1857 161e C0F20003 		movt	r3, #:upper16:rfQueryType
 1858 1622 4FF06102 		mov	r2, #97
 1859 1626 1A70     		strb	r2, [r3, #0]
 1860 1628 40F20003 		movw	r3, #:lower16:validRFCommand
 1861 162c C0F20003 		movt	r3, #:upper16:validRFCommand
 1862 1630 4FF00102 		mov	r2, #1
 1863 1634 1A70     		strb	r2, [r3, #0]
 1864 1636 77E1     		b	.L10
 1865              	.L26:
 1866 1638 4FF00200 		mov	r0, #2
 1867 163c FFF7FEFF 		bl	readRFPID
 1868 1640 40F20000 		movw	r0, #:lower16:.LC18
 1869 1644 C0F20000 		movt	r0, #:upper16:.LC18
 1870 1648 FFF7FEFF 		bl	uart3Print
 1871 164c 40F20003 		movw	r3, #:lower16:rfQueryType
 1872 1650 C0F20003 		movt	r3, #:upper16:rfQueryType
 1873 1654 4FF06102 		mov	r2, #97
 1874 1658 1A70     		strb	r2, [r3, #0]
 1875 165a 40F20003 		movw	r3, #:lower16:validRFCommand
 1876 165e C0F20003 		movt	r3, #:upper16:validRFCommand
 1877 1662 4FF00102 		mov	r2, #1
 1878 1666 1A70     		strb	r2, [r3, #0]
 1879 1668 5EE1     		b	.L10
 1880              	.L27:
 1881 166a 4FF00300 		mov	r0, #3
 1882 166e FFF7FEFF 		bl	readRFPID
 1883 1672 40F20000 		movw	r0, #:lower16:.LC19
 1884 1676 C0F20000 		movt	r0, #:upper16:.LC19
 1885 167a FFF7FEFF 		bl	uart3Print
 1886 167e 40F20003 		movw	r3, #:lower16:rfQueryType
 1887 1682 C0F20003 		movt	r3, #:upper16:rfQueryType
 1888 1686 4FF06202 		mov	r2, #98
 1889 168a 1A70     		strb	r2, [r3, #0]
 1890 168c 40F20003 		movw	r3, #:lower16:validRFCommand
 1891 1690 C0F20003 		movt	r3, #:upper16:validRFCommand
 1892 1694 4FF00102 		mov	r2, #1
 1893 1698 1A70     		strb	r2, [r3, #0]
 1894 169a 45E1     		b	.L10
 1895              	.L28:
 1896 169c 4FF00400 		mov	r0, #4
 1897 16a0 FFF7FEFF 		bl	readRFPID
 1898 16a4 40F20000 		movw	r0, #:lower16:.LC20
 1899 16a8 C0F20000 		movt	r0, #:upper16:.LC20
 1900 16ac FFF7FEFF 		bl	uart3Print
 1901 16b0 40F20003 		movw	r3, #:lower16:rfQueryType
 1902 16b4 C0F20003 		movt	r3, #:upper16:rfQueryType
 1903 16b8 4FF06202 		mov	r2, #98
 1904 16bc 1A70     		strb	r2, [r3, #0]
 1905 16be 40F20003 		movw	r3, #:lower16:validRFCommand
 1906 16c2 C0F20003 		movt	r3, #:upper16:validRFCommand
 1907 16c6 4FF00102 		mov	r2, #1
 1908 16ca 1A70     		strb	r2, [r3, #0]
 1909 16cc 2CE1     		b	.L10
 1910              	.L29:
 1911 16ce 4FF00500 		mov	r0, #5
 1912 16d2 FFF7FEFF 		bl	readRFPID
 1913 16d6 40F20000 		movw	r0, #:lower16:.LC21
 1914 16da C0F20000 		movt	r0, #:upper16:.LC21
 1915 16de FFF7FEFF 		bl	uart3Print
 1916 16e2 40F20003 		movw	r3, #:lower16:rfQueryType
 1917 16e6 C0F20003 		movt	r3, #:upper16:rfQueryType
 1918 16ea 4FF06202 		mov	r2, #98
 1919 16ee 1A70     		strb	r2, [r3, #0]
 1920 16f0 40F20003 		movw	r3, #:lower16:validRFCommand
 1921 16f4 C0F20003 		movt	r3, #:upper16:validRFCommand
 1922 16f8 4FF00102 		mov	r2, #1
 1923 16fc 1A70     		strb	r2, [r3, #0]
 1924 16fe 13E1     		b	.L10
 1925              	.L30:
 1926 1700 4FF00600 		mov	r0, #6
 1927 1704 FFF7FEFF 		bl	readRFPID
 1928 1708 40F20000 		movw	r0, #:lower16:.LC22
 1929 170c C0F20000 		movt	r0, #:upper16:.LC22
 1930 1710 FFF7FEFF 		bl	uart3Print
 1931 1714 40F20003 		movw	r3, #:lower16:rfQueryType
 1932 1718 C0F20003 		movt	r3, #:upper16:rfQueryType
 1933 171c 4FF06302 		mov	r2, #99
 1934 1720 1A70     		strb	r2, [r3, #0]
 1935 1722 40F20003 		movw	r3, #:lower16:validRFCommand
 1936 1726 C0F20003 		movt	r3, #:upper16:validRFCommand
 1937 172a 4FF00102 		mov	r2, #1
 1938 172e 1A70     		strb	r2, [r3, #0]
 1939 1730 FAE0     		b	.L10
 1940              	.L31:
 1941 1732 4FF00700 		mov	r0, #7
 1942 1736 FFF7FEFF 		bl	readRFPID
 1943 173a 40F20000 		movw	r0, #:lower16:.LC23
 1944 173e C0F20000 		movt	r0, #:upper16:.LC23
 1945 1742 FFF7FEFF 		bl	uart3Print
 1946 1746 40F20003 		movw	r3, #:lower16:rfQueryType
 1947 174a C0F20003 		movt	r3, #:upper16:rfQueryType
 1948 174e 4FF06302 		mov	r2, #99
 1949 1752 1A70     		strb	r2, [r3, #0]
 1950 1754 40F20003 		movw	r3, #:lower16:validRFCommand
 1951 1758 C0F20003 		movt	r3, #:upper16:validRFCommand
 1952 175c 4FF00102 		mov	r2, #1
 1953 1760 1A70     		strb	r2, [r3, #0]
 1954 1762 E1E0     		b	.L10
 1955              	.L32:
 1956 1764 4FF00800 		mov	r0, #8
 1957 1768 FFF7FEFF 		bl	readRFPID
 1958 176c 40F20000 		movw	r0, #:lower16:.LC24
 1959 1770 C0F20000 		movt	r0, #:upper16:.LC24
 1960 1774 FFF7FEFF 		bl	uart3Print
 1961 1778 40F20003 		movw	r3, #:lower16:rfQueryType
 1962 177c C0F20003 		movt	r3, #:upper16:rfQueryType
 1963 1780 4FF06302 		mov	r2, #99
 1964 1784 1A70     		strb	r2, [r3, #0]
 1965 1786 40F20003 		movw	r3, #:lower16:validRFCommand
 1966 178a C0F20003 		movt	r3, #:upper16:validRFCommand
 1967 178e 4FF00102 		mov	r2, #1
 1968 1792 1A70     		strb	r2, [r3, #0]
 1969 1794 C8E0     		b	.L10
 1970              	.L33:
 1971 1796 4FF00900 		mov	r0, #9
 1972 179a FFF7FEFF 		bl	readRFPID
 1973 179e 40F20000 		movw	r0, #:lower16:.LC25
 1974 17a2 C0F20000 		movt	r0, #:upper16:.LC25
 1975 17a6 FFF7FEFF 		bl	uart3Print
 1976 17aa 40F20003 		movw	r3, #:lower16:rfQueryType
 1977 17ae C0F20003 		movt	r3, #:upper16:rfQueryType
 1978 17b2 4FF06402 		mov	r2, #100
 1979 17b6 1A70     		strb	r2, [r3, #0]
 1980 17b8 40F20003 		movw	r3, #:lower16:validRFCommand
 1981 17bc C0F20003 		movt	r3, #:upper16:validRFCommand
 1982 17c0 4FF00102 		mov	r2, #1
 1983 17c4 1A70     		strb	r2, [r3, #0]
 1984 17c6 AFE0     		b	.L10
 1985              	.L34:
 1986 17c8 4FF00A00 		mov	r0, #10
 1987 17cc FFF7FEFF 		bl	readRFPID
 1988 17d0 40F20000 		movw	r0, #:lower16:.LC26
 1989 17d4 C0F20000 		movt	r0, #:upper16:.LC26
 1990 17d8 FFF7FEFF 		bl	uart3Print
 1991 17dc 40F20003 		movw	r3, #:lower16:rfQueryType
 1992 17e0 C0F20003 		movt	r3, #:upper16:rfQueryType
 1993 17e4 4FF06402 		mov	r2, #100
 1994 17e8 1A70     		strb	r2, [r3, #0]
 1995 17ea 40F20003 		movw	r3, #:lower16:validRFCommand
 1996 17ee C0F20003 		movt	r3, #:upper16:validRFCommand
 1997 17f2 4FF00102 		mov	r2, #1
 1998 17f6 1A70     		strb	r2, [r3, #0]
 1999 17f8 96E0     		b	.L10
 2000              	.L35:
 2001 17fa 4FF00B00 		mov	r0, #11
 2002 17fe FFF7FEFF 		bl	readRFPID
 2003 1802 40F20000 		movw	r0, #:lower16:.LC27
 2004 1806 C0F20000 		movt	r0, #:upper16:.LC27
 2005 180a FFF7FEFF 		bl	uart3Print
 2006 180e 40F20003 		movw	r3, #:lower16:rfQueryType
 2007 1812 C0F20003 		movt	r3, #:upper16:rfQueryType
 2008 1816 4FF06402 		mov	r2, #100
 2009 181a 1A70     		strb	r2, [r3, #0]
 2010 181c 40F20003 		movw	r3, #:lower16:validRFCommand
 2011 1820 C0F20003 		movt	r3, #:upper16:validRFCommand
 2012 1824 4FF00102 		mov	r2, #1
 2013 1828 1A70     		strb	r2, [r3, #0]
 2014 182a 7DE0     		b	.L10
 2015              	.L36:
 2016 182c 40F20000 		movw	r0, #:lower16:.LC28
 2017 1830 C0F20000 		movt	r0, #:upper16:.LC28
 2018 1834 FFF7FEFF 		bl	uart3Print
 2019 1838 FFF7FEFF 		bl	writeEEPROM
 2020 183c 40F20003 		movw	r3, #:lower16:rfQueryType
 2021 1840 C0F20003 		movt	r3, #:upper16:rfQueryType
 2022 1844 4FF07802 		mov	r2, #120
 2023 1848 1A70     		strb	r2, [r3, #0]
 2024 184a 6DE0     		b	.L10
 2025              	.L23:
 2026 184c 40F20000 		movw	r0, #:lower16:.LC0
 2027 1850 C0F20000 		movt	r0, #:upper16:.LC0
 2028 1854 FFF7FEFF 		bl	uart3Print
 2029 1858 40F20000 		movw	r0, #:lower16:.LC29
 2030 185c C0F20000 		movt	r0, #:upper16:.LC29
 2031 1860 FFF7FEFF 		bl	uart3Print
 2032 1864 40F20000 		movw	r0, #:lower16:.LC30
 2033 1868 C0F20000 		movt	r0, #:upper16:.LC30
 2034 186c FFF7FEFF 		bl	uart3Print
 2035 1870 40F20000 		movw	r0, #:lower16:.LC31
 2036 1874 C0F20000 		movt	r0, #:upper16:.LC31
 2037 1878 FFF7FEFF 		bl	uart3Print
 2038 187c 40F20000 		movw	r0, #:lower16:.LC32
 2039 1880 C0F20000 		movt	r0, #:upper16:.LC32
 2040 1884 FFF7FEFF 		bl	uart3Print
 2041 1888 40F20000 		movw	r0, #:lower16:.LC33
 2042 188c C0F20000 		movt	r0, #:upper16:.LC33
 2043 1890 FFF7FEFF 		bl	uart3Print
 2044 1894 40F20000 		movw	r0, #:lower16:.LC34
 2045 1898 C0F20000 		movt	r0, #:upper16:.LC34
 2046 189c FFF7FEFF 		bl	uart3Print
 2047 18a0 40F20000 		movw	r0, #:lower16:.LC35
 2048 18a4 C0F20000 		movt	r0, #:upper16:.LC35
 2049 18a8 FFF7FEFF 		bl	uart3Print
 2050 18ac 40F20000 		movw	r0, #:lower16:.LC36
 2051 18b0 C0F20000 		movt	r0, #:upper16:.LC36
 2052 18b4 FFF7FEFF 		bl	uart3Print
 2053 18b8 40F20000 		movw	r0, #:lower16:.LC37
 2054 18bc C0F20000 		movt	r0, #:upper16:.LC37
 2055 18c0 FFF7FEFF 		bl	uart3Print
 2056 18c4 40F20000 		movw	r0, #:lower16:.LC38
 2057 18c8 C0F20000 		movt	r0, #:upper16:.LC38
 2058 18cc FFF7FEFF 		bl	uart3Print
 2059 18d0 40F20000 		movw	r0, #:lower16:.LC39
 2060 18d4 C0F20000 		movt	r0, #:upper16:.LC39
 2061 18d8 FFF7FEFF 		bl	uart3Print
 2062 18dc 40F20000 		movw	r0, #:lower16:.LC40
 2063 18e0 C0F20000 		movt	r0, #:upper16:.LC40
 2064 18e4 FFF7FEFF 		bl	uart3Print
 2065 18e8 40F20000 		movw	r0, #:lower16:.LC41
 2066 18ec C0F20000 		movt	r0, #:upper16:.LC41
 2067 18f0 FFF7FEFF 		bl	uart3Print
 2068 18f4 40F20000 		movw	r0, #:lower16:.LC42
 2069 18f8 C0F20000 		movt	r0, #:upper16:.LC42
 2070 18fc FFF7FEFF 		bl	uart3Print
 2071 1900 40F20000 		movw	r0, #:lower16:.LC43
 2072 1904 C0F20000 		movt	r0, #:upper16:.LC43
 2073 1908 FFF7FEFF 		bl	uart3Print
 2074 190c 40F20000 		movw	r0, #:lower16:.LC0
 2075 1910 C0F20000 		movt	r0, #:upper16:.LC0
 2076 1914 FFF7FEFF 		bl	uart3Print
 2077 1918 40F20003 		movw	r3, #:lower16:rfQueryType
 2078 191c C0F20003 		movt	r3, #:upper16:rfQueryType
 2079 1920 4FF07802 		mov	r2, #120
 2080 1924 1A70     		strb	r2, [r3, #0]
 2081 1926 00BF     		nop
 2082              	.L10:
 2083 1928 03B0     		add	sp, sp, #12
 2084 192a 00BD     		pop	{pc}
 2086              		.ident	"GCC: (Sourcery CodeBench Lite 2012.03-56) 4.6.3"
DEFINED SYMBOLS
                            *ABS*:00000000 rfTelem.c
                            *COM*:00000001 mtk19ProcessDataState
                            *COM*:00000001 nmeaProcessDataState
                            *COM*:00000001 ubloxProcessDataState
C:\Users\JOHNIH~1\AppData\Local\Temp\ccBbJsad.s:23     .bss:00000000 rfBusy
C:\Users\JOHNIH~1\AppData\Local\Temp\ccBbJsad.s:24     .bss:00000000 $d
C:\Users\JOHNIH~1\AppData\Local\Temp\ccBbJsad.s:25     .bss:00000001 rfQueryType
C:\Users\JOHNIH~1\AppData\Local\Temp\ccBbJsad.s:27     .bss:00000002 validRFCommand
C:\Users\JOHNIH~1\AppData\Local\Temp\ccBbJsad.s:30     .text:00000000 $t
C:\Users\JOHNIH~1\AppData\Local\Temp\ccBbJsad.s:35     .text:00000000 readFloatRF
C:\Users\JOHNIH~1\AppData\Local\Temp\ccBbJsad.s:118    .text:000000d0 readRFPID
C:\Users\JOHNIH~1\AppData\Local\Temp\ccBbJsad.s:178    .text:00000158 $d
C:\Users\JOHNIH~1\AppData\Local\Temp\ccBbJsad.s:182    .rodata:00000000 $d
C:\Users\JOHNIH~1\AppData\Local\Temp\ccBbJsad.s:183    .rodata:00000000 .LC0
C:\Users\JOHNIH~1\AppData\Local\Temp\ccBbJsad.s:186    .rodata:00000004 .LC1
C:\Users\JOHNIH~1\AppData\Local\Temp\ccBbJsad.s:190    .rodata:00000018 .LC2
C:\Users\JOHNIH~1\AppData\Local\Temp\ccBbJsad.s:193    .rodata:00000020 .LC3
C:\Users\JOHNIH~1\AppData\Local\Temp\ccBbJsad.s:196    .rodata:00000028 .LC4
C:\Users\JOHNIH~1\AppData\Local\Temp\ccBbJsad.s:199    .rodata:00000030 .LC5
C:\Users\JOHNIH~1\AppData\Local\Temp\ccBbJsad.s:202    .rodata:00000044 .LC6
C:\Users\JOHNIH~1\AppData\Local\Temp\ccBbJsad.s:205    .rodata:00000058 .LC7
C:\Users\JOHNIH~1\AppData\Local\Temp\ccBbJsad.s:208    .rodata:00000070 .LC8
C:\Users\JOHNIH~1\AppData\Local\Temp\ccBbJsad.s:211    .rodata:00000088 .LC9
C:\Users\JOHNIH~1\AppData\Local\Temp\ccBbJsad.s:214    .rodata:000000a0 .LC10
C:\Users\JOHNIH~1\AppData\Local\Temp\ccBbJsad.s:217    .rodata:000000ac .LC11
C:\Users\JOHNIH~1\AppData\Local\Temp\ccBbJsad.s:220    .rodata:000000b8 .LC12
C:\Users\JOHNIH~1\AppData\Local\Temp\ccBbJsad.s:223    .rodata:000000c4 .LC13
C:\Users\JOHNIH~1\AppData\Local\Temp\ccBbJsad.s:226    .rodata:000000d0 .LC14
C:\Users\JOHNIH~1\AppData\Local\Temp\ccBbJsad.s:229    .rodata:000000dc .LC15
C:\Users\JOHNIH~1\AppData\Local\Temp\ccBbJsad.s:232    .rodata:000000e8 .LC16
C:\Users\JOHNIH~1\AppData\Local\Temp\ccBbJsad.s:235    .rodata:00000108 .LC17
C:\Users\JOHNIH~1\AppData\Local\Temp\ccBbJsad.s:238    .rodata:00000128 .LC18
C:\Users\JOHNIH~1\AppData\Local\Temp\ccBbJsad.s:241    .rodata:00000144 .LC19
C:\Users\JOHNIH~1\AppData\Local\Temp\ccBbJsad.s:244    .rodata:00000168 .LC20
C:\Users\JOHNIH~1\AppData\Local\Temp\ccBbJsad.s:247    .rodata:0000018c .LC21
C:\Users\JOHNIH~1\AppData\Local\Temp\ccBbJsad.s:250    .rodata:000001a8 .LC22
C:\Users\JOHNIH~1\AppData\Local\Temp\ccBbJsad.s:253    .rodata:000001c0 .LC23
C:\Users\JOHNIH~1\AppData\Local\Temp\ccBbJsad.s:256    .rodata:000001d8 .LC24
C:\Users\JOHNIH~1\AppData\Local\Temp\ccBbJsad.s:259    .rodata:000001f0 .LC25
C:\Users\JOHNIH~1\AppData\Local\Temp\ccBbJsad.s:262    .rodata:00000208 .LC26
C:\Users\JOHNIH~1\AppData\Local\Temp\ccBbJsad.s:265    .rodata:00000220 .LC27
C:\Users\JOHNIH~1\AppData\Local\Temp\ccBbJsad.s:268    .rodata:00000238 .LC28
C:\Users\JOHNIH~1\AppData\Local\Temp\ccBbJsad.s:271    .rodata:00000258 .LC29
C:\Users\JOHNIH~1\AppData\Local\Temp\ccBbJsad.s:276    .rodata:000002c4 .LC30
C:\Users\JOHNIH~1\AppData\Local\Temp\ccBbJsad.s:281    .rodata:00000330 .LC31
C:\Users\JOHNIH~1\AppData\Local\Temp\ccBbJsad.s:286    .rodata:0000039c .LC32
C:\Users\JOHNIH~1\AppData\Local\Temp\ccBbJsad.s:291    .rodata:00000408 .LC33
C:\Users\JOHNIH~1\AppData\Local\Temp\ccBbJsad.s:296    .rodata:00000474 .LC34
C:\Users\JOHNIH~1\AppData\Local\Temp\ccBbJsad.s:301    .rodata:000004e0 .LC35
C:\Users\JOHNIH~1\AppData\Local\Temp\ccBbJsad.s:306    .rodata:0000054c .LC36
C:\Users\JOHNIH~1\AppData\Local\Temp\ccBbJsad.s:311    .rodata:000005b8 .LC37
C:\Users\JOHNIH~1\AppData\Local\Temp\ccBbJsad.s:316    .rodata:00000624 .LC38
C:\Users\JOHNIH~1\AppData\Local\Temp\ccBbJsad.s:321    .rodata:00000690 .LC39
C:\Users\JOHNIH~1\AppData\Local\Temp\ccBbJsad.s:326    .rodata:000006fc .LC40
C:\Users\JOHNIH~1\AppData\Local\Temp\ccBbJsad.s:331    .rodata:00000768 .LC41
C:\Users\JOHNIH~1\AppData\Local\Temp\ccBbJsad.s:335    .rodata:000007b0 .LC42
C:\Users\JOHNIH~1\AppData\Local\Temp\ccBbJsad.s:338    .rodata:000007d4 .LC43
C:\Users\JOHNIH~1\AppData\Local\Temp\ccBbJsad.s:342    .text:00000160 $t
C:\Users\JOHNIH~1\AppData\Local\Temp\ccBbJsad.s:347    .text:00000160 rfCom
C:\Users\JOHNIH~1\AppData\Local\Temp\ccBbJsad.s:380    .text:000001ac $d
C:\Users\JOHNIH~1\AppData\Local\Temp\ccBbJsad.s:454    .text:000002d0 $t

UNDEFINED SYMBOLS
uart3Available
delay
uart3Read
stringToFloat
eepromConfig
__aeabi_f2d
uart3Print
numberString
snprintf
highSpeedTelemDisable
highSpeedTelem1Enabled
highSpeedTelem2Enabled
highSpeedTelem3Enabled
highSpeedTelem4Enabled
highSpeedTelem5Enabled
highSpeedTelem6Enabled
highSpeedTelem7Enabled
highSpeedTelem8Enabled
highSpeedTelem9Enabled
writeEEPROM
