   1              		.syntax unified
   2              		.cpu cortex-m4
   3              		.eabi_attribute 27, 3
   4              		.fpu fpv4-sp-d16
   5              		.eabi_attribute 20, 1
   6              		.eabi_attribute 21, 1
   7              		.eabi_attribute 23, 3
   8              		.eabi_attribute 24, 1
   9              		.eabi_attribute 25, 1
  10              		.eabi_attribute 26, 1
  11              		.eabi_attribute 30, 6
  12              		.eabi_attribute 34, 1
  13              		.eabi_attribute 18, 4
  14              		.thumb
  15              		.file	"rfTelem.c"
  16              		.global	rfBusy
  17              		.bss
  20              	rfBusy:
  21 0000 00       		.space	1
  22              	rfQueryType:
  23 0001 00       		.space	1
  24              		.text
  25              		.align	2
  26              		.global	readStringRF
  27              		.thumb
  28              		.thumb_func
  30              	readStringRF:
  31              		@ args = 0, pretend = 0, frame = 16
  32              		@ frame_needed = 0, uses_anonymous_args = 0
  33 0000 10B5     		push	{r4, lr}
  34 0002 84B0     		sub	sp, sp, #16
  35 0004 0190     		str	r0, [sp, #4]
  36 0006 0B46     		mov	r3, r1
  37 0008 8DF80330 		strb	r3, [sp, #3]
  38 000c 4FF00003 		mov	r3, #0
  39 0010 8DF80F30 		strb	r3, [sp, #15]
  40 0014 4FF00003 		mov	r3, #0
  41 0018 8DF80E30 		strb	r3, [sp, #14]
  42              	.L6:
  43 001c 9DF80F30 		ldrb	r3, [sp, #15]	@ zero_extendqisi2
  44 0020 019A     		ldr	r2, [sp, #4]
  45 0022 D418     		adds	r4, r2, r3
  46 0024 FFF7FEFF 		bl	uart3Read
  47 0028 0346     		mov	r3, r0
  48 002a DBB2     		uxtb	r3, r3
  49 002c 2370     		strb	r3, [r4, #0]
  50 002e 2378     		ldrb	r3, [r4, #0]	@ zero_extendqisi2
  51 0030 002B     		cmp	r3, #0
  52 0032 0AD1     		bne	.L2
  53 0034 4FF00A00 		mov	r0, #10
  54 0038 FFF7FEFF 		bl	delay
  55 003c 9DF80E30 		ldrb	r3, [sp, #14]
  56 0040 03F10103 		add	r3, r3, #1
  57 0044 8DF80E30 		strb	r3, [sp, #14]
  58 0048 09E0     		b	.L3
  59              	.L2:
  60 004a 4FF00003 		mov	r3, #0
  61 004e 8DF80E30 		strb	r3, [sp, #14]
  62 0052 9DF80F30 		ldrb	r3, [sp, #15]
  63 0056 03F10103 		add	r3, r3, #1
  64 005a 8DF80F30 		strb	r3, [sp, #15]
  65              	.L3:
  66 005e 9DF80F30 		ldrb	r3, [sp, #15]	@ zero_extendqisi2
  67 0062 002B     		cmp	r3, #0
  68 0064 09D0     		beq	.L4
  69 0066 9DF80F30 		ldrb	r3, [sp, #15]	@ zero_extendqisi2
  70 006a 03F1FF33 		add	r3, r3, #-1
  71 006e 019A     		ldr	r2, [sp, #4]
  72 0070 D318     		adds	r3, r2, r3
  73 0072 1B78     		ldrb	r3, [r3, #0]	@ zero_extendqisi2
  74 0074 5BB2     		sxtb	r3, r3
  75 0076 3B2B     		cmp	r3, #59
  76 0078 09D0     		beq	.L5
  77              	.L4:
  78 007a 9DF80E30 		ldrb	r3, [sp, #14]	@ zero_extendqisi2
  79 007e 042B     		cmp	r3, #4
  80 0080 05D8     		bhi	.L5
  81 0082 9DF80F20 		ldrb	r2, [sp, #15]	@ zero_extendqisi2
  82 0086 9DF80330 		ldrb	r3, [sp, #3]	@ zero_extendqisi2
  83 008a 9A42     		cmp	r2, r3
  84 008c C6D3     		bcc	.L6
  85              	.L5:
  86 008e 9DF80F30 		ldrb	r3, [sp, #15]	@ zero_extendqisi2
  87 0092 019A     		ldr	r2, [sp, #4]
  88 0094 D318     		adds	r3, r2, r3
  89 0096 4FF00002 		mov	r2, #0
  90 009a 1A70     		strb	r2, [r3, #0]
  91 009c 019B     		ldr	r3, [sp, #4]
  92 009e 1846     		mov	r0, r3
  93 00a0 04B0     		add	sp, sp, #16
  94 00a2 10BD     		pop	{r4, pc}
  96              		.align	2
  97              		.global	readFloatRF
  98              		.thumb
  99              		.thumb_func
 101              	readFloatRF:
 102              		@ args = 0, pretend = 0, frame = 16
 103              		@ frame_needed = 0, uses_anonymous_args = 0
 104 00a4 10B5     		push	{r4, lr}
 105 00a6 84B0     		sub	sp, sp, #16
 106 00a8 4FF00003 		mov	r3, #0
 107 00ac 8DF80F30 		strb	r3, [sp, #15]
 108 00b0 4FF00003 		mov	r3, #0
 109 00b4 8DF80E30 		strb	r3, [sp, #14]
 110 00b8 4FF00003 		mov	r3, #0
 111 00bc 0093     		str	r3, [sp, #0]
 112 00be 01AB     		add	r3, sp, #4
 113 00c0 4FF00002 		mov	r2, #0
 114 00c4 1A60     		str	r2, [r3, #0]
 115 00c6 03F10403 		add	r3, r3, #4
 116 00ca 4FF00002 		mov	r2, #0
 117 00ce 1A60     		str	r2, [r3, #0]
 118 00d0 03F10403 		add	r3, r3, #4
 119 00d4 4FF00002 		mov	r2, #0
 120 00d8 1A70     		strb	r2, [r3, #0]
 121 00da 03F10103 		add	r3, r3, #1
 122              	.L12:
 123 00de FFF7FEFF 		bl	uart3Available
 124 00e2 0346     		mov	r3, r0
 125 00e4 002B     		cmp	r3, #0
 126 00e6 0AD1     		bne	.L8
 127 00e8 4FF00A00 		mov	r0, #10
 128 00ec FFF7FEFF 		bl	delay
 129 00f0 9DF80E30 		ldrb	r3, [sp, #14]
 130 00f4 03F10103 		add	r3, r3, #1
 131 00f8 8DF80E30 		strb	r3, [sp, #14]
 132 00fc 13E0     		b	.L9
 133              	.L8:
 134 00fe 9DF80F40 		ldrb	r4, [sp, #15]	@ zero_extendqisi2
 135 0102 FFF7FEFF 		bl	uart3Read
 136 0106 0346     		mov	r3, r0
 137 0108 DAB2     		uxtb	r2, r3
 138 010a 04A9     		add	r1, sp, #16
 139 010c 0B19     		adds	r3, r1, r4
 140 010e 03F8102C 		strb	r2, [r3, #-16]
 141 0112 4FF00003 		mov	r3, #0
 142 0116 8DF80E30 		strb	r3, [sp, #14]
 143 011a 9DF80F30 		ldrb	r3, [sp, #15]
 144 011e 03F10103 		add	r3, r3, #1
 145 0122 8DF80F30 		strb	r3, [sp, #15]
 146              	.L9:
 147 0126 9DF80F30 		ldrb	r3, [sp, #15]	@ zero_extendqisi2
 148 012a 002B     		cmp	r3, #0
 149 012c 0AD0     		beq	.L10
 150 012e 9DF80F30 		ldrb	r3, [sp, #15]	@ zero_extendqisi2
 151 0132 03F1FF33 		add	r3, r3, #-1
 152 0136 04AA     		add	r2, sp, #16
 153 0138 D318     		adds	r3, r2, r3
 154 013a 13F8103C 		ldrb	r3, [r3, #-16]	@ zero_extendqisi2
 155 013e 5BB2     		sxtb	r3, r3
 156 0140 3B2B     		cmp	r3, #59
 157 0142 07D0     		beq	.L11
 158              	.L10:
 159 0144 9DF80E30 		ldrb	r3, [sp, #14]	@ zero_extendqisi2
 160 0148 042B     		cmp	r3, #4
 161 014a 03D8     		bhi	.L11
 162 014c 9DF80F30 		ldrb	r3, [sp, #15]	@ zero_extendqisi2
 163 0150 0B2B     		cmp	r3, #11
 164 0152 C4D9     		bls	.L12
 165              	.L11:
 166 0154 9DF80F30 		ldrb	r3, [sp, #15]	@ zero_extendqisi2
 167 0158 04A9     		add	r1, sp, #16
 168 015a CB18     		adds	r3, r1, r3
 169 015c 4FF00002 		mov	r2, #0
 170 0160 03F8102C 		strb	r2, [r3, #-16]
 171 0164 6B46     		mov	r3, sp
 172 0166 1846     		mov	r0, r3
 173 0168 FFF7FEFF 		bl	stringToFloat
 174 016c 0346     		mov	r3, r0	@ float
 175 016e 1846     		mov	r0, r3	@ float
 176 0170 04B0     		add	sp, sp, #16
 177 0172 10BD     		pop	{r4, pc}
 179              		.align	2
 180              		.global	readRFPID
 181              		.thumb
 182              		.thumb_func
 184              	readRFPID:
 185              		@ args = 0, pretend = 0, frame = 16
 186              		@ frame_needed = 0, uses_anonymous_args = 0
 187 0174 00B5     		push	{lr}
 188 0176 85B0     		sub	sp, sp, #20
 189 0178 0346     		mov	r3, r0
 190 017a 8DF80730 		strb	r3, [sp, #7]
 191 017e 9DF80720 		ldrb	r2, [sp, #7]	@ zero_extendqisi2
 192 0182 1346     		mov	r3, r2
 193 0184 4FEA8303 		lsl	r3, r3, #2
 194 0188 9B18     		adds	r3, r3, r2
 195 018a 4FEAC303 		lsl	r3, r3, #3
 196 018e 1A46     		mov	r2, r3
 197 0190 1A4B     		ldr	r3, .L14
 198 0192 D318     		adds	r3, r2, r3
 199 0194 0393     		str	r3, [sp, #12]
 200 0196 FFF7FEFF 		bl	readFloatRF
 201 019a 0246     		mov	r2, r0	@ float
 202 019c 039B     		ldr	r3, [sp, #12]
 203 019e 1A60     		str	r2, [r3, #0]	@ float
 204 01a0 FFF7FEFF 		bl	readFloatRF
 205 01a4 0246     		mov	r2, r0	@ float
 206 01a6 039B     		ldr	r3, [sp, #12]
 207 01a8 5A60     		str	r2, [r3, #4]	@ float
 208 01aa FFF7FEFF 		bl	readFloatRF
 209 01ae 0246     		mov	r2, r0	@ float
 210 01b0 039B     		ldr	r3, [sp, #12]
 211 01b2 9A60     		str	r2, [r3, #8]	@ float
 212 01b4 FFF7FEFF 		bl	readFloatRF
 213 01b8 0246     		mov	r2, r0	@ float
 214 01ba 039B     		ldr	r3, [sp, #12]
 215 01bc DA60     		str	r2, [r3, #12]	@ float
 216 01be FFF7FEFF 		bl	readFloatRF
 217 01c2 0246     		mov	r2, r0	@ float
 218 01c4 039B     		ldr	r3, [sp, #12]
 219 01c6 5A61     		str	r2, [r3, #20]	@ float
 220 01c8 039B     		ldr	r3, [sp, #12]
 221 01ca 0D4A     		ldr	r2, .L14+4	@ float
 222 01cc 1A61     		str	r2, [r3, #16]	@ float
 223 01ce 039B     		ldr	r3, [sp, #12]
 224 01d0 0B4A     		ldr	r2, .L14+4	@ float
 225 01d2 9A61     		str	r2, [r3, #24]	@ float
 226 01d4 039B     		ldr	r3, [sp, #12]
 227 01d6 0A4A     		ldr	r2, .L14+4	@ float
 228 01d8 DA61     		str	r2, [r3, #28]	@ float
 229 01da 039B     		ldr	r3, [sp, #12]
 230 01dc 084A     		ldr	r2, .L14+4	@ float
 231 01de 1A62     		str	r2, [r3, #32]	@ float
 232 01e0 FFF7FEFF 		bl	readFloatRF
 233 01e4 07EE900A 		fmsr	s15, r0
 234 01e8 FCEEE77A 		ftouizs	s15, s15
 235 01ec 17EE903A 		fmrs	r3, s15	@ int
 236 01f0 DAB2     		uxtb	r2, r3
 237 01f2 039B     		ldr	r3, [sp, #12]
 238 01f4 83F82420 		strb	r2, [r3, #36]
 239 01f8 05B0     		add	sp, sp, #20
 240 01fa 00BD     		pop	{pc}
 241              	.L15:
 242              		.align	2
 243              	.L14:
 244 01fc 9C000000 		.word	eepromConfig+156
 245 0200 00000000 		.word	0
 247              		.section	.rodata
 248              		.align	2
 249              	.LC0:
 250 0000 0A00     		.ascii	"\012\000"
 251 0002 0000     		.align	2
 252              	.LC1:
 253 0004 526F6C6C 		.ascii	"Roll Rate PID:  \000"
 253      20526174 
 253      65205049 
 253      443A2020 
 253      00
 254 0015 000000   		.align	2
 255              	.LC2:
 256 0018 2C2000   		.ascii	", \000"
 257 001b 00       		.align	2
 258              	.LC3:
 259 001c 4572726F 		.ascii	"Error\012\000"
 259      720A00
 260 0023 00       		.align	2
 261              	.LC4:
 262 0024 53746174 		.ascii	"State\012\000"
 262      650A00
 263 002b 00       		.align	2
 264              	.LC5:
 265 002c 50697463 		.ascii	"Pitch Rate PID: \000"
 265      68205261 
 265      74652050 
 265      49443A20 
 265      00
 266 003d 000000   		.align	2
 267              	.LC6:
 268 0040 59617720 		.ascii	"Yaw Rate PID:   \000"
 268      52617465 
 268      20504944 
 268      3A202020 
 268      00
 269 0051 000000   		.align	2
 270              	.LC7:
 271 0054 526F6C6C 		.ascii	"Roll Attitude PID:  \000"
 271      20417474 
 271      69747564 
 271      65205049 
 271      443A2020 
 272 0069 000000   		.align	2
 273              	.LC8:
 274 006c 50697463 		.ascii	"Pitch Attitude PID: \000"
 274      68204174 
 274      74697475 
 274      64652050 
 274      49443A20 
 275 0081 000000   		.align	2
 276              	.LC9:
 277 0084 48656164 		.ascii	"Heading PID:        \000"
 277      696E6720 
 277      5049443A 
 277      20202020 
 277      20202020 
 278 0099 000000   		.align	2
 279              	.LC10:
 280 009c 6E446F74 		.ascii	"nDot PID:  \000"
 280      20504944 
 280      3A202000 
 281              		.align	2
 282              	.LC11:
 283 00a8 65446F74 		.ascii	"eDot PID:  \000"
 283      20504944 
 283      3A202000 
 284              		.align	2
 285              	.LC12:
 286 00b4 68446F74 		.ascii	"hDot PID:  \000"
 286      20504944 
 286      3A202000 
 287              		.align	2
 288              	.LC13:
 289 00c0 6E205049 		.ascii	"n PID:  \000"
 289      443A2020 
 289      00
 290 00c9 000000   		.align	2
 291              	.LC14:
 292 00cc 65205049 		.ascii	"e PID:  \000"
 292      443A2020 
 292      00
 293 00d5 000000   		.align	2
 294              	.LC15:
 295 00d8 68205049 		.ascii	"h PID:  \000"
 295      443A2020 
 295      00
 296 00e1 000000   		.align	2
 297              	.LC16:
 298 00e4 0A526F6C 		.ascii	"\012Roll Rate PID Received....\012\000"
 298      6C205261 
 298      74652050 
 298      49442052 
 298      65636569 
 299 0101 000000   		.align	2
 300              	.LC17:
 301 0104 0A506974 		.ascii	"\012Pitch Rate PID Received....\012\000"
 301      63682052 
 301      61746520 
 301      50494420 
 301      52656365 
 302 0122 0000     		.align	2
 303              	.LC18:
 304 0124 0A596177 		.ascii	"\012Yaw Rate PID Received....\012\000"
 304      20526174 
 304      65205049 
 304      44205265 
 304      63656976 
 305              		.align	2
 306              	.LC19:
 307 0140 0A526F6C 		.ascii	"\012Roll Attitude PID Received....\012\000"
 307      6C204174 
 307      74697475 
 307      64652050 
 307      49442052 
 308 0161 000000   		.align	2
 309              	.LC20:
 310 0164 0A506974 		.ascii	"\012Pitch Attitude PID Received....\012\000"
 310      63682041 
 310      74746974 
 310      75646520 
 310      50494420 
 311 0186 0000     		.align	2
 312              	.LC21:
 313 0188 0A486561 		.ascii	"\012Heading PID Received....\012\000"
 313      64696E67 
 313      20504944 
 313      20526563 
 313      65697665 
 314 01a3 00       		.align	2
 315              	.LC22:
 316 01a4 0A6E446F 		.ascii	"\012nDot PID Received....\012\000"
 316      74205049 
 316      44205265 
 316      63656976 
 316      65642E2E 
 317              		.align	2
 318              	.LC23:
 319 01bc 0A65446F 		.ascii	"\012eDot PID Received....\012\000"
 319      74205049 
 319      44205265 
 319      63656976 
 319      65642E2E 
 320              		.align	2
 321              	.LC24:
 322 01d4 0A68446F 		.ascii	"\012hDot PID Received....\012\000"
 322      74205049 
 322      44205265 
 322      63656976 
 322      65642E2E 
 323              		.align	2
 324              	.LC25:
 325 01ec 0A6E2050 		.ascii	"\012n PID Received....\012\000"
 325      49442052 
 325      65636569 
 325      7665642E 
 325      2E2E2E0A 
 326 0201 000000   		.align	2
 327              	.LC26:
 328 0204 0A652050 		.ascii	"\012e PID Received....\012\000"
 328      49442052 
 328      65636569 
 328      7665642E 
 328      2E2E2E0A 
 329 0219 000000   		.align	2
 330              	.LC27:
 331 021c 0A682050 		.ascii	"\012h PID Received....\012\000"
 331      49442052 
 331      65636569 
 331      7665642E 
 331      2E2E2E0A 
 332 0231 000000   		.align	2
 333              	.LC28:
 334 0234 0A577269 		.ascii	"\012Writing EEPROM Parameters....\012\000"
 334      74696E67 
 334      20454550 
 334      524F4D20 
 334      50617261 
 335              		.text
 336              		.align	2
 337              		.global	rfCom
 338              		.thumb
 339              		.thumb_func
 341              	rfCom:
 342              		@ args = 0, pretend = 0, frame = 0
 343              		@ frame_needed = 0, uses_anonymous_args = 0
 344 0204 08B5     		push	{r3, lr}
 345 0206 FFF7FEFF 		bl	uart3Available
 346 020a 0346     		mov	r3, r0
 347 020c 002B     		cmp	r3, #0
 348 020e 08D0     		beq	.L17
 349 0210 FFF7FEFF 		bl	uart3Read
 350 0214 0346     		mov	r3, r0
 351 0216 1A46     		mov	r2, r3
 352 0218 40F20003 		movw	r3, #:lower16:rfQueryType
 353 021c C0F20003 		movt	r3, #:upper16:rfQueryType
 354 0220 1A70     		strb	r2, [r3, #0]
 355              	.L17:
 356 0222 40F20003 		movw	r3, #:lower16:rfQueryType
 357 0226 C0F20003 		movt	r3, #:upper16:rfQueryType
 358 022a 1B78     		ldrb	r3, [r3, #0]
 359 022c DBB2     		uxtb	r3, r3
 360 022e A3F13003 		sub	r3, r3, #48
 361 0232 482B     		cmp	r3, #72
 362 0234 01F27B81 		bhi	.L16
 363 0238 01A2     		adr	r2, .L47
 364 023a 52F823F0 		ldr	pc, [r2, r3, lsl #2]
 365 023e 00BF     		.align	2
 366              	.L47:
 367 0240 4B130000 		.word	.L19+1
 368 0244 19120000 		.word	.L20+1
 369 0248 3B120000 		.word	.L21+1
 370 024c 5D120000 		.word	.L22+1
 371 0250 7F120000 		.word	.L23+1
 372 0254 A1120000 		.word	.L24+1
 373 0258 C3120000 		.word	.L25+1
 374 025c E5120000 		.word	.L26+1
 375 0260 07130000 		.word	.L27+1
 376 0264 29130000 		.word	.L28+1
 377 0268 2F150000 		.word	.L16+1
 378 026c 2F150000 		.word	.L16+1
 379 0270 2F150000 		.word	.L16+1
 380 0274 2F150000 		.word	.L16+1
 381 0278 2F150000 		.word	.L16+1
 382 027c 2F150000 		.word	.L16+1
 383 0280 2F150000 		.word	.L16+1
 384 0284 5F130000 		.word	.L29+1
 385 0288 83130000 		.word	.L30+1
 386 028c A7130000 		.word	.L31+1
 387 0290 CB130000 		.word	.L32+1
 388 0294 EF130000 		.word	.L33+1
 389 0298 13140000 		.word	.L34+1
 390 029c 37140000 		.word	.L35+1
 391 02a0 5B140000 		.word	.L36+1
 392 02a4 7F140000 		.word	.L37+1
 393 02a8 A3140000 		.word	.L38+1
 394 02ac C7140000 		.word	.L39+1
 395 02b0 EB140000 		.word	.L40+1
 396 02b4 2F150000 		.word	.L16+1
 397 02b8 2F150000 		.word	.L16+1
 398 02bc 2F150000 		.word	.L16+1
 399 02c0 2F150000 		.word	.L16+1
 400 02c4 2F150000 		.word	.L16+1
 401 02c8 2F150000 		.word	.L16+1
 402 02cc 2F150000 		.word	.L16+1
 403 02d0 2F150000 		.word	.L16+1
 404 02d4 2F150000 		.word	.L16+1
 405 02d8 2F150000 		.word	.L16+1
 406 02dc 0F150000 		.word	.L41+1
 407 02e0 2F150000 		.word	.L16+1
 408 02e4 2F150000 		.word	.L16+1
 409 02e8 2F150000 		.word	.L16+1
 410 02ec 2F150000 		.word	.L16+1
 411 02f0 2F150000 		.word	.L16+1
 412 02f4 2F150000 		.word	.L16+1
 413 02f8 2F150000 		.word	.L16+1
 414 02fc 2F150000 		.word	.L16+1
 415 0300 2F150000 		.word	.L16+1
 416 0304 65030000 		.word	.L42+1
 417 0308 13070000 		.word	.L43+1
 418 030c C10A0000 		.word	.L44+1
 419 0310 6D0E0000 		.word	.L45+1
 420 0314 2F150000 		.word	.L16+1
 421 0318 2F150000 		.word	.L16+1
 422 031c 2F150000 		.word	.L16+1
 423 0320 2F150000 		.word	.L16+1
 424 0324 2F150000 		.word	.L16+1
 425 0328 2F150000 		.word	.L16+1
 426 032c 2F150000 		.word	.L16+1
 427 0330 2F150000 		.word	.L16+1
 428 0334 2F150000 		.word	.L16+1
 429 0338 2F150000 		.word	.L16+1
 430 033c 2F150000 		.word	.L16+1
 431 0340 2F150000 		.word	.L16+1
 432 0344 2F150000 		.word	.L16+1
 433 0348 2F150000 		.word	.L16+1
 434 034c 2F150000 		.word	.L16+1
 435 0350 2F150000 		.word	.L16+1
 436 0354 2F150000 		.word	.L16+1
 437 0358 2F150000 		.word	.L16+1
 438 035c 2F150000 		.word	.L16+1
 439 0360 2F150000 		.word	.L16+1
 440              	.L42:
 441 0364 40F20000 		movw	r0, #:lower16:.LC0
 442 0368 C0F20000 		movt	r0, #:upper16:.LC0
 443 036c FFF7FEFF 		bl	uart3Print
 444 0370 40F20000 		movw	r0, #:lower16:.LC1
 445 0374 C0F20000 		movt	r0, #:upper16:.LC1
 446 0378 FFF7FEFF 		bl	uart3Print
 447 037c 40F20003 		movw	r3, #:lower16:eepromConfig
 448 0380 C0F20003 		movt	r3, #:upper16:eepromConfig
 449 0384 D3F89C30 		ldr	r3, [r3, #156]	@ float
 450 0388 1846     		mov	r0, r3	@ float
 451 038a 40F20001 		movw	r1, #:lower16:numberString
 452 038e C0F20001 		movt	r1, #:upper16:numberString
 453 0392 FFF7FEFF 		bl	ftoa
 454 0396 40F20000 		movw	r0, #:lower16:numberString
 455 039a C0F20000 		movt	r0, #:upper16:numberString
 456 039e FFF7FEFF 		bl	uart3Print
 457 03a2 40F20000 		movw	r0, #:lower16:.LC2
 458 03a6 C0F20000 		movt	r0, #:upper16:.LC2
 459 03aa FFF7FEFF 		bl	uart3Print
 460 03ae 40F20003 		movw	r3, #:lower16:eepromConfig
 461 03b2 C0F20003 		movt	r3, #:upper16:eepromConfig
 462 03b6 D3F8A030 		ldr	r3, [r3, #160]	@ float
 463 03ba 1846     		mov	r0, r3	@ float
 464 03bc 40F20001 		movw	r1, #:lower16:numberString
 465 03c0 C0F20001 		movt	r1, #:upper16:numberString
 466 03c4 FFF7FEFF 		bl	ftoa
 467 03c8 40F20000 		movw	r0, #:lower16:numberString
 468 03cc C0F20000 		movt	r0, #:upper16:numberString
 469 03d0 FFF7FEFF 		bl	uart3Print
 470 03d4 40F20000 		movw	r0, #:lower16:.LC2
 471 03d8 C0F20000 		movt	r0, #:upper16:.LC2
 472 03dc FFF7FEFF 		bl	uart3Print
 473 03e0 40F20003 		movw	r3, #:lower16:eepromConfig
 474 03e4 C0F20003 		movt	r3, #:upper16:eepromConfig
 475 03e8 D3F8A430 		ldr	r3, [r3, #164]	@ float
 476 03ec 1846     		mov	r0, r3	@ float
 477 03ee 40F20001 		movw	r1, #:lower16:numberString
 478 03f2 C0F20001 		movt	r1, #:upper16:numberString
 479 03f6 FFF7FEFF 		bl	ftoa
 480 03fa 40F20000 		movw	r0, #:lower16:numberString
 481 03fe C0F20000 		movt	r0, #:upper16:numberString
 482 0402 FFF7FEFF 		bl	uart3Print
 483 0406 40F20000 		movw	r0, #:lower16:.LC2
 484 040a C0F20000 		movt	r0, #:upper16:.LC2
 485 040e FFF7FEFF 		bl	uart3Print
 486 0412 40F20003 		movw	r3, #:lower16:eepromConfig
 487 0416 C0F20003 		movt	r3, #:upper16:eepromConfig
 488 041a D3F8A830 		ldr	r3, [r3, #168]	@ float
 489 041e 1846     		mov	r0, r3	@ float
 490 0420 40F20001 		movw	r1, #:lower16:numberString
 491 0424 C0F20001 		movt	r1, #:upper16:numberString
 492 0428 FFF7FEFF 		bl	ftoa
 493 042c 40F20000 		movw	r0, #:lower16:numberString
 494 0430 C0F20000 		movt	r0, #:upper16:numberString
 495 0434 FFF7FEFF 		bl	uart3Print
 496 0438 40F20000 		movw	r0, #:lower16:.LC2
 497 043c C0F20000 		movt	r0, #:upper16:.LC2
 498 0440 FFF7FEFF 		bl	uart3Print
 499 0444 40F20003 		movw	r3, #:lower16:eepromConfig
 500 0448 C0F20003 		movt	r3, #:upper16:eepromConfig
 501 044c D3F8B030 		ldr	r3, [r3, #176]	@ float
 502 0450 1846     		mov	r0, r3	@ float
 503 0452 40F20001 		movw	r1, #:lower16:numberString
 504 0456 C0F20001 		movt	r1, #:upper16:numberString
 505 045a FFF7FEFF 		bl	ftoa
 506 045e 40F20000 		movw	r0, #:lower16:numberString
 507 0462 C0F20000 		movt	r0, #:upper16:numberString
 508 0466 FFF7FEFF 		bl	uart3Print
 509 046a 40F20000 		movw	r0, #:lower16:.LC2
 510 046e C0F20000 		movt	r0, #:upper16:.LC2
 511 0472 FFF7FEFF 		bl	uart3Print
 512 0476 40F20003 		movw	r3, #:lower16:eepromConfig
 513 047a C0F20003 		movt	r3, #:upper16:eepromConfig
 514 047e 93F8C030 		ldrb	r3, [r3, #192]	@ zero_extendqisi2
 515 0482 002B     		cmp	r3, #0
 516 0484 06D0     		beq	.L48
 517 0486 40F20000 		movw	r0, #:lower16:.LC3
 518 048a C0F20000 		movt	r0, #:upper16:.LC3
 519 048e FFF7FEFF 		bl	uart3Print
 520 0492 05E0     		b	.L49
 521              	.L48:
 522 0494 40F20000 		movw	r0, #:lower16:.LC4
 523 0498 C0F20000 		movt	r0, #:upper16:.LC4
 524 049c FFF7FEFF 		bl	uart3Print
 525              	.L49:
 526 04a0 40F20000 		movw	r0, #:lower16:.LC5
 527 04a4 C0F20000 		movt	r0, #:upper16:.LC5
 528 04a8 FFF7FEFF 		bl	uart3Print
 529 04ac 40F20003 		movw	r3, #:lower16:eepromConfig
 530 04b0 C0F20003 		movt	r3, #:upper16:eepromConfig
 531 04b4 D3F8C430 		ldr	r3, [r3, #196]	@ float
 532 04b8 1846     		mov	r0, r3	@ float
 533 04ba 40F20001 		movw	r1, #:lower16:numberString
 534 04be C0F20001 		movt	r1, #:upper16:numberString
 535 04c2 FFF7FEFF 		bl	ftoa
 536 04c6 40F20000 		movw	r0, #:lower16:numberString
 537 04ca C0F20000 		movt	r0, #:upper16:numberString
 538 04ce FFF7FEFF 		bl	uart3Print
 539 04d2 40F20000 		movw	r0, #:lower16:.LC2
 540 04d6 C0F20000 		movt	r0, #:upper16:.LC2
 541 04da FFF7FEFF 		bl	uart3Print
 542 04de 40F20003 		movw	r3, #:lower16:eepromConfig
 543 04e2 C0F20003 		movt	r3, #:upper16:eepromConfig
 544 04e6 D3F8C830 		ldr	r3, [r3, #200]	@ float
 545 04ea 1846     		mov	r0, r3	@ float
 546 04ec 40F20001 		movw	r1, #:lower16:numberString
 547 04f0 C0F20001 		movt	r1, #:upper16:numberString
 548 04f4 FFF7FEFF 		bl	ftoa
 549 04f8 40F20000 		movw	r0, #:lower16:numberString
 550 04fc C0F20000 		movt	r0, #:upper16:numberString
 551 0500 FFF7FEFF 		bl	uart3Print
 552 0504 40F20000 		movw	r0, #:lower16:.LC2
 553 0508 C0F20000 		movt	r0, #:upper16:.LC2
 554 050c FFF7FEFF 		bl	uart3Print
 555 0510 40F20003 		movw	r3, #:lower16:eepromConfig
 556 0514 C0F20003 		movt	r3, #:upper16:eepromConfig
 557 0518 D3F8CC30 		ldr	r3, [r3, #204]	@ float
 558 051c 1846     		mov	r0, r3	@ float
 559 051e 40F20001 		movw	r1, #:lower16:numberString
 560 0522 C0F20001 		movt	r1, #:upper16:numberString
 561 0526 FFF7FEFF 		bl	ftoa
 562 052a 40F20000 		movw	r0, #:lower16:numberString
 563 052e C0F20000 		movt	r0, #:upper16:numberString
 564 0532 FFF7FEFF 		bl	uart3Print
 565 0536 40F20000 		movw	r0, #:lower16:.LC2
 566 053a C0F20000 		movt	r0, #:upper16:.LC2
 567 053e FFF7FEFF 		bl	uart3Print
 568 0542 40F20003 		movw	r3, #:lower16:eepromConfig
 569 0546 C0F20003 		movt	r3, #:upper16:eepromConfig
 570 054a D3F8D030 		ldr	r3, [r3, #208]	@ float
 571 054e 1846     		mov	r0, r3	@ float
 572 0550 40F20001 		movw	r1, #:lower16:numberString
 573 0554 C0F20001 		movt	r1, #:upper16:numberString
 574 0558 FFF7FEFF 		bl	ftoa
 575 055c 40F20000 		movw	r0, #:lower16:numberString
 576 0560 C0F20000 		movt	r0, #:upper16:numberString
 577 0564 FFF7FEFF 		bl	uart3Print
 578 0568 40F20000 		movw	r0, #:lower16:.LC2
 579 056c C0F20000 		movt	r0, #:upper16:.LC2
 580 0570 FFF7FEFF 		bl	uart3Print
 581 0574 40F20003 		movw	r3, #:lower16:eepromConfig
 582 0578 C0F20003 		movt	r3, #:upper16:eepromConfig
 583 057c D3F8D830 		ldr	r3, [r3, #216]	@ float
 584 0580 1846     		mov	r0, r3	@ float
 585 0582 40F20001 		movw	r1, #:lower16:numberString
 586 0586 C0F20001 		movt	r1, #:upper16:numberString
 587 058a FFF7FEFF 		bl	ftoa
 588 058e 40F20000 		movw	r0, #:lower16:numberString
 589 0592 C0F20000 		movt	r0, #:upper16:numberString
 590 0596 FFF7FEFF 		bl	uart3Print
 591 059a 40F20000 		movw	r0, #:lower16:.LC2
 592 059e C0F20000 		movt	r0, #:upper16:.LC2
 593 05a2 FFF7FEFF 		bl	uart3Print
 594 05a6 40F20003 		movw	r3, #:lower16:eepromConfig
 595 05aa C0F20003 		movt	r3, #:upper16:eepromConfig
 596 05ae 93F8E830 		ldrb	r3, [r3, #232]	@ zero_extendqisi2
 597 05b2 002B     		cmp	r3, #0
 598 05b4 06D0     		beq	.L50
 599 05b6 40F20000 		movw	r0, #:lower16:.LC3
 600 05ba C0F20000 		movt	r0, #:upper16:.LC3
 601 05be FFF7FEFF 		bl	uart3Print
 602 05c2 05E0     		b	.L51
 603              	.L50:
 604 05c4 40F20000 		movw	r0, #:lower16:.LC4
 605 05c8 C0F20000 		movt	r0, #:upper16:.LC4
 606 05cc FFF7FEFF 		bl	uart3Print
 607              	.L51:
 608 05d0 40F20000 		movw	r0, #:lower16:.LC6
 609 05d4 C0F20000 		movt	r0, #:upper16:.LC6
 610 05d8 FFF7FEFF 		bl	uart3Print
 611 05dc 40F20003 		movw	r3, #:lower16:eepromConfig
 612 05e0 C0F20003 		movt	r3, #:upper16:eepromConfig
 613 05e4 D3F8EC30 		ldr	r3, [r3, #236]	@ float
 614 05e8 1846     		mov	r0, r3	@ float
 615 05ea 40F20001 		movw	r1, #:lower16:numberString
 616 05ee C0F20001 		movt	r1, #:upper16:numberString
 617 05f2 FFF7FEFF 		bl	ftoa
 618 05f6 40F20000 		movw	r0, #:lower16:numberString
 619 05fa C0F20000 		movt	r0, #:upper16:numberString
 620 05fe FFF7FEFF 		bl	uart3Print
 621 0602 40F20000 		movw	r0, #:lower16:.LC2
 622 0606 C0F20000 		movt	r0, #:upper16:.LC2
 623 060a FFF7FEFF 		bl	uart3Print
 624 060e 40F20003 		movw	r3, #:lower16:eepromConfig
 625 0612 C0F20003 		movt	r3, #:upper16:eepromConfig
 626 0616 D3F8F030 		ldr	r3, [r3, #240]	@ float
 627 061a 1846     		mov	r0, r3	@ float
 628 061c 40F20001 		movw	r1, #:lower16:numberString
 629 0620 C0F20001 		movt	r1, #:upper16:numberString
 630 0624 FFF7FEFF 		bl	ftoa
 631 0628 40F20000 		movw	r0, #:lower16:numberString
 632 062c C0F20000 		movt	r0, #:upper16:numberString
 633 0630 FFF7FEFF 		bl	uart3Print
 634 0634 40F20000 		movw	r0, #:lower16:.LC2
 635 0638 C0F20000 		movt	r0, #:upper16:.LC2
 636 063c FFF7FEFF 		bl	uart3Print
 637 0640 40F20003 		movw	r3, #:lower16:eepromConfig
 638 0644 C0F20003 		movt	r3, #:upper16:eepromConfig
 639 0648 D3F8F430 		ldr	r3, [r3, #244]	@ float
 640 064c 1846     		mov	r0, r3	@ float
 641 064e 40F20001 		movw	r1, #:lower16:numberString
 642 0652 C0F20001 		movt	r1, #:upper16:numberString
 643 0656 FFF7FEFF 		bl	ftoa
 644 065a 40F20000 		movw	r0, #:lower16:numberString
 645 065e C0F20000 		movt	r0, #:upper16:numberString
 646 0662 FFF7FEFF 		bl	uart3Print
 647 0666 40F20000 		movw	r0, #:lower16:.LC2
 648 066a C0F20000 		movt	r0, #:upper16:.LC2
 649 066e FFF7FEFF 		bl	uart3Print
 650 0672 40F20003 		movw	r3, #:lower16:eepromConfig
 651 0676 C0F20003 		movt	r3, #:upper16:eepromConfig
 652 067a D3F8F830 		ldr	r3, [r3, #248]	@ float
 653 067e 1846     		mov	r0, r3	@ float
 654 0680 40F20001 		movw	r1, #:lower16:numberString
 655 0684 C0F20001 		movt	r1, #:upper16:numberString
 656 0688 FFF7FEFF 		bl	ftoa
 657 068c 40F20000 		movw	r0, #:lower16:numberString
 658 0690 C0F20000 		movt	r0, #:upper16:numberString
 659 0694 FFF7FEFF 		bl	uart3Print
 660 0698 40F20000 		movw	r0, #:lower16:.LC2
 661 069c C0F20000 		movt	r0, #:upper16:.LC2
 662 06a0 FFF7FEFF 		bl	uart3Print
 663 06a4 40F20003 		movw	r3, #:lower16:eepromConfig
 664 06a8 C0F20003 		movt	r3, #:upper16:eepromConfig
 665 06ac D3F80031 		ldr	r3, [r3, #256]	@ float
 666 06b0 1846     		mov	r0, r3	@ float
 667 06b2 40F20001 		movw	r1, #:lower16:numberString
 668 06b6 C0F20001 		movt	r1, #:upper16:numberString
 669 06ba FFF7FEFF 		bl	ftoa
 670 06be 40F20000 		movw	r0, #:lower16:numberString
 671 06c2 C0F20000 		movt	r0, #:upper16:numberString
 672 06c6 FFF7FEFF 		bl	uart3Print
 673 06ca 40F20000 		movw	r0, #:lower16:.LC2
 674 06ce C0F20000 		movt	r0, #:upper16:.LC2
 675 06d2 FFF7FEFF 		bl	uart3Print
 676 06d6 40F20003 		movw	r3, #:lower16:eepromConfig
 677 06da C0F20003 		movt	r3, #:upper16:eepromConfig
 678 06de 93F81031 		ldrb	r3, [r3, #272]	@ zero_extendqisi2
 679 06e2 002B     		cmp	r3, #0
 680 06e4 06D0     		beq	.L52
 681 06e6 40F20000 		movw	r0, #:lower16:.LC3
 682 06ea C0F20000 		movt	r0, #:upper16:.LC3
 683 06ee FFF7FEFF 		bl	uart3Print
 684 06f2 05E0     		b	.L53
 685              	.L52:
 686 06f4 40F20000 		movw	r0, #:lower16:.LC4
 687 06f8 C0F20000 		movt	r0, #:upper16:.LC4
 688 06fc FFF7FEFF 		bl	uart3Print
 689              	.L53:
 690 0700 40F20003 		movw	r3, #:lower16:rfQueryType
 691 0704 C0F20003 		movt	r3, #:upper16:rfQueryType
 692 0708 4FF07802 		mov	r2, #120
 693 070c 1A70     		strb	r2, [r3, #0]
 694 070e 00F00EBF 		b	.L16
 695              	.L43:
 696 0712 40F20000 		movw	r0, #:lower16:.LC0
 697 0716 C0F20000 		movt	r0, #:upper16:.LC0
 698 071a FFF7FEFF 		bl	uart3Print
 699 071e 40F20000 		movw	r0, #:lower16:.LC7
 700 0722 C0F20000 		movt	r0, #:upper16:.LC7
 701 0726 FFF7FEFF 		bl	uart3Print
 702 072a 40F20003 		movw	r3, #:lower16:eepromConfig
 703 072e C0F20003 		movt	r3, #:upper16:eepromConfig
 704 0732 D3F81431 		ldr	r3, [r3, #276]	@ float
 705 0736 1846     		mov	r0, r3	@ float
 706 0738 40F20001 		movw	r1, #:lower16:numberString
 707 073c C0F20001 		movt	r1, #:upper16:numberString
 708 0740 FFF7FEFF 		bl	ftoa
 709 0744 40F20000 		movw	r0, #:lower16:numberString
 710 0748 C0F20000 		movt	r0, #:upper16:numberString
 711 074c FFF7FEFF 		bl	uart3Print
 712 0750 40F20000 		movw	r0, #:lower16:.LC2
 713 0754 C0F20000 		movt	r0, #:upper16:.LC2
 714 0758 FFF7FEFF 		bl	uart3Print
 715 075c 40F20003 		movw	r3, #:lower16:eepromConfig
 716 0760 C0F20003 		movt	r3, #:upper16:eepromConfig
 717 0764 D3F81831 		ldr	r3, [r3, #280]	@ float
 718 0768 1846     		mov	r0, r3	@ float
 719 076a 40F20001 		movw	r1, #:lower16:numberString
 720 076e C0F20001 		movt	r1, #:upper16:numberString
 721 0772 FFF7FEFF 		bl	ftoa
 722 0776 40F20000 		movw	r0, #:lower16:numberString
 723 077a C0F20000 		movt	r0, #:upper16:numberString
 724 077e FFF7FEFF 		bl	uart3Print
 725 0782 40F20000 		movw	r0, #:lower16:.LC2
 726 0786 C0F20000 		movt	r0, #:upper16:.LC2
 727 078a FFF7FEFF 		bl	uart3Print
 728 078e 40F20003 		movw	r3, #:lower16:eepromConfig
 729 0792 C0F20003 		movt	r3, #:upper16:eepromConfig
 730 0796 D3F81C31 		ldr	r3, [r3, #284]	@ float
 731 079a 1846     		mov	r0, r3	@ float
 732 079c 40F20001 		movw	r1, #:lower16:numberString
 733 07a0 C0F20001 		movt	r1, #:upper16:numberString
 734 07a4 FFF7FEFF 		bl	ftoa
 735 07a8 40F20000 		movw	r0, #:lower16:numberString
 736 07ac C0F20000 		movt	r0, #:upper16:numberString
 737 07b0 FFF7FEFF 		bl	uart3Print
 738 07b4 40F20000 		movw	r0, #:lower16:.LC2
 739 07b8 C0F20000 		movt	r0, #:upper16:.LC2
 740 07bc FFF7FEFF 		bl	uart3Print
 741 07c0 40F20003 		movw	r3, #:lower16:eepromConfig
 742 07c4 C0F20003 		movt	r3, #:upper16:eepromConfig
 743 07c8 D3F82031 		ldr	r3, [r3, #288]	@ float
 744 07cc 1846     		mov	r0, r3	@ float
 745 07ce 40F20001 		movw	r1, #:lower16:numberString
 746 07d2 C0F20001 		movt	r1, #:upper16:numberString
 747 07d6 FFF7FEFF 		bl	ftoa
 748 07da 40F20000 		movw	r0, #:lower16:numberString
 749 07de C0F20000 		movt	r0, #:upper16:numberString
 750 07e2 FFF7FEFF 		bl	uart3Print
 751 07e6 40F20000 		movw	r0, #:lower16:.LC2
 752 07ea C0F20000 		movt	r0, #:upper16:.LC2
 753 07ee FFF7FEFF 		bl	uart3Print
 754 07f2 40F20003 		movw	r3, #:lower16:eepromConfig
 755 07f6 C0F20003 		movt	r3, #:upper16:eepromConfig
 756 07fa D3F82831 		ldr	r3, [r3, #296]	@ float
 757 07fe 1846     		mov	r0, r3	@ float
 758 0800 40F20001 		movw	r1, #:lower16:numberString
 759 0804 C0F20001 		movt	r1, #:upper16:numberString
 760 0808 FFF7FEFF 		bl	ftoa
 761 080c 40F20000 		movw	r0, #:lower16:numberString
 762 0810 C0F20000 		movt	r0, #:upper16:numberString
 763 0814 FFF7FEFF 		bl	uart3Print
 764 0818 40F20000 		movw	r0, #:lower16:.LC2
 765 081c C0F20000 		movt	r0, #:upper16:.LC2
 766 0820 FFF7FEFF 		bl	uart3Print
 767 0824 40F20003 		movw	r3, #:lower16:eepromConfig
 768 0828 C0F20003 		movt	r3, #:upper16:eepromConfig
 769 082c 93F83831 		ldrb	r3, [r3, #312]	@ zero_extendqisi2
 770 0830 002B     		cmp	r3, #0
 771 0832 06D0     		beq	.L54
 772 0834 40F20000 		movw	r0, #:lower16:.LC3
 773 0838 C0F20000 		movt	r0, #:upper16:.LC3
 774 083c FFF7FEFF 		bl	uart3Print
 775 0840 05E0     		b	.L55
 776              	.L54:
 777 0842 40F20000 		movw	r0, #:lower16:.LC4
 778 0846 C0F20000 		movt	r0, #:upper16:.LC4
 779 084a FFF7FEFF 		bl	uart3Print
 780              	.L55:
 781 084e 40F20000 		movw	r0, #:lower16:.LC8
 782 0852 C0F20000 		movt	r0, #:upper16:.LC8
 783 0856 FFF7FEFF 		bl	uart3Print
 784 085a 40F20003 		movw	r3, #:lower16:eepromConfig
 785 085e C0F20003 		movt	r3, #:upper16:eepromConfig
 786 0862 D3F83C31 		ldr	r3, [r3, #316]	@ float
 787 0866 1846     		mov	r0, r3	@ float
 788 0868 40F20001 		movw	r1, #:lower16:numberString
 789 086c C0F20001 		movt	r1, #:upper16:numberString
 790 0870 FFF7FEFF 		bl	ftoa
 791 0874 40F20000 		movw	r0, #:lower16:numberString
 792 0878 C0F20000 		movt	r0, #:upper16:numberString
 793 087c FFF7FEFF 		bl	uart3Print
 794 0880 40F20000 		movw	r0, #:lower16:.LC2
 795 0884 C0F20000 		movt	r0, #:upper16:.LC2
 796 0888 FFF7FEFF 		bl	uart3Print
 797 088c 40F20003 		movw	r3, #:lower16:eepromConfig
 798 0890 C0F20003 		movt	r3, #:upper16:eepromConfig
 799 0894 D3F84031 		ldr	r3, [r3, #320]	@ float
 800 0898 1846     		mov	r0, r3	@ float
 801 089a 40F20001 		movw	r1, #:lower16:numberString
 802 089e C0F20001 		movt	r1, #:upper16:numberString
 803 08a2 FFF7FEFF 		bl	ftoa
 804 08a6 40F20000 		movw	r0, #:lower16:numberString
 805 08aa C0F20000 		movt	r0, #:upper16:numberString
 806 08ae FFF7FEFF 		bl	uart3Print
 807 08b2 40F20000 		movw	r0, #:lower16:.LC2
 808 08b6 C0F20000 		movt	r0, #:upper16:.LC2
 809 08ba FFF7FEFF 		bl	uart3Print
 810 08be 40F20003 		movw	r3, #:lower16:eepromConfig
 811 08c2 C0F20003 		movt	r3, #:upper16:eepromConfig
 812 08c6 D3F84431 		ldr	r3, [r3, #324]	@ float
 813 08ca 1846     		mov	r0, r3	@ float
 814 08cc 40F20001 		movw	r1, #:lower16:numberString
 815 08d0 C0F20001 		movt	r1, #:upper16:numberString
 816 08d4 FFF7FEFF 		bl	ftoa
 817 08d8 40F20000 		movw	r0, #:lower16:numberString
 818 08dc C0F20000 		movt	r0, #:upper16:numberString
 819 08e0 FFF7FEFF 		bl	uart3Print
 820 08e4 40F20000 		movw	r0, #:lower16:.LC2
 821 08e8 C0F20000 		movt	r0, #:upper16:.LC2
 822 08ec FFF7FEFF 		bl	uart3Print
 823 08f0 40F20003 		movw	r3, #:lower16:eepromConfig
 824 08f4 C0F20003 		movt	r3, #:upper16:eepromConfig
 825 08f8 D3F84831 		ldr	r3, [r3, #328]	@ float
 826 08fc 1846     		mov	r0, r3	@ float
 827 08fe 40F20001 		movw	r1, #:lower16:numberString
 828 0902 C0F20001 		movt	r1, #:upper16:numberString
 829 0906 FFF7FEFF 		bl	ftoa
 830 090a 40F20000 		movw	r0, #:lower16:numberString
 831 090e C0F20000 		movt	r0, #:upper16:numberString
 832 0912 FFF7FEFF 		bl	uart3Print
 833 0916 40F20000 		movw	r0, #:lower16:.LC2
 834 091a C0F20000 		movt	r0, #:upper16:.LC2
 835 091e FFF7FEFF 		bl	uart3Print
 836 0922 40F20003 		movw	r3, #:lower16:eepromConfig
 837 0926 C0F20003 		movt	r3, #:upper16:eepromConfig
 838 092a D3F85031 		ldr	r3, [r3, #336]	@ float
 839 092e 1846     		mov	r0, r3	@ float
 840 0930 40F20001 		movw	r1, #:lower16:numberString
 841 0934 C0F20001 		movt	r1, #:upper16:numberString
 842 0938 FFF7FEFF 		bl	ftoa
 843 093c 40F20000 		movw	r0, #:lower16:numberString
 844 0940 C0F20000 		movt	r0, #:upper16:numberString
 845 0944 FFF7FEFF 		bl	uart3Print
 846 0948 40F20000 		movw	r0, #:lower16:.LC2
 847 094c C0F20000 		movt	r0, #:upper16:.LC2
 848 0950 FFF7FEFF 		bl	uart3Print
 849 0954 40F20003 		movw	r3, #:lower16:eepromConfig
 850 0958 C0F20003 		movt	r3, #:upper16:eepromConfig
 851 095c 93F86031 		ldrb	r3, [r3, #352]	@ zero_extendqisi2
 852 0960 002B     		cmp	r3, #0
 853 0962 06D0     		beq	.L56
 854 0964 40F20000 		movw	r0, #:lower16:.LC3
 855 0968 C0F20000 		movt	r0, #:upper16:.LC3
 856 096c FFF7FEFF 		bl	uart3Print
 857 0970 05E0     		b	.L57
 858              	.L56:
 859 0972 40F20000 		movw	r0, #:lower16:.LC4
 860 0976 C0F20000 		movt	r0, #:upper16:.LC4
 861 097a FFF7FEFF 		bl	uart3Print
 862              	.L57:
 863 097e 40F20000 		movw	r0, #:lower16:.LC9
 864 0982 C0F20000 		movt	r0, #:upper16:.LC9
 865 0986 FFF7FEFF 		bl	uart3Print
 866 098a 40F20003 		movw	r3, #:lower16:eepromConfig
 867 098e C0F20003 		movt	r3, #:upper16:eepromConfig
 868 0992 D3F86431 		ldr	r3, [r3, #356]	@ float
 869 0996 1846     		mov	r0, r3	@ float
 870 0998 40F20001 		movw	r1, #:lower16:numberString
 871 099c C0F20001 		movt	r1, #:upper16:numberString
 872 09a0 FFF7FEFF 		bl	ftoa
 873 09a4 40F20000 		movw	r0, #:lower16:numberString
 874 09a8 C0F20000 		movt	r0, #:upper16:numberString
 875 09ac FFF7FEFF 		bl	uart3Print
 876 09b0 40F20000 		movw	r0, #:lower16:.LC2
 877 09b4 C0F20000 		movt	r0, #:upper16:.LC2
 878 09b8 FFF7FEFF 		bl	uart3Print
 879 09bc 40F20003 		movw	r3, #:lower16:eepromConfig
 880 09c0 C0F20003 		movt	r3, #:upper16:eepromConfig
 881 09c4 D3F86831 		ldr	r3, [r3, #360]	@ float
 882 09c8 1846     		mov	r0, r3	@ float
 883 09ca 40F20001 		movw	r1, #:lower16:numberString
 884 09ce C0F20001 		movt	r1, #:upper16:numberString
 885 09d2 FFF7FEFF 		bl	ftoa
 886 09d6 40F20000 		movw	r0, #:lower16:numberString
 887 09da C0F20000 		movt	r0, #:upper16:numberString
 888 09de FFF7FEFF 		bl	uart3Print
 889 09e2 40F20000 		movw	r0, #:lower16:.LC2
 890 09e6 C0F20000 		movt	r0, #:upper16:.LC2
 891 09ea FFF7FEFF 		bl	uart3Print
 892 09ee 40F20003 		movw	r3, #:lower16:eepromConfig
 893 09f2 C0F20003 		movt	r3, #:upper16:eepromConfig
 894 09f6 D3F86C31 		ldr	r3, [r3, #364]	@ float
 895 09fa 1846     		mov	r0, r3	@ float
 896 09fc 40F20001 		movw	r1, #:lower16:numberString
 897 0a00 C0F20001 		movt	r1, #:upper16:numberString
 898 0a04 FFF7FEFF 		bl	ftoa
 899 0a08 40F20000 		movw	r0, #:lower16:numberString
 900 0a0c C0F20000 		movt	r0, #:upper16:numberString
 901 0a10 FFF7FEFF 		bl	uart3Print
 902 0a14 40F20000 		movw	r0, #:lower16:.LC2
 903 0a18 C0F20000 		movt	r0, #:upper16:.LC2
 904 0a1c FFF7FEFF 		bl	uart3Print
 905 0a20 40F20003 		movw	r3, #:lower16:eepromConfig
 906 0a24 C0F20003 		movt	r3, #:upper16:eepromConfig
 907 0a28 D3F87031 		ldr	r3, [r3, #368]	@ float
 908 0a2c 1846     		mov	r0, r3	@ float
 909 0a2e 40F20001 		movw	r1, #:lower16:numberString
 910 0a32 C0F20001 		movt	r1, #:upper16:numberString
 911 0a36 FFF7FEFF 		bl	ftoa
 912 0a3a 40F20000 		movw	r0, #:lower16:numberString
 913 0a3e C0F20000 		movt	r0, #:upper16:numberString
 914 0a42 FFF7FEFF 		bl	uart3Print
 915 0a46 40F20000 		movw	r0, #:lower16:.LC2
 916 0a4a C0F20000 		movt	r0, #:upper16:.LC2
 917 0a4e FFF7FEFF 		bl	uart3Print
 918 0a52 40F20003 		movw	r3, #:lower16:eepromConfig
 919 0a56 C0F20003 		movt	r3, #:upper16:eepromConfig
 920 0a5a D3F87831 		ldr	r3, [r3, #376]	@ float
 921 0a5e 1846     		mov	r0, r3	@ float
 922 0a60 40F20001 		movw	r1, #:lower16:numberString
 923 0a64 C0F20001 		movt	r1, #:upper16:numberString
 924 0a68 FFF7FEFF 		bl	ftoa
 925 0a6c 40F20000 		movw	r0, #:lower16:numberString
 926 0a70 C0F20000 		movt	r0, #:upper16:numberString
 927 0a74 FFF7FEFF 		bl	uart3Print
 928 0a78 40F20000 		movw	r0, #:lower16:.LC2
 929 0a7c C0F20000 		movt	r0, #:upper16:.LC2
 930 0a80 FFF7FEFF 		bl	uart3Print
 931 0a84 40F20003 		movw	r3, #:lower16:eepromConfig
 932 0a88 C0F20003 		movt	r3, #:upper16:eepromConfig
 933 0a8c 93F88831 		ldrb	r3, [r3, #392]	@ zero_extendqisi2
 934 0a90 002B     		cmp	r3, #0
 935 0a92 06D0     		beq	.L58
 936 0a94 40F20000 		movw	r0, #:lower16:.LC3
 937 0a98 C0F20000 		movt	r0, #:upper16:.LC3
 938 0a9c FFF7FEFF 		bl	uart3Print
 939 0aa0 05E0     		b	.L59
 940              	.L58:
 941 0aa2 40F20000 		movw	r0, #:lower16:.LC4
 942 0aa6 C0F20000 		movt	r0, #:upper16:.LC4
 943 0aaa FFF7FEFF 		bl	uart3Print
 944              	.L59:
 945 0aae 40F20003 		movw	r3, #:lower16:rfQueryType
 946 0ab2 C0F20003 		movt	r3, #:upper16:rfQueryType
 947 0ab6 4FF07802 		mov	r2, #120
 948 0aba 1A70     		strb	r2, [r3, #0]
 949 0abc 00F037BD 		b	.L16
 950              	.L44:
 951 0ac0 40F20000 		movw	r0, #:lower16:.LC0
 952 0ac4 C0F20000 		movt	r0, #:upper16:.LC0
 953 0ac8 FFF7FEFF 		bl	uart3Print
 954 0acc 40F20000 		movw	r0, #:lower16:.LC10
 955 0ad0 C0F20000 		movt	r0, #:upper16:.LC10
 956 0ad4 FFF7FEFF 		bl	uart3Print
 957 0ad8 40F20003 		movw	r3, #:lower16:eepromConfig
 958 0adc C0F20003 		movt	r3, #:upper16:eepromConfig
 959 0ae0 D3F88C31 		ldr	r3, [r3, #396]	@ float
 960 0ae4 1846     		mov	r0, r3	@ float
 961 0ae6 40F20001 		movw	r1, #:lower16:numberString
 962 0aea C0F20001 		movt	r1, #:upper16:numberString
 963 0aee FFF7FEFF 		bl	ftoa
 964 0af2 40F20000 		movw	r0, #:lower16:numberString
 965 0af6 C0F20000 		movt	r0, #:upper16:numberString
 966 0afa FFF7FEFF 		bl	uart3Print
 967 0afe 40F20000 		movw	r0, #:lower16:.LC2
 968 0b02 C0F20000 		movt	r0, #:upper16:.LC2
 969 0b06 FFF7FEFF 		bl	uart3Print
 970 0b0a 40F20003 		movw	r3, #:lower16:eepromConfig
 971 0b0e C0F20003 		movt	r3, #:upper16:eepromConfig
 972 0b12 D3F89031 		ldr	r3, [r3, #400]	@ float
 973 0b16 1846     		mov	r0, r3	@ float
 974 0b18 40F20001 		movw	r1, #:lower16:numberString
 975 0b1c C0F20001 		movt	r1, #:upper16:numberString
 976 0b20 FFF7FEFF 		bl	ftoa
 977 0b24 40F20000 		movw	r0, #:lower16:numberString
 978 0b28 C0F20000 		movt	r0, #:upper16:numberString
 979 0b2c FFF7FEFF 		bl	uart3Print
 980 0b30 40F20000 		movw	r0, #:lower16:.LC2
 981 0b34 C0F20000 		movt	r0, #:upper16:.LC2
 982 0b38 FFF7FEFF 		bl	uart3Print
 983 0b3c 40F20003 		movw	r3, #:lower16:eepromConfig
 984 0b40 C0F20003 		movt	r3, #:upper16:eepromConfig
 985 0b44 D3F89431 		ldr	r3, [r3, #404]	@ float
 986 0b48 1846     		mov	r0, r3	@ float
 987 0b4a 40F20001 		movw	r1, #:lower16:numberString
 988 0b4e C0F20001 		movt	r1, #:upper16:numberString
 989 0b52 FFF7FEFF 		bl	ftoa
 990 0b56 40F20000 		movw	r0, #:lower16:numberString
 991 0b5a C0F20000 		movt	r0, #:upper16:numberString
 992 0b5e FFF7FEFF 		bl	uart3Print
 993 0b62 40F20000 		movw	r0, #:lower16:.LC2
 994 0b66 C0F20000 		movt	r0, #:upper16:.LC2
 995 0b6a FFF7FEFF 		bl	uart3Print
 996 0b6e 40F20003 		movw	r3, #:lower16:eepromConfig
 997 0b72 C0F20003 		movt	r3, #:upper16:eepromConfig
 998 0b76 D3F89831 		ldr	r3, [r3, #408]	@ float
 999 0b7a 1846     		mov	r0, r3	@ float
 1000 0b7c 40F20001 		movw	r1, #:lower16:numberString
 1001 0b80 C0F20001 		movt	r1, #:upper16:numberString
 1002 0b84 FFF7FEFF 		bl	ftoa
 1003 0b88 40F20000 		movw	r0, #:lower16:numberString
 1004 0b8c C0F20000 		movt	r0, #:upper16:numberString
 1005 0b90 FFF7FEFF 		bl	uart3Print
 1006 0b94 40F20000 		movw	r0, #:lower16:.LC2
 1007 0b98 C0F20000 		movt	r0, #:upper16:.LC2
 1008 0b9c FFF7FEFF 		bl	uart3Print
 1009 0ba0 40F20003 		movw	r3, #:lower16:eepromConfig
 1010 0ba4 C0F20003 		movt	r3, #:upper16:eepromConfig
 1011 0ba8 D3F8A031 		ldr	r3, [r3, #416]	@ float
 1012 0bac 1846     		mov	r0, r3	@ float
 1013 0bae 40F20001 		movw	r1, #:lower16:numberString
 1014 0bb2 C0F20001 		movt	r1, #:upper16:numberString
 1015 0bb6 FFF7FEFF 		bl	ftoa
 1016 0bba 40F20000 		movw	r0, #:lower16:numberString
 1017 0bbe C0F20000 		movt	r0, #:upper16:numberString
 1018 0bc2 FFF7FEFF 		bl	uart3Print
 1019 0bc6 40F20000 		movw	r0, #:lower16:.LC2
 1020 0bca C0F20000 		movt	r0, #:upper16:.LC2
 1021 0bce FFF7FEFF 		bl	uart3Print
 1022 0bd2 40F20003 		movw	r3, #:lower16:eepromConfig
 1023 0bd6 C0F20003 		movt	r3, #:upper16:eepromConfig
 1024 0bda 93F8B031 		ldrb	r3, [r3, #432]	@ zero_extendqisi2
 1025 0bde 002B     		cmp	r3, #0
 1026 0be0 06D0     		beq	.L60
 1027 0be2 40F20000 		movw	r0, #:lower16:.LC3
 1028 0be6 C0F20000 		movt	r0, #:upper16:.LC3
 1029 0bea FFF7FEFF 		bl	uart3Print
 1030 0bee 05E0     		b	.L61
 1031              	.L60:
 1032 0bf0 40F20000 		movw	r0, #:lower16:.LC4
 1033 0bf4 C0F20000 		movt	r0, #:upper16:.LC4
 1034 0bf8 FFF7FEFF 		bl	uart3Print
 1035              	.L61:
 1036 0bfc 40F20000 		movw	r0, #:lower16:.LC11
 1037 0c00 C0F20000 		movt	r0, #:upper16:.LC11
 1038 0c04 FFF7FEFF 		bl	uart3Print
 1039 0c08 40F20003 		movw	r3, #:lower16:eepromConfig
 1040 0c0c C0F20003 		movt	r3, #:upper16:eepromConfig
 1041 0c10 D3F8B431 		ldr	r3, [r3, #436]	@ float
 1042 0c14 1846     		mov	r0, r3	@ float
 1043 0c16 40F20001 		movw	r1, #:lower16:numberString
 1044 0c1a C0F20001 		movt	r1, #:upper16:numberString
 1045 0c1e FFF7FEFF 		bl	ftoa
 1046 0c22 40F20000 		movw	r0, #:lower16:numberString
 1047 0c26 C0F20000 		movt	r0, #:upper16:numberString
 1048 0c2a FFF7FEFF 		bl	uart3Print
 1049 0c2e 40F20000 		movw	r0, #:lower16:.LC2
 1050 0c32 C0F20000 		movt	r0, #:upper16:.LC2
 1051 0c36 FFF7FEFF 		bl	uart3Print
 1052 0c3a 40F20003 		movw	r3, #:lower16:eepromConfig
 1053 0c3e C0F20003 		movt	r3, #:upper16:eepromConfig
 1054 0c42 D3F8B831 		ldr	r3, [r3, #440]	@ float
 1055 0c46 1846     		mov	r0, r3	@ float
 1056 0c48 40F20001 		movw	r1, #:lower16:numberString
 1057 0c4c C0F20001 		movt	r1, #:upper16:numberString
 1058 0c50 FFF7FEFF 		bl	ftoa
 1059 0c54 40F20000 		movw	r0, #:lower16:numberString
 1060 0c58 C0F20000 		movt	r0, #:upper16:numberString
 1061 0c5c FFF7FEFF 		bl	uart3Print
 1062 0c60 40F20000 		movw	r0, #:lower16:.LC2
 1063 0c64 C0F20000 		movt	r0, #:upper16:.LC2
 1064 0c68 FFF7FEFF 		bl	uart3Print
 1065 0c6c 40F20003 		movw	r3, #:lower16:eepromConfig
 1066 0c70 C0F20003 		movt	r3, #:upper16:eepromConfig
 1067 0c74 D3F8BC31 		ldr	r3, [r3, #444]	@ float
 1068 0c78 1846     		mov	r0, r3	@ float
 1069 0c7a 40F20001 		movw	r1, #:lower16:numberString
 1070 0c7e C0F20001 		movt	r1, #:upper16:numberString
 1071 0c82 FFF7FEFF 		bl	ftoa
 1072 0c86 40F20000 		movw	r0, #:lower16:numberString
 1073 0c8a C0F20000 		movt	r0, #:upper16:numberString
 1074 0c8e FFF7FEFF 		bl	uart3Print
 1075 0c92 40F20000 		movw	r0, #:lower16:.LC2
 1076 0c96 C0F20000 		movt	r0, #:upper16:.LC2
 1077 0c9a FFF7FEFF 		bl	uart3Print
 1078 0c9e 40F20003 		movw	r3, #:lower16:eepromConfig
 1079 0ca2 C0F20003 		movt	r3, #:upper16:eepromConfig
 1080 0ca6 D3F8C031 		ldr	r3, [r3, #448]	@ float
 1081 0caa 1846     		mov	r0, r3	@ float
 1082 0cac 40F20001 		movw	r1, #:lower16:numberString
 1083 0cb0 C0F20001 		movt	r1, #:upper16:numberString
 1084 0cb4 FFF7FEFF 		bl	ftoa
 1085 0cb8 40F20000 		movw	r0, #:lower16:numberString
 1086 0cbc C0F20000 		movt	r0, #:upper16:numberString
 1087 0cc0 FFF7FEFF 		bl	uart3Print
 1088 0cc4 40F20000 		movw	r0, #:lower16:.LC2
 1089 0cc8 C0F20000 		movt	r0, #:upper16:.LC2
 1090 0ccc FFF7FEFF 		bl	uart3Print
 1091 0cd0 40F20003 		movw	r3, #:lower16:eepromConfig
 1092 0cd4 C0F20003 		movt	r3, #:upper16:eepromConfig
 1093 0cd8 D3F8C831 		ldr	r3, [r3, #456]	@ float
 1094 0cdc 1846     		mov	r0, r3	@ float
 1095 0cde 40F20001 		movw	r1, #:lower16:numberString
 1096 0ce2 C0F20001 		movt	r1, #:upper16:numberString
 1097 0ce6 FFF7FEFF 		bl	ftoa
 1098 0cea 40F20000 		movw	r0, #:lower16:numberString
 1099 0cee C0F20000 		movt	r0, #:upper16:numberString
 1100 0cf2 FFF7FEFF 		bl	uart3Print
 1101 0cf6 40F20000 		movw	r0, #:lower16:.LC2
 1102 0cfa C0F20000 		movt	r0, #:upper16:.LC2
 1103 0cfe FFF7FEFF 		bl	uart3Print
 1104 0d02 40F20003 		movw	r3, #:lower16:eepromConfig
 1105 0d06 C0F20003 		movt	r3, #:upper16:eepromConfig
 1106 0d0a 93F8D831 		ldrb	r3, [r3, #472]	@ zero_extendqisi2
 1107 0d0e 002B     		cmp	r3, #0
 1108 0d10 06D0     		beq	.L62
 1109 0d12 40F20000 		movw	r0, #:lower16:.LC3
 1110 0d16 C0F20000 		movt	r0, #:upper16:.LC3
 1111 0d1a FFF7FEFF 		bl	uart3Print
 1112 0d1e 05E0     		b	.L63
 1113              	.L62:
 1114 0d20 40F20000 		movw	r0, #:lower16:.LC4
 1115 0d24 C0F20000 		movt	r0, #:upper16:.LC4
 1116 0d28 FFF7FEFF 		bl	uart3Print
 1117              	.L63:
 1118 0d2c 40F20000 		movw	r0, #:lower16:.LC12
 1119 0d30 C0F20000 		movt	r0, #:upper16:.LC12
 1120 0d34 FFF7FEFF 		bl	uart3Print
 1121 0d38 40F20003 		movw	r3, #:lower16:eepromConfig
 1122 0d3c C0F20003 		movt	r3, #:upper16:eepromConfig
 1123 0d40 D3F8DC31 		ldr	r3, [r3, #476]	@ float
 1124 0d44 1846     		mov	r0, r3	@ float
 1125 0d46 40F20001 		movw	r1, #:lower16:numberString
 1126 0d4a C0F20001 		movt	r1, #:upper16:numberString
 1127 0d4e FFF7FEFF 		bl	ftoa
 1128 0d52 40F20000 		movw	r0, #:lower16:numberString
 1129 0d56 C0F20000 		movt	r0, #:upper16:numberString
 1130 0d5a FFF7FEFF 		bl	uart3Print
 1131 0d5e 40F20000 		movw	r0, #:lower16:.LC2
 1132 0d62 C0F20000 		movt	r0, #:upper16:.LC2
 1133 0d66 FFF7FEFF 		bl	uart3Print
 1134 0d6a 40F20003 		movw	r3, #:lower16:eepromConfig
 1135 0d6e C0F20003 		movt	r3, #:upper16:eepromConfig
 1136 0d72 D3F8E031 		ldr	r3, [r3, #480]	@ float
 1137 0d76 1846     		mov	r0, r3	@ float
 1138 0d78 40F20001 		movw	r1, #:lower16:numberString
 1139 0d7c C0F20001 		movt	r1, #:upper16:numberString
 1140 0d80 FFF7FEFF 		bl	ftoa
 1141 0d84 40F20000 		movw	r0, #:lower16:numberString
 1142 0d88 C0F20000 		movt	r0, #:upper16:numberString
 1143 0d8c FFF7FEFF 		bl	uart3Print
 1144 0d90 40F20000 		movw	r0, #:lower16:.LC2
 1145 0d94 C0F20000 		movt	r0, #:upper16:.LC2
 1146 0d98 FFF7FEFF 		bl	uart3Print
 1147 0d9c 40F20003 		movw	r3, #:lower16:eepromConfig
 1148 0da0 C0F20003 		movt	r3, #:upper16:eepromConfig
 1149 0da4 D3F8E431 		ldr	r3, [r3, #484]	@ float
 1150 0da8 1846     		mov	r0, r3	@ float
 1151 0daa 40F20001 		movw	r1, #:lower16:numberString
 1152 0dae C0F20001 		movt	r1, #:upper16:numberString
 1153 0db2 FFF7FEFF 		bl	ftoa
 1154 0db6 40F20000 		movw	r0, #:lower16:numberString
 1155 0dba C0F20000 		movt	r0, #:upper16:numberString
 1156 0dbe FFF7FEFF 		bl	uart3Print
 1157 0dc2 40F20000 		movw	r0, #:lower16:.LC2
 1158 0dc6 C0F20000 		movt	r0, #:upper16:.LC2
 1159 0dca FFF7FEFF 		bl	uart3Print
 1160 0dce 40F20003 		movw	r3, #:lower16:eepromConfig
 1161 0dd2 C0F20003 		movt	r3, #:upper16:eepromConfig
 1162 0dd6 D3F8E831 		ldr	r3, [r3, #488]	@ float
 1163 0dda 1846     		mov	r0, r3	@ float
 1164 0ddc 40F20001 		movw	r1, #:lower16:numberString
 1165 0de0 C0F20001 		movt	r1, #:upper16:numberString
 1166 0de4 FFF7FEFF 		bl	ftoa
 1167 0de8 40F20000 		movw	r0, #:lower16:numberString
 1168 0dec C0F20000 		movt	r0, #:upper16:numberString
 1169 0df0 FFF7FEFF 		bl	uart3Print
 1170 0df4 40F20000 		movw	r0, #:lower16:.LC2
 1171 0df8 C0F20000 		movt	r0, #:upper16:.LC2
 1172 0dfc FFF7FEFF 		bl	uart3Print
 1173 0e00 40F20003 		movw	r3, #:lower16:eepromConfig
 1174 0e04 C0F20003 		movt	r3, #:upper16:eepromConfig
 1175 0e08 D3F8F031 		ldr	r3, [r3, #496]	@ float
 1176 0e0c 1846     		mov	r0, r3	@ float
 1177 0e0e 40F20001 		movw	r1, #:lower16:numberString
 1178 0e12 C0F20001 		movt	r1, #:upper16:numberString
 1179 0e16 FFF7FEFF 		bl	ftoa
 1180 0e1a 40F20000 		movw	r0, #:lower16:numberString
 1181 0e1e C0F20000 		movt	r0, #:upper16:numberString
 1182 0e22 FFF7FEFF 		bl	uart3Print
 1183 0e26 40F20000 		movw	r0, #:lower16:.LC2
 1184 0e2a C0F20000 		movt	r0, #:upper16:.LC2
 1185 0e2e FFF7FEFF 		bl	uart3Print
 1186 0e32 40F20003 		movw	r3, #:lower16:eepromConfig
 1187 0e36 C0F20003 		movt	r3, #:upper16:eepromConfig
 1188 0e3a 93F80032 		ldrb	r3, [r3, #512]	@ zero_extendqisi2
 1189 0e3e 002B     		cmp	r3, #0
 1190 0e40 06D0     		beq	.L64
 1191 0e42 40F20000 		movw	r0, #:lower16:.LC3
 1192 0e46 C0F20000 		movt	r0, #:upper16:.LC3
 1193 0e4a FFF7FEFF 		bl	uart3Print
 1194 0e4e 05E0     		b	.L65
 1195              	.L64:
 1196 0e50 40F20000 		movw	r0, #:lower16:.LC4
 1197 0e54 C0F20000 		movt	r0, #:upper16:.LC4
 1198 0e58 FFF7FEFF 		bl	uart3Print
 1199              	.L65:
 1200 0e5c 40F20003 		movw	r3, #:lower16:rfQueryType
 1201 0e60 C0F20003 		movt	r3, #:upper16:rfQueryType
 1202 0e64 4FF07802 		mov	r2, #120
 1203 0e68 1A70     		strb	r2, [r3, #0]
 1204 0e6a 60E3     		b	.L16
 1205              	.L45:
 1206 0e6c 40F20000 		movw	r0, #:lower16:.LC0
 1207 0e70 C0F20000 		movt	r0, #:upper16:.LC0
 1208 0e74 FFF7FEFF 		bl	uart3Print
 1209 0e78 40F20000 		movw	r0, #:lower16:.LC13
 1210 0e7c C0F20000 		movt	r0, #:upper16:.LC13
 1211 0e80 FFF7FEFF 		bl	uart3Print
 1212 0e84 40F20003 		movw	r3, #:lower16:eepromConfig
 1213 0e88 C0F20003 		movt	r3, #:upper16:eepromConfig
 1214 0e8c D3F80432 		ldr	r3, [r3, #516]	@ float
 1215 0e90 1846     		mov	r0, r3	@ float
 1216 0e92 40F20001 		movw	r1, #:lower16:numberString
 1217 0e96 C0F20001 		movt	r1, #:upper16:numberString
 1218 0e9a FFF7FEFF 		bl	ftoa
 1219 0e9e 40F20000 		movw	r0, #:lower16:numberString
 1220 0ea2 C0F20000 		movt	r0, #:upper16:numberString
 1221 0ea6 FFF7FEFF 		bl	uart3Print
 1222 0eaa 40F20000 		movw	r0, #:lower16:.LC2
 1223 0eae C0F20000 		movt	r0, #:upper16:.LC2
 1224 0eb2 FFF7FEFF 		bl	uart3Print
 1225 0eb6 40F20003 		movw	r3, #:lower16:eepromConfig
 1226 0eba C0F20003 		movt	r3, #:upper16:eepromConfig
 1227 0ebe D3F80832 		ldr	r3, [r3, #520]	@ float
 1228 0ec2 1846     		mov	r0, r3	@ float
 1229 0ec4 40F20001 		movw	r1, #:lower16:numberString
 1230 0ec8 C0F20001 		movt	r1, #:upper16:numberString
 1231 0ecc FFF7FEFF 		bl	ftoa
 1232 0ed0 40F20000 		movw	r0, #:lower16:numberString
 1233 0ed4 C0F20000 		movt	r0, #:upper16:numberString
 1234 0ed8 FFF7FEFF 		bl	uart3Print
 1235 0edc 40F20000 		movw	r0, #:lower16:.LC2
 1236 0ee0 C0F20000 		movt	r0, #:upper16:.LC2
 1237 0ee4 FFF7FEFF 		bl	uart3Print
 1238 0ee8 40F20003 		movw	r3, #:lower16:eepromConfig
 1239 0eec C0F20003 		movt	r3, #:upper16:eepromConfig
 1240 0ef0 D3F80C32 		ldr	r3, [r3, #524]	@ float
 1241 0ef4 1846     		mov	r0, r3	@ float
 1242 0ef6 40F20001 		movw	r1, #:lower16:numberString
 1243 0efa C0F20001 		movt	r1, #:upper16:numberString
 1244 0efe FFF7FEFF 		bl	ftoa
 1245 0f02 40F20000 		movw	r0, #:lower16:numberString
 1246 0f06 C0F20000 		movt	r0, #:upper16:numberString
 1247 0f0a FFF7FEFF 		bl	uart3Print
 1248 0f0e 40F20000 		movw	r0, #:lower16:.LC2
 1249 0f12 C0F20000 		movt	r0, #:upper16:.LC2
 1250 0f16 FFF7FEFF 		bl	uart3Print
 1251 0f1a 40F20003 		movw	r3, #:lower16:eepromConfig
 1252 0f1e C0F20003 		movt	r3, #:upper16:eepromConfig
 1253 0f22 D3F81032 		ldr	r3, [r3, #528]	@ float
 1254 0f26 1846     		mov	r0, r3	@ float
 1255 0f28 40F20001 		movw	r1, #:lower16:numberString
 1256 0f2c C0F20001 		movt	r1, #:upper16:numberString
 1257 0f30 FFF7FEFF 		bl	ftoa
 1258 0f34 40F20000 		movw	r0, #:lower16:numberString
 1259 0f38 C0F20000 		movt	r0, #:upper16:numberString
 1260 0f3c FFF7FEFF 		bl	uart3Print
 1261 0f40 40F20000 		movw	r0, #:lower16:.LC2
 1262 0f44 C0F20000 		movt	r0, #:upper16:.LC2
 1263 0f48 FFF7FEFF 		bl	uart3Print
 1264 0f4c 40F20003 		movw	r3, #:lower16:eepromConfig
 1265 0f50 C0F20003 		movt	r3, #:upper16:eepromConfig
 1266 0f54 D3F81832 		ldr	r3, [r3, #536]	@ float
 1267 0f58 1846     		mov	r0, r3	@ float
 1268 0f5a 40F20001 		movw	r1, #:lower16:numberString
 1269 0f5e C0F20001 		movt	r1, #:upper16:numberString
 1270 0f62 FFF7FEFF 		bl	ftoa
 1271 0f66 40F20000 		movw	r0, #:lower16:numberString
 1272 0f6a C0F20000 		movt	r0, #:upper16:numberString
 1273 0f6e FFF7FEFF 		bl	uart3Print
 1274 0f72 40F20000 		movw	r0, #:lower16:.LC2
 1275 0f76 C0F20000 		movt	r0, #:upper16:.LC2
 1276 0f7a FFF7FEFF 		bl	uart3Print
 1277 0f7e 40F20003 		movw	r3, #:lower16:eepromConfig
 1278 0f82 C0F20003 		movt	r3, #:upper16:eepromConfig
 1279 0f86 93F82832 		ldrb	r3, [r3, #552]	@ zero_extendqisi2
 1280 0f8a 002B     		cmp	r3, #0
 1281 0f8c 06D0     		beq	.L66
 1282 0f8e 40F20000 		movw	r0, #:lower16:.LC3
 1283 0f92 C0F20000 		movt	r0, #:upper16:.LC3
 1284 0f96 FFF7FEFF 		bl	uart3Print
 1285 0f9a 05E0     		b	.L67
 1286              	.L66:
 1287 0f9c 40F20000 		movw	r0, #:lower16:.LC4
 1288 0fa0 C0F20000 		movt	r0, #:upper16:.LC4
 1289 0fa4 FFF7FEFF 		bl	uart3Print
 1290              	.L67:
 1291 0fa8 40F20000 		movw	r0, #:lower16:.LC14
 1292 0fac C0F20000 		movt	r0, #:upper16:.LC14
 1293 0fb0 FFF7FEFF 		bl	uart3Print
 1294 0fb4 40F20003 		movw	r3, #:lower16:eepromConfig
 1295 0fb8 C0F20003 		movt	r3, #:upper16:eepromConfig
 1296 0fbc D3F82C32 		ldr	r3, [r3, #556]	@ float
 1297 0fc0 1846     		mov	r0, r3	@ float
 1298 0fc2 40F20001 		movw	r1, #:lower16:numberString
 1299 0fc6 C0F20001 		movt	r1, #:upper16:numberString
 1300 0fca FFF7FEFF 		bl	ftoa
 1301 0fce 40F20000 		movw	r0, #:lower16:numberString
 1302 0fd2 C0F20000 		movt	r0, #:upper16:numberString
 1303 0fd6 FFF7FEFF 		bl	uart3Print
 1304 0fda 40F20000 		movw	r0, #:lower16:.LC2
 1305 0fde C0F20000 		movt	r0, #:upper16:.LC2
 1306 0fe2 FFF7FEFF 		bl	uart3Print
 1307 0fe6 40F20003 		movw	r3, #:lower16:eepromConfig
 1308 0fea C0F20003 		movt	r3, #:upper16:eepromConfig
 1309 0fee D3F83032 		ldr	r3, [r3, #560]	@ float
 1310 0ff2 1846     		mov	r0, r3	@ float
 1311 0ff4 40F20001 		movw	r1, #:lower16:numberString
 1312 0ff8 C0F20001 		movt	r1, #:upper16:numberString
 1313 0ffc FFF7FEFF 		bl	ftoa
 1314 1000 40F20000 		movw	r0, #:lower16:numberString
 1315 1004 C0F20000 		movt	r0, #:upper16:numberString
 1316 1008 FFF7FEFF 		bl	uart3Print
 1317 100c 40F20000 		movw	r0, #:lower16:.LC2
 1318 1010 C0F20000 		movt	r0, #:upper16:.LC2
 1319 1014 FFF7FEFF 		bl	uart3Print
 1320 1018 40F20003 		movw	r3, #:lower16:eepromConfig
 1321 101c C0F20003 		movt	r3, #:upper16:eepromConfig
 1322 1020 D3F83432 		ldr	r3, [r3, #564]	@ float
 1323 1024 1846     		mov	r0, r3	@ float
 1324 1026 40F20001 		movw	r1, #:lower16:numberString
 1325 102a C0F20001 		movt	r1, #:upper16:numberString
 1326 102e FFF7FEFF 		bl	ftoa
 1327 1032 40F20000 		movw	r0, #:lower16:numberString
 1328 1036 C0F20000 		movt	r0, #:upper16:numberString
 1329 103a FFF7FEFF 		bl	uart3Print
 1330 103e 40F20000 		movw	r0, #:lower16:.LC2
 1331 1042 C0F20000 		movt	r0, #:upper16:.LC2
 1332 1046 FFF7FEFF 		bl	uart3Print
 1333 104a 40F20003 		movw	r3, #:lower16:eepromConfig
 1334 104e C0F20003 		movt	r3, #:upper16:eepromConfig
 1335 1052 D3F83832 		ldr	r3, [r3, #568]	@ float
 1336 1056 1846     		mov	r0, r3	@ float
 1337 1058 40F20001 		movw	r1, #:lower16:numberString
 1338 105c C0F20001 		movt	r1, #:upper16:numberString
 1339 1060 FFF7FEFF 		bl	ftoa
 1340 1064 40F20000 		movw	r0, #:lower16:numberString
 1341 1068 C0F20000 		movt	r0, #:upper16:numberString
 1342 106c FFF7FEFF 		bl	uart3Print
 1343 1070 40F20000 		movw	r0, #:lower16:.LC2
 1344 1074 C0F20000 		movt	r0, #:upper16:.LC2
 1345 1078 FFF7FEFF 		bl	uart3Print
 1346 107c 40F20003 		movw	r3, #:lower16:eepromConfig
 1347 1080 C0F20003 		movt	r3, #:upper16:eepromConfig
 1348 1084 D3F84032 		ldr	r3, [r3, #576]	@ float
 1349 1088 1846     		mov	r0, r3	@ float
 1350 108a 40F20001 		movw	r1, #:lower16:numberString
 1351 108e C0F20001 		movt	r1, #:upper16:numberString
 1352 1092 FFF7FEFF 		bl	ftoa
 1353 1096 40F20000 		movw	r0, #:lower16:numberString
 1354 109a C0F20000 		movt	r0, #:upper16:numberString
 1355 109e FFF7FEFF 		bl	uart3Print
 1356 10a2 40F20000 		movw	r0, #:lower16:.LC2
 1357 10a6 C0F20000 		movt	r0, #:upper16:.LC2
 1358 10aa FFF7FEFF 		bl	uart3Print
 1359 10ae 40F20003 		movw	r3, #:lower16:eepromConfig
 1360 10b2 C0F20003 		movt	r3, #:upper16:eepromConfig
 1361 10b6 93F85032 		ldrb	r3, [r3, #592]	@ zero_extendqisi2
 1362 10ba 002B     		cmp	r3, #0
 1363 10bc 06D0     		beq	.L68
 1364 10be 40F20000 		movw	r0, #:lower16:.LC3
 1365 10c2 C0F20000 		movt	r0, #:upper16:.LC3
 1366 10c6 FFF7FEFF 		bl	uart3Print
 1367 10ca 05E0     		b	.L69
 1368              	.L68:
 1369 10cc 40F20000 		movw	r0, #:lower16:.LC4
 1370 10d0 C0F20000 		movt	r0, #:upper16:.LC4
 1371 10d4 FFF7FEFF 		bl	uart3Print
 1372              	.L69:
 1373 10d8 40F20000 		movw	r0, #:lower16:.LC15
 1374 10dc C0F20000 		movt	r0, #:upper16:.LC15
 1375 10e0 FFF7FEFF 		bl	uart3Print
 1376 10e4 40F20003 		movw	r3, #:lower16:eepromConfig
 1377 10e8 C0F20003 		movt	r3, #:upper16:eepromConfig
 1378 10ec D3F85432 		ldr	r3, [r3, #596]	@ float
 1379 10f0 1846     		mov	r0, r3	@ float
 1380 10f2 40F20001 		movw	r1, #:lower16:numberString
 1381 10f6 C0F20001 		movt	r1, #:upper16:numberString
 1382 10fa FFF7FEFF 		bl	ftoa
 1383 10fe 40F20000 		movw	r0, #:lower16:numberString
 1384 1102 C0F20000 		movt	r0, #:upper16:numberString
 1385 1106 FFF7FEFF 		bl	uart3Print
 1386 110a 40F20000 		movw	r0, #:lower16:.LC2
 1387 110e C0F20000 		movt	r0, #:upper16:.LC2
 1388 1112 FFF7FEFF 		bl	uart3Print
 1389 1116 40F20003 		movw	r3, #:lower16:eepromConfig
 1390 111a C0F20003 		movt	r3, #:upper16:eepromConfig
 1391 111e D3F85832 		ldr	r3, [r3, #600]	@ float
 1392 1122 1846     		mov	r0, r3	@ float
 1393 1124 40F20001 		movw	r1, #:lower16:numberString
 1394 1128 C0F20001 		movt	r1, #:upper16:numberString
 1395 112c FFF7FEFF 		bl	ftoa
 1396 1130 40F20000 		movw	r0, #:lower16:numberString
 1397 1134 C0F20000 		movt	r0, #:upper16:numberString
 1398 1138 FFF7FEFF 		bl	uart3Print
 1399 113c 40F20000 		movw	r0, #:lower16:.LC2
 1400 1140 C0F20000 		movt	r0, #:upper16:.LC2
 1401 1144 FFF7FEFF 		bl	uart3Print
 1402 1148 40F20003 		movw	r3, #:lower16:eepromConfig
 1403 114c C0F20003 		movt	r3, #:upper16:eepromConfig
 1404 1150 D3F85C32 		ldr	r3, [r3, #604]	@ float
 1405 1154 1846     		mov	r0, r3	@ float
 1406 1156 40F20001 		movw	r1, #:lower16:numberString
 1407 115a C0F20001 		movt	r1, #:upper16:numberString
 1408 115e FFF7FEFF 		bl	ftoa
 1409 1162 40F20000 		movw	r0, #:lower16:numberString
 1410 1166 C0F20000 		movt	r0, #:upper16:numberString
 1411 116a FFF7FEFF 		bl	uart3Print
 1412 116e 40F20000 		movw	r0, #:lower16:.LC2
 1413 1172 C0F20000 		movt	r0, #:upper16:.LC2
 1414 1176 FFF7FEFF 		bl	uart3Print
 1415 117a 40F20003 		movw	r3, #:lower16:eepromConfig
 1416 117e C0F20003 		movt	r3, #:upper16:eepromConfig
 1417 1182 D3F86032 		ldr	r3, [r3, #608]	@ float
 1418 1186 1846     		mov	r0, r3	@ float
 1419 1188 40F20001 		movw	r1, #:lower16:numberString
 1420 118c C0F20001 		movt	r1, #:upper16:numberString
 1421 1190 FFF7FEFF 		bl	ftoa
 1422 1194 40F20000 		movw	r0, #:lower16:numberString
 1423 1198 C0F20000 		movt	r0, #:upper16:numberString
 1424 119c FFF7FEFF 		bl	uart3Print
 1425 11a0 40F20000 		movw	r0, #:lower16:.LC2
 1426 11a4 C0F20000 		movt	r0, #:upper16:.LC2
 1427 11a8 FFF7FEFF 		bl	uart3Print
 1428 11ac 40F20003 		movw	r3, #:lower16:eepromConfig
 1429 11b0 C0F20003 		movt	r3, #:upper16:eepromConfig
 1430 11b4 D3F86832 		ldr	r3, [r3, #616]	@ float
 1431 11b8 1846     		mov	r0, r3	@ float
 1432 11ba 40F20001 		movw	r1, #:lower16:numberString
 1433 11be C0F20001 		movt	r1, #:upper16:numberString
 1434 11c2 FFF7FEFF 		bl	ftoa
 1435 11c6 40F20000 		movw	r0, #:lower16:numberString
 1436 11ca C0F20000 		movt	r0, #:upper16:numberString
 1437 11ce FFF7FEFF 		bl	uart3Print
 1438 11d2 40F20000 		movw	r0, #:lower16:.LC2
 1439 11d6 C0F20000 		movt	r0, #:upper16:.LC2
 1440 11da FFF7FEFF 		bl	uart3Print
 1441 11de 40F20003 		movw	r3, #:lower16:eepromConfig
 1442 11e2 C0F20003 		movt	r3, #:upper16:eepromConfig
 1443 11e6 93F87832 		ldrb	r3, [r3, #632]	@ zero_extendqisi2
 1444 11ea 002B     		cmp	r3, #0
 1445 11ec 06D0     		beq	.L70
 1446 11ee 40F20000 		movw	r0, #:lower16:.LC3
 1447 11f2 C0F20000 		movt	r0, #:upper16:.LC3
 1448 11f6 FFF7FEFF 		bl	uart3Print
 1449 11fa 05E0     		b	.L71
 1450              	.L70:
 1451 11fc 40F20000 		movw	r0, #:lower16:.LC4
 1452 1200 C0F20000 		movt	r0, #:upper16:.LC4
 1453 1204 FFF7FEFF 		bl	uart3Print
 1454              	.L71:
 1455 1208 40F20003 		movw	r3, #:lower16:rfQueryType
 1456 120c C0F20003 		movt	r3, #:upper16:rfQueryType
 1457 1210 4FF07802 		mov	r2, #120
 1458 1214 1A70     		strb	r2, [r3, #0]
 1459 1216 8AE1     		b	.L16
 1460              	.L20:
 1461 1218 FFF7FEFF 		bl	highSpeedTelemDisable
 1462 121c 40F20003 		movw	r3, #:lower16:highSpeedTelem1Enabled
 1463 1220 C0F20003 		movt	r3, #:upper16:highSpeedTelem1Enabled
 1464 1224 4FF00102 		mov	r2, #1
 1465 1228 1A70     		strb	r2, [r3, #0]
 1466 122a 40F20003 		movw	r3, #:lower16:rfQueryType
 1467 122e C0F20003 		movt	r3, #:upper16:rfQueryType
 1468 1232 4FF07802 		mov	r2, #120
 1469 1236 1A70     		strb	r2, [r3, #0]
 1470 1238 79E1     		b	.L16
 1471              	.L21:
 1472 123a FFF7FEFF 		bl	highSpeedTelemDisable
 1473 123e 40F20003 		movw	r3, #:lower16:highSpeedTelem2Enabled
 1474 1242 C0F20003 		movt	r3, #:upper16:highSpeedTelem2Enabled
 1475 1246 4FF00102 		mov	r2, #1
 1476 124a 1A70     		strb	r2, [r3, #0]
 1477 124c 40F20003 		movw	r3, #:lower16:rfQueryType
 1478 1250 C0F20003 		movt	r3, #:upper16:rfQueryType
 1479 1254 4FF07802 		mov	r2, #120
 1480 1258 1A70     		strb	r2, [r3, #0]
 1481 125a 68E1     		b	.L16
 1482              	.L22:
 1483 125c FFF7FEFF 		bl	highSpeedTelemDisable
 1484 1260 40F20003 		movw	r3, #:lower16:highSpeedTelem3Enabled
 1485 1264 C0F20003 		movt	r3, #:upper16:highSpeedTelem3Enabled
 1486 1268 4FF00102 		mov	r2, #1
 1487 126c 1A70     		strb	r2, [r3, #0]
 1488 126e 40F20003 		movw	r3, #:lower16:rfQueryType
 1489 1272 C0F20003 		movt	r3, #:upper16:rfQueryType
 1490 1276 4FF07802 		mov	r2, #120
 1491 127a 1A70     		strb	r2, [r3, #0]
 1492 127c 57E1     		b	.L16
 1493              	.L23:
 1494 127e FFF7FEFF 		bl	highSpeedTelemDisable
 1495 1282 40F20003 		movw	r3, #:lower16:highSpeedTelem4Enabled
 1496 1286 C0F20003 		movt	r3, #:upper16:highSpeedTelem4Enabled
 1497 128a 4FF00102 		mov	r2, #1
 1498 128e 1A70     		strb	r2, [r3, #0]
 1499 1290 40F20003 		movw	r3, #:lower16:rfQueryType
 1500 1294 C0F20003 		movt	r3, #:upper16:rfQueryType
 1501 1298 4FF07802 		mov	r2, #120
 1502 129c 1A70     		strb	r2, [r3, #0]
 1503 129e 46E1     		b	.L16
 1504              	.L24:
 1505 12a0 FFF7FEFF 		bl	highSpeedTelemDisable
 1506 12a4 40F20003 		movw	r3, #:lower16:highSpeedTelem5Enabled
 1507 12a8 C0F20003 		movt	r3, #:upper16:highSpeedTelem5Enabled
 1508 12ac 4FF00102 		mov	r2, #1
 1509 12b0 1A70     		strb	r2, [r3, #0]
 1510 12b2 40F20003 		movw	r3, #:lower16:rfQueryType
 1511 12b6 C0F20003 		movt	r3, #:upper16:rfQueryType
 1512 12ba 4FF07802 		mov	r2, #120
 1513 12be 1A70     		strb	r2, [r3, #0]
 1514 12c0 35E1     		b	.L16
 1515              	.L25:
 1516 12c2 FFF7FEFF 		bl	highSpeedTelemDisable
 1517 12c6 40F20003 		movw	r3, #:lower16:highSpeedTelem6Enabled
 1518 12ca C0F20003 		movt	r3, #:upper16:highSpeedTelem6Enabled
 1519 12ce 4FF00102 		mov	r2, #1
 1520 12d2 1A70     		strb	r2, [r3, #0]
 1521 12d4 40F20003 		movw	r3, #:lower16:rfQueryType
 1522 12d8 C0F20003 		movt	r3, #:upper16:rfQueryType
 1523 12dc 4FF07802 		mov	r2, #120
 1524 12e0 1A70     		strb	r2, [r3, #0]
 1525 12e2 24E1     		b	.L16
 1526              	.L26:
 1527 12e4 FFF7FEFF 		bl	highSpeedTelemDisable
 1528 12e8 40F20003 		movw	r3, #:lower16:highSpeedTelem7Enabled
 1529 12ec C0F20003 		movt	r3, #:upper16:highSpeedTelem7Enabled
 1530 12f0 4FF00102 		mov	r2, #1
 1531 12f4 1A70     		strb	r2, [r3, #0]
 1532 12f6 40F20003 		movw	r3, #:lower16:rfQueryType
 1533 12fa C0F20003 		movt	r3, #:upper16:rfQueryType
 1534 12fe 4FF07802 		mov	r2, #120
 1535 1302 1A70     		strb	r2, [r3, #0]
 1536 1304 13E1     		b	.L16
 1537              	.L27:
 1538 1306 FFF7FEFF 		bl	highSpeedTelemDisable
 1539 130a 40F20003 		movw	r3, #:lower16:highSpeedTelem8Enabled
 1540 130e C0F20003 		movt	r3, #:upper16:highSpeedTelem8Enabled
 1541 1312 4FF00102 		mov	r2, #1
 1542 1316 1A70     		strb	r2, [r3, #0]
 1543 1318 40F20003 		movw	r3, #:lower16:rfQueryType
 1544 131c C0F20003 		movt	r3, #:upper16:rfQueryType
 1545 1320 4FF07802 		mov	r2, #120
 1546 1324 1A70     		strb	r2, [r3, #0]
 1547 1326 02E1     		b	.L16
 1548              	.L28:
 1549 1328 FFF7FEFF 		bl	highSpeedTelemDisable
 1550 132c 40F20003 		movw	r3, #:lower16:highSpeedTelem9Enabled
 1551 1330 C0F20003 		movt	r3, #:upper16:highSpeedTelem9Enabled
 1552 1334 4FF00102 		mov	r2, #1
 1553 1338 1A70     		strb	r2, [r3, #0]
 1554 133a 40F20003 		movw	r3, #:lower16:rfQueryType
 1555 133e C0F20003 		movt	r3, #:upper16:rfQueryType
 1556 1342 4FF07802 		mov	r2, #120
 1557 1346 1A70     		strb	r2, [r3, #0]
 1558 1348 F1E0     		b	.L16
 1559              	.L19:
 1560 134a FFF7FEFF 		bl	highSpeedTelemDisable
 1561 134e 40F20003 		movw	r3, #:lower16:rfQueryType
 1562 1352 C0F20003 		movt	r3, #:upper16:rfQueryType
 1563 1356 4FF07802 		mov	r2, #120
 1564 135a 1A70     		strb	r2, [r3, #0]
 1565 135c E7E0     		b	.L16
 1566              	.L29:
 1567 135e 4FF00000 		mov	r0, #0
 1568 1362 FFF7FEFF 		bl	readRFPID
 1569 1366 40F20000 		movw	r0, #:lower16:.LC16
 1570 136a C0F20000 		movt	r0, #:upper16:.LC16
 1571 136e FFF7FEFF 		bl	uart3Print
 1572 1372 40F20003 		movw	r3, #:lower16:rfQueryType
 1573 1376 C0F20003 		movt	r3, #:upper16:rfQueryType
 1574 137a 4FF06102 		mov	r2, #97
 1575 137e 1A70     		strb	r2, [r3, #0]
 1576 1380 D5E0     		b	.L16
 1577              	.L30:
 1578 1382 4FF00100 		mov	r0, #1
 1579 1386 FFF7FEFF 		bl	readRFPID
 1580 138a 40F20000 		movw	r0, #:lower16:.LC17
 1581 138e C0F20000 		movt	r0, #:upper16:.LC17
 1582 1392 FFF7FEFF 		bl	uart3Print
 1583 1396 40F20003 		movw	r3, #:lower16:rfQueryType
 1584 139a C0F20003 		movt	r3, #:upper16:rfQueryType
 1585 139e 4FF06102 		mov	r2, #97
 1586 13a2 1A70     		strb	r2, [r3, #0]
 1587 13a4 C3E0     		b	.L16
 1588              	.L31:
 1589 13a6 4FF00200 		mov	r0, #2
 1590 13aa FFF7FEFF 		bl	readRFPID
 1591 13ae 40F20000 		movw	r0, #:lower16:.LC18
 1592 13b2 C0F20000 		movt	r0, #:upper16:.LC18
 1593 13b6 FFF7FEFF 		bl	uart3Print
 1594 13ba 40F20003 		movw	r3, #:lower16:rfQueryType
 1595 13be C0F20003 		movt	r3, #:upper16:rfQueryType
 1596 13c2 4FF06102 		mov	r2, #97
 1597 13c6 1A70     		strb	r2, [r3, #0]
 1598 13c8 B1E0     		b	.L16
 1599              	.L32:
 1600 13ca 4FF00300 		mov	r0, #3
 1601 13ce FFF7FEFF 		bl	readRFPID
 1602 13d2 40F20000 		movw	r0, #:lower16:.LC19
 1603 13d6 C0F20000 		movt	r0, #:upper16:.LC19
 1604 13da FFF7FEFF 		bl	uart3Print
 1605 13de 40F20003 		movw	r3, #:lower16:rfQueryType
 1606 13e2 C0F20003 		movt	r3, #:upper16:rfQueryType
 1607 13e6 4FF06202 		mov	r2, #98
 1608 13ea 1A70     		strb	r2, [r3, #0]
 1609 13ec 9FE0     		b	.L16
 1610              	.L33:
 1611 13ee 4FF00400 		mov	r0, #4
 1612 13f2 FFF7FEFF 		bl	readRFPID
 1613 13f6 40F20000 		movw	r0, #:lower16:.LC20
 1614 13fa C0F20000 		movt	r0, #:upper16:.LC20
 1615 13fe FFF7FEFF 		bl	uart3Print
 1616 1402 40F20003 		movw	r3, #:lower16:rfQueryType
 1617 1406 C0F20003 		movt	r3, #:upper16:rfQueryType
 1618 140a 4FF06202 		mov	r2, #98
 1619 140e 1A70     		strb	r2, [r3, #0]
 1620 1410 8DE0     		b	.L16
 1621              	.L34:
 1622 1412 4FF00500 		mov	r0, #5
 1623 1416 FFF7FEFF 		bl	readRFPID
 1624 141a 40F20000 		movw	r0, #:lower16:.LC21
 1625 141e C0F20000 		movt	r0, #:upper16:.LC21
 1626 1422 FFF7FEFF 		bl	uart3Print
 1627 1426 40F20003 		movw	r3, #:lower16:rfQueryType
 1628 142a C0F20003 		movt	r3, #:upper16:rfQueryType
 1629 142e 4FF06202 		mov	r2, #98
 1630 1432 1A70     		strb	r2, [r3, #0]
 1631 1434 7BE0     		b	.L16
 1632              	.L35:
 1633 1436 4FF00600 		mov	r0, #6
 1634 143a FFF7FEFF 		bl	readRFPID
 1635 143e 40F20000 		movw	r0, #:lower16:.LC22
 1636 1442 C0F20000 		movt	r0, #:upper16:.LC22
 1637 1446 FFF7FEFF 		bl	uart3Print
 1638 144a 40F20003 		movw	r3, #:lower16:rfQueryType
 1639 144e C0F20003 		movt	r3, #:upper16:rfQueryType
 1640 1452 4FF06302 		mov	r2, #99
 1641 1456 1A70     		strb	r2, [r3, #0]
 1642 1458 69E0     		b	.L16
 1643              	.L36:
 1644 145a 4FF00700 		mov	r0, #7
 1645 145e FFF7FEFF 		bl	readRFPID
 1646 1462 40F20000 		movw	r0, #:lower16:.LC23
 1647 1466 C0F20000 		movt	r0, #:upper16:.LC23
 1648 146a FFF7FEFF 		bl	uart3Print
 1649 146e 40F20003 		movw	r3, #:lower16:rfQueryType
 1650 1472 C0F20003 		movt	r3, #:upper16:rfQueryType
 1651 1476 4FF06302 		mov	r2, #99
 1652 147a 1A70     		strb	r2, [r3, #0]
 1653 147c 57E0     		b	.L16
 1654              	.L37:
 1655 147e 4FF00800 		mov	r0, #8
 1656 1482 FFF7FEFF 		bl	readRFPID
 1657 1486 40F20000 		movw	r0, #:lower16:.LC24
 1658 148a C0F20000 		movt	r0, #:upper16:.LC24
 1659 148e FFF7FEFF 		bl	uart3Print
 1660 1492 40F20003 		movw	r3, #:lower16:rfQueryType
 1661 1496 C0F20003 		movt	r3, #:upper16:rfQueryType
 1662 149a 4FF06302 		mov	r2, #99
 1663 149e 1A70     		strb	r2, [r3, #0]
 1664 14a0 45E0     		b	.L16
 1665              	.L38:
 1666 14a2 4FF00900 		mov	r0, #9
 1667 14a6 FFF7FEFF 		bl	readRFPID
 1668 14aa 40F20000 		movw	r0, #:lower16:.LC25
 1669 14ae C0F20000 		movt	r0, #:upper16:.LC25
 1670 14b2 FFF7FEFF 		bl	uart3Print
 1671 14b6 40F20003 		movw	r3, #:lower16:rfQueryType
 1672 14ba C0F20003 		movt	r3, #:upper16:rfQueryType
 1673 14be 4FF06402 		mov	r2, #100
 1674 14c2 1A70     		strb	r2, [r3, #0]
 1675 14c4 33E0     		b	.L16
 1676              	.L39:
 1677 14c6 4FF00A00 		mov	r0, #10
 1678 14ca FFF7FEFF 		bl	readRFPID
 1679 14ce 40F20000 		movw	r0, #:lower16:.LC26
 1680 14d2 C0F20000 		movt	r0, #:upper16:.LC26
 1681 14d6 FFF7FEFF 		bl	uart3Print
 1682 14da 40F20003 		movw	r3, #:lower16:rfQueryType
 1683 14de C0F20003 		movt	r3, #:upper16:rfQueryType
 1684 14e2 4FF06402 		mov	r2, #100
 1685 14e6 1A70     		strb	r2, [r3, #0]
 1686 14e8 21E0     		b	.L16
 1687              	.L40:
 1688 14ea 4FF00B00 		mov	r0, #11
 1689 14ee FFF7FEFF 		bl	readRFPID
 1690 14f2 40F20000 		movw	r0, #:lower16:.LC27
 1691 14f6 C0F20000 		movt	r0, #:upper16:.LC27
 1692 14fa FFF7FEFF 		bl	uart3Print
 1693 14fe 40F20003 		movw	r3, #:lower16:rfQueryType
 1694 1502 C0F20003 		movt	r3, #:upper16:rfQueryType
 1695 1506 4FF06402 		mov	r2, #100
 1696 150a 1A70     		strb	r2, [r3, #0]
 1697 150c 0FE0     		b	.L16
 1698              	.L41:
 1699 150e 40F20000 		movw	r0, #:lower16:.LC28
 1700 1512 C0F20000 		movt	r0, #:upper16:.LC28
 1701 1516 FFF7FEFF 		bl	uart3Print
 1702 151a FFF7FEFF 		bl	writeEEPROM
 1703 151e 40F20003 		movw	r3, #:lower16:rfQueryType
 1704 1522 C0F20003 		movt	r3, #:upper16:rfQueryType
 1705 1526 4FF07802 		mov	r2, #120
 1706 152a 1A70     		strb	r2, [r3, #0]
 1707 152c 00BF     		nop
 1708              	.L16:
 1709 152e 08BD     		pop	{r3, pc}
 1711              		.ident	"GCC: (Sourcery CodeBench Lite 2012.03-56) 4.6.3"