   1              		.syntax unified
   2              		.cpu cortex-m4
   3              		.eabi_attribute 27, 3
   4              		.fpu fpv4-sp-d16
   5              		.eabi_attribute 20, 1
   6              		.eabi_attribute 21, 1
   7              		.eabi_attribute 23, 3
   8              		.eabi_attribute 24, 1
   9              		.eabi_attribute 25, 1
  10              		.eabi_attribute 26, 1
  11              		.eabi_attribute 30, 6
  12              		.eabi_attribute 34, 1
  13              		.eabi_attribute 18, 4
  14              		.thumb
  15              		.file	"ms5611.c"
  16              		.comm	d1Average,4,4
  17              		.global	d1Sum
  18              		.bss
  19              		.align	2
  22              	d1Sum:
  23 0000 00000000 		.space	4
  24              		.comm	c1,2,4
  25              		.comm	c2,2,4
  26              		.comm	c3,2,4
  27              		.comm	c4,2,4
  28              		.comm	c5,2,4
  29              		.comm	c6,2,4
  30              		.comm	d1,4,4
  31              		.comm	d2,4,4
  32              		.comm	dT,4,4
  33              		.comm	temp,4,4
  34              		.comm	offset,8,8
  35              		.comm	sensitivity,8,8
  36              		.comm	p,4,4
  37              		.global	pressureAltValid
  40              	pressureAltValid:
  41 0004 00       		.space	1
  42 0005 000000   		.text
  43              		.align	2
  44              		.global	readTemperatureRequestPressure
  45              		.thumb
  46              		.thumb_func
  48              	readTemperatureRequestPressure:
  49              		@ args = 0, pretend = 0, frame = 16
  50              		@ frame_needed = 0, uses_anonymous_args = 0
  51 0000 00B5     		push	{lr}
  52 0002 87B0     		sub	sp, sp, #28
  53 0004 0390     		str	r0, [sp, #12]
  54 0006 05AB     		add	r3, sp, #20
  55 0008 0093     		str	r3, [sp, #0]
  56 000a 0398     		ldr	r0, [sp, #12]
  57 000c 4FF07701 		mov	r1, #119
  58 0010 4FF00002 		mov	r2, #0
  59 0014 4FF00303 		mov	r3, #3
  60 0018 FFF7FEFF 		bl	i2cRead
  61 001c 9DF81420 		ldrb	r2, [sp, #20]	@ zero_extendqisi2
  62 0020 40F20003 		movw	r3, #:lower16:d2
  63 0024 C0F20003 		movt	r3, #:upper16:d2
  64 0028 9A70     		strb	r2, [r3, #2]
  65 002a 9DF81520 		ldrb	r2, [sp, #21]	@ zero_extendqisi2
  66 002e 40F20003 		movw	r3, #:lower16:d2
  67 0032 C0F20003 		movt	r3, #:upper16:d2
  68 0036 5A70     		strb	r2, [r3, #1]
  69 0038 9DF81620 		ldrb	r2, [sp, #22]	@ zero_extendqisi2
  70 003c 40F20003 		movw	r3, #:lower16:d2
  71 0040 C0F20003 		movt	r3, #:upper16:d2
  72 0044 1A70     		strb	r2, [r3, #0]
  73 0046 0398     		ldr	r0, [sp, #12]
  74 0048 4FF07701 		mov	r1, #119
  75 004c 4FF0FF02 		mov	r2, #255
  76 0050 4FF04803 		mov	r3, #72
  77 0054 FFF7FEFF 		bl	i2cWrite
  78 0058 07B0     		add	sp, sp, #28
  79 005a 00BD     		pop	{pc}
  81              		.align	2
  82              		.global	readPressureRequestPressure
  83              		.thumb
  84              		.thumb_func
  86              	readPressureRequestPressure:
  87              		@ args = 0, pretend = 0, frame = 16
  88              		@ frame_needed = 0, uses_anonymous_args = 0
  89 005c 00B5     		push	{lr}
  90 005e 87B0     		sub	sp, sp, #28
  91 0060 0390     		str	r0, [sp, #12]
  92 0062 05AB     		add	r3, sp, #20
  93 0064 0093     		str	r3, [sp, #0]
  94 0066 0398     		ldr	r0, [sp, #12]
  95 0068 4FF07701 		mov	r1, #119
  96 006c 4FF00002 		mov	r2, #0
  97 0070 4FF00303 		mov	r3, #3
  98 0074 FFF7FEFF 		bl	i2cRead
  99 0078 9DF81420 		ldrb	r2, [sp, #20]	@ zero_extendqisi2
 100 007c 40F20003 		movw	r3, #:lower16:d1
 101 0080 C0F20003 		movt	r3, #:upper16:d1
 102 0084 9A70     		strb	r2, [r3, #2]
 103 0086 9DF81520 		ldrb	r2, [sp, #21]	@ zero_extendqisi2
 104 008a 40F20003 		movw	r3, #:lower16:d1
 105 008e C0F20003 		movt	r3, #:upper16:d1
 106 0092 5A70     		strb	r2, [r3, #1]
 107 0094 9DF81620 		ldrb	r2, [sp, #22]	@ zero_extendqisi2
 108 0098 40F20003 		movw	r3, #:lower16:d1
 109 009c C0F20003 		movt	r3, #:upper16:d1
 110 00a0 1A70     		strb	r2, [r3, #0]
 111 00a2 0398     		ldr	r0, [sp, #12]
 112 00a4 4FF07701 		mov	r1, #119
 113 00a8 4FF0FF02 		mov	r2, #255
 114 00ac 4FF04803 		mov	r3, #72
 115 00b0 FFF7FEFF 		bl	i2cWrite
 116 00b4 07B0     		add	sp, sp, #28
 117 00b6 00BD     		pop	{pc}
 119              		.align	2
 120              		.global	readPressureRequestTemperature
 121              		.thumb
 122              		.thumb_func
 124              	readPressureRequestTemperature:
 125              		@ args = 0, pretend = 0, frame = 16
 126              		@ frame_needed = 0, uses_anonymous_args = 0
 127 00b8 00B5     		push	{lr}
 128 00ba 87B0     		sub	sp, sp, #28
 129 00bc 0390     		str	r0, [sp, #12]
 130 00be 05AB     		add	r3, sp, #20
 131 00c0 0093     		str	r3, [sp, #0]
 132 00c2 0398     		ldr	r0, [sp, #12]
 133 00c4 4FF07701 		mov	r1, #119
 134 00c8 4FF00002 		mov	r2, #0
 135 00cc 4FF00303 		mov	r3, #3
 136 00d0 FFF7FEFF 		bl	i2cRead
 137 00d4 9DF81420 		ldrb	r2, [sp, #20]	@ zero_extendqisi2
 138 00d8 40F20003 		movw	r3, #:lower16:d1
 139 00dc C0F20003 		movt	r3, #:upper16:d1
 140 00e0 9A70     		strb	r2, [r3, #2]
 141 00e2 9DF81520 		ldrb	r2, [sp, #21]	@ zero_extendqisi2
 142 00e6 40F20003 		movw	r3, #:lower16:d1
 143 00ea C0F20003 		movt	r3, #:upper16:d1
 144 00ee 5A70     		strb	r2, [r3, #1]
 145 00f0 9DF81620 		ldrb	r2, [sp, #22]	@ zero_extendqisi2
 146 00f4 40F20003 		movw	r3, #:lower16:d1
 147 00f8 C0F20003 		movt	r3, #:upper16:d1
 148 00fc 1A70     		strb	r2, [r3, #0]
 149 00fe 0398     		ldr	r0, [sp, #12]
 150 0100 4FF07701 		mov	r1, #119
 151 0104 4FF0FF02 		mov	r2, #255
 152 0108 4FF05803 		mov	r3, #88
 153 010c FFF7FEFF 		bl	i2cWrite
 154 0110 07B0     		add	sp, sp, #28
 155 0112 00BD     		pop	{pc}
 157              		.align	2
 158              		.global	calculateTemperature
 159              		.thumb
 160              		.thumb_func
 162              	calculateTemperature:
 163              		@ args = 0, pretend = 0, frame = 0
 164              		@ frame_needed = 0, uses_anonymous_args = 0
 165              		@ link register save eliminated.
 166 0114 2DE9F003 		push	{r4, r5, r6, r7, r8, r9}
 167 0118 40F20003 		movw	r3, #:lower16:d2
 168 011c C0F20003 		movt	r3, #:upper16:d2
 169 0120 1A68     		ldr	r2, [r3, #0]
 170 0122 40F20003 		movw	r3, #:lower16:c5
 171 0126 C0F20003 		movt	r3, #:upper16:c5
 172 012a 1B88     		ldrh	r3, [r3, #0]
 173 012c 4FEA0323 		lsl	r3, r3, #8
 174 0130 D31A     		subs	r3, r2, r3
 175 0132 1A46     		mov	r2, r3
 176 0134 40F20003 		movw	r3, #:lower16:dT
 177 0138 C0F20003 		movt	r3, #:upper16:dT
 178 013c 1A60     		str	r2, [r3, #0]
 179 013e 40F20003 		movw	r3, #:lower16:dT
 180 0142 C0F20003 		movt	r3, #:upper16:dT
 181 0146 1B68     		ldr	r3, [r3, #0]
 182 0148 1E46     		mov	r6, r3
 183 014a 4FEAE677 		asr	r7, r6, #31
 184 014e 40F20003 		movw	r3, #:lower16:c6
 185 0152 C0F20003 		movt	r3, #:upper16:c6
 186 0156 1B88     		ldrh	r3, [r3, #0]
 187 0158 9CB2     		uxth	r4, r3
 188 015a 4FF00005 		mov	r5, #0
 189 015e 04FB07F2 		mul	r2, r4, r7
 190 0162 06FB05F3 		mul	r3, r6, r5
 191 0166 D118     		adds	r1, r2, r3
 192 0168 A6FB0423 		umull	r2, r3, r6, r4
 193 016c C918     		adds	r1, r1, r3
 194 016e 0B46     		mov	r3, r1
 195 0170 4FEA4321 		lsl	r1, r3, #9
 196 0174 4FEAD258 		lsr	r8, r2, #23
 197 0178 41EA0808 		orr	r8, r1, r8
 198 017c 4FEAE359 		asr	r9, r3, #23
 199 0180 4346     		mov	r3, r8
 200 0182 03F5FA62 		add	r2, r3, #2000
 201 0186 40F20003 		movw	r3, #:lower16:temp
 202 018a C0F20003 		movt	r3, #:upper16:temp
 203 018e 1A60     		str	r2, [r3, #0]
 204 0190 BDE8F003 		pop	{r4, r5, r6, r7, r8, r9}
 205 0194 7047     		bx	lr
 207              		.global	__aeabi_f2d
 208              		.global	__aeabi_dsub
 209              		.global	__aeabi_dmul
 210              		.global	__aeabi_d2f
 211 0196 00BF     		.align	2
 212              		.global	calculatePressureAltitude
 213              		.thumb
 214              		.thumb_func
 216              	calculatePressureAltitude:
 217              		@ args = 0, pretend = 0, frame = 32
 218              		@ frame_needed = 0, uses_anonymous_args = 0
 219 0198 2DE9F04F 		push	{r4, r5, r6, r7, r8, r9, sl, fp, lr}
 220 019c 89B0     		sub	sp, sp, #36
 221 019e 4FF00002 		mov	r2, #0
 222 01a2 4FF00003 		mov	r3, #0
 223 01a6 CDE90623 		strd	r2, [sp, #24]
 224 01aa 4FF00002 		mov	r2, #0
 225 01ae 4FF00003 		mov	r3, #0
 226 01b2 CDE90423 		strd	r2, [sp, #16]
 227 01b6 40F20003 		movw	r3, #:lower16:c2
 228 01ba C0F20003 		movt	r3, #:upper16:c2
 229 01be 1B88     		ldrh	r3, [r3, #0]
 230 01c0 4FEA0343 		lsl	r3, r3, #16
 231 01c4 9A46     		mov	sl, r3
 232 01c6 4FF0000B 		mov	fp, #0
 233 01ca 40F20003 		movw	r3, #:lower16:c4
 234 01ce C0F20003 		movt	r3, #:upper16:c4
 235 01d2 1B88     		ldrh	r3, [r3, #0]
 236 01d4 9CB2     		uxth	r4, r3
 237 01d6 4FF00005 		mov	r5, #0
 238 01da 40F20003 		movw	r3, #:lower16:dT
 239 01de C0F20003 		movt	r3, #:upper16:dT
 240 01e2 1968     		ldr	r1, [r3, #0]
 241 01e4 0A46     		mov	r2, r1
 242 01e6 4FEAE273 		asr	r3, r2, #31
 243 01ea 02FB05F0 		mul	r0, r2, r5
 244 01ee 04FB03F1 		mul	r1, r4, r3
 245 01f2 4118     		adds	r1, r0, r1
 246 01f4 A4FB0223 		umull	r2, r3, r4, r2
 247 01f8 C918     		adds	r1, r1, r3
 248 01fa 0B46     		mov	r3, r1
 249 01fc 4FEA4361 		lsl	r1, r3, #25
 250 0200 4FEAD216 		lsr	r6, r2, #7
 251 0204 0E43     		orrs	r6, r6, r1
 252 0206 4FEAE317 		asr	r7, r3, #7
 253 020a 5046     		mov	r0, sl
 254 020c 5946     		mov	r1, fp
 255 020e 8019     		adds	r0, r0, r6
 256 0210 41EB0701 		adc	r1, r1, r7
 257 0214 40F20003 		movw	r3, #:lower16:offset
 258 0218 C0F20003 		movt	r3, #:upper16:offset
 259 021c C3E90001 		strd	r0, [r3]
 260 0220 40F20003 		movw	r3, #:lower16:c1
 261 0224 C0F20003 		movt	r3, #:upper16:c1
 262 0228 1B88     		ldrh	r3, [r3, #0]
 263 022a 4FEAC333 		lsl	r3, r3, #15
 264 022e 1E46     		mov	r6, r3
 265 0230 4FF00007 		mov	r7, #0
 266 0234 40F20003 		movw	r3, #:lower16:c3
 267 0238 C0F20003 		movt	r3, #:upper16:c3
 268 023c 1B88     		ldrh	r3, [r3, #0]
 269 023e 9CB2     		uxth	r4, r3
 270 0240 4FF00005 		mov	r5, #0
 271 0244 40F20003 		movw	r3, #:lower16:dT
 272 0248 C0F20003 		movt	r3, #:upper16:dT
 273 024c 1968     		ldr	r1, [r3, #0]
 274 024e 0A46     		mov	r2, r1
 275 0250 4FEAE273 		asr	r3, r2, #31
 276 0254 02FB05F0 		mul	r0, r2, r5
 277 0258 04FB03F1 		mul	r1, r4, r3
 278 025c 4118     		adds	r1, r0, r1
 279 025e A4FB0223 		umull	r2, r3, r4, r2
 280 0262 C918     		adds	r1, r1, r3
 281 0264 0B46     		mov	r3, r1
 282 0266 4FEA0361 		lsl	r1, r3, #24
 283 026a 4FEA1228 		lsr	r8, r2, #8
 284 026e 41EA0808 		orr	r8, r1, r8
 285 0272 4FEA2329 		asr	r9, r3, #8
 286 0276 3046     		mov	r0, r6
 287 0278 3946     		mov	r1, r7
 288 027a 10EB0800 		adds	r0, r0, r8
 289 027e 41EB0901 		adc	r1, r1, r9
 290 0282 40F20003 		movw	r3, #:lower16:sensitivity
 291 0286 C0F20003 		movt	r3, #:upper16:sensitivity
 292 028a C3E90001 		strd	r0, [r3]
 293 028e 40F20003 		movw	r3, #:lower16:temp
 294 0292 C0F20003 		movt	r3, #:upper16:temp
 295 0296 1B68     		ldr	r3, [r3, #0]
 296 0298 132B     		cmp	r3, #19
 297 029a 7EDC     		bgt	.L6
 298 029c 40F20003 		movw	r3, #:lower16:temp
 299 02a0 C0F20003 		movt	r3, #:upper16:temp
 300 02a4 1A68     		ldr	r2, [r3, #0]
 301 02a6 4FF63503 		movw	r3, #63541
 302 02aa CFF6FF73 		movt	r3, 65535
 303 02ae 03FB02F3 		mul	r3, r3, r2
 304 02b2 A3F57A71 		sub	r1, r3, #1000
 305 02b6 0A46     		mov	r2, r1
 306 02b8 4FEAE273 		asr	r3, r2, #31
 307 02bc CDE90623 		strd	r2, [sp, #24]
 308 02c0 40F20003 		movw	r3, #:lower16:temp
 309 02c4 C0F20003 		movt	r3, #:upper16:temp
 310 02c8 1A68     		ldr	r2, [r3, #0]
 311 02ca 4FF63503 		movw	r3, #63541
 312 02ce CFF6FF73 		movt	r3, 65535
 313 02d2 03FB02F3 		mul	r3, r3, r2
 314 02d6 A3F5FA71 		sub	r1, r3, #500
 315 02da 0A46     		mov	r2, r1
 316 02dc 4FEAE273 		asr	r3, r2, #31
 317 02e0 CDE90423 		strd	r2, [sp, #16]
 318 02e4 40F20003 		movw	r3, #:lower16:temp
 319 02e8 C0F20003 		movt	r3, #:upper16:temp
 320 02ec 1B68     		ldr	r3, [r3, #0]
 321 02ee 13F10F0F 		cmn	r3, #15
 322 02f2 52DA     		bge	.L6
 323 02f4 40F20003 		movw	r3, #:lower16:temp
 324 02f8 C0F20003 		movt	r3, #:upper16:temp
 325 02fc 1A68     		ldr	r2, [r3, #0]
 326 02fe 1346     		mov	r3, r2
 327 0300 4FEAC303 		lsl	r3, r3, #3
 328 0304 991A     		subs	r1, r3, r2
 329 0306 0A46     		mov	r2, r1
 330 0308 4FEAE273 		asr	r3, r2, #31
 331 030c DDE90601 		ldrd	r0, [sp, #24]
 332 0310 8018     		adds	r0, r0, r2
 333 0312 41EB0301 		adc	r1, r1, r3
 334 0316 40F20003 		movw	r3, #:lower16:temp
 335 031a C0F20003 		movt	r3, #:upper16:temp
 336 031e 1B68     		ldr	r3, [r3, #0]
 337 0320 40F2DC52 		movw	r2, #1500
 338 0324 02FB03F4 		mul	r4, r2, r3
 339 0328 2246     		mov	r2, r4
 340 032a 4FEAE273 		asr	r3, r2, #31
 341 032e 8018     		adds	r0, r0, r2
 342 0330 41EB0301 		adc	r1, r1, r3
 343 0334 6DA3     		adr	r3, .L7+28
 344 0336 D3E90023 		ldrd	r2, [r3]
 345 033a 1218     		adds	r2, r2, r0
 346 033c 43EB0103 		adc	r3, r3, r1
 347 0340 CDE90623 		strd	r2, [sp, #24]
 348 0344 40F20003 		movw	r3, #:lower16:temp
 349 0348 C0F20003 		movt	r3, #:upper16:temp
 350 034c 1A68     		ldr	r2, [r3, #0]
 351 034e 1346     		mov	r3, r2
 352 0350 4FEA8303 		lsl	r3, r3, #2
 353 0354 9B18     		adds	r3, r3, r2
 354 0356 4FEA4303 		lsl	r3, r3, #1
 355 035a 9918     		adds	r1, r3, r2
 356 035c 0A46     		mov	r2, r1
 357 035e 4FEAE273 		asr	r3, r2, #31
 358 0362 DDE90401 		ldrd	r0, [sp, #16]
 359 0366 8018     		adds	r0, r0, r2
 360 0368 41EB0301 		adc	r1, r1, r3
 361 036c 40F20003 		movw	r3, #:lower16:temp
 362 0370 C0F20003 		movt	r3, #:upper16:temp
 363 0374 1B68     		ldr	r3, [r3, #0]
 364 0376 40F2DC52 		movw	r2, #1500
 365 037a 02FB03F4 		mul	r4, r2, r3
 366 037e 2246     		mov	r2, r4
 367 0380 4FEAE273 		asr	r3, r2, #31
 368 0384 8018     		adds	r0, r0, r2
 369 0386 41EB0301 		adc	r1, r1, r3
 370 038a 5AA3     		adr	r3, .L7+36
 371 038c D3E90023 		ldrd	r2, [r3]
 372 0390 1218     		adds	r2, r2, r0
 373 0392 43EB0103 		adc	r3, r3, r1
 374 0396 CDE90423 		strd	r2, [sp, #16]
 375              	.L6:
 376 039a 40F20003 		movw	r3, #:lower16:offset
 377 039e C0F20003 		movt	r3, #:upper16:offset
 378 03a2 D3E90001 		ldrd	r0, [r3]
 379 03a6 DDE90623 		ldrd	r2, [sp, #24]
 380 03aa 801A     		subs	r0, r0, r2
 381 03ac 61EB0301 		sbc	r1, r1, r3
 382 03b0 40F20003 		movw	r3, #:lower16:offset
 383 03b4 C0F20003 		movt	r3, #:upper16:offset
 384 03b8 C3E90001 		strd	r0, [r3]
 385 03bc 40F20003 		movw	r3, #:lower16:sensitivity
 386 03c0 C0F20003 		movt	r3, #:upper16:sensitivity
 387 03c4 D3E90001 		ldrd	r0, [r3]
 388 03c8 DDE90423 		ldrd	r2, [sp, #16]
 389 03cc 801A     		subs	r0, r0, r2
 390 03ce 61EB0301 		sbc	r1, r1, r3
 391 03d2 40F20003 		movw	r3, #:lower16:sensitivity
 392 03d6 C0F20003 		movt	r3, #:upper16:sensitivity
 393 03da C3E90001 		strd	r0, [r3]
 394 03de 40F20003 		movw	r3, #:lower16:d1Average
 395 03e2 C0F20003 		movt	r3, #:upper16:d1Average
 396 03e6 1B68     		ldr	r3, [r3, #0]
 397 03e8 1C46     		mov	r4, r3
 398 03ea 4FF00005 		mov	r5, #0
 399 03ee 40F20003 		movw	r3, #:lower16:sensitivity
 400 03f2 C0F20003 		movt	r3, #:upper16:sensitivity
 401 03f6 D3E90023 		ldrd	r2, [r3]
 402 03fa 02FB05F0 		mul	r0, r2, r5
 403 03fe 04FB03F1 		mul	r1, r4, r3
 404 0402 4118     		adds	r1, r0, r1
 405 0404 A4FB0223 		umull	r2, r3, r4, r2
 406 0408 C918     		adds	r1, r1, r3
 407 040a 0B46     		mov	r3, r1
 408 040c 4FEAC321 		lsl	r1, r3, #11
 409 0410 4FEA5250 		lsr	r0, r2, #21
 410 0414 0290     		str	r0, [sp, #8]
 411 0416 0298     		ldr	r0, [sp, #8]
 412 0418 0843     		orrs	r0, r0, r1
 413 041a 0290     		str	r0, [sp, #8]
 414 041c 4FEA6351 		asr	r1, r3, #21
 415 0420 0391     		str	r1, [sp, #12]
 416 0422 40F20003 		movw	r3, #:lower16:offset
 417 0426 C0F20003 		movt	r3, #:upper16:offset
 418 042a D3E90023 		ldrd	r2, [r3]
 419 042e DDE90201 		ldrd	r0, [sp, #8]
 420 0432 821A     		subs	r2, r0, r2
 421 0434 61EB0303 		sbc	r3, r1, r3
 422 0438 4FEA4341 		lsl	r1, r3, #17
 423 043c 4FEAD230 		lsr	r0, r2, #15
 424 0440 0090     		str	r0, [sp, #0]
 425 0442 0098     		ldr	r0, [sp, #0]
 426 0444 0843     		orrs	r0, r0, r1
 427 0446 0090     		str	r0, [sp, #0]
 428 0448 4FEAE331 		asr	r1, r3, #15
 429 044c 0191     		str	r1, [sp, #4]
 430 044e 009A     		ldr	r2, [sp, #0]
 431 0450 40F20003 		movw	r3, #:lower16:p
 432 0454 C0F20003 		movt	r3, #:upper16:p
 433 0458 1A60     		str	r2, [r3, #0]
 434 045a 40F20003 		movw	r3, #:lower16:p
 435 045e C0F20003 		movt	r3, #:upper16:p
 436 0462 1B68     		ldr	r3, [r3, #0]
 437 0464 07EE903A 		fmsr	s15, r3	@ int
 438 0468 B8EEE77A 		fsitos	s14, s15
 439 046c DFED1E7A 		flds	s15, .L7+24
 440 0470 C7EE277A 		fdivs	s15, s14, s15
 441 0474 17EE900A 		fmrs	r0, s15
 442 0478 FFF7FEFF 		bl	__aeabi_f2d
 443 047c 0246     		mov	r2, r0
 444 047e 0B46     		mov	r3, r1
 445 0480 1046     		mov	r0, r2
 446 0482 1946     		mov	r1, r3
 447 0484 12A3     		adr	r3, .L7
 448 0486 D3E90023 		ldrd	r2, [r3]
 449 048a FFF7FEFF 		bl	pow
 450 048e 0246     		mov	r2, r0
 451 0490 0B46     		mov	r3, r1
 452 0492 11A1     		adr	r1, .L7+8
 453 0494 D1E90001 		ldrd	r0, [r1]
 454 0498 FFF7FEFF 		bl	__aeabi_dsub
 455 049c 0246     		mov	r2, r0
 456 049e 0B46     		mov	r3, r1
 457 04a0 1046     		mov	r0, r2
 458 04a2 1946     		mov	r1, r3
 459 04a4 0EA3     		adr	r3, .L7+16
 460 04a6 D3E90023 		ldrd	r2, [r3]
 461 04aa FFF7FEFF 		bl	__aeabi_dmul
 462 04ae 0246     		mov	r2, r0
 463 04b0 0B46     		mov	r3, r1
 464 04b2 1046     		mov	r0, r2
 465 04b4 1946     		mov	r1, r3
 466 04b6 FFF7FEFF 		bl	__aeabi_d2f
 467 04ba 0246     		mov	r2, r0	@ float
 468 04bc 40F20003 		movw	r3, #:lower16:sensors
 469 04c0 C0F20003 		movt	r3, #:upper16:sensors
 470 04c4 DA63     		str	r2, [r3, #60]	@ float
 471 04c6 09B0     		add	sp, sp, #36
 472 04c8 BDE8F08F 		pop	{r4, r5, r6, r7, r8, r9, sl, fp, pc}
 473              	.L8:
 474 04cc AFF30080 		.align	3
 475              	.L7:
 476 04d0 00000020 		.word	536870912
 477 04d4 965BC83F 		.word	1070095254
 478 04d8 00000000 		.word	0
 479 04dc 0000F03F 		.word	1072693248
 480 04e0 00000000 		.word	0
 481 04e4 40A5E540 		.word	1088791872
 482 04e8 80E6C547 		.word	1204151936
 483 04ec DC050000 		.word	1500
 484 04f0 00000000 		.word	0
 485 04f4 EE020000 		.word	750
 486 04f8 00000000 		.word	0
 488              		.align	2
 489              		.global	initPressure
 490              		.thumb
 491              		.thumb_func
 493              	initPressure:
 494              		@ args = 0, pretend = 0, frame = 16
 495              		@ frame_needed = 0, uses_anonymous_args = 0
 496 04fc 00B5     		push	{lr}
 497 04fe 87B0     		sub	sp, sp, #28
 498 0500 0390     		str	r0, [sp, #12]
 499 0502 0398     		ldr	r0, [sp, #12]
 500 0504 4FF07701 		mov	r1, #119
 501 0508 4FF0FF02 		mov	r2, #255
 502 050c 4FF01E03 		mov	r3, #30
 503 0510 FFF7FEFF 		bl	i2cWrite
 504 0514 4FF00A00 		mov	r0, #10
 505 0518 FFF7FEFF 		bl	delay
 506 051c 05AB     		add	r3, sp, #20
 507 051e 0093     		str	r3, [sp, #0]
 508 0520 0398     		ldr	r0, [sp, #12]
 509 0522 4FF07701 		mov	r1, #119
 510 0526 4FF0A202 		mov	r2, #162
 511 052a 4FF00203 		mov	r3, #2
 512 052e FFF7FEFF 		bl	i2cRead
 513 0532 9DF81420 		ldrb	r2, [sp, #20]	@ zero_extendqisi2
 514 0536 40F20003 		movw	r3, #:lower16:c1
 515 053a C0F20003 		movt	r3, #:upper16:c1
 516 053e 5A70     		strb	r2, [r3, #1]
 517 0540 9DF81520 		ldrb	r2, [sp, #21]	@ zero_extendqisi2
 518 0544 40F20003 		movw	r3, #:lower16:c1
 519 0548 C0F20003 		movt	r3, #:upper16:c1
 520 054c 1A70     		strb	r2, [r3, #0]
 521 054e 05AB     		add	r3, sp, #20
 522 0550 0093     		str	r3, [sp, #0]
 523 0552 0398     		ldr	r0, [sp, #12]
 524 0554 4FF07701 		mov	r1, #119
 525 0558 4FF0A402 		mov	r2, #164
 526 055c 4FF00203 		mov	r3, #2
 527 0560 FFF7FEFF 		bl	i2cRead
 528 0564 9DF81420 		ldrb	r2, [sp, #20]	@ zero_extendqisi2
 529 0568 40F20003 		movw	r3, #:lower16:c2
 530 056c C0F20003 		movt	r3, #:upper16:c2
 531 0570 5A70     		strb	r2, [r3, #1]
 532 0572 9DF81520 		ldrb	r2, [sp, #21]	@ zero_extendqisi2
 533 0576 40F20003 		movw	r3, #:lower16:c2
 534 057a C0F20003 		movt	r3, #:upper16:c2
 535 057e 1A70     		strb	r2, [r3, #0]
 536 0580 05AB     		add	r3, sp, #20
 537 0582 0093     		str	r3, [sp, #0]
 538 0584 0398     		ldr	r0, [sp, #12]
 539 0586 4FF07701 		mov	r1, #119
 540 058a 4FF0A602 		mov	r2, #166
 541 058e 4FF00203 		mov	r3, #2
 542 0592 FFF7FEFF 		bl	i2cRead
 543 0596 9DF81420 		ldrb	r2, [sp, #20]	@ zero_extendqisi2
 544 059a 40F20003 		movw	r3, #:lower16:c3
 545 059e C0F20003 		movt	r3, #:upper16:c3
 546 05a2 5A70     		strb	r2, [r3, #1]
 547 05a4 9DF81520 		ldrb	r2, [sp, #21]	@ zero_extendqisi2
 548 05a8 40F20003 		movw	r3, #:lower16:c3
 549 05ac C0F20003 		movt	r3, #:upper16:c3
 550 05b0 1A70     		strb	r2, [r3, #0]
 551 05b2 05AB     		add	r3, sp, #20
 552 05b4 0093     		str	r3, [sp, #0]
 553 05b6 0398     		ldr	r0, [sp, #12]
 554 05b8 4FF07701 		mov	r1, #119
 555 05bc 4FF0A802 		mov	r2, #168
 556 05c0 4FF00203 		mov	r3, #2
 557 05c4 FFF7FEFF 		bl	i2cRead
 558 05c8 9DF81420 		ldrb	r2, [sp, #20]	@ zero_extendqisi2
 559 05cc 40F20003 		movw	r3, #:lower16:c4
 560 05d0 C0F20003 		movt	r3, #:upper16:c4
 561 05d4 5A70     		strb	r2, [r3, #1]
 562 05d6 9DF81520 		ldrb	r2, [sp, #21]	@ zero_extendqisi2
 563 05da 40F20003 		movw	r3, #:lower16:c4
 564 05de C0F20003 		movt	r3, #:upper16:c4
 565 05e2 1A70     		strb	r2, [r3, #0]
 566 05e4 05AB     		add	r3, sp, #20
 567 05e6 0093     		str	r3, [sp, #0]
 568 05e8 0398     		ldr	r0, [sp, #12]
 569 05ea 4FF07701 		mov	r1, #119
 570 05ee 4FF0AA02 		mov	r2, #170
 571 05f2 4FF00203 		mov	r3, #2
 572 05f6 FFF7FEFF 		bl	i2cRead
 573 05fa 9DF81420 		ldrb	r2, [sp, #20]	@ zero_extendqisi2
 574 05fe 40F20003 		movw	r3, #:lower16:c5
 575 0602 C0F20003 		movt	r3, #:upper16:c5
 576 0606 5A70     		strb	r2, [r3, #1]
 577 0608 9DF81520 		ldrb	r2, [sp, #21]	@ zero_extendqisi2
 578 060c 40F20003 		movw	r3, #:lower16:c5
 579 0610 C0F20003 		movt	r3, #:upper16:c5
 580 0614 1A70     		strb	r2, [r3, #0]
 581 0616 05AB     		add	r3, sp, #20
 582 0618 0093     		str	r3, [sp, #0]
 583 061a 0398     		ldr	r0, [sp, #12]
 584 061c 4FF07701 		mov	r1, #119
 585 0620 4FF0AC02 		mov	r2, #172
 586 0624 4FF00203 		mov	r3, #2
 587 0628 FFF7FEFF 		bl	i2cRead
 588 062c 9DF81420 		ldrb	r2, [sp, #20]	@ zero_extendqisi2
 589 0630 40F20003 		movw	r3, #:lower16:c6
 590 0634 C0F20003 		movt	r3, #:upper16:c6
 591 0638 5A70     		strb	r2, [r3, #1]
 592 063a 9DF81520 		ldrb	r2, [sp, #21]	@ zero_extendqisi2
 593 063e 40F20003 		movw	r3, #:lower16:c6
 594 0642 C0F20003 		movt	r3, #:upper16:c6
 595 0646 1A70     		strb	r2, [r3, #0]
 596 0648 0398     		ldr	r0, [sp, #12]
 597 064a 4FF07701 		mov	r1, #119
 598 064e 4FF0FF02 		mov	r2, #255
 599 0652 4FF05803 		mov	r3, #88
 600 0656 FFF7FEFF 		bl	i2cWrite
 601 065a 4FF00A00 		mov	r0, #10
 602 065e FFF7FEFF 		bl	delay
 603 0662 0398     		ldr	r0, [sp, #12]
 604 0664 FFF7FEFF 		bl	readTemperatureRequestPressure
 605 0668 4FF00A00 		mov	r0, #10
 606 066c FFF7FEFF 		bl	delay
 607 0670 07B0     		add	sp, sp, #28
 608 0672 00BD     		pop	{pc}
 610 0674 AFF30080 		.ident	"GCC: (Sourcery CodeBench Lite 2012.03-56) 4.6.3"