   1              		.syntax unified
   2              		.cpu cortex-m4
   3              		.eabi_attribute 27, 3
   4              		.fpu fpv4-sp-d16
   5              		.eabi_attribute 20, 1
   6              		.eabi_attribute 21, 1
   7              		.eabi_attribute 23, 3
   8              		.eabi_attribute 24, 1
   9              		.eabi_attribute 25, 1
  10              		.eabi_attribute 26, 1
  11              		.eabi_attribute 30, 6
  12              		.eabi_attribute 34, 1
  13              		.eabi_attribute 18, 4
  14              		.thumb
  15              		.file	"ms5611.c"
  16              		.comm	mtk19ProcessDataState,1,1
  17              		.comm	nmeaProcessDataState,1,1
  18              		.comm	ubloxProcessDataState,1,1
  19              		.comm	d1Average,4,4
  20              		.global	d1Sum
  21              		.bss
  22              		.align	2
  25              	d1Sum:
  26 0000 00000000 		.space	4
  27              		.comm	c1,2,4
  28              		.comm	c2,2,4
  29              		.comm	c3,2,4
  30              		.comm	c4,2,4
  31              		.comm	c5,2,4
  32              		.comm	c6,2,4
  33              		.comm	d1,4,4
  34              		.comm	d2,4,4
  35              		.comm	dT,4,4
  36              		.comm	temp,4,4
  37              		.comm	offset,8,8
  38              		.comm	sensitivity,8,8
  39              		.comm	p,4,4
  40              		.global	pressureAltValid
  43              	pressureAltValid:
  44 0004 00       		.space	1
  45 0005 000000   		.text
  46              		.align	2
  47              		.global	readTemperatureRequestPressure
  48              		.thumb
  49              		.thumb_func
  51              	readTemperatureRequestPressure:
  52              		@ args = 0, pretend = 0, frame = 16
  53              		@ frame_needed = 0, uses_anonymous_args = 0
  54 0000 00B5     		push	{lr}
  55 0002 87B0     		sub	sp, sp, #28
  56 0004 0390     		str	r0, [sp, #12]
  57 0006 05AB     		add	r3, sp, #20
  58 0008 0093     		str	r3, [sp, #0]
  59 000a 0398     		ldr	r0, [sp, #12]
  60 000c 4FF07601 		mov	r1, #118
  61 0010 4FF00002 		mov	r2, #0
  62 0014 4FF00303 		mov	r3, #3
  63 0018 FFF7FEFF 		bl	i2cRead
  64 001c 9DF81420 		ldrb	r2, [sp, #20]	@ zero_extendqisi2
  65 0020 40F20003 		movw	r3, #:lower16:d2
  66 0024 C0F20003 		movt	r3, #:upper16:d2
  67 0028 9A70     		strb	r2, [r3, #2]
  68 002a 9DF81520 		ldrb	r2, [sp, #21]	@ zero_extendqisi2
  69 002e 40F20003 		movw	r3, #:lower16:d2
  70 0032 C0F20003 		movt	r3, #:upper16:d2
  71 0036 5A70     		strb	r2, [r3, #1]
  72 0038 9DF81620 		ldrb	r2, [sp, #22]	@ zero_extendqisi2
  73 003c 40F20003 		movw	r3, #:lower16:d2
  74 0040 C0F20003 		movt	r3, #:upper16:d2
  75 0044 1A70     		strb	r2, [r3, #0]
  76 0046 0398     		ldr	r0, [sp, #12]
  77 0048 4FF07601 		mov	r1, #118
  78 004c 4FF0FF02 		mov	r2, #255
  79 0050 4FF04803 		mov	r3, #72
  80 0054 FFF7FEFF 		bl	i2cWrite
  81 0058 07B0     		add	sp, sp, #28
  82 005a 00BD     		pop	{pc}
  84              		.align	2
  85              		.global	readPressureRequestPressure
  86              		.thumb
  87              		.thumb_func
  89              	readPressureRequestPressure:
  90              		@ args = 0, pretend = 0, frame = 16
  91              		@ frame_needed = 0, uses_anonymous_args = 0
  92 005c 00B5     		push	{lr}
  93 005e 87B0     		sub	sp, sp, #28
  94 0060 0390     		str	r0, [sp, #12]
  95 0062 05AB     		add	r3, sp, #20
  96 0064 0093     		str	r3, [sp, #0]
  97 0066 0398     		ldr	r0, [sp, #12]
  98 0068 4FF07601 		mov	r1, #118
  99 006c 4FF00002 		mov	r2, #0
 100 0070 4FF00303 		mov	r3, #3
 101 0074 FFF7FEFF 		bl	i2cRead
 102 0078 9DF81420 		ldrb	r2, [sp, #20]	@ zero_extendqisi2
 103 007c 40F20003 		movw	r3, #:lower16:d1
 104 0080 C0F20003 		movt	r3, #:upper16:d1
 105 0084 9A70     		strb	r2, [r3, #2]
 106 0086 9DF81520 		ldrb	r2, [sp, #21]	@ zero_extendqisi2
 107 008a 40F20003 		movw	r3, #:lower16:d1
 108 008e C0F20003 		movt	r3, #:upper16:d1
 109 0092 5A70     		strb	r2, [r3, #1]
 110 0094 9DF81620 		ldrb	r2, [sp, #22]	@ zero_extendqisi2
 111 0098 40F20003 		movw	r3, #:lower16:d1
 112 009c C0F20003 		movt	r3, #:upper16:d1
 113 00a0 1A70     		strb	r2, [r3, #0]
 114 00a2 0398     		ldr	r0, [sp, #12]
 115 00a4 4FF07601 		mov	r1, #118
 116 00a8 4FF0FF02 		mov	r2, #255
 117 00ac 4FF04803 		mov	r3, #72
 118 00b0 FFF7FEFF 		bl	i2cWrite
 119 00b4 07B0     		add	sp, sp, #28
 120 00b6 00BD     		pop	{pc}
 122              		.align	2
 123              		.global	readPressureRequestTemperature
 124              		.thumb
 125              		.thumb_func
 127              	readPressureRequestTemperature:
 128              		@ args = 0, pretend = 0, frame = 16
 129              		@ frame_needed = 0, uses_anonymous_args = 0
 130 00b8 00B5     		push	{lr}
 131 00ba 87B0     		sub	sp, sp, #28
 132 00bc 0390     		str	r0, [sp, #12]
 133 00be 05AB     		add	r3, sp, #20
 134 00c0 0093     		str	r3, [sp, #0]
 135 00c2 0398     		ldr	r0, [sp, #12]
 136 00c4 4FF07601 		mov	r1, #118
 137 00c8 4FF00002 		mov	r2, #0
 138 00cc 4FF00303 		mov	r3, #3
 139 00d0 FFF7FEFF 		bl	i2cRead
 140 00d4 9DF81420 		ldrb	r2, [sp, #20]	@ zero_extendqisi2
 141 00d8 40F20003 		movw	r3, #:lower16:d1
 142 00dc C0F20003 		movt	r3, #:upper16:d1
 143 00e0 9A70     		strb	r2, [r3, #2]
 144 00e2 9DF81520 		ldrb	r2, [sp, #21]	@ zero_extendqisi2
 145 00e6 40F20003 		movw	r3, #:lower16:d1
 146 00ea C0F20003 		movt	r3, #:upper16:d1
 147 00ee 5A70     		strb	r2, [r3, #1]
 148 00f0 9DF81620 		ldrb	r2, [sp, #22]	@ zero_extendqisi2
 149 00f4 40F20003 		movw	r3, #:lower16:d1
 150 00f8 C0F20003 		movt	r3, #:upper16:d1
 151 00fc 1A70     		strb	r2, [r3, #0]
 152 00fe 0398     		ldr	r0, [sp, #12]
 153 0100 4FF07601 		mov	r1, #118
 154 0104 4FF0FF02 		mov	r2, #255
 155 0108 4FF05803 		mov	r3, #88
 156 010c FFF7FEFF 		bl	i2cWrite
 157 0110 07B0     		add	sp, sp, #28
 158 0112 00BD     		pop	{pc}
 160              		.align	2
 161              		.global	calculateTemperature
 162              		.thumb
 163              		.thumb_func
 165              	calculateTemperature:
 166              		@ args = 0, pretend = 0, frame = 0
 167              		@ frame_needed = 0, uses_anonymous_args = 0
 168              		@ link register save eliminated.
 169 0114 2DE9F003 		push	{r4, r5, r6, r7, r8, r9}
 170 0118 40F20003 		movw	r3, #:lower16:d2
 171 011c C0F20003 		movt	r3, #:upper16:d2
 172 0120 1A68     		ldr	r2, [r3, #0]
 173 0122 40F20003 		movw	r3, #:lower16:c5
 174 0126 C0F20003 		movt	r3, #:upper16:c5
 175 012a 1B88     		ldrh	r3, [r3, #0]
 176 012c 4FEA0323 		lsl	r3, r3, #8
 177 0130 D31A     		subs	r3, r2, r3
 178 0132 1A46     		mov	r2, r3
 179 0134 40F20003 		movw	r3, #:lower16:dT
 180 0138 C0F20003 		movt	r3, #:upper16:dT
 181 013c 1A60     		str	r2, [r3, #0]
 182 013e 40F20003 		movw	r3, #:lower16:dT
 183 0142 C0F20003 		movt	r3, #:upper16:dT
 184 0146 1B68     		ldr	r3, [r3, #0]
 185 0148 1E46     		mov	r6, r3
 186 014a 4FEAE677 		asr	r7, r6, #31
 187 014e 40F20003 		movw	r3, #:lower16:c6
 188 0152 C0F20003 		movt	r3, #:upper16:c6
 189 0156 1B88     		ldrh	r3, [r3, #0]
 190 0158 9CB2     		uxth	r4, r3
 191 015a 4FF00005 		mov	r5, #0
 192 015e 04FB07F2 		mul	r2, r4, r7
 193 0162 06FB05F3 		mul	r3, r6, r5
 194 0166 D118     		adds	r1, r2, r3
 195 0168 A6FB0423 		umull	r2, r3, r6, r4
 196 016c C918     		adds	r1, r1, r3
 197 016e 0B46     		mov	r3, r1
 198 0170 4FEA4321 		lsl	r1, r3, #9
 199 0174 4FEAD258 		lsr	r8, r2, #23
 200 0178 41EA0808 		orr	r8, r1, r8
 201 017c 4FEAE359 		asr	r9, r3, #23
 202 0180 4346     		mov	r3, r8
 203 0182 03F5FA62 		add	r2, r3, #2000
 204 0186 40F20003 		movw	r3, #:lower16:temp
 205 018a C0F20003 		movt	r3, #:upper16:temp
 206 018e 1A60     		str	r2, [r3, #0]
 207 0190 BDE8F003 		pop	{r4, r5, r6, r7, r8, r9}
 208 0194 7047     		bx	lr
 210              		.global	__aeabi_f2d
 211              		.global	__aeabi_dsub
 212              		.global	__aeabi_dmul
 213              		.global	__aeabi_d2f
 214 0196 00BF     		.align	2
 215              		.global	calculatePressureAltitude
 216              		.thumb
 217              		.thumb_func
 219              	calculatePressureAltitude:
 220              		@ args = 0, pretend = 0, frame = 32
 221              		@ frame_needed = 0, uses_anonymous_args = 0
 222 0198 2DE9F04F 		push	{r4, r5, r6, r7, r8, r9, sl, fp, lr}
 223 019c 89B0     		sub	sp, sp, #36
 224 019e 4FF00002 		mov	r2, #0
 225 01a2 4FF00003 		mov	r3, #0
 226 01a6 CDE90623 		strd	r2, [sp, #24]
 227 01aa 4FF00002 		mov	r2, #0
 228 01ae 4FF00003 		mov	r3, #0
 229 01b2 CDE90423 		strd	r2, [sp, #16]
 230 01b6 40F20003 		movw	r3, #:lower16:c2
 231 01ba C0F20003 		movt	r3, #:upper16:c2
 232 01be 1B88     		ldrh	r3, [r3, #0]
 233 01c0 4FEA0343 		lsl	r3, r3, #16
 234 01c4 9A46     		mov	sl, r3
 235 01c6 4FF0000B 		mov	fp, #0
 236 01ca 40F20003 		movw	r3, #:lower16:c4
 237 01ce C0F20003 		movt	r3, #:upper16:c4
 238 01d2 1B88     		ldrh	r3, [r3, #0]
 239 01d4 9CB2     		uxth	r4, r3
 240 01d6 4FF00005 		mov	r5, #0
 241 01da 40F20003 		movw	r3, #:lower16:dT
 242 01de C0F20003 		movt	r3, #:upper16:dT
 243 01e2 1968     		ldr	r1, [r3, #0]
 244 01e4 0A46     		mov	r2, r1
 245 01e6 4FEAE273 		asr	r3, r2, #31
 246 01ea 02FB05F0 		mul	r0, r2, r5
 247 01ee 04FB03F1 		mul	r1, r4, r3
 248 01f2 4118     		adds	r1, r0, r1
 249 01f4 A4FB0223 		umull	r2, r3, r4, r2
 250 01f8 C918     		adds	r1, r1, r3
 251 01fa 0B46     		mov	r3, r1
 252 01fc 4FEA4361 		lsl	r1, r3, #25
 253 0200 4FEAD216 		lsr	r6, r2, #7
 254 0204 0E43     		orrs	r6, r6, r1
 255 0206 4FEAE317 		asr	r7, r3, #7
 256 020a 5046     		mov	r0, sl
 257 020c 5946     		mov	r1, fp
 258 020e 8019     		adds	r0, r0, r6
 259 0210 41EB0701 		adc	r1, r1, r7
 260 0214 40F20003 		movw	r3, #:lower16:offset
 261 0218 C0F20003 		movt	r3, #:upper16:offset
 262 021c C3E90001 		strd	r0, [r3]
 263 0220 40F20003 		movw	r3, #:lower16:c1
 264 0224 C0F20003 		movt	r3, #:upper16:c1
 265 0228 1B88     		ldrh	r3, [r3, #0]
 266 022a 4FEAC333 		lsl	r3, r3, #15
 267 022e 1E46     		mov	r6, r3
 268 0230 4FF00007 		mov	r7, #0
 269 0234 40F20003 		movw	r3, #:lower16:c3
 270 0238 C0F20003 		movt	r3, #:upper16:c3
 271 023c 1B88     		ldrh	r3, [r3, #0]
 272 023e 9CB2     		uxth	r4, r3
 273 0240 4FF00005 		mov	r5, #0
 274 0244 40F20003 		movw	r3, #:lower16:dT
 275 0248 C0F20003 		movt	r3, #:upper16:dT
 276 024c 1968     		ldr	r1, [r3, #0]
 277 024e 0A46     		mov	r2, r1
 278 0250 4FEAE273 		asr	r3, r2, #31
 279 0254 02FB05F0 		mul	r0, r2, r5
 280 0258 04FB03F1 		mul	r1, r4, r3
 281 025c 4118     		adds	r1, r0, r1
 282 025e A4FB0223 		umull	r2, r3, r4, r2
 283 0262 C918     		adds	r1, r1, r3
 284 0264 0B46     		mov	r3, r1
 285 0266 4FEA0361 		lsl	r1, r3, #24
 286 026a 4FEA1228 		lsr	r8, r2, #8
 287 026e 41EA0808 		orr	r8, r1, r8
 288 0272 4FEA2329 		asr	r9, r3, #8
 289 0276 3046     		mov	r0, r6
 290 0278 3946     		mov	r1, r7
 291 027a 10EB0800 		adds	r0, r0, r8
 292 027e 41EB0901 		adc	r1, r1, r9
 293 0282 40F20003 		movw	r3, #:lower16:sensitivity
 294 0286 C0F20003 		movt	r3, #:upper16:sensitivity
 295 028a C3E90001 		strd	r0, [r3]
 296 028e 40F20003 		movw	r3, #:lower16:temp
 297 0292 C0F20003 		movt	r3, #:upper16:temp
 298 0296 1B68     		ldr	r3, [r3, #0]
 299 0298 132B     		cmp	r3, #19
 300 029a 7EDC     		bgt	.L6
 301 029c 40F20003 		movw	r3, #:lower16:temp
 302 02a0 C0F20003 		movt	r3, #:upper16:temp
 303 02a4 1A68     		ldr	r2, [r3, #0]
 304 02a6 4FF63503 		movw	r3, #63541
 305 02aa CFF6FF73 		movt	r3, 65535
 306 02ae 03FB02F3 		mul	r3, r3, r2
 307 02b2 A3F57A71 		sub	r1, r3, #1000
 308 02b6 0A46     		mov	r2, r1
 309 02b8 4FEAE273 		asr	r3, r2, #31
 310 02bc CDE90623 		strd	r2, [sp, #24]
 311 02c0 40F20003 		movw	r3, #:lower16:temp
 312 02c4 C0F20003 		movt	r3, #:upper16:temp
 313 02c8 1A68     		ldr	r2, [r3, #0]
 314 02ca 4FF63503 		movw	r3, #63541
 315 02ce CFF6FF73 		movt	r3, 65535
 316 02d2 03FB02F3 		mul	r3, r3, r2
 317 02d6 A3F5FA71 		sub	r1, r3, #500
 318 02da 0A46     		mov	r2, r1
 319 02dc 4FEAE273 		asr	r3, r2, #31
 320 02e0 CDE90423 		strd	r2, [sp, #16]
 321 02e4 40F20003 		movw	r3, #:lower16:temp
 322 02e8 C0F20003 		movt	r3, #:upper16:temp
 323 02ec 1B68     		ldr	r3, [r3, #0]
 324 02ee 13F10F0F 		cmn	r3, #15
 325 02f2 52DA     		bge	.L6
 326 02f4 40F20003 		movw	r3, #:lower16:temp
 327 02f8 C0F20003 		movt	r3, #:upper16:temp
 328 02fc 1A68     		ldr	r2, [r3, #0]
 329 02fe 1346     		mov	r3, r2
 330 0300 4FEAC303 		lsl	r3, r3, #3
 331 0304 991A     		subs	r1, r3, r2
 332 0306 0A46     		mov	r2, r1
 333 0308 4FEAE273 		asr	r3, r2, #31
 334 030c DDE90601 		ldrd	r0, [sp, #24]
 335 0310 8018     		adds	r0, r0, r2
 336 0312 41EB0301 		adc	r1, r1, r3
 337 0316 40F20003 		movw	r3, #:lower16:temp
 338 031a C0F20003 		movt	r3, #:upper16:temp
 339 031e 1B68     		ldr	r3, [r3, #0]
 340 0320 40F2DC52 		movw	r2, #1500
 341 0324 02FB03F4 		mul	r4, r2, r3
 342 0328 2246     		mov	r2, r4
 343 032a 4FEAE273 		asr	r3, r2, #31
 344 032e 8018     		adds	r0, r0, r2
 345 0330 41EB0301 		adc	r1, r1, r3
 346 0334 6DA3     		adr	r3, .L7+28
 347 0336 D3E90023 		ldrd	r2, [r3]
 348 033a 1218     		adds	r2, r2, r0
 349 033c 43EB0103 		adc	r3, r3, r1
 350 0340 CDE90623 		strd	r2, [sp, #24]
 351 0344 40F20003 		movw	r3, #:lower16:temp
 352 0348 C0F20003 		movt	r3, #:upper16:temp
 353 034c 1A68     		ldr	r2, [r3, #0]
 354 034e 1346     		mov	r3, r2
 355 0350 4FEA8303 		lsl	r3, r3, #2
 356 0354 9B18     		adds	r3, r3, r2
 357 0356 4FEA4303 		lsl	r3, r3, #1
 358 035a 9918     		adds	r1, r3, r2
 359 035c 0A46     		mov	r2, r1
 360 035e 4FEAE273 		asr	r3, r2, #31
 361 0362 DDE90401 		ldrd	r0, [sp, #16]
 362 0366 8018     		adds	r0, r0, r2
 363 0368 41EB0301 		adc	r1, r1, r3
 364 036c 40F20003 		movw	r3, #:lower16:temp
 365 0370 C0F20003 		movt	r3, #:upper16:temp
 366 0374 1B68     		ldr	r3, [r3, #0]
 367 0376 40F2DC52 		movw	r2, #1500
 368 037a 02FB03F4 		mul	r4, r2, r3
 369 037e 2246     		mov	r2, r4
 370 0380 4FEAE273 		asr	r3, r2, #31
 371 0384 8018     		adds	r0, r0, r2
 372 0386 41EB0301 		adc	r1, r1, r3
 373 038a 5AA3     		adr	r3, .L7+36
 374 038c D3E90023 		ldrd	r2, [r3]
 375 0390 1218     		adds	r2, r2, r0
 376 0392 43EB0103 		adc	r3, r3, r1
 377 0396 CDE90423 		strd	r2, [sp, #16]
 378              	.L6:
 379 039a 40F20003 		movw	r3, #:lower16:offset
 380 039e C0F20003 		movt	r3, #:upper16:offset
 381 03a2 D3E90001 		ldrd	r0, [r3]
 382 03a6 DDE90623 		ldrd	r2, [sp, #24]
 383 03aa 801A     		subs	r0, r0, r2
 384 03ac 61EB0301 		sbc	r1, r1, r3
 385 03b0 40F20003 		movw	r3, #:lower16:offset
 386 03b4 C0F20003 		movt	r3, #:upper16:offset
 387 03b8 C3E90001 		strd	r0, [r3]
 388 03bc 40F20003 		movw	r3, #:lower16:sensitivity
 389 03c0 C0F20003 		movt	r3, #:upper16:sensitivity
 390 03c4 D3E90001 		ldrd	r0, [r3]
 391 03c8 DDE90423 		ldrd	r2, [sp, #16]
 392 03cc 801A     		subs	r0, r0, r2
 393 03ce 61EB0301 		sbc	r1, r1, r3
 394 03d2 40F20003 		movw	r3, #:lower16:sensitivity
 395 03d6 C0F20003 		movt	r3, #:upper16:sensitivity
 396 03da C3E90001 		strd	r0, [r3]
 397 03de 40F20003 		movw	r3, #:lower16:d1Average
 398 03e2 C0F20003 		movt	r3, #:upper16:d1Average
 399 03e6 1B68     		ldr	r3, [r3, #0]
 400 03e8 1C46     		mov	r4, r3
 401 03ea 4FF00005 		mov	r5, #0
 402 03ee 40F20003 		movw	r3, #:lower16:sensitivity
 403 03f2 C0F20003 		movt	r3, #:upper16:sensitivity
 404 03f6 D3E90023 		ldrd	r2, [r3]
 405 03fa 02FB05F0 		mul	r0, r2, r5
 406 03fe 04FB03F1 		mul	r1, r4, r3
 407 0402 4118     		adds	r1, r0, r1
 408 0404 A4FB0223 		umull	r2, r3, r4, r2
 409 0408 C918     		adds	r1, r1, r3
 410 040a 0B46     		mov	r3, r1
 411 040c 4FEAC321 		lsl	r1, r3, #11
 412 0410 4FEA5250 		lsr	r0, r2, #21
 413 0414 0290     		str	r0, [sp, #8]
 414 0416 0298     		ldr	r0, [sp, #8]
 415 0418 0843     		orrs	r0, r0, r1
 416 041a 0290     		str	r0, [sp, #8]
 417 041c 4FEA6351 		asr	r1, r3, #21
 418 0420 0391     		str	r1, [sp, #12]
 419 0422 40F20003 		movw	r3, #:lower16:offset
 420 0426 C0F20003 		movt	r3, #:upper16:offset
 421 042a D3E90023 		ldrd	r2, [r3]
 422 042e DDE90201 		ldrd	r0, [sp, #8]
 423 0432 821A     		subs	r2, r0, r2
 424 0434 61EB0303 		sbc	r3, r1, r3
 425 0438 4FEA4341 		lsl	r1, r3, #17
 426 043c 4FEAD230 		lsr	r0, r2, #15
 427 0440 0090     		str	r0, [sp, #0]
 428 0442 0098     		ldr	r0, [sp, #0]
 429 0444 0843     		orrs	r0, r0, r1
 430 0446 0090     		str	r0, [sp, #0]
 431 0448 4FEAE331 		asr	r1, r3, #15
 432 044c 0191     		str	r1, [sp, #4]
 433 044e 009A     		ldr	r2, [sp, #0]
 434 0450 40F20003 		movw	r3, #:lower16:p
 435 0454 C0F20003 		movt	r3, #:upper16:p
 436 0458 1A60     		str	r2, [r3, #0]
 437 045a 40F20003 		movw	r3, #:lower16:p
 438 045e C0F20003 		movt	r3, #:upper16:p
 439 0462 1B68     		ldr	r3, [r3, #0]
 440 0464 07EE903A 		fmsr	s15, r3	@ int
 441 0468 B8EEE77A 		fsitos	s14, s15
 442 046c DFED1E7A 		flds	s15, .L7+24
 443 0470 C7EE277A 		fdivs	s15, s14, s15
 444 0474 17EE900A 		fmrs	r0, s15
 445 0478 FFF7FEFF 		bl	__aeabi_f2d
 446 047c 0246     		mov	r2, r0
 447 047e 0B46     		mov	r3, r1
 448 0480 1046     		mov	r0, r2
 449 0482 1946     		mov	r1, r3
 450 0484 12A3     		adr	r3, .L7
 451 0486 D3E90023 		ldrd	r2, [r3]
 452 048a FFF7FEFF 		bl	pow
 453 048e 0246     		mov	r2, r0
 454 0490 0B46     		mov	r3, r1
 455 0492 11A1     		adr	r1, .L7+8
 456 0494 D1E90001 		ldrd	r0, [r1]
 457 0498 FFF7FEFF 		bl	__aeabi_dsub
 458 049c 0246     		mov	r2, r0
 459 049e 0B46     		mov	r3, r1
 460 04a0 1046     		mov	r0, r2
 461 04a2 1946     		mov	r1, r3
 462 04a4 0EA3     		adr	r3, .L7+16
 463 04a6 D3E90023 		ldrd	r2, [r3]
 464 04aa FFF7FEFF 		bl	__aeabi_dmul
 465 04ae 0246     		mov	r2, r0
 466 04b0 0B46     		mov	r3, r1
 467 04b2 1046     		mov	r0, r2
 468 04b4 1946     		mov	r1, r3
 469 04b6 FFF7FEFF 		bl	__aeabi_d2f
 470 04ba 0246     		mov	r2, r0	@ float
 471 04bc 40F20003 		movw	r3, #:lower16:sensors
 472 04c0 C0F20003 		movt	r3, #:upper16:sensors
 473 04c4 DA63     		str	r2, [r3, #60]	@ float
 474 04c6 09B0     		add	sp, sp, #36
 475 04c8 BDE8F08F 		pop	{r4, r5, r6, r7, r8, r9, sl, fp, pc}
 476              	.L8:
 477 04cc AFF30080 		.align	3
 478              	.L7:
 479 04d0 00000020 		.word	536870912
 480 04d4 965BC83F 		.word	1070095254
 481 04d8 00000000 		.word	0
 482 04dc 0000F03F 		.word	1072693248
 483 04e0 00000000 		.word	0
 484 04e4 40A5E540 		.word	1088791872
 485 04e8 80E6C547 		.word	1204151936
 486 04ec DC050000 		.word	1500
 487 04f0 00000000 		.word	0
 488 04f4 EE020000 		.word	750
 489 04f8 00000000 		.word	0
 491              		.align	2
 492              		.global	initPressure
 493              		.thumb
 494              		.thumb_func
 496              	initPressure:
 497              		@ args = 0, pretend = 0, frame = 16
 498              		@ frame_needed = 0, uses_anonymous_args = 0
 499 04fc 00B5     		push	{lr}
 500 04fe 87B0     		sub	sp, sp, #28
 501 0500 0390     		str	r0, [sp, #12]
 502 0502 0398     		ldr	r0, [sp, #12]
 503 0504 4FF07601 		mov	r1, #118
 504 0508 4FF0FF02 		mov	r2, #255
 505 050c 4FF01E03 		mov	r3, #30
 506 0510 FFF7FEFF 		bl	i2cWrite
 507 0514 4FF00A00 		mov	r0, #10
 508 0518 FFF7FEFF 		bl	delay
 509 051c 05AB     		add	r3, sp, #20
 510 051e 0093     		str	r3, [sp, #0]
 511 0520 0398     		ldr	r0, [sp, #12]
 512 0522 4FF07601 		mov	r1, #118
 513 0526 4FF0A202 		mov	r2, #162
 514 052a 4FF00203 		mov	r3, #2
 515 052e FFF7FEFF 		bl	i2cRead
 516 0532 9DF81420 		ldrb	r2, [sp, #20]	@ zero_extendqisi2
 517 0536 40F20003 		movw	r3, #:lower16:c1
 518 053a C0F20003 		movt	r3, #:upper16:c1
 519 053e 5A70     		strb	r2, [r3, #1]
 520 0540 9DF81520 		ldrb	r2, [sp, #21]	@ zero_extendqisi2
 521 0544 40F20003 		movw	r3, #:lower16:c1
 522 0548 C0F20003 		movt	r3, #:upper16:c1
 523 054c 1A70     		strb	r2, [r3, #0]
 524 054e 05AB     		add	r3, sp, #20
 525 0550 0093     		str	r3, [sp, #0]
 526 0552 0398     		ldr	r0, [sp, #12]
 527 0554 4FF07601 		mov	r1, #118
 528 0558 4FF0A402 		mov	r2, #164
 529 055c 4FF00203 		mov	r3, #2
 530 0560 FFF7FEFF 		bl	i2cRead
 531 0564 9DF81420 		ldrb	r2, [sp, #20]	@ zero_extendqisi2
 532 0568 40F20003 		movw	r3, #:lower16:c2
 533 056c C0F20003 		movt	r3, #:upper16:c2
 534 0570 5A70     		strb	r2, [r3, #1]
 535 0572 9DF81520 		ldrb	r2, [sp, #21]	@ zero_extendqisi2
 536 0576 40F20003 		movw	r3, #:lower16:c2
 537 057a C0F20003 		movt	r3, #:upper16:c2
 538 057e 1A70     		strb	r2, [r3, #0]
 539 0580 05AB     		add	r3, sp, #20
 540 0582 0093     		str	r3, [sp, #0]
 541 0584 0398     		ldr	r0, [sp, #12]
 542 0586 4FF07601 		mov	r1, #118
 543 058a 4FF0A602 		mov	r2, #166
 544 058e 4FF00203 		mov	r3, #2
 545 0592 FFF7FEFF 		bl	i2cRead
 546 0596 9DF81420 		ldrb	r2, [sp, #20]	@ zero_extendqisi2
 547 059a 40F20003 		movw	r3, #:lower16:c3
 548 059e C0F20003 		movt	r3, #:upper16:c3
 549 05a2 5A70     		strb	r2, [r3, #1]
 550 05a4 9DF81520 		ldrb	r2, [sp, #21]	@ zero_extendqisi2
 551 05a8 40F20003 		movw	r3, #:lower16:c3
 552 05ac C0F20003 		movt	r3, #:upper16:c3
 553 05b0 1A70     		strb	r2, [r3, #0]
 554 05b2 05AB     		add	r3, sp, #20
 555 05b4 0093     		str	r3, [sp, #0]
 556 05b6 0398     		ldr	r0, [sp, #12]
 557 05b8 4FF07601 		mov	r1, #118
 558 05bc 4FF0A802 		mov	r2, #168
 559 05c0 4FF00203 		mov	r3, #2
 560 05c4 FFF7FEFF 		bl	i2cRead
 561 05c8 9DF81420 		ldrb	r2, [sp, #20]	@ zero_extendqisi2
 562 05cc 40F20003 		movw	r3, #:lower16:c4
 563 05d0 C0F20003 		movt	r3, #:upper16:c4
 564 05d4 5A70     		strb	r2, [r3, #1]
 565 05d6 9DF81520 		ldrb	r2, [sp, #21]	@ zero_extendqisi2
 566 05da 40F20003 		movw	r3, #:lower16:c4
 567 05de C0F20003 		movt	r3, #:upper16:c4
 568 05e2 1A70     		strb	r2, [r3, #0]
 569 05e4 05AB     		add	r3, sp, #20
 570 05e6 0093     		str	r3, [sp, #0]
 571 05e8 0398     		ldr	r0, [sp, #12]
 572 05ea 4FF07601 		mov	r1, #118
 573 05ee 4FF0AA02 		mov	r2, #170
 574 05f2 4FF00203 		mov	r3, #2
 575 05f6 FFF7FEFF 		bl	i2cRead
 576 05fa 9DF81420 		ldrb	r2, [sp, #20]	@ zero_extendqisi2
 577 05fe 40F20003 		movw	r3, #:lower16:c5
 578 0602 C0F20003 		movt	r3, #:upper16:c5
 579 0606 5A70     		strb	r2, [r3, #1]
 580 0608 9DF81520 		ldrb	r2, [sp, #21]	@ zero_extendqisi2
 581 060c 40F20003 		movw	r3, #:lower16:c5
 582 0610 C0F20003 		movt	r3, #:upper16:c5
 583 0614 1A70     		strb	r2, [r3, #0]
 584 0616 05AB     		add	r3, sp, #20
 585 0618 0093     		str	r3, [sp, #0]
 586 061a 0398     		ldr	r0, [sp, #12]
 587 061c 4FF07601 		mov	r1, #118
 588 0620 4FF0AC02 		mov	r2, #172
 589 0624 4FF00203 		mov	r3, #2
 590 0628 FFF7FEFF 		bl	i2cRead
 591 062c 9DF81420 		ldrb	r2, [sp, #20]	@ zero_extendqisi2
 592 0630 40F20003 		movw	r3, #:lower16:c6
 593 0634 C0F20003 		movt	r3, #:upper16:c6
 594 0638 5A70     		strb	r2, [r3, #1]
 595 063a 9DF81520 		ldrb	r2, [sp, #21]	@ zero_extendqisi2
 596 063e 40F20003 		movw	r3, #:lower16:c6
 597 0642 C0F20003 		movt	r3, #:upper16:c6
 598 0646 1A70     		strb	r2, [r3, #0]
 599 0648 0398     		ldr	r0, [sp, #12]
 600 064a 4FF07601 		mov	r1, #118
 601 064e 4FF0FF02 		mov	r2, #255
 602 0652 4FF05803 		mov	r3, #88
 603 0656 FFF7FEFF 		bl	i2cWrite
 604 065a 4FF00A00 		mov	r0, #10
 605 065e FFF7FEFF 		bl	delay
 606 0662 0398     		ldr	r0, [sp, #12]
 607 0664 FFF7FEFF 		bl	readTemperatureRequestPressure
 608 0668 4FF00A00 		mov	r0, #10
 609 066c FFF7FEFF 		bl	delay
 610 0670 07B0     		add	sp, sp, #28
 611 0672 00BD     		pop	{pc}
 613 0674 AFF30080 		.ident	"GCC: (Sourcery CodeBench Lite 2012.03-56) 4.6.3"
DEFINED SYMBOLS
                            *ABS*:00000000 ms5611.c
                            *COM*:00000001 mtk19ProcessDataState
                            *COM*:00000001 nmeaProcessDataState
                            *COM*:00000001 ubloxProcessDataState
                            *COM*:00000004 d1Average
C:\Users\JOHNIH~1\AppData\Local\Temp\ccn53RmH.s:25     .bss:00000000 d1Sum
C:\Users\JOHNIH~1\AppData\Local\Temp\ccn53RmH.s:22     .bss:00000000 $d
                            *COM*:00000002 c1
                            *COM*:00000002 c2
                            *COM*:00000002 c3
                            *COM*:00000002 c4
                            *COM*:00000002 c5
                            *COM*:00000002 c6
                            *COM*:00000004 d1
                            *COM*:00000004 d2
                            *COM*:00000004 dT
                            *COM*:00000004 temp
                            *COM*:00000008 offset
                            *COM*:00000008 sensitivity
                            *COM*:00000004 p
C:\Users\JOHNIH~1\AppData\Local\Temp\ccn53RmH.s:43     .bss:00000004 pressureAltValid
C:\Users\JOHNIH~1\AppData\Local\Temp\ccn53RmH.s:46     .text:00000000 $t
C:\Users\JOHNIH~1\AppData\Local\Temp\ccn53RmH.s:51     .text:00000000 readTemperatureRequestPressure
C:\Users\JOHNIH~1\AppData\Local\Temp\ccn53RmH.s:89     .text:0000005c readPressureRequestPressure
C:\Users\JOHNIH~1\AppData\Local\Temp\ccn53RmH.s:127    .text:000000b8 readPressureRequestTemperature
C:\Users\JOHNIH~1\AppData\Local\Temp\ccn53RmH.s:165    .text:00000114 calculateTemperature
C:\Users\JOHNIH~1\AppData\Local\Temp\ccn53RmH.s:219    .text:00000198 calculatePressureAltitude
C:\Users\JOHNIH~1\AppData\Local\Temp\ccn53RmH.s:479    .text:000004d0 $d
C:\Users\JOHNIH~1\AppData\Local\Temp\ccn53RmH.s:491    .text:000004fc $t
C:\Users\JOHNIH~1\AppData\Local\Temp\ccn53RmH.s:496    .text:000004fc initPressure

UNDEFINED SYMBOLS
i2cRead
i2cWrite
__aeabi_f2d
__aeabi_dsub
__aeabi_dmul
__aeabi_d2f
pow
sensors
delay
