   1              		.syntax unified
   2              		.cpu cortex-m4
   3              		.eabi_attribute 27, 3
   4              		.fpu fpv4-sp-d16
   5              		.eabi_attribute 20, 1
   6              		.eabi_attribute 21, 1
   7              		.eabi_attribute 23, 3
   8              		.eabi_attribute 24, 1
   9              		.eabi_attribute 25, 1
  10              		.eabi_attribute 26, 1
  11              		.eabi_attribute 30, 6
  12              		.eabi_attribute 34, 1
  13              		.eabi_attribute 18, 4
  14              		.thumb
  15              		.file	"drv_pwmServo.c"
  16              		.comm	mtk19ProcessDataState,1,1
  17              		.comm	nmeaProcessDataState,1,1
  18              		.comm	ubloxProcessDataState,1,1
  19              		.data
  20              		.align	2
  23              	OutputChannels:
  24 0000 3C0C0040 		.word	1073744956
  25 0004 380C0040 		.word	1073744952
  26 0008 340C0040 		.word	1073744948
  27              		.text
  28              		.align	2
  29              		.global	pwmServoInit
  30              		.thumb
  31              		.thumb_func
  33              	pwmServoInit:
  34              		@ args = 0, pretend = 0, frame = 48
  35              		@ frame_needed = 0, uses_anonymous_args = 0
  36 0000 00B5     		push	{lr}
  37 0002 8DB0     		sub	sp, sp, #52
  38 0004 0346     		mov	r3, r0
  39 0006 ADF80630 		strh	r3, [sp, #6]	@ movhi
  40 000a 0AAB     		add	r3, sp, #40
  41 000c 1846     		mov	r0, r3
  42 000e FFF7FEFF 		bl	GPIO_StructInit
  43 0012 07AB     		add	r3, sp, #28
  44 0014 1846     		mov	r0, r3
  45 0016 FFF7FEFF 		bl	TIM_TimeBaseStructInit
  46 001a 02AB     		add	r3, sp, #8
  47 001c 1846     		mov	r0, r3
  48 001e FFF7FEFF 		bl	TIM_OCStructInit
  49 0022 4FF00100 		mov	r0, #1
  50 0026 4FF00101 		mov	r1, #1
  51 002a FFF7FEFF 		bl	RCC_AHB1PeriphClockCmd
  52 002e 4FF00800 		mov	r0, #8
  53 0032 4FF00101 		mov	r1, #1
  54 0036 FFF7FEFF 		bl	RCC_APB1PeriphClockCmd
  55 003a 4FF00703 		mov	r3, #7
  56 003e 0A93     		str	r3, [sp, #40]
  57 0040 4FF00203 		mov	r3, #2
  58 0044 8DF82C30 		strb	r3, [sp, #44]
  59 0048 4FF00203 		mov	r3, #2
  60 004c 8DF82D30 		strb	r3, [sp, #45]
  61 0050 4FF00000 		mov	r0, #0
  62 0054 C4F20200 		movt	r0, 16386
  63 0058 0AAB     		add	r3, sp, #40
  64 005a 1946     		mov	r1, r3
  65 005c FFF7FEFF 		bl	GPIO_Init
  66 0060 4FF00000 		mov	r0, #0
  67 0064 C4F20200 		movt	r0, 16386
  68 0068 4FF00201 		mov	r1, #2
  69 006c 4FF00202 		mov	r2, #2
  70 0070 FFF7FEFF 		bl	GPIO_PinAFConfig
  71 0074 4FF00000 		mov	r0, #0
  72 0078 C4F20200 		movt	r0, 16386
  73 007c 4FF00101 		mov	r1, #1
  74 0080 4FF00202 		mov	r2, #2
  75 0084 FFF7FEFF 		bl	GPIO_PinAFConfig
  76 0088 4FF00000 		mov	r0, #0
  77 008c C4F20200 		movt	r0, 16386
  78 0090 4FF00001 		mov	r1, #0
  79 0094 4FF00202 		mov	r2, #2
  80 0098 FFF7FEFF 		bl	GPIO_PinAFConfig
  81 009c BDF80620 		ldrh	r2, [sp, #6]
  82 00a0 48F28043 		movw	r3, #33920
  83 00a4 C0F21E03 		movt	r3, 30
  84 00a8 93FBF2F3 		sdiv	r3, r3, r2
  85 00ac 9BB2     		uxth	r3, r3
  86 00ae 03F1FF33 		add	r3, r3, #-1
  87 00b2 0893     		str	r3, [sp, #32]
  88 00b4 4FF02903 		mov	r3, #41
  89 00b8 ADF81C30 		strh	r3, [sp, #28]	@ movhi
  90 00bc 4FF44060 		mov	r0, #3072
  91 00c0 C4F20000 		movt	r0, 16384
  92 00c4 07AB     		add	r3, sp, #28
  93 00c6 1946     		mov	r1, r3
  94 00c8 FFF7FEFF 		bl	TIM_TimeBaseInit
  95 00cc 4FF07003 		mov	r3, #112
  96 00d0 ADF80830 		strh	r3, [sp, #8]	@ movhi
  97 00d4 4FF00103 		mov	r3, #1
  98 00d8 ADF80A30 		strh	r3, [sp, #10]	@ movhi
  99 00dc 40F6B833 		movw	r3, #3000
 100 00e0 0493     		str	r3, [sp, #16]
 101 00e2 4FF00203 		mov	r3, #2
 102 00e6 ADF81430 		strh	r3, [sp, #20]	@ movhi
 103 00ea 4FF48073 		mov	r3, #256
 104 00ee ADF81830 		strh	r3, [sp, #24]	@ movhi
 105 00f2 4FF44060 		mov	r0, #3072
 106 00f6 C4F20000 		movt	r0, 16384
 107 00fa 02AB     		add	r3, sp, #8
 108 00fc 1946     		mov	r1, r3
 109 00fe FFF7FEFF 		bl	TIM_OC1Init
 110 0102 4FF44060 		mov	r0, #3072
 111 0106 C4F20000 		movt	r0, 16384
 112 010a 02AB     		add	r3, sp, #8
 113 010c 1946     		mov	r1, r3
 114 010e FFF7FEFF 		bl	TIM_OC2Init
 115 0112 4FF44060 		mov	r0, #3072
 116 0116 C4F20000 		movt	r0, 16384
 117 011a 4FF00101 		mov	r1, #1
 118 011e FFF7FEFF 		bl	TIM_Cmd
 119 0122 4FF44060 		mov	r0, #3072
 120 0126 C4F20000 		movt	r0, 16384
 121 012a 4FF00101 		mov	r1, #1
 122 012e FFF7FEFF 		bl	TIM_CtrlPWMOutputs
 123 0132 0DB0     		add	sp, sp, #52
 124 0134 00BD     		pop	{pc}
 126 0136 00BF     		.align	2
 127              		.global	pwmServoWrite
 128              		.thumb
 129              		.thumb_func
 131              	pwmServoWrite:
 132              		@ args = 0, pretend = 0, frame = 8
 133              		@ frame_needed = 0, uses_anonymous_args = 0
 134              		@ link register save eliminated.
 135 0138 82B0     		sub	sp, sp, #8
 136 013a 0246     		mov	r2, r0
 137 013c 0B46     		mov	r3, r1
 138 013e 8DF80720 		strb	r2, [sp, #7]
 139 0142 ADF80430 		strh	r3, [sp, #4]	@ movhi
 140 0146 9DF80720 		ldrb	r2, [sp, #7]	@ zero_extendqisi2
 141 014a 40F20003 		movw	r3, #:lower16:OutputChannels
 142 014e C0F20003 		movt	r3, #:upper16:OutputChannels
 143 0152 53F82230 		ldr	r3, [r3, r2, lsl #2]
 144 0156 BDF80420 		ldrh	r2, [sp, #4]
 145 015a 1A60     		str	r2, [r3, #0]
 146 015c 02B0     		add	sp, sp, #8
 147 015e 7047     		bx	lr
 149              		.ident	"GCC: (Sourcery CodeBench Lite 2012.03-56) 4.6.3"
DEFINED SYMBOLS
                            *ABS*:00000000 drv_pwmServo.c
                            *COM*:00000001 mtk19ProcessDataState
                            *COM*:00000001 nmeaProcessDataState
                            *COM*:00000001 ubloxProcessDataState
C:\Users\JOHNIH~1\AppData\Local\Temp\ccs9v0fb.s:20     .data:00000000 $d
C:\Users\JOHNIH~1\AppData\Local\Temp\ccs9v0fb.s:23     .data:00000000 OutputChannels
C:\Users\JOHNIH~1\AppData\Local\Temp\ccs9v0fb.s:28     .text:00000000 $t
C:\Users\JOHNIH~1\AppData\Local\Temp\ccs9v0fb.s:33     .text:00000000 pwmServoInit
C:\Users\JOHNIH~1\AppData\Local\Temp\ccs9v0fb.s:131    .text:00000138 pwmServoWrite

UNDEFINED SYMBOLS
GPIO_StructInit
TIM_TimeBaseStructInit
TIM_OCStructInit
RCC_AHB1PeriphClockCmd
RCC_APB1PeriphClockCmd
GPIO_Init
GPIO_PinAFConfig
TIM_TimeBaseInit
TIM_OC1Init
TIM_OC2Init
TIM_Cmd
TIM_CtrlPWMOutputs
