   1              		.syntax unified
   2              		.cpu cortex-m4
   3              		.eabi_attribute 27, 3
   4              		.fpu fpv4-sp-d16
   5              		.eabi_attribute 20, 1
   6              		.eabi_attribute 21, 1
   7              		.eabi_attribute 23, 3
   8              		.eabi_attribute 24, 1
   9              		.eabi_attribute 25, 1
  10              		.eabi_attribute 26, 1
  11              		.eabi_attribute 30, 6
  12              		.eabi_attribute 34, 1
  13              		.eabi_attribute 18, 4
  14              		.thumb
  15              		.file	"drv_uart3.c"
  16              		.comm	mtk19ProcessDataState,1,1
  17              		.comm	nmeaProcessDataState,1,1
  18              		.comm	ubloxProcessDataState,1,1
  19              		.comm	rx3Buffer,2048,4
  20              		.global	rx3DMAPos
  21              		.bss
  22              		.align	2
  25              	rx3DMAPos:
  26 0000 00000000 		.space	4
  27              		.comm	tx3Buffer,2048,4
  28              		.global	tx3BufferTail
  29              		.align	1
  32              	tx3BufferTail:
  33 0004 0000     		.space	2
  34              		.global	tx3BufferHead
  35              		.align	1
  38              	tx3BufferHead:
  39 0006 0000     		.space	2
  40              		.text
  41              		.align	2
  42              		.thumb
  43              		.thumb_func
  45              	uart3TxDMA:
  46              		@ args = 0, pretend = 0, frame = 0
  47              		@ frame_needed = 0, uses_anonymous_args = 0
  48 0000 08B5     		push	{r3, lr}
  49 0002 46F25803 		movw	r3, #24664
  50 0006 C4F20203 		movt	r3, 16386
  51 000a 40F20002 		movw	r2, #:lower16:tx3BufferTail
  52 000e C0F20002 		movt	r2, #:upper16:tx3BufferTail
  53 0012 1288     		ldrh	r2, [r2, #0]
  54 0014 1146     		mov	r1, r2
  55 0016 40F20002 		movw	r2, #:lower16:tx3Buffer
  56 001a C0F20002 		movt	r2, #:upper16:tx3Buffer
  57 001e 8A18     		adds	r2, r1, r2
  58 0020 DA60     		str	r2, [r3, #12]
  59 0022 40F20003 		movw	r3, #:lower16:tx3BufferHead
  60 0026 C0F20003 		movt	r3, #:upper16:tx3BufferHead
  61 002a 1A88     		ldrh	r2, [r3, #0]
  62 002c 40F20003 		movw	r3, #:lower16:tx3BufferTail
  63 0030 C0F20003 		movt	r3, #:upper16:tx3BufferTail
  64 0034 1B88     		ldrh	r3, [r3, #0]
  65 0036 9A42     		cmp	r2, r3
  66 0038 1DD9     		bls	.L2
  67 003a 40F20003 		movw	r3, #:lower16:tx3BufferHead
  68 003e C0F20003 		movt	r3, #:upper16:tx3BufferHead
  69 0042 1A88     		ldrh	r2, [r3, #0]
  70 0044 40F20003 		movw	r3, #:lower16:tx3BufferTail
  71 0048 C0F20003 		movt	r3, #:upper16:tx3BufferTail
  72 004c 1B88     		ldrh	r3, [r3, #0]
  73 004e D31A     		subs	r3, r2, r3
  74 0050 9BB2     		uxth	r3, r3
  75 0052 46F25800 		movw	r0, #24664
  76 0056 C4F20200 		movt	r0, 16386
  77 005a 1946     		mov	r1, r3
  78 005c FFF7FEFF 		bl	DMA_SetCurrDataCounter
  79 0060 40F20003 		movw	r3, #:lower16:tx3BufferHead
  80 0064 C0F20003 		movt	r3, #:upper16:tx3BufferHead
  81 0068 1A88     		ldrh	r2, [r3, #0]
  82 006a 40F20003 		movw	r3, #:lower16:tx3BufferTail
  83 006e C0F20003 		movt	r3, #:upper16:tx3BufferTail
  84 0072 1A80     		strh	r2, [r3, #0]	@ movhi
  85 0074 15E0     		b	.L3
  86              	.L2:
  87 0076 40F20003 		movw	r3, #:lower16:tx3BufferTail
  88 007a C0F20003 		movt	r3, #:upper16:tx3BufferTail
  89 007e 1B88     		ldrh	r3, [r3, #0]
  90 0080 C3F50063 		rsb	r3, r3, #2048
  91 0084 9BB2     		uxth	r3, r3
  92 0086 46F25800 		movw	r0, #24664
  93 008a C4F20200 		movt	r0, 16386
  94 008e 1946     		mov	r1, r3
  95 0090 FFF7FEFF 		bl	DMA_SetCurrDataCounter
  96 0094 40F20003 		movw	r3, #:lower16:tx3BufferTail
  97 0098 C0F20003 		movt	r3, #:upper16:tx3BufferTail
  98 009c 4FF00002 		mov	r2, #0
  99 00a0 1A80     		strh	r2, [r3, #0]	@ movhi
 100              	.L3:
 101 00a2 46F25800 		movw	r0, #24664
 102 00a6 C4F20200 		movt	r0, 16386
 103 00aa 4FF00101 		mov	r1, #1
 104 00ae FFF7FEFF 		bl	DMA_Cmd
 105 00b2 08BD     		pop	{r3, pc}
 107              		.align	2
 108              		.global	DMA1_Stream3_IRQHandler
 109              		.thumb
 110              		.thumb_func
 112              	DMA1_Stream3_IRQHandler:
 113              		@ args = 0, pretend = 0, frame = 0
 114              		@ frame_needed = 0, uses_anonymous_args = 0
 115 00b4 08B5     		push	{r3, lr}
 116 00b6 46F25800 		movw	r0, #24664
 117 00ba C4F20200 		movt	r0, 16386
 118 00be 4FF40041 		mov	r1, #32768
 119 00c2 C1F60001 		movt	r1, 6144
 120 00c6 FFF7FEFF 		bl	DMA_ClearITPendingBit
 121 00ca 46F25800 		movw	r0, #24664
 122 00ce C4F20200 		movt	r0, 16386
 123 00d2 4FF00001 		mov	r1, #0
 124 00d6 FFF7FEFF 		bl	DMA_Cmd
 125 00da 40F20003 		movw	r3, #:lower16:tx3BufferHead
 126 00de C0F20003 		movt	r3, #:upper16:tx3BufferHead
 127 00e2 1A88     		ldrh	r2, [r3, #0]
 128 00e4 40F20003 		movw	r3, #:lower16:tx3BufferTail
 129 00e8 C0F20003 		movt	r3, #:upper16:tx3BufferTail
 130 00ec 1B88     		ldrh	r3, [r3, #0]
 131 00ee 9A42     		cmp	r2, r3
 132 00f0 01D0     		beq	.L4
 133 00f2 FFF785FF 		bl	uart3TxDMA
 134              	.L4:
 135 00f6 08BD     		pop	{r3, pc}
 137              		.align	2
 138              		.global	uart3Init
 139              		.thumb
 140              		.thumb_func
 142              	uart3Init:
 143              		@ args = 0, pretend = 0, frame = 88
 144              		@ frame_needed = 0, uses_anonymous_args = 0
 145 00f8 00B5     		push	{lr}
 146 00fa 97B0     		sub	sp, sp, #92
 147 00fc 14AB     		add	r3, sp, #80
 148 00fe 1846     		mov	r0, r3
 149 0100 FFF7FEFF 		bl	GPIO_StructInit
 150 0104 10AB     		add	r3, sp, #64
 151 0106 1846     		mov	r0, r3
 152 0108 FFF7FEFF 		bl	USART_StructInit
 153 010c 01AB     		add	r3, sp, #4
 154 010e 1846     		mov	r0, r3
 155 0110 FFF7FEFF 		bl	DMA_StructInit
 156 0114 4FF00800 		mov	r0, #8
 157 0118 4FF00101 		mov	r1, #1
 158 011c FFF7FEFF 		bl	RCC_AHB1PeriphClockCmd
 159 0120 4FF40010 		mov	r0, #2097152
 160 0124 4FF00101 		mov	r1, #1
 161 0128 FFF7FEFF 		bl	RCC_AHB1PeriphClockCmd
 162 012c 4FF48020 		mov	r0, #262144
 163 0130 4FF00101 		mov	r1, #1
 164 0134 FFF7FEFF 		bl	RCC_APB1PeriphClockCmd
 165 0138 4FF44073 		mov	r3, #768
 166 013c 1493     		str	r3, [sp, #80]
 167 013e 4FF00203 		mov	r3, #2
 168 0142 8DF85430 		strb	r3, [sp, #84]
 169 0146 4FF00203 		mov	r3, #2
 170 014a 8DF85530 		strb	r3, [sp, #85]
 171 014e 4FF00103 		mov	r3, #1
 172 0152 8DF85730 		strb	r3, [sp, #87]
 173 0156 4FF44060 		mov	r0, #3072
 174 015a C4F20200 		movt	r0, 16386
 175 015e 4FF00801 		mov	r1, #8
 176 0162 4FF00702 		mov	r2, #7
 177 0166 FFF7FEFF 		bl	GPIO_PinAFConfig
 178 016a 4FF44060 		mov	r0, #3072
 179 016e C4F20200 		movt	r0, 16386
 180 0172 4FF00901 		mov	r1, #9
 181 0176 4FF00702 		mov	r2, #7
 182 017a FFF7FEFF 		bl	GPIO_PinAFConfig
 183 017e 4FF44060 		mov	r0, #3072
 184 0182 C4F20200 		movt	r0, 16386
 185 0186 14AB     		add	r3, sp, #80
 186 0188 1946     		mov	r1, r3
 187 018a FFF7FEFF 		bl	GPIO_Init
 188 018e 4FF00E03 		mov	r3, #14
 189 0192 8DF80030 		strb	r3, [sp, #0]
 190 0196 4FF00103 		mov	r3, #1
 191 019a 8DF80130 		strb	r3, [sp, #1]
 192 019e 4FF00003 		mov	r3, #0
 193 01a2 8DF80230 		strb	r3, [sp, #2]
 194 01a6 4FF00103 		mov	r3, #1
 195 01aa 8DF80330 		strb	r3, [sp, #3]
 196 01ae 6B46     		mov	r3, sp
 197 01b0 1846     		mov	r0, r3
 198 01b2 FFF7FEFF 		bl	NVIC_Init
 199 01b6 4FF4E133 		mov	r3, #115200
 200 01ba 1093     		str	r3, [sp, #64]
 201 01bc 4FF49040 		mov	r0, #18432
 202 01c0 C4F20000 		movt	r0, 16384
 203 01c4 10AB     		add	r3, sp, #64
 204 01c6 1946     		mov	r1, r3
 205 01c8 FFF7FEFF 		bl	USART_Init
 206 01cc 46F22800 		movw	r0, #24616
 207 01d0 C4F20200 		movt	r0, 16386
 208 01d4 FFF7FEFF 		bl	DMA_DeInit
 209 01d8 4FF00063 		mov	r3, #134217728
 210 01dc 0193     		str	r3, [sp, #4]
 211 01de 44F60403 		movw	r3, #18436
 212 01e2 C4F20003 		movt	r3, 16384
 213 01e6 0293     		str	r3, [sp, #8]
 214 01e8 40F20003 		movw	r3, #:lower16:rx3Buffer
 215 01ec C0F20003 		movt	r3, #:upper16:rx3Buffer
 216 01f0 0393     		str	r3, [sp, #12]
 217 01f2 4FF40063 		mov	r3, #2048
 218 01f6 0593     		str	r3, [sp, #20]
 219 01f8 4FF48063 		mov	r3, #1024
 220 01fc 0793     		str	r3, [sp, #28]
 221 01fe 4FF48073 		mov	r3, #256
 222 0202 0A93     		str	r3, [sp, #40]
 223 0204 4FF48033 		mov	r3, #65536
 224 0208 0B93     		str	r3, [sp, #44]
 225 020a 46F22800 		movw	r0, #24616
 226 020e C4F20200 		movt	r0, 16386
 227 0212 01AB     		add	r3, sp, #4
 228 0214 1946     		mov	r1, r3
 229 0216 FFF7FEFF 		bl	DMA_Init
 230 021a 46F22800 		movw	r0, #24616
 231 021e C4F20200 		movt	r0, 16386
 232 0222 4FF00101 		mov	r1, #1
 233 0226 FFF7FEFF 		bl	DMA_Cmd
 234 022a 4FF49040 		mov	r0, #18432
 235 022e C4F20000 		movt	r0, 16384
 236 0232 4FF04001 		mov	r1, #64
 237 0236 4FF00102 		mov	r2, #1
 238 023a FFF7FEFF 		bl	USART_DMACmd
 239 023e 46F22800 		movw	r0, #24616
 240 0242 C4F20200 		movt	r0, 16386
 241 0246 FFF7FEFF 		bl	DMA_GetCurrDataCounter
 242 024a 0346     		mov	r3, r0
 243 024c 1A46     		mov	r2, r3
 244 024e 40F20003 		movw	r3, #:lower16:rx3DMAPos
 245 0252 C0F20003 		movt	r3, #:upper16:rx3DMAPos
 246 0256 1A60     		str	r2, [r3, #0]
 247 0258 46F25800 		movw	r0, #24664
 248 025c C4F20200 		movt	r0, 16386
 249 0260 FFF7FEFF 		bl	DMA_DeInit
 250 0264 40F20003 		movw	r3, #:lower16:tx3Buffer
 251 0268 C0F20003 		movt	r3, #:upper16:tx3Buffer
 252 026c 0393     		str	r3, [sp, #12]
 253 026e 4FF04003 		mov	r3, #64
 254 0272 0493     		str	r3, [sp, #16]
 255 0274 4FF00003 		mov	r3, #0
 256 0278 0A93     		str	r3, [sp, #40]
 257 027a 46F25800 		movw	r0, #24664
 258 027e C4F20200 		movt	r0, 16386
 259 0282 01AB     		add	r3, sp, #4
 260 0284 1946     		mov	r1, r3
 261 0286 FFF7FEFF 		bl	DMA_Init
 262 028a 46F25800 		movw	r0, #24664
 263 028e C4F20200 		movt	r0, 16386
 264 0292 4FF00001 		mov	r1, #0
 265 0296 FFF7FEFF 		bl	DMA_SetCurrDataCounter
 266 029a 46F25800 		movw	r0, #24664
 267 029e C4F20200 		movt	r0, 16386
 268 02a2 4FF01001 		mov	r1, #16
 269 02a6 4FF00102 		mov	r2, #1
 270 02aa FFF7FEFF 		bl	DMA_ITConfig
 271 02ae 4FF49040 		mov	r0, #18432
 272 02b2 C4F20000 		movt	r0, 16384
 273 02b6 4FF08001 		mov	r1, #128
 274 02ba 4FF00102 		mov	r2, #1
 275 02be FFF7FEFF 		bl	USART_DMACmd
 276 02c2 4FF49040 		mov	r0, #18432
 277 02c6 C4F20000 		movt	r0, 16384
 278 02ca 4FF00101 		mov	r1, #1
 279 02ce FFF7FEFF 		bl	USART_Cmd
 280 02d2 17B0     		add	sp, sp, #92
 281 02d4 00BD     		pop	{pc}
 283 02d6 00BF     		.align	2
 284              		.global	uart3Available
 285              		.thumb
 286              		.thumb_func
 288              	uart3Available:
 289              		@ args = 0, pretend = 0, frame = 0
 290              		@ frame_needed = 0, uses_anonymous_args = 0
 291 02d8 08B5     		push	{r3, lr}
 292 02da 46F22800 		movw	r0, #24616
 293 02de C4F20200 		movt	r0, 16386
 294 02e2 FFF7FEFF 		bl	DMA_GetCurrDataCounter
 295 02e6 0346     		mov	r3, r0
 296 02e8 1A46     		mov	r2, r3
 297 02ea 40F20003 		movw	r3, #:lower16:rx3DMAPos
 298 02ee C0F20003 		movt	r3, #:upper16:rx3DMAPos
 299 02f2 1B68     		ldr	r3, [r3, #0]
 300 02f4 9A42     		cmp	r2, r3
 301 02f6 0CBF     		ite	eq
 302 02f8 0023     		moveq	r3, #0
 303 02fa 0123     		movne	r3, #1
 304 02fc 9BB2     		uxth	r3, r3
 305 02fe 1846     		mov	r0, r3
 306 0300 08BD     		pop	{r3, pc}
 308 0302 00BF     		.align	2
 309              		.global	uart3Read
 310              		.thumb
 311              		.thumb_func
 313              	uart3Read:
 314              		@ args = 0, pretend = 0, frame = 8
 315              		@ frame_needed = 0, uses_anonymous_args = 0
 316              		@ link register save eliminated.
 317 0304 82B0     		sub	sp, sp, #8
 318 0306 40F20003 		movw	r3, #:lower16:rx3DMAPos
 319 030a C0F20003 		movt	r3, #:upper16:rx3DMAPos
 320 030e 1B68     		ldr	r3, [r3, #0]
 321 0310 C3F50062 		rsb	r2, r3, #2048
 322 0314 40F20003 		movw	r3, #:lower16:rx3Buffer
 323 0318 C0F20003 		movt	r3, #:upper16:rx3Buffer
 324 031c 9B5C     		ldrb	r3, [r3, r2]
 325 031e 8DF80730 		strb	r3, [sp, #7]
 326 0322 40F20003 		movw	r3, #:lower16:rx3DMAPos
 327 0326 C0F20003 		movt	r3, #:upper16:rx3DMAPos
 328 032a 1B68     		ldr	r3, [r3, #0]
 329 032c 03F1FF32 		add	r2, r3, #-1
 330 0330 40F20003 		movw	r3, #:lower16:rx3DMAPos
 331 0334 C0F20003 		movt	r3, #:upper16:rx3DMAPos
 332 0338 1A60     		str	r2, [r3, #0]
 333 033a 40F20003 		movw	r3, #:lower16:rx3DMAPos
 334 033e C0F20003 		movt	r3, #:upper16:rx3DMAPos
 335 0342 1B68     		ldr	r3, [r3, #0]
 336 0344 002B     		cmp	r3, #0
 337 0346 06D1     		bne	.L9
 338 0348 40F20003 		movw	r3, #:lower16:rx3DMAPos
 339 034c C0F20003 		movt	r3, #:upper16:rx3DMAPos
 340 0350 4FF40062 		mov	r2, #2048
 341 0354 1A60     		str	r2, [r3, #0]
 342              	.L9:
 343 0356 9DF80730 		ldrb	r3, [sp, #7]	@ zero_extendqisi2
 344 035a 1846     		mov	r0, r3
 345 035c 02B0     		add	sp, sp, #8
 346 035e 7047     		bx	lr
 348              		.align	2
 349              		.global	uart3ReadPoll
 350              		.thumb
 351              		.thumb_func
 353              	uart3ReadPoll:
 354              		@ args = 0, pretend = 0, frame = 0
 355              		@ frame_needed = 0, uses_anonymous_args = 0
 356 0360 08B5     		push	{r3, lr}
 357 0362 00BF     		nop
 358              	.L11:
 359 0364 FFF7FEFF 		bl	uart3Available
 360 0368 0346     		mov	r3, r0
 361 036a 002B     		cmp	r3, #0
 362 036c FAD0     		beq	.L11
 363 036e FFF7FEFF 		bl	uart3Read
 364 0372 0346     		mov	r3, r0
 365 0374 1846     		mov	r0, r3
 366 0376 08BD     		pop	{r3, pc}
 368              		.align	2
 369              		.global	uart3Write
 370              		.thumb
 371              		.thumb_func
 373              	uart3Write:
 374              		@ args = 0, pretend = 0, frame = 8
 375              		@ frame_needed = 0, uses_anonymous_args = 0
 376 0378 00B5     		push	{lr}
 377 037a 83B0     		sub	sp, sp, #12
 378 037c 0346     		mov	r3, r0
 379 037e 8DF80730 		strb	r3, [sp, #7]
 380 0382 40F20003 		movw	r3, #:lower16:tx3BufferHead
 381 0386 C0F20003 		movt	r3, #:upper16:tx3BufferHead
 382 038a 1B88     		ldrh	r3, [r3, #0]
 383 038c 1A46     		mov	r2, r3
 384 038e 40F20003 		movw	r3, #:lower16:tx3Buffer
 385 0392 C0F20003 		movt	r3, #:upper16:tx3Buffer
 386 0396 9DF80710 		ldrb	r1, [sp, #7]
 387 039a 9954     		strb	r1, [r3, r2]
 388 039c 40F20003 		movw	r3, #:lower16:tx3BufferHead
 389 03a0 C0F20003 		movt	r3, #:upper16:tx3BufferHead
 390 03a4 1B88     		ldrh	r3, [r3, #0]
 391 03a6 03F10103 		add	r3, r3, #1
 392 03aa 4FEAE372 		asr	r2, r3, #31
 393 03ae 4FEA5252 		lsr	r2, r2, #21
 394 03b2 9B18     		adds	r3, r3, r2
 395 03b4 4FEA4353 		lsl	r3, r3, #21
 396 03b8 4FEA5353 		lsr	r3, r3, #21
 397 03bc 9B1A     		subs	r3, r3, r2
 398 03be 9AB2     		uxth	r2, r3
 399 03c0 40F20003 		movw	r3, #:lower16:tx3BufferHead
 400 03c4 C0F20003 		movt	r3, #:upper16:tx3BufferHead
 401 03c8 1A80     		strh	r2, [r3, #0]	@ movhi
 402 03ca 46F25800 		movw	r0, #24664
 403 03ce C4F20200 		movt	r0, 16386
 404 03d2 FFF7FEFF 		bl	DMA_GetCmdStatus
 405 03d6 0346     		mov	r3, r0
 406 03d8 002B     		cmp	r3, #0
 407 03da 05D1     		bne	.L12
 408 03dc FFF710FE 		bl	uart3TxDMA
 409 03e0 4FF06400 		mov	r0, #100
 410 03e4 FFF7FEFF 		bl	delayMicroseconds
 411              	.L12:
 412 03e8 03B0     		add	sp, sp, #12
 413 03ea 00BD     		pop	{pc}
 415              		.align	2
 416              		.global	uart3Print
 417              		.thumb
 418              		.thumb_func
 420              	uart3Print:
 421              		@ args = 0, pretend = 0, frame = 8
 422              		@ frame_needed = 0, uses_anonymous_args = 0
 423 03ec 00B5     		push	{lr}
 424 03ee 83B0     		sub	sp, sp, #12
 425 03f0 0190     		str	r0, [sp, #4]
 426 03f2 09E0     		b	.L15
 427              	.L16:
 428 03f4 019B     		ldr	r3, [sp, #4]
 429 03f6 1B78     		ldrb	r3, [r3, #0]	@ zero_extendqisi2
 430 03f8 DBB2     		uxtb	r3, r3
 431 03fa 019A     		ldr	r2, [sp, #4]
 432 03fc 02F10102 		add	r2, r2, #1
 433 0400 0192     		str	r2, [sp, #4]
 434 0402 1846     		mov	r0, r3
 435 0404 FFF7FEFF 		bl	uart3Write
 436              	.L15:
 437 0408 019B     		ldr	r3, [sp, #4]
 438 040a 1B78     		ldrb	r3, [r3, #0]	@ zero_extendqisi2
 439 040c 002B     		cmp	r3, #0
 440 040e F1D1     		bne	.L16
 441 0410 03B0     		add	sp, sp, #12
 442 0412 00BD     		pop	{pc}
 444              		.ident	"GCC: (Sourcery CodeBench Lite 2012.03-56) 4.6.3"