   1              		.syntax unified
   2              		.cpu cortex-m4
   3              		.eabi_attribute 27, 3
   4              		.fpu fpv4-sp-d16
   5              		.eabi_attribute 20, 1
   6              		.eabi_attribute 21, 1
   7              		.eabi_attribute 23, 3
   8              		.eabi_attribute 24, 1
   9              		.eabi_attribute 25, 1
  10              		.eabi_attribute 26, 1
  11              		.eabi_attribute 30, 6
  12              		.eabi_attribute 34, 1
  13              		.eabi_attribute 18, 4
  14              		.thumb
  15              		.file	"drv_system.c"
  16              		.text
  17              		.align	2
  18              		.thumb
  19              		.thumb_func
  21              	NVIC_SetPriority:
  22              		@ args = 0, pretend = 0, frame = 8
  23              		@ frame_needed = 0, uses_anonymous_args = 0
  24              		@ link register save eliminated.
  25 0000 82B0     		sub	sp, sp, #8
  26 0002 0346     		mov	r3, r0
  27 0004 0091     		str	r1, [sp, #0]
  28 0006 8DF80730 		strb	r3, [sp, #7]
  29 000a 9DF90730 		ldrsb	r3, [sp, #7]
  30 000e 002B     		cmp	r3, #0
  31 0010 11DA     		bge	.L2
  32 0012 4FF46D43 		mov	r3, #60672
  33 0016 CEF20003 		movt	r3, 57344
  34 001a 9DF80720 		ldrb	r2, [sp, #7]	@ zero_extendqisi2
  35 001e 02F00F02 		and	r2, r2, #15
  36 0022 A2F10401 		sub	r1, r2, #4
  37 0026 009A     		ldr	r2, [sp, #0]
  38 0028 D2B2     		uxtb	r2, r2
  39 002a 4FEA0212 		lsl	r2, r2, #4
  40 002e D2B2     		uxtb	r2, r2
  41 0030 5B18     		adds	r3, r3, r1
  42 0032 1A76     		strb	r2, [r3, #24]
  43 0034 0DE0     		b	.L1
  44              	.L2:
  45 0036 4FF46143 		mov	r3, #57600
  46 003a CEF20003 		movt	r3, 57344
  47 003e 9DF90710 		ldrsb	r1, [sp, #7]
  48 0042 009A     		ldr	r2, [sp, #0]
  49 0044 D2B2     		uxtb	r2, r2
  50 0046 4FEA0212 		lsl	r2, r2, #4
  51 004a D2B2     		uxtb	r2, r2
  52 004c 5B18     		adds	r3, r3, r1
  53 004e 83F80023 		strb	r2, [r3, #768]
  54              	.L1:
  55 0052 02B0     		add	sp, sp, #8
  56 0054 7047     		bx	lr
  58 0056 00BF     		.align	2
  59              		.thumb
  60              		.thumb_func
  62              	SysTick_Config:
  63              		@ args = 0, pretend = 0, frame = 8
  64              		@ frame_needed = 0, uses_anonymous_args = 0
  65 0058 00B5     		push	{lr}
  66 005a 83B0     		sub	sp, sp, #12
  67 005c 0190     		str	r0, [sp, #4]
  68 005e 019A     		ldr	r2, [sp, #4]
  69 0060 6FF07F43 		mvn	r3, #-16777216
  70 0064 9A42     		cmp	r2, r3
  71 0066 02D9     		bls	.L5
  72 0068 4FF00103 		mov	r3, #1
  73 006c 1FE0     		b	.L6
  74              	.L5:
  75 006e 4EF21003 		movw	r3, #57360
  76 0072 CEF20003 		movt	r3, 57344
  77 0076 019A     		ldr	r2, [sp, #4]
  78 0078 22F07F42 		bic	r2, r2, #-16777216
  79 007c 02F1FF32 		add	r2, r2, #-1
  80 0080 5A60     		str	r2, [r3, #4]
  81 0082 4FF0FF30 		mov	r0, #-1
  82 0086 4FF00F01 		mov	r1, #15
  83 008a FFF7B9FF 		bl	NVIC_SetPriority
  84 008e 4EF21003 		movw	r3, #57360
  85 0092 CEF20003 		movt	r3, 57344
  86 0096 4FF00002 		mov	r2, #0
  87 009a 9A60     		str	r2, [r3, #8]
  88 009c 4EF21003 		movw	r3, #57360
  89 00a0 CEF20003 		movt	r3, 57344
  90 00a4 4FF00702 		mov	r2, #7
  91 00a8 1A60     		str	r2, [r3, #0]
  92 00aa 4FF00003 		mov	r3, #0
  93              	.L6:
  94 00ae 1846     		mov	r0, r3
  95 00b0 03B0     		add	sp, sp, #12
  96 00b2 00BD     		pop	{pc}
  98              		.comm	mtk19ProcessDataState,1,1
  99              		.comm	nmeaProcessDataState,1,1
 100              		.comm	ubloxProcessDataState,1,1
 101              		.bss
 102              		.align	2
 103              	usTicks:
 104 0000 00000000 		.space	4
 105              		.align	2
 106              	sysTickUptime:
 107 0004 00000000 		.space	4
 108              		.align	2
 109              	sysTickCycleCounter:
 110 0008 00000000 		.space	4
 111              		.text
 112              		.align	2
 113              		.thumb
 114              		.thumb_func
 116              	cycleCounterInit:
 117              		@ args = 0, pretend = 0, frame = 16
 118              		@ frame_needed = 0, uses_anonymous_args = 0
 119 00b4 00B5     		push	{lr}
 120 00b6 85B0     		sub	sp, sp, #20
 121 00b8 6B46     		mov	r3, sp
 122 00ba 1846     		mov	r0, r3
 123 00bc FFF7FEFF 		bl	RCC_GetClocksFreq
 124 00c0 009A     		ldr	r2, [sp, #0]
 125 00c2 4DF68363 		movw	r3, #56963
 126 00c6 C4F21B33 		movt	r3, 17179
 127 00ca A3FB0213 		umull	r1, r3, r3, r2
 128 00ce 4FEA9342 		lsr	r2, r3, #18
 129 00d2 40F20003 		movw	r3, #:lower16:usTicks
 130 00d6 C0F20003 		movt	r3, #:upper16:usTicks
 131 00da 1A60     		str	r2, [r3, #0]
 132 00dc 4EF6F053 		movw	r3, #60912
 133 00e0 CEF20003 		movt	r3, 57344
 134 00e4 4EF6F052 		movw	r2, #60912
 135 00e8 CEF20002 		movt	r2, 57344
 136 00ec D268     		ldr	r2, [r2, #12]
 137 00ee 42F08072 		orr	r2, r2, #16777216
 138 00f2 DA60     		str	r2, [r3, #12]
 139 00f4 4FF48053 		mov	r3, #4096
 140 00f8 CEF20003 		movt	r3, 57344
 141 00fc 4FF48052 		mov	r2, #4096
 142 0100 CEF20002 		movt	r2, 57344
 143 0104 1268     		ldr	r2, [r2, #0]
 144 0106 42F00102 		orr	r2, r2, #1
 145 010a 1A60     		str	r2, [r3, #0]
 146 010c 05B0     		add	sp, sp, #20
 147 010e 00BD     		pop	{pc}
 149              		.global	frameCounter
 150              		.bss
 151              		.align	1
 154              	frameCounter:
 155 000c 0000     		.space	2
 156              		.global	frame_500Hz
 159              	frame_500Hz:
 160 000e 00       		.space	1
 161              		.global	frame_100Hz
 164              	frame_100Hz:
 165 000f 00       		.space	1
 166              		.global	frame_50Hz
 169              	frame_50Hz:
 170 0010 00       		.space	1
 171              		.global	frame_10Hz
 174              	frame_10Hz:
 175 0011 00       		.space	1
 176              		.global	frame_5Hz
 179              	frame_5Hz:
 180 0012 00       		.space	1
 181              		.global	frame_1Hz
 184              	frame_1Hz:
 185 0013 00       		.space	1
 186              		.comm	deltaTime1000Hz,4,4
 187              		.comm	executionTime1000Hz,4,4
 188              		.comm	previous1000HzTime,4,4
 189              		.comm	deltaTime500Hz,4,4
 190              		.comm	executionTime500Hz,4,4
 191              		.comm	previous500HzTime,4,4
 192              		.comm	deltaTime100Hz,4,4
 193              		.comm	executionTime100Hz,4,4
 194              		.comm	previous100HzTime,4,4
 195              		.comm	deltaTime50Hz,4,4
 196              		.comm	executionTime50Hz,4,4
 197              		.comm	previous50HzTime,4,4
 198              		.comm	deltaTime10Hz,4,4
 199              		.comm	executionTime10Hz,4,4
 200              		.comm	previous10HzTime,4,4
 201              		.comm	deltaTime5Hz,4,4
 202              		.comm	executionTime5Hz,4,4
 203              		.comm	previous5HzTime,4,4
 204              		.comm	deltaTime1Hz,4,4
 205              		.comm	executionTime1Hz,4,4
 206              		.comm	previous1HzTime,4,4
 207              		.comm	dt500Hz,4,4
 208              		.comm	dt100Hz,4,4
 209              		.global	systemReady
 212              	systemReady:
 213 0014 00       		.space	1
 214              		.global	execUp
 217              	execUp:
 218 0015 00       		.space	1
 219 0016 0000     		.text
 220              		.align	2
 221              		.global	SysTick_Handler
 222              		.thumb
 223              		.thumb_func
 225              	SysTick_Handler:
 226              		@ args = 0, pretend = 0, frame = 8
 227              		@ frame_needed = 0, uses_anonymous_args = 0
 228 0110 00B5     		push	{lr}
 229 0112 83B0     		sub	sp, sp, #12
 230 0114 41F20403 		movw	r3, #4100
 231 0118 CEF20003 		movt	r3, 57344
 232 011c 1A68     		ldr	r2, [r3, #0]
 233 011e 40F20003 		movw	r3, #:lower16:sysTickCycleCounter
 234 0122 C0F20003 		movt	r3, #:upper16:sysTickCycleCounter
 235 0126 1A60     		str	r2, [r3, #0]
 236 0128 40F20003 		movw	r3, #:lower16:sysTickUptime
 237 012c C0F20003 		movt	r3, #:upper16:sysTickUptime
 238 0130 1B68     		ldr	r3, [r3, #0]
 239 0132 03F10102 		add	r2, r3, #1
 240 0136 40F20003 		movw	r3, #:lower16:sysTickUptime
 241 013a C0F20003 		movt	r3, #:upper16:sysTickUptime
 242 013e 1A60     		str	r2, [r3, #0]
 243 0140 40F20003 		movw	r3, #:lower16:systemReady
 244 0144 C0F20003 		movt	r3, #:upper16:systemReady
 245 0148 1B78     		ldrb	r3, [r3, #0]	@ zero_extendqisi2
 246 014a 012B     		cmp	r3, #1
 247 014c 40F05C82 		bne	.L8
 248 0150 40F20003 		movw	r3, #:lower16:cliBusy
 249 0154 C0F20003 		movt	r3, #:upper16:cliBusy
 250 0158 1B78     		ldrb	r3, [r3, #0]	@ zero_extendqisi2
 251 015a 002B     		cmp	r3, #0
 252 015c 40F05482 		bne	.L8
 253 0160 40F20003 		movw	r3, #:lower16:escCalibrating
 254 0164 C0F20003 		movt	r3, #:upper16:escCalibrating
 255 0168 1B78     		ldrb	r3, [r3, #0]	@ zero_extendqisi2
 256 016a 002B     		cmp	r3, #0
 257 016c 40F04C82 		bne	.L8
 258 0170 40F20003 		movw	r3, #:lower16:magCalibrating
 259 0174 C0F20003 		movt	r3, #:upper16:magCalibrating
 260 0178 1B78     		ldrb	r3, [r3, #0]	@ zero_extendqisi2
 261 017a 002B     		cmp	r3, #0
 262 017c 40F04482 		bne	.L8
 263 0180 40F20003 		movw	r3, #:lower16:mpu6000Calibrating
 264 0184 C0F20003 		movt	r3, #:upper16:mpu6000Calibrating
 265 0188 1B78     		ldrb	r3, [r3, #0]	@ zero_extendqisi2
 266 018a 002B     		cmp	r3, #0
 267 018c 40F03C82 		bne	.L8
 268 0190 40F20003 		movw	r3, #:lower16:frameCounter
 269 0194 C0F20003 		movt	r3, #:upper16:frameCounter
 270 0198 1B88     		ldrh	r3, [r3, #0]
 271 019a 03F10103 		add	r3, r3, #1
 272 019e 9AB2     		uxth	r2, r3
 273 01a0 40F20003 		movw	r3, #:lower16:frameCounter
 274 01a4 C0F20003 		movt	r3, #:upper16:frameCounter
 275 01a8 1A80     		strh	r2, [r3, #0]	@ movhi
 276 01aa 40F20003 		movw	r3, #:lower16:frameCounter
 277 01ae C0F20003 		movt	r3, #:upper16:frameCounter
 278 01b2 1B88     		ldrh	r3, [r3, #0]
 279 01b4 B3F57A7F 		cmp	r3, #1000
 280 01b8 06D9     		bls	.L10
 281 01ba 40F20003 		movw	r3, #:lower16:frameCounter
 282 01be C0F20003 		movt	r3, #:upper16:frameCounter
 283 01c2 4FF00102 		mov	r2, #1
 284 01c6 1A80     		strh	r2, [r3, #0]	@ movhi
 285              	.L10:
 286 01c8 FFF7FEFF 		bl	micros
 287 01cc 0090     		str	r0, [sp, #0]
 288 01ce 40F20003 		movw	r3, #:lower16:previous1000HzTime
 289 01d2 C0F20003 		movt	r3, #:upper16:previous1000HzTime
 290 01d6 1B68     		ldr	r3, [r3, #0]
 291 01d8 009A     		ldr	r2, [sp, #0]
 292 01da D21A     		subs	r2, r2, r3
 293 01dc 40F20003 		movw	r3, #:lower16:deltaTime1000Hz
 294 01e0 C0F20003 		movt	r3, #:upper16:deltaTime1000Hz
 295 01e4 1A60     		str	r2, [r3, #0]
 296 01e6 40F20003 		movw	r3, #:lower16:previous1000HzTime
 297 01ea C0F20003 		movt	r3, #:upper16:previous1000HzTime
 298 01ee 009A     		ldr	r2, [sp, #0]
 299 01f0 1A60     		str	r2, [r3, #0]
 300 01f2 FFF7FEFF 		bl	readMPU6000
 301 01f6 40F20003 		movw	r3, #:lower16:accelSum500Hz
 302 01fa C0F20003 		movt	r3, #:upper16:accelSum500Hz
 303 01fe 1A68     		ldr	r2, [r3, #0]
 304 0200 40F20003 		movw	r3, #:lower16:rawAccel
 305 0204 C0F20003 		movt	r3, #:upper16:rawAccel
 306 0208 1B88     		ldrh	r3, [r3, #0]
 307 020a 1BB2     		sxth	r3, r3
 308 020c D218     		adds	r2, r2, r3
 309 020e 40F20003 		movw	r3, #:lower16:accelSum500Hz
 310 0212 C0F20003 		movt	r3, #:upper16:accelSum500Hz
 311 0216 1A60     		str	r2, [r3, #0]
 312 0218 40F20003 		movw	r3, #:lower16:accelSum500Hz
 313 021c C0F20003 		movt	r3, #:upper16:accelSum500Hz
 314 0220 5A68     		ldr	r2, [r3, #4]
 315 0222 40F20003 		movw	r3, #:lower16:rawAccel
 316 0226 C0F20003 		movt	r3, #:upper16:rawAccel
 317 022a 5B88     		ldrh	r3, [r3, #2]
 318 022c 1BB2     		sxth	r3, r3
 319 022e D218     		adds	r2, r2, r3
 320 0230 40F20003 		movw	r3, #:lower16:accelSum500Hz
 321 0234 C0F20003 		movt	r3, #:upper16:accelSum500Hz
 322 0238 5A60     		str	r2, [r3, #4]
 323 023a 40F20003 		movw	r3, #:lower16:accelSum500Hz
 324 023e C0F20003 		movt	r3, #:upper16:accelSum500Hz
 325 0242 9A68     		ldr	r2, [r3, #8]
 326 0244 40F20003 		movw	r3, #:lower16:rawAccel
 327 0248 C0F20003 		movt	r3, #:upper16:rawAccel
 328 024c 9B88     		ldrh	r3, [r3, #4]
 329 024e 1BB2     		sxth	r3, r3
 330 0250 D218     		adds	r2, r2, r3
 331 0252 40F20003 		movw	r3, #:lower16:accelSum500Hz
 332 0256 C0F20003 		movt	r3, #:upper16:accelSum500Hz
 333 025a 9A60     		str	r2, [r3, #8]
 334 025c 40F20003 		movw	r3, #:lower16:accelSum100Hz
 335 0260 C0F20003 		movt	r3, #:upper16:accelSum100Hz
 336 0264 1A68     		ldr	r2, [r3, #0]
 337 0266 40F20003 		movw	r3, #:lower16:rawAccel
 338 026a C0F20003 		movt	r3, #:upper16:rawAccel
 339 026e 1B88     		ldrh	r3, [r3, #0]
 340 0270 1BB2     		sxth	r3, r3
 341 0272 D218     		adds	r2, r2, r3
 342 0274 40F20003 		movw	r3, #:lower16:accelSum100Hz
 343 0278 C0F20003 		movt	r3, #:upper16:accelSum100Hz
 344 027c 1A60     		str	r2, [r3, #0]
 345 027e 40F20003 		movw	r3, #:lower16:accelSum100Hz
 346 0282 C0F20003 		movt	r3, #:upper16:accelSum100Hz
 347 0286 5A68     		ldr	r2, [r3, #4]
 348 0288 40F20003 		movw	r3, #:lower16:rawAccel
 349 028c C0F20003 		movt	r3, #:upper16:rawAccel
 350 0290 5B88     		ldrh	r3, [r3, #2]
 351 0292 1BB2     		sxth	r3, r3
 352 0294 D218     		adds	r2, r2, r3
 353 0296 40F20003 		movw	r3, #:lower16:accelSum100Hz
 354 029a C0F20003 		movt	r3, #:upper16:accelSum100Hz
 355 029e 5A60     		str	r2, [r3, #4]
 356 02a0 40F20003 		movw	r3, #:lower16:accelSum100Hz
 357 02a4 C0F20003 		movt	r3, #:upper16:accelSum100Hz
 358 02a8 9A68     		ldr	r2, [r3, #8]
 359 02aa 40F20003 		movw	r3, #:lower16:rawAccel
 360 02ae C0F20003 		movt	r3, #:upper16:rawAccel
 361 02b2 9B88     		ldrh	r3, [r3, #4]
 362 02b4 1BB2     		sxth	r3, r3
 363 02b6 D218     		adds	r2, r2, r3
 364 02b8 40F20003 		movw	r3, #:lower16:accelSum100Hz
 365 02bc C0F20003 		movt	r3, #:upper16:accelSum100Hz
 366 02c0 9A60     		str	r2, [r3, #8]
 367 02c2 40F20003 		movw	r3, #:lower16:gyroSum500Hz
 368 02c6 C0F20003 		movt	r3, #:upper16:gyroSum500Hz
 369 02ca 1A68     		ldr	r2, [r3, #0]
 370 02cc 40F20003 		movw	r3, #:lower16:rawGyro
 371 02d0 C0F20003 		movt	r3, #:upper16:rawGyro
 372 02d4 1B88     		ldrh	r3, [r3, #0]
 373 02d6 1BB2     		sxth	r3, r3
 374 02d8 D218     		adds	r2, r2, r3
 375 02da 40F20003 		movw	r3, #:lower16:gyroSum500Hz
 376 02de C0F20003 		movt	r3, #:upper16:gyroSum500Hz
 377 02e2 1A60     		str	r2, [r3, #0]
 378 02e4 40F20003 		movw	r3, #:lower16:gyroSum500Hz
 379 02e8 C0F20003 		movt	r3, #:upper16:gyroSum500Hz
 380 02ec 5A68     		ldr	r2, [r3, #4]
 381 02ee 40F20003 		movw	r3, #:lower16:rawGyro
 382 02f2 C0F20003 		movt	r3, #:upper16:rawGyro
 383 02f6 5B88     		ldrh	r3, [r3, #2]
 384 02f8 1BB2     		sxth	r3, r3
 385 02fa D218     		adds	r2, r2, r3
 386 02fc 40F20003 		movw	r3, #:lower16:gyroSum500Hz
 387 0300 C0F20003 		movt	r3, #:upper16:gyroSum500Hz
 388 0304 5A60     		str	r2, [r3, #4]
 389 0306 40F20003 		movw	r3, #:lower16:gyroSum500Hz
 390 030a C0F20003 		movt	r3, #:upper16:gyroSum500Hz
 391 030e 9A68     		ldr	r2, [r3, #8]
 392 0310 40F20003 		movw	r3, #:lower16:rawGyro
 393 0314 C0F20003 		movt	r3, #:upper16:rawGyro
 394 0318 9B88     		ldrh	r3, [r3, #4]
 395 031a 1BB2     		sxth	r3, r3
 396 031c D218     		adds	r2, r2, r3
 397 031e 40F20003 		movw	r3, #:lower16:gyroSum500Hz
 398 0322 C0F20003 		movt	r3, #:upper16:gyroSum500Hz
 399 0326 9A60     		str	r2, [r3, #8]
 400 0328 40F20003 		movw	r3, #:lower16:frameCounter
 401 032c C0F20003 		movt	r3, #:upper16:frameCounter
 402 0330 1B88     		ldrh	r3, [r3, #0]
 403 0332 03F00103 		and	r3, r3, #1
 404 0336 9BB2     		uxth	r3, r3
 405 0338 002B     		cmp	r3, #0
 406 033a 49D1     		bne	.L11
 407 033c 40F20003 		movw	r3, #:lower16:frame_500Hz
 408 0340 C0F20003 		movt	r3, #:upper16:frame_500Hz
 409 0344 4FF00102 		mov	r2, #1
 410 0348 1A70     		strb	r2, [r3, #0]
 411 034a 4FF00003 		mov	r3, #0
 412 034e 8DF80730 		strb	r3, [sp, #7]
 413 0352 39E0     		b	.L12
 414              	.L13:
 415 0354 9DF80720 		ldrb	r2, [sp, #7]	@ zero_extendqisi2
 416 0358 9DF80710 		ldrb	r1, [sp, #7]	@ zero_extendqisi2
 417 035c 40F20003 		movw	r3, #:lower16:accelSum500Hz
 418 0360 C0F20003 		movt	r3, #:upper16:accelSum500Hz
 419 0364 53F82110 		ldr	r1, [r3, r1, lsl #2]
 420 0368 40F20003 		movw	r3, #:lower16:accelSummedSamples500Hz
 421 036c C0F20003 		movt	r3, #:upper16:accelSummedSamples500Hz
 422 0370 43F82210 		str	r1, [r3, r2, lsl #2]
 423 0374 9DF80720 		ldrb	r2, [sp, #7]	@ zero_extendqisi2
 424 0378 40F20003 		movw	r3, #:lower16:accelSum500Hz
 425 037c C0F20003 		movt	r3, #:upper16:accelSum500Hz
 426 0380 4FF00001 		mov	r1, #0
 427 0384 43F82210 		str	r1, [r3, r2, lsl #2]
 428 0388 9DF80720 		ldrb	r2, [sp, #7]	@ zero_extendqisi2
 429 038c 9DF80710 		ldrb	r1, [sp, #7]	@ zero_extendqisi2
 430 0390 40F20003 		movw	r3, #:lower16:gyroSum500Hz
 431 0394 C0F20003 		movt	r3, #:upper16:gyroSum500Hz
 432 0398 53F82110 		ldr	r1, [r3, r1, lsl #2]
 433 039c 40F20003 		movw	r3, #:lower16:gyroSummedSamples500Hz
 434 03a0 C0F20003 		movt	r3, #:upper16:gyroSummedSamples500Hz
 435 03a4 43F82210 		str	r1, [r3, r2, lsl #2]
 436 03a8 9DF80720 		ldrb	r2, [sp, #7]	@ zero_extendqisi2
 437 03ac 40F20003 		movw	r3, #:lower16:gyroSum500Hz
 438 03b0 C0F20003 		movt	r3, #:upper16:gyroSum500Hz
 439 03b4 4FF00001 		mov	r1, #0
 440 03b8 43F82210 		str	r1, [r3, r2, lsl #2]
 441 03bc 9DF80730 		ldrb	r3, [sp, #7]
 442 03c0 03F10103 		add	r3, r3, #1
 443 03c4 8DF80730 		strb	r3, [sp, #7]
 444              	.L12:
 445 03c8 9DF80730 		ldrb	r3, [sp, #7]	@ zero_extendqisi2
 446 03cc 022B     		cmp	r3, #2
 447 03ce C1D9     		bls	.L13
 448              	.L11:
 449 03d0 40F20003 		movw	r3, #:lower16:frameCounter
 450 03d4 C0F20003 		movt	r3, #:upper16:frameCounter
 451 03d8 1A88     		ldrh	r2, [r3, #0]
 452 03da 4CF6CD43 		movw	r3, #52429
 453 03de CCF6CC43 		movt	r3, 52428
 454 03e2 A3FB0213 		umull	r1, r3, r3, r2
 455 03e6 4FEAD301 		lsr	r1, r3, #3
 456 03ea 0B46     		mov	r3, r1
 457 03ec 4FEA8303 		lsl	r3, r3, #2
 458 03f0 5B18     		adds	r3, r3, r1
 459 03f2 4FEA4303 		lsl	r3, r3, #1
 460 03f6 D31A     		subs	r3, r2, r3
 461 03f8 9BB2     		uxth	r3, r3
 462 03fa 002B     		cmp	r3, #0
 463 03fc 62D1     		bne	.L14
 464 03fe 40F20003 		movw	r3, #:lower16:frame_100Hz
 465 0402 C0F20003 		movt	r3, #:upper16:frame_100Hz
 466 0406 4FF00102 		mov	r2, #1
 467 040a 1A70     		strb	r2, [r3, #0]
 468 040c 4FF00003 		mov	r3, #0
 469 0410 8DF80730 		strb	r3, [sp, #7]
 470 0414 1FE0     		b	.L15
 471              	.L16:
 472 0416 9DF80720 		ldrb	r2, [sp, #7]	@ zero_extendqisi2
 473 041a 9DF80710 		ldrb	r1, [sp, #7]	@ zero_extendqisi2
 474 041e 40F20003 		movw	r3, #:lower16:accelSum100Hz
 475 0422 C0F20003 		movt	r3, #:upper16:accelSum100Hz
 476 0426 53F82110 		ldr	r1, [r3, r1, lsl #2]
 477 042a 40F20003 		movw	r3, #:lower16:accelSummedSamples100Hz
 478 042e C0F20003 		movt	r3, #:upper16:accelSummedSamples100Hz
 479 0432 43F82210 		str	r1, [r3, r2, lsl #2]
 480 0436 9DF80720 		ldrb	r2, [sp, #7]	@ zero_extendqisi2
 481 043a 40F20003 		movw	r3, #:lower16:accelSum100Hz
 482 043e C0F20003 		movt	r3, #:upper16:accelSum100Hz
 483 0442 4FF00001 		mov	r1, #0
 484 0446 43F82210 		str	r1, [r3, r2, lsl #2]
 485 044a 9DF80730 		ldrb	r3, [sp, #7]
 486 044e 03F10103 		add	r3, r3, #1
 487 0452 8DF80730 		strb	r3, [sp, #7]
 488              	.L15:
 489 0456 9DF80730 		ldrb	r3, [sp, #7]	@ zero_extendqisi2
 490 045a 022B     		cmp	r3, #2
 491 045c DBD9     		bls	.L16
 492 045e 40F20003 		movw	r3, #:lower16:frameCounter
 493 0462 C0F20003 		movt	r3, #:upper16:frameCounter
 494 0466 1B88     		ldrh	r3, [r3, #0]
 495 0468 0A2B     		cmp	r3, #10
 496 046a 06D1     		bne	.L17
 497 046c 4FF4A840 		mov	r0, #21504
 498 0470 C4F20000 		movt	r0, 16384
 499 0474 FFF7FEFF 		bl	readTemperatureRequestPressure
 500 0478 14E0     		b	.L18
 501              	.L17:
 502 047a 40F20003 		movw	r3, #:lower16:frameCounter
 503 047e C0F20003 		movt	r3, #:upper16:frameCounter
 504 0482 1B88     		ldrh	r3, [r3, #0]
 505 0484 B3F57A7F 		cmp	r3, #1000
 506 0488 06D1     		bne	.L19
 507 048a 4FF4A840 		mov	r0, #21504
 508 048e C4F20000 		movt	r0, 16384
 509 0492 FFF7FEFF 		bl	readPressureRequestTemperature
 510 0496 05E0     		b	.L18
 511              	.L19:
 512 0498 4FF4A840 		mov	r0, #21504
 513 049c C4F20000 		movt	r0, 16384
 514 04a0 FFF7FEFF 		bl	readPressureRequestPressure
 515              	.L18:
 516 04a4 40F20003 		movw	r3, #:lower16:d1
 517 04a8 C0F20003 		movt	r3, #:upper16:d1
 518 04ac 1A68     		ldr	r2, [r3, #0]
 519 04ae 40F20003 		movw	r3, #:lower16:d1Sum
 520 04b2 C0F20003 		movt	r3, #:upper16:d1Sum
 521 04b6 1B68     		ldr	r3, [r3, #0]
 522 04b8 D218     		adds	r2, r2, r3
 523 04ba 40F20003 		movw	r3, #:lower16:d1Sum
 524 04be C0F20003 		movt	r3, #:upper16:d1Sum
 525 04c2 1A60     		str	r2, [r3, #0]
 526              	.L14:
 527 04c4 40F20003 		movw	r3, #:lower16:frameCounter
 528 04c8 C0F20003 		movt	r3, #:upper16:frameCounter
 529 04cc 1A88     		ldrh	r2, [r3, #0]
 530 04ce 4CF6CD43 		movw	r3, #52429
 531 04d2 CCF6CC43 		movt	r3, 52428
 532 04d6 A3FB0213 		umull	r1, r3, r3, r2
 533 04da 4FEA1311 		lsr	r1, r3, #4
 534 04de 0B46     		mov	r3, r1
 535 04e0 4FEA8303 		lsl	r3, r3, #2
 536 04e4 5B18     		adds	r3, r3, r1
 537 04e6 4FEA8303 		lsl	r3, r3, #2
 538 04ea D31A     		subs	r3, r2, r3
 539 04ec 9BB2     		uxth	r3, r3
 540 04ee 002B     		cmp	r3, #0
 541 04f0 06D1     		bne	.L20
 542 04f2 40F20003 		movw	r3, #:lower16:frame_50Hz
 543 04f6 C0F20003 		movt	r3, #:upper16:frame_50Hz
 544 04fa 4FF00102 		mov	r2, #1
 545 04fe 1A70     		strb	r2, [r3, #0]
 546              	.L20:
 547 0500 40F20003 		movw	r3, #:lower16:frameCounter
 548 0504 C0F20003 		movt	r3, #:upper16:frameCounter
 549 0508 1B88     		ldrh	r3, [r3, #0]
 550 050a 03F10102 		add	r2, r3, #1
 551 050e 48F21F53 		movw	r3, #34079
 552 0512 C5F2EB13 		movt	r3, 20971
 553 0516 83FB0213 		smull	r1, r3, r3, r2
 554 051a 4FEA6311 		asr	r1, r3, #5
 555 051e 4FEAE273 		asr	r3, r2, #31
 556 0522 CB1A     		subs	r3, r1, r3
 557 0524 4FF06401 		mov	r1, #100
 558 0528 01FB03F3 		mul	r3, r1, r3
 559 052c D31A     		subs	r3, r2, r3
 560 052e 002B     		cmp	r3, #0
 561 0530 0CD1     		bne	.L21
 562 0532 4FF4A840 		mov	r0, #21504
 563 0536 C4F20000 		movt	r0, 16384
 564 053a FFF7FEFF 		bl	readMag
 565 053e 0346     		mov	r3, r0
 566 0540 1A46     		mov	r2, r3
 567 0542 40F20003 		movw	r3, #:lower16:newMagData
 568 0546 C0F20003 		movt	r3, #:upper16:newMagData
 569 054a 1A70     		strb	r2, [r3, #0]
 570              	.L21:
 571 054c 40F20003 		movw	r3, #:lower16:frameCounter
 572 0550 C0F20003 		movt	r3, #:upper16:frameCounter
 573 0554 1A88     		ldrh	r2, [r3, #0]
 574 0556 48F21F53 		movw	r3, #34079
 575 055a C5F2EB13 		movt	r3, 20971
 576 055e A3FB0213 		umull	r1, r3, r3, r2
 577 0562 4FEA5313 		lsr	r3, r3, #5
 578 0566 4FF06401 		mov	r1, #100
 579 056a 01FB03F3 		mul	r3, r1, r3
 580 056e D31A     		subs	r3, r2, r3
 581 0570 9BB2     		uxth	r3, r3
 582 0572 002B     		cmp	r3, #0
 583 0574 06D1     		bne	.L22
 584 0576 40F20003 		movw	r3, #:lower16:frame_10Hz
 585 057a C0F20003 		movt	r3, #:upper16:frame_10Hz
 586 057e 4FF00102 		mov	r2, #1
 587 0582 1A70     		strb	r2, [r3, #0]
 588              	.L22:
 589 0584 40F20003 		movw	r3, #:lower16:frameCounter
 590 0588 C0F20003 		movt	r3, #:upper16:frameCounter
 591 058c 1A88     		ldrh	r2, [r3, #0]
 592 058e 48F21F53 		movw	r3, #34079
 593 0592 C5F2EB13 		movt	r3, 20971
 594 0596 A3FB0213 		umull	r1, r3, r3, r2
 595 059a 4FEA9313 		lsr	r3, r3, #6
 596 059e 4FF0C801 		mov	r1, #200
 597 05a2 01FB03F3 		mul	r3, r1, r3
 598 05a6 D31A     		subs	r3, r2, r3
 599 05a8 9BB2     		uxth	r3, r3
 600 05aa 002B     		cmp	r3, #0
 601 05ac 06D1     		bne	.L23
 602 05ae 40F20003 		movw	r3, #:lower16:frame_5Hz
 603 05b2 C0F20003 		movt	r3, #:upper16:frame_5Hz
 604 05b6 4FF00102 		mov	r2, #1
 605 05ba 1A70     		strb	r2, [r3, #0]
 606              	.L23:
 607 05bc 40F20003 		movw	r3, #:lower16:frameCounter
 608 05c0 C0F20003 		movt	r3, #:upper16:frameCounter
 609 05c4 1A88     		ldrh	r2, [r3, #0]
 610 05c6 44F6D353 		movw	r3, #19923
 611 05ca C1F26203 		movt	r3, 4194
 612 05ce A3FB0213 		umull	r1, r3, r3, r2
 613 05d2 4FEA9313 		lsr	r3, r3, #6
 614 05d6 4FF47A71 		mov	r1, #1000
 615 05da 01FB03F3 		mul	r3, r1, r3
 616 05de D31A     		subs	r3, r2, r3
 617 05e0 9BB2     		uxth	r3, r3
 618 05e2 002B     		cmp	r3, #0
 619 05e4 06D1     		bne	.L24
 620 05e6 40F20003 		movw	r3, #:lower16:frame_1Hz
 621 05ea C0F20003 		movt	r3, #:upper16:frame_1Hz
 622 05ee 4FF00102 		mov	r2, #1
 623 05f2 1A70     		strb	r2, [r3, #0]
 624              	.L24:
 625 05f4 FFF7FEFF 		bl	micros
 626 05f8 0246     		mov	r2, r0
 627 05fa 009B     		ldr	r3, [sp, #0]
 628 05fc D21A     		subs	r2, r2, r3
 629 05fe 40F20003 		movw	r3, #:lower16:executionTime1000Hz
 630 0602 C0F20003 		movt	r3, #:upper16:executionTime1000Hz
 631 0606 1A60     		str	r2, [r3, #0]
 632              	.L8:
 633 0608 03B0     		add	sp, sp, #12
 634 060a 00BD     		pop	{pc}
 636              		.align	2
 637              		.global	micros
 638              		.thumb
 639              		.thumb_func
 641              	micros:
 642              		@ args = 0, pretend = 0, frame = 0
 643              		@ frame_needed = 0, uses_anonymous_args = 0
 644              		@ link register save eliminated.
 645 060c 70B4     		push	{r4, r5, r6}
 646              	@ 321 "C:\Users\John Ihlein\Desktop\STM32workspace\aq32Plus\Libraries\CMSIS\Include/core_cmFunc.h" 
 647 060e 72B6     		cpsid i
 648              	@ 0 "" 2
 649              		.thumb
 650 0610 41F20403 		movw	r3, #4100
 651 0614 CEF20003 		movt	r3, 57344
 652 0618 1D68     		ldr	r5, [r3, #0]
 653 061a 40F20003 		movw	r3, #:lower16:sysTickCycleCounter
 654 061e C0F20003 		movt	r3, #:upper16:sysTickCycleCounter
 655 0622 1C68     		ldr	r4, [r3, #0]
 656 0624 40F20003 		movw	r3, #:lower16:sysTickUptime
 657 0628 C0F20003 		movt	r3, #:upper16:sysTickUptime
 658 062c 1E68     		ldr	r6, [r3, #0]
 659              	@ 310 "C:\Users\John Ihlein\Desktop\STM32workspace\aq32Plus\Libraries\CMSIS\Include/core_cmFunc.h" 
 660 062e 62B6     		cpsie i
 661              	@ 0 "" 2
 662              		.thumb
 663 0630 4FF47A73 		mov	r3, #1000
 664 0634 03FB06F2 		mul	r2, r3, r6
 665 0638 291B     		subs	r1, r5, r4
 666 063a 40F20003 		movw	r3, #:lower16:usTicks
 667 063e C0F20003 		movt	r3, #:upper16:usTicks
 668 0642 1B68     		ldr	r3, [r3, #0]
 669 0644 B1FBF3F3 		udiv	r3, r1, r3
 670 0648 D318     		adds	r3, r2, r3
 671 064a 1846     		mov	r0, r3
 672 064c 70BC     		pop	{r4, r5, r6}
 673 064e 7047     		bx	lr
 675              		.align	2
 676              		.global	millis
 677              		.thumb
 678              		.thumb_func
 680              	millis:
 681              		@ args = 0, pretend = 0, frame = 0
 682              		@ frame_needed = 0, uses_anonymous_args = 0
 683              		@ link register save eliminated.
 684 0650 40F20003 		movw	r3, #:lower16:sysTickUptime
 685 0654 C0F20003 		movt	r3, #:upper16:sysTickUptime
 686 0658 1B68     		ldr	r3, [r3, #0]
 687 065a 1846     		mov	r0, r3
 688 065c 7047     		bx	lr
 690 065e 00BF     		.align	2
 691              		.global	systemInit
 692              		.thumb
 693              		.thumb_func
 695              	systemInit:
 696              		@ args = 0, pretend = 0, frame = 0
 697              		@ frame_needed = 0, uses_anonymous_args = 0
 698 0660 08B5     		push	{r3, lr}
 699 0662 FFF727FD 		bl	cycleCounterInit
 700 0666 40F20003 		movw	r3, #:lower16:SystemCoreClock
 701 066a C0F20003 		movt	r3, #:upper16:SystemCoreClock
 702 066e 1A68     		ldr	r2, [r3, #0]
 703 0670 44F6D353 		movw	r3, #19923
 704 0674 C1F26203 		movt	r3, 4194
 705 0678 A3FB0213 		umull	r1, r3, r3, r2
 706 067c 4FEA9313 		lsr	r3, r3, #6
 707 0680 1846     		mov	r0, r3
 708 0682 FFF7E9FC 		bl	SysTick_Config
 709 0686 4FF00000 		mov	r0, #0
 710 068a FFF7FEFF 		bl	checkFirstTime
 711 068e FFF7FEFF 		bl	readEEPROM
 712 0692 40F20003 		movw	r3, #:lower16:eepromConfig
 713 0696 C0F20003 		movt	r3, #:upper16:eepromConfig
 714 069a 93F87030 		ldrb	r3, [r3, #112]	@ zero_extendqisi2
 715 069e 032B     		cmp	r3, #3
 716 06a0 01D1     		bne	.L28
 717 06a2 FFF7FEFF 		bl	checkSpektrumBind
 718              	.L28:
 719 06a6 4FF4A060 		mov	r0, #1280
 720 06aa FFF7FEFF 		bl	NVIC_PriorityGroupConfig
 721 06ae FFF7FEFF 		bl	initMixer
 722 06b2 FFF7FEFF 		bl	ledInit
 723 06b6 FFF7FEFF 		bl	usbInit
 724 06ba 4FF48050 		mov	r0, #4096
 725 06be C4F20200 		movt	r0, 16386
 726 06c2 4FF02001 		mov	r1, #32
 727 06c6 FFF7FEFF 		bl	GPIO_SetBits
 728 06ca 4FF4A840 		mov	r0, #21504
 729 06ce C4F20000 		movt	r0, 16384
 730 06d2 FFF7FEFF 		bl	i2cInit
 731 06d6 4FF4B040 		mov	r0, #22528
 732 06da C4F20000 		movt	r0, 16384
 733 06de FFF7FEFF 		bl	i2cInit
 734 06e2 40F20003 		movw	r3, #:lower16:eepromConfig
 735 06e6 C0F20003 		movt	r3, #:upper16:eepromConfig
 736 06ea B3F87C30 		ldrh	r3, [r3, #124]
 737 06ee 1846     		mov	r0, r3
 738 06f0 FFF7FEFF 		bl	pwmEscInit
 739 06f4 40F20003 		movw	r3, #:lower16:eepromConfig
 740 06f8 C0F20003 		movt	r3, #:upper16:eepromConfig
 741 06fc B3F87E30 		ldrh	r3, [r3, #126]
 742 0700 1846     		mov	r0, r3
 743 0702 FFF7FEFF 		bl	pwmServoInit
 744 0706 FFF7FEFF 		bl	rxInit
 745 070a 40F20003 		movw	r3, #:lower16:eepromConfig
 746 070e C0F20003 		movt	r3, #:upper16:eepromConfig
 747 0712 93F84833 		ldrb	r3, [r3, #840]	@ zero_extendqisi2
 748 0716 002B     		cmp	r3, #0
 749 0718 05D0     		beq	.L29
 750 071a 4FF46050 		mov	r0, #14336
 751 071e C4F20000 		movt	r0, 16384
 752 0722 FFF7FEFF 		bl	spiInit
 753              	.L29:
 754 0726 4FF47050 		mov	r0, #15360
 755 072a C4F20000 		movt	r0, 16384
 756 072e FFF7FEFF 		bl	spiInit
 757 0732 FFF7FEFF 		bl	timingFunctionsInit
 758 0736 FFF7FEFF 		bl	uart2Init
 759 073a FFF7FEFF 		bl	uart3Init
 760 073e 43F69820 		movw	r0, #15000
 761 0742 FFF7FEFF 		bl	delay
 762 0746 4FF48050 		mov	r0, #4096
 763 074a C4F20200 		movt	r0, 16386
 764 074e 4FF04001 		mov	r1, #64
 765 0752 FFF7FEFF 		bl	GPIO_SetBits
 766 0756 FFF7FEFF 		bl	initMPU6000
 767 075a 4FF4A840 		mov	r0, #21504
 768 075e C4F20000 		movt	r0, 16384
 769 0762 FFF7FEFF 		bl	initMag
 770 0766 4FF4A840 		mov	r0, #21504
 771 076a C4F20000 		movt	r0, 16384
 772 076e FFF7FEFF 		bl	initPressure
 773 0772 FFF7FEFF 		bl	initGPS
 774 0776 40F20003 		movw	r3, #:lower16:eepromConfig
 775 077a C0F20003 		movt	r3, #:upper16:eepromConfig
 776 077e 93F84833 		ldrb	r3, [r3, #840]	@ zero_extendqisi2
 777 0782 002B     		cmp	r3, #0
 778 0784 01D0     		beq	.L30
 779 0786 FFF7FEFF 		bl	initMax7456
 780              	.L30:
 781 078a FFF7FEFF 		bl	initPID
 782 078e 08BD     		pop	{r3, pc}
 784              		.align	2
 785              		.global	delayMicroseconds
 786              		.thumb
 787              		.thumb_func
 789              	delayMicroseconds:
 790              		@ args = 0, pretend = 0, frame = 24
 791              		@ frame_needed = 0, uses_anonymous_args = 0
 792              		@ link register save eliminated.
 793 0790 10B4     		push	{r4}
 794 0792 87B0     		sub	sp, sp, #28
 795 0794 0190     		str	r0, [sp, #4]
 796 0796 4FF00003 		mov	r3, #0
 797 079a 0593     		str	r3, [sp, #20]
 798 079c 41F20403 		movw	r3, #4100
 799 07a0 CEF20003 		movt	r3, 57344
 800 07a4 1B68     		ldr	r3, [r3, #0]
 801 07a6 0493     		str	r3, [sp, #16]
 802              	.L34:
 803 07a8 41F20403 		movw	r3, #4100
 804 07ac CEF20003 		movt	r3, 57344
 805 07b0 1C68     		ldr	r4, [r3, #0]
 806 07b2 049B     		ldr	r3, [sp, #16]
 807 07b4 E31A     		subs	r3, r4, r3
 808 07b6 059A     		ldr	r2, [sp, #20]
 809 07b8 D318     		adds	r3, r2, r3
 810 07ba 0593     		str	r3, [sp, #20]
 811 07bc 0494     		str	r4, [sp, #16]
 812 07be 40F20003 		movw	r3, #:lower16:usTicks
 813 07c2 C0F20003 		movt	r3, #:upper16:usTicks
 814 07c6 1B68     		ldr	r3, [r3, #0]
 815 07c8 059A     		ldr	r2, [sp, #20]
 816 07ca B2FBF3F3 		udiv	r3, r2, r3
 817 07ce 0393     		str	r3, [sp, #12]
 818 07d0 039A     		ldr	r2, [sp, #12]
 819 07d2 019B     		ldr	r3, [sp, #4]
 820 07d4 9A42     		cmp	r2, r3
 821 07d6 10D2     		bcs	.L36
 822              	.L32:
 823 07d8 019A     		ldr	r2, [sp, #4]
 824 07da 039B     		ldr	r3, [sp, #12]
 825 07dc D31A     		subs	r3, r2, r3
 826 07de 0193     		str	r3, [sp, #4]
 827 07e0 40F20003 		movw	r3, #:lower16:usTicks
 828 07e4 C0F20003 		movt	r3, #:upper16:usTicks
 829 07e8 1A68     		ldr	r2, [r3, #0]
 830 07ea 059B     		ldr	r3, [sp, #20]
 831 07ec B3FBF2F1 		udiv	r1, r3, r2
 832 07f0 02FB01F2 		mul	r2, r2, r1
 833 07f4 9B1A     		subs	r3, r3, r2
 834 07f6 0593     		str	r3, [sp, #20]
 835 07f8 D6E7     		b	.L34
 836              	.L36:
 837 07fa 00BF     		nop
 838              	.L35:
 839 07fc 07B0     		add	sp, sp, #28
 840 07fe 10BC     		pop	{r4}
 841 0800 7047     		bx	lr
 843 0802 00BF     		.align	2
 844              		.global	delay
 845              		.thumb
 846              		.thumb_func
 848              	delay:
 849              		@ args = 0, pretend = 0, frame = 8
 850              		@ frame_needed = 0, uses_anonymous_args = 0
 851 0804 00B5     		push	{lr}
 852 0806 83B0     		sub	sp, sp, #12
 853 0808 0190     		str	r0, [sp, #4]
 854 080a 03E0     		b	.L38
 855              	.L39:
 856 080c 4FF47A70 		mov	r0, #1000
 857 0810 FFF7FEFF 		bl	delayMicroseconds
 858              	.L38:
 859 0814 019B     		ldr	r3, [sp, #4]
 860 0816 002B     		cmp	r3, #0
 861 0818 0CBF     		ite	eq
 862 081a 0023     		moveq	r3, #0
 863 081c 0123     		movne	r3, #1
 864 081e DBB2     		uxtb	r3, r3
 865 0820 019A     		ldr	r2, [sp, #4]
 866 0822 02F1FF32 		add	r2, r2, #-1
 867 0826 0192     		str	r2, [sp, #4]
 868 0828 002B     		cmp	r3, #0
 869 082a EFD1     		bne	.L39
 870 082c 03B0     		add	sp, sp, #12
 871 082e 00BD     		pop	{pc}
 873              		.align	2
 874              		.global	systemReset
 875              		.thumb
 876              		.thumb_func
 878              	systemReset:
 879              		@ args = 0, pretend = 0, frame = 8
 880              		@ frame_needed = 0, uses_anonymous_args = 0
 881 0830 00B5     		push	{lr}
 882 0832 83B0     		sub	sp, sp, #12
 883 0834 0346     		mov	r3, r0
 884 0836 8DF80730 		strb	r3, [sp, #7]
 885 083a 9DF80730 		ldrb	r3, [sp, #7]	@ zero_extendqisi2
 886 083e 002B     		cmp	r3, #0
 887 0840 08D0     		beq	.L41
 888 0842 4FF6FC73 		movw	r3, #65532
 889 0846 C2F20103 		movt	r3, 8193
 890 084a 4BF6EF62 		movw	r2, #48879
 891 084e CDF6AD62 		movt	r2, 57005
 892 0852 1A60     		str	r2, [r3, #0]
 893              	.L41:
 894 0854 4FF44060 		mov	r0, #3072
 895 0858 C4F20200 		movt	r0, 16386
 896 085c 4FF40061 		mov	r1, #2048
 897 0860 FFF7FEFF 		bl	GPIO_ResetBits
 898 0864 4FF0C800 		mov	r0, #200
 899 0868 FFF7FEFF 		bl	delay
 900 086c 4FF44060 		mov	r0, #3072
 901 0870 C4F20200 		movt	r0, 16386
 902 0874 4FF40061 		mov	r1, #2048
 903 0878 FFF7FEFF 		bl	GPIO_SetBits
 904 087c 4FF46D43 		mov	r3, #60672
 905 0880 CEF20003 		movt	r3, 57344
 906 0884 4FF00402 		mov	r2, #4
 907 0888 C0F2FA52 		movt	r2, 1530
 908 088c DA60     		str	r2, [r3, #12]
 909 088e 03B0     		add	sp, sp, #12
 910 0890 00BD     		pop	{pc}
 912 0892 00BF     		.ident	"GCC: (Sourcery CodeBench Lite 2012.03-56) 4.6.3"