   1              		.syntax unified
   2              		.cpu cortex-m4
   3              		.eabi_attribute 27, 3
   4              		.fpu fpv4-sp-d16
   5              		.eabi_attribute 20, 1
   6              		.eabi_attribute 21, 1
   7              		.eabi_attribute 23, 3
   8              		.eabi_attribute 24, 1
   9              		.eabi_attribute 25, 1
  10              		.eabi_attribute 26, 1
  11              		.eabi_attribute 30, 6
  12              		.eabi_attribute 34, 1
  13              		.eabi_attribute 18, 4
  14              		.thumb
  15              		.file	"mpu6000Calibration.c"
  16              		.section	.rodata
  17              		.align	2
  18              	.LC0:
  19 0000 0A4D5055 		.ascii	"\012MPU6000 Calibration:\012\000"
  19      36303030 
  19      2043616C 
  19      69627261 
  19      74696F6E 
  20 0017 00       		.align	2
  21              	.LC1:
  22 0018 0A426567 		.ascii	"\012Begin 1st MPU6000 Measurements...\012\000"
  22      696E2031 
  22      7374204D 
  22      50553630 
  22      3030204D 
  23              		.align	2
  24              	.LC2:
  25 003c 0A4D5055 		.ascii	"\012MPU6000 Temperature Reading: \000"
  25      36303030 
  25      2054656D 
  25      70657261 
  25      74757265 
  26 005b 00       		.align	2
  27              	.LC3:
  28 005c 0A0A456E 		.ascii	"\012\012End 1st MPU6000 Measurements\012\000"
  28      64203173 
  28      74204D50 
  28      55363030 
  28      30204D65 
  29              		.align	2
  30              	.LC4:
  31 007c 0A576169 		.ascii	"\012Waiting for 10 minutes for MPU6000 temp to rise"
  31      74696E67 
  31      20666F72 
  31      20313020 
  31      6D696E75 
  32 00ac 2E2E2E0A 		.ascii	"...\012\000"
  32      00
  33 00b1 000000   		.align	2
  34              	.LC5:
  35 00b4 0A426567 		.ascii	"\012Begin 2nd MPU6000 Measurements...\012\000"
  35      696E2032 
  35      6E64204D 
  35      50553630 
  35      3030204D 
  36              		.align	2
  37              	.LC6:
  38 00d8 0A0A456E 		.ascii	"\012\012End 2st MPU6000 Measurements\012\000"
  38      64203273 
  38      74204D50 
  38      55363030 
  38      30204D65 
  39              		.align	2
  40              	.LC7:
  41 00f8 0A4D5055 		.ascii	"\012MPU6000 Calibration Complete.\012\012\000"
  41      36303030 
  41      2043616C 
  41      69627261 
  41      74696F6E 
  42 0119 000000   		.text
  43              		.align	2
  44              		.global	mpu6000Calibration
  45              		.thumb
  46              		.thumb_func
  48              	mpu6000Calibration:
  49              		@ args = 0, pretend = 0, frame = 64
  50              		@ frame_needed = 0, uses_anonymous_args = 0
  51 0000 00B5     		push	{lr}
  52 0002 91B0     		sub	sp, sp, #68
  53 0004 4FF47A73 		mov	r3, #1000
  54 0008 ADF83430 		strh	r3, [sp, #52]	@ movhi
  55 000c 4FF4FA63 		mov	r3, #2000
  56 0010 ADF83230 		strh	r3, [sp, #50]	@ movhi
  57 0014 A94B     		ldr	r3, .L6	@ float
  58 0016 0993     		str	r3, [sp, #36]	@ float
  59 0018 A84B     		ldr	r3, .L6	@ float
  60 001a 0A93     		str	r3, [sp, #40]	@ float
  61 001c A74B     		ldr	r3, .L6	@ float
  62 001e 0B93     		str	r3, [sp, #44]	@ float
  63 0020 A64B     		ldr	r3, .L6	@ float
  64 0022 0693     		str	r3, [sp, #24]	@ float
  65 0024 A54B     		ldr	r3, .L6	@ float
  66 0026 0793     		str	r3, [sp, #28]	@ float
  67 0028 A44B     		ldr	r3, .L6	@ float
  68 002a 0893     		str	r3, [sp, #32]	@ float
  69 002c A34B     		ldr	r3, .L6	@ float
  70 002e 0F93     		str	r3, [sp, #60]	@ float
  71 0030 A24B     		ldr	r3, .L6	@ float
  72 0032 0393     		str	r3, [sp, #12]	@ float
  73 0034 A14B     		ldr	r3, .L6	@ float
  74 0036 0493     		str	r3, [sp, #16]	@ float
  75 0038 A04B     		ldr	r3, .L6	@ float
  76 003a 0593     		str	r3, [sp, #20]	@ float
  77 003c 9F4B     		ldr	r3, .L6	@ float
  78 003e 0093     		str	r3, [sp, #0]	@ float
  79 0040 9E4B     		ldr	r3, .L6	@ float
  80 0042 0193     		str	r3, [sp, #4]	@ float
  81 0044 9D4B     		ldr	r3, .L6	@ float
  82 0046 0293     		str	r3, [sp, #8]	@ float
  83 0048 9C4B     		ldr	r3, .L6	@ float
  84 004a 0E93     		str	r3, [sp, #56]	@ float
  85 004c 40F20003 		movw	r3, #:lower16:mpu6000Calibrating
  86 0050 C0F20003 		movt	r3, #:upper16:mpu6000Calibrating
  87 0054 4FF00102 		mov	r2, #1
  88 0058 1A70     		strb	r2, [r3, #0]
  89 005a 40F20000 		movw	r0, #:lower16:.LC0
  90 005e C0F20000 		movt	r0, #:upper16:.LC0
  91 0062 FFF7FEFF 		bl	usbPrint
  92 0066 40F20000 		movw	r0, #:lower16:.LC1
  93 006a C0F20000 		movt	r0, #:upper16:.LC1
  94 006e FFF7FEFF 		bl	usbPrint
  95 0072 4FF00003 		mov	r3, #0
  96 0076 ADF83630 		strh	r3, [sp, #54]	@ movhi
  97 007a 93E0     		b	.L2
  98              	.L3:
  99 007c FFF7FEFF 		bl	readMPU6000
 100 0080 40F20003 		movw	r3, #:lower16:rawAccel
 101 0084 C0F20003 		movt	r3, #:upper16:rawAccel
 102 0088 9B88     		ldrh	r3, [r3, #4]
 103 008a 9BB2     		uxth	r3, r3
 104 008c A3F50053 		sub	r3, r3, #8192
 105 0090 9BB2     		uxth	r3, r3
 106 0092 9AB2     		uxth	r2, r3
 107 0094 40F20003 		movw	r3, #:lower16:rawAccel
 108 0098 C0F20003 		movt	r3, #:upper16:rawAccel
 109 009c 9A80     		strh	r2, [r3, #4]	@ movhi
 110 009e 9DED097A 		flds	s14, [sp, #36]
 111 00a2 40F20003 		movw	r3, #:lower16:rawAccel
 112 00a6 C0F20003 		movt	r3, #:upper16:rawAccel
 113 00aa 1B88     		ldrh	r3, [r3, #0]
 114 00ac 1BB2     		sxth	r3, r3
 115 00ae 06EE903A 		fmsr	s13, r3	@ int
 116 00b2 F8EEE67A 		fsitos	s15, s13
 117 00b6 77EE277A 		fadds	s15, s14, s15
 118 00ba CDED097A 		fsts	s15, [sp, #36]
 119 00be 9DED0A7A 		flds	s14, [sp, #40]
 120 00c2 40F20003 		movw	r3, #:lower16:rawAccel
 121 00c6 C0F20003 		movt	r3, #:upper16:rawAccel
 122 00ca 5B88     		ldrh	r3, [r3, #2]
 123 00cc 1BB2     		sxth	r3, r3
 124 00ce 06EE903A 		fmsr	s13, r3	@ int
 125 00d2 F8EEE67A 		fsitos	s15, s13
 126 00d6 77EE277A 		fadds	s15, s14, s15
 127 00da CDED0A7A 		fsts	s15, [sp, #40]
 128 00de 9DED0B7A 		flds	s14, [sp, #44]
 129 00e2 40F20003 		movw	r3, #:lower16:rawAccel
 130 00e6 C0F20003 		movt	r3, #:upper16:rawAccel
 131 00ea 9B88     		ldrh	r3, [r3, #4]
 132 00ec 1BB2     		sxth	r3, r3
 133 00ee 06EE903A 		fmsr	s13, r3	@ int
 134 00f2 F8EEE67A 		fsitos	s15, s13
 135 00f6 77EE277A 		fadds	s15, s14, s15
 136 00fa CDED0B7A 		fsts	s15, [sp, #44]
 137 00fe 9DED067A 		flds	s14, [sp, #24]
 138 0102 40F20003 		movw	r3, #:lower16:rawGyro
 139 0106 C0F20003 		movt	r3, #:upper16:rawGyro
 140 010a 1B88     		ldrh	r3, [r3, #0]
 141 010c 1BB2     		sxth	r3, r3
 142 010e 06EE903A 		fmsr	s13, r3	@ int
 143 0112 F8EEE67A 		fsitos	s15, s13
 144 0116 77EE277A 		fadds	s15, s14, s15
 145 011a CDED067A 		fsts	s15, [sp, #24]
 146 011e 9DED077A 		flds	s14, [sp, #28]
 147 0122 40F20003 		movw	r3, #:lower16:rawGyro
 148 0126 C0F20003 		movt	r3, #:upper16:rawGyro
 149 012a 5B88     		ldrh	r3, [r3, #2]
 150 012c 1BB2     		sxth	r3, r3
 151 012e 06EE903A 		fmsr	s13, r3	@ int
 152 0132 F8EEE67A 		fsitos	s15, s13
 153 0136 77EE277A 		fadds	s15, s14, s15
 154 013a CDED077A 		fsts	s15, [sp, #28]
 155 013e 9DED087A 		flds	s14, [sp, #32]
 156 0142 40F20003 		movw	r3, #:lower16:rawGyro
 157 0146 C0F20003 		movt	r3, #:upper16:rawGyro
 158 014a 9B88     		ldrh	r3, [r3, #4]
 159 014c 1BB2     		sxth	r3, r3
 160 014e 06EE903A 		fmsr	s13, r3	@ int
 161 0152 F8EEE67A 		fsitos	s15, s13
 162 0156 77EE277A 		fadds	s15, s14, s15
 163 015a CDED087A 		fsts	s15, [sp, #32]
 164 015e 40F20003 		movw	r3, #:lower16:rawMPU6000Temperature
 165 0162 C0F20003 		movt	r3, #:upper16:rawMPU6000Temperature
 166 0166 1B88     		ldrh	r3, [r3, #0]
 167 0168 1BB2     		sxth	r3, r3
 168 016a 07EE903A 		fmsr	s15, r3	@ int
 169 016e B8EEE77A 		fsitos	s14, s15
 170 0172 DFED537A 		flds	s15, .L6+4
 171 0176 C7EE277A 		fdivs	s15, s14, s15
 172 017a 9FED527A 		flds	s14, .L6+8
 173 017e 77EE877A 		fadds	s15, s15, s14
 174 0182 9DED0F7A 		flds	s14, [sp, #60]
 175 0186 77EE277A 		fadds	s15, s14, s15
 176 018a CDED0F7A 		fsts	s15, [sp, #60]
 177 018e BDF83430 		ldrh	r3, [sp, #52]
 178 0192 1846     		mov	r0, r3
 179 0194 FFF7FEFF 		bl	delayMicroseconds
 180 0198 BDF83630 		ldrh	r3, [sp, #54]	@ movhi
 181 019c 03F10103 		add	r3, r3, #1
 182 01a0 ADF83630 		strh	r3, [sp, #54]	@ movhi
 183              	.L2:
 184 01a4 BDF83620 		ldrh	r2, [sp, #54]
 185 01a8 BDF83230 		ldrh	r3, [sp, #50]
 186 01ac 9A42     		cmp	r2, r3
 187 01ae FFF465AF 		bcc	.L3
 188 01b2 9DED097A 		flds	s14, [sp, #36]
 189 01b6 BDF83230 		ldrh	r3, [sp, #50]
 190 01ba 06EE903A 		fmsr	s13, r3	@ int
 191 01be F8EE667A 		fuitos	s15, s13
 192 01c2 C7EE277A 		fdivs	s15, s14, s15
 193 01c6 CDED097A 		fsts	s15, [sp, #36]
 194 01ca 9DED0A7A 		flds	s14, [sp, #40]
 195 01ce BDF83230 		ldrh	r3, [sp, #50]
 196 01d2 06EE903A 		fmsr	s13, r3	@ int
 197 01d6 F8EE667A 		fuitos	s15, s13
 198 01da C7EE277A 		fdivs	s15, s14, s15
 199 01de CDED0A7A 		fsts	s15, [sp, #40]
 200 01e2 9DED0B7A 		flds	s14, [sp, #44]
 201 01e6 BDF83230 		ldrh	r3, [sp, #50]
 202 01ea 06EE903A 		fmsr	s13, r3	@ int
 203 01ee F8EE667A 		fuitos	s15, s13
 204 01f2 C7EE277A 		fdivs	s15, s14, s15
 205 01f6 CDED0B7A 		fsts	s15, [sp, #44]
 206 01fa 9DED067A 		flds	s14, [sp, #24]
 207 01fe BDF83230 		ldrh	r3, [sp, #50]
 208 0202 06EE903A 		fmsr	s13, r3	@ int
 209 0206 F8EE667A 		fuitos	s15, s13
 210 020a C7EE277A 		fdivs	s15, s14, s15
 211 020e CDED067A 		fsts	s15, [sp, #24]
 212 0212 9DED077A 		flds	s14, [sp, #28]
 213 0216 BDF83230 		ldrh	r3, [sp, #50]
 214 021a 06EE903A 		fmsr	s13, r3	@ int
 215 021e F8EE667A 		fuitos	s15, s13
 216 0222 C7EE277A 		fdivs	s15, s14, s15
 217 0226 CDED077A 		fsts	s15, [sp, #28]
 218 022a 9DED087A 		flds	s14, [sp, #32]
 219 022e BDF83230 		ldrh	r3, [sp, #50]
 220 0232 06EE903A 		fmsr	s13, r3	@ int
 221 0236 F8EE667A 		fuitos	s15, s13
 222 023a C7EE277A 		fdivs	s15, s14, s15
 223 023e CDED087A 		fsts	s15, [sp, #32]
 224 0242 BDF83230 		ldrh	r3, [sp, #50]
 225 0246 07EE103A 		fmsr	s14, r3	@ int
 226 024a F8EE477A 		fuitos	s15, s14
 227 024e 9DED0F7A 		flds	s14, [sp, #60]
 228 0252 C7EE277A 		fdivs	s15, s14, s15
 229 0256 CDED0F7A 		fsts	s15, [sp, #60]
 230 025a 40F20000 		movw	r0, #:lower16:.LC2
 231 025e C0F20000 		movt	r0, #:upper16:.LC2
 232 0262 FFF7FEFF 		bl	usbPrint
 233 0266 0F98     		ldr	r0, [sp, #60]	@ float
 234 0268 40F20001 		movw	r1, #:lower16:numberString
 235 026c C0F20001 		movt	r1, #:upper16:numberString
 236 0270 FFF7FEFF 		bl	ftoa
 237 0274 40F20000 		movw	r0, #:lower16:numberString
 238 0278 C0F20000 		movt	r0, #:upper16:numberString
 239 027c FFF7FEFF 		bl	usbPrint
 240 0280 40F20000 		movw	r0, #:lower16:.LC3
 241 0284 C0F20000 		movt	r0, #:upper16:.LC3
 242 0288 FFF7FEFF 		bl	usbPrint
 243 028c 40F20000 		movw	r0, #:lower16:.LC4
 244 0290 C0F20000 		movt	r0, #:upper16:.LC4
 245 0294 FFF7FEFF 		bl	usbPrint
 246 0298 4FF41F50 		mov	r0, #10176
 247 029c C0F20900 		movt	r0, 9
 248 02a0 FFF7FEFF 		bl	delay
 249 02a4 40F20000 		movw	r0, #:lower16:.LC5
 250 02a8 C0F20000 		movt	r0, #:upper16:.LC5
 251 02ac FFF7FEFF 		bl	usbPrint
 252 02b0 4FF00003 		mov	r3, #0
 253 02b4 ADF83630 		strh	r3, [sp, #54]	@ movhi
 254 02b8 9AE0     		b	.L4
 255              	.L7:
 256 02ba 00BF     		.align	2
 257              	.L6:
 258 02bc 00000000 		.word	0
 259 02c0 0000AA43 		.word	1135214592
 260 02c4 00000C42 		.word	1108082688
 261              	.L5:
 262 02c8 FFF7FEFF 		bl	readMPU6000
 263 02cc 40F20003 		movw	r3, #:lower16:rawAccel
 264 02d0 C0F20003 		movt	r3, #:upper16:rawAccel
 265 02d4 9B88     		ldrh	r3, [r3, #4]
 266 02d6 9BB2     		uxth	r3, r3
 267 02d8 A3F50053 		sub	r3, r3, #8192
 268 02dc 9BB2     		uxth	r3, r3
 269 02de 9AB2     		uxth	r2, r3
 270 02e0 40F20003 		movw	r3, #:lower16:rawAccel
 271 02e4 C0F20003 		movt	r3, #:upper16:rawAccel
 272 02e8 9A80     		strh	r2, [r3, #4]	@ movhi
 273 02ea 9DED037A 		flds	s14, [sp, #12]
 274 02ee 40F20003 		movw	r3, #:lower16:rawAccel
 275 02f2 C0F20003 		movt	r3, #:upper16:rawAccel
 276 02f6 1B88     		ldrh	r3, [r3, #0]
 277 02f8 1BB2     		sxth	r3, r3
 278 02fa 06EE903A 		fmsr	s13, r3	@ int
 279 02fe F8EEE67A 		fsitos	s15, s13
 280 0302 77EE277A 		fadds	s15, s14, s15
 281 0306 CDED037A 		fsts	s15, [sp, #12]
 282 030a 9DED047A 		flds	s14, [sp, #16]
 283 030e 40F20003 		movw	r3, #:lower16:rawAccel
 284 0312 C0F20003 		movt	r3, #:upper16:rawAccel
 285 0316 5B88     		ldrh	r3, [r3, #2]
 286 0318 1BB2     		sxth	r3, r3
 287 031a 06EE903A 		fmsr	s13, r3	@ int
 288 031e F8EEE67A 		fsitos	s15, s13
 289 0322 77EE277A 		fadds	s15, s14, s15
 290 0326 CDED047A 		fsts	s15, [sp, #16]
 291 032a 9DED057A 		flds	s14, [sp, #20]
 292 032e 40F20003 		movw	r3, #:lower16:rawAccel
 293 0332 C0F20003 		movt	r3, #:upper16:rawAccel
 294 0336 9B88     		ldrh	r3, [r3, #4]
 295 0338 1BB2     		sxth	r3, r3
 296 033a 06EE903A 		fmsr	s13, r3	@ int
 297 033e F8EEE67A 		fsitos	s15, s13
 298 0342 77EE277A 		fadds	s15, s14, s15
 299 0346 CDED057A 		fsts	s15, [sp, #20]
 300 034a 9DED007A 		flds	s14, [sp, #0]
 301 034e 40F20003 		movw	r3, #:lower16:rawGyro
 302 0352 C0F20003 		movt	r3, #:upper16:rawGyro
 303 0356 1B88     		ldrh	r3, [r3, #0]
 304 0358 1BB2     		sxth	r3, r3
 305 035a 06EE903A 		fmsr	s13, r3	@ int
 306 035e F8EEE67A 		fsitos	s15, s13
 307 0362 77EE277A 		fadds	s15, s14, s15
 308 0366 CDED007A 		fsts	s15, [sp, #0]
 309 036a 9DED017A 		flds	s14, [sp, #4]
 310 036e 40F20003 		movw	r3, #:lower16:rawGyro
 311 0372 C0F20003 		movt	r3, #:upper16:rawGyro
 312 0376 5B88     		ldrh	r3, [r3, #2]
 313 0378 1BB2     		sxth	r3, r3
 314 037a 06EE903A 		fmsr	s13, r3	@ int
 315 037e F8EEE67A 		fsitos	s15, s13
 316 0382 77EE277A 		fadds	s15, s14, s15
 317 0386 CDED017A 		fsts	s15, [sp, #4]
 318 038a 9DED027A 		flds	s14, [sp, #8]
 319 038e 40F20003 		movw	r3, #:lower16:rawGyro
 320 0392 C0F20003 		movt	r3, #:upper16:rawGyro
 321 0396 9B88     		ldrh	r3, [r3, #4]
 322 0398 1BB2     		sxth	r3, r3
 323 039a 06EE903A 		fmsr	s13, r3	@ int
 324 039e F8EEE67A 		fsitos	s15, s13
 325 03a2 77EE277A 		fadds	s15, s14, s15
 326 03a6 CDED027A 		fsts	s15, [sp, #8]
 327 03aa 40F20003 		movw	r3, #:lower16:rawMPU6000Temperature
 328 03ae C0F20003 		movt	r3, #:upper16:rawMPU6000Temperature
 329 03b2 1B88     		ldrh	r3, [r3, #0]
 330 03b4 1BB2     		sxth	r3, r3
 331 03b6 07EE903A 		fmsr	s15, r3	@ int
 332 03ba B8EEE77A 		fsitos	s14, s15
 333 03be 5FED407A 		flds	s15, .L6+4
 334 03c2 C7EE277A 		fdivs	s15, s14, s15
 335 03c6 1FED417A 		flds	s14, .L6+8
 336 03ca 77EE877A 		fadds	s15, s15, s14
 337 03ce 9DED0E7A 		flds	s14, [sp, #56]
 338 03d2 77EE277A 		fadds	s15, s14, s15
 339 03d6 CDED0E7A 		fsts	s15, [sp, #56]
 340 03da BDF83430 		ldrh	r3, [sp, #52]
 341 03de 1846     		mov	r0, r3
 342 03e0 FFF7FEFF 		bl	delayMicroseconds
 343 03e4 BDF83630 		ldrh	r3, [sp, #54]	@ movhi
 344 03e8 03F10103 		add	r3, r3, #1
 345 03ec ADF83630 		strh	r3, [sp, #54]	@ movhi
 346              	.L4:
 347 03f0 BDF83620 		ldrh	r2, [sp, #54]
 348 03f4 BDF83230 		ldrh	r3, [sp, #50]
 349 03f8 9A42     		cmp	r2, r3
 350 03fa FFF465AF 		bcc	.L5
 351 03fe 9DED037A 		flds	s14, [sp, #12]
 352 0402 BDF83230 		ldrh	r3, [sp, #50]
 353 0406 06EE903A 		fmsr	s13, r3	@ int
 354 040a F8EE667A 		fuitos	s15, s13
 355 040e C7EE277A 		fdivs	s15, s14, s15
 356 0412 CDED037A 		fsts	s15, [sp, #12]
 357 0416 9DED047A 		flds	s14, [sp, #16]
 358 041a BDF83230 		ldrh	r3, [sp, #50]
 359 041e 06EE903A 		fmsr	s13, r3	@ int
 360 0422 F8EE667A 		fuitos	s15, s13
 361 0426 C7EE277A 		fdivs	s15, s14, s15
 362 042a CDED047A 		fsts	s15, [sp, #16]
 363 042e 9DED057A 		flds	s14, [sp, #20]
 364 0432 BDF83230 		ldrh	r3, [sp, #50]
 365 0436 06EE903A 		fmsr	s13, r3	@ int
 366 043a F8EE667A 		fuitos	s15, s13
 367 043e C7EE277A 		fdivs	s15, s14, s15
 368 0442 CDED057A 		fsts	s15, [sp, #20]
 369 0446 9DED007A 		flds	s14, [sp, #0]
 370 044a BDF83230 		ldrh	r3, [sp, #50]
 371 044e 06EE903A 		fmsr	s13, r3	@ int
 372 0452 F8EE667A 		fuitos	s15, s13
 373 0456 C7EE277A 		fdivs	s15, s14, s15
 374 045a CDED007A 		fsts	s15, [sp, #0]
 375 045e 9DED017A 		flds	s14, [sp, #4]
 376 0462 BDF83230 		ldrh	r3, [sp, #50]
 377 0466 06EE903A 		fmsr	s13, r3	@ int
 378 046a F8EE667A 		fuitos	s15, s13
 379 046e C7EE277A 		fdivs	s15, s14, s15
 380 0472 CDED017A 		fsts	s15, [sp, #4]
 381 0476 9DED027A 		flds	s14, [sp, #8]
 382 047a BDF83230 		ldrh	r3, [sp, #50]
 383 047e 06EE903A 		fmsr	s13, r3	@ int
 384 0482 F8EE667A 		fuitos	s15, s13
 385 0486 C7EE277A 		fdivs	s15, s14, s15
 386 048a CDED027A 		fsts	s15, [sp, #8]
 387 048e BDF83230 		ldrh	r3, [sp, #50]
 388 0492 07EE103A 		fmsr	s14, r3	@ int
 389 0496 F8EE477A 		fuitos	s15, s14
 390 049a 9DED0E7A 		flds	s14, [sp, #56]
 391 049e C7EE277A 		fdivs	s15, s14, s15
 392 04a2 CDED0E7A 		fsts	s15, [sp, #56]
 393 04a6 40F20000 		movw	r0, #:lower16:.LC2
 394 04aa C0F20000 		movt	r0, #:upper16:.LC2
 395 04ae FFF7FEFF 		bl	usbPrint
 396 04b2 0E98     		ldr	r0, [sp, #56]	@ float
 397 04b4 40F20001 		movw	r1, #:lower16:numberString
 398 04b8 C0F20001 		movt	r1, #:upper16:numberString
 399 04bc FFF7FEFF 		bl	ftoa
 400 04c0 40F20000 		movw	r0, #:lower16:numberString
 401 04c4 C0F20000 		movt	r0, #:upper16:numberString
 402 04c8 FFF7FEFF 		bl	usbPrint
 403 04cc 40F20000 		movw	r0, #:lower16:.LC6
 404 04d0 C0F20000 		movt	r0, #:upper16:.LC6
 405 04d4 FFF7FEFF 		bl	usbPrint
 406 04d8 9DED037A 		flds	s14, [sp, #12]
 407 04dc DDED097A 		flds	s15, [sp, #36]
 408 04e0 37EE677A 		fsubs	s14, s14, s15
 409 04e4 DDED0E6A 		flds	s13, [sp, #56]
 410 04e8 DDED0F7A 		flds	s15, [sp, #60]
 411 04ec 76EEE77A 		fsubs	s15, s13, s15
 412 04f0 C7EE277A 		fdivs	s15, s14, s15
 413 04f4 40F20003 		movw	r3, #:lower16:eepromConfig
 414 04f8 C0F20003 		movt	r3, #:upper16:eepromConfig
 415 04fc C3ED017A 		fsts	s15, [r3, #4]
 416 0500 9DED047A 		flds	s14, [sp, #16]
 417 0504 DDED0A7A 		flds	s15, [sp, #40]
 418 0508 37EE677A 		fsubs	s14, s14, s15
 419 050c DDED0E6A 		flds	s13, [sp, #56]
 420 0510 DDED0F7A 		flds	s15, [sp, #60]
 421 0514 76EEE77A 		fsubs	s15, s13, s15
 422 0518 C7EE277A 		fdivs	s15, s14, s15
 423 051c 40F20003 		movw	r3, #:lower16:eepromConfig
 424 0520 C0F20003 		movt	r3, #:upper16:eepromConfig
 425 0524 C3ED027A 		fsts	s15, [r3, #8]
 426 0528 9DED057A 		flds	s14, [sp, #20]
 427 052c DDED0B7A 		flds	s15, [sp, #44]
 428 0530 37EE677A 		fsubs	s14, s14, s15
 429 0534 DDED0E6A 		flds	s13, [sp, #56]
 430 0538 DDED0F7A 		flds	s15, [sp, #60]
 431 053c 76EEE77A 		fsubs	s15, s13, s15
 432 0540 C7EE277A 		fdivs	s15, s14, s15
 433 0544 40F20003 		movw	r3, #:lower16:eepromConfig
 434 0548 C0F20003 		movt	r3, #:upper16:eepromConfig
 435 054c C3ED037A 		fsts	s15, [r3, #12]
 436 0550 9DED037A 		flds	s14, [sp, #12]
 437 0554 40F20003 		movw	r3, #:lower16:eepromConfig
 438 0558 C0F20003 		movt	r3, #:upper16:eepromConfig
 439 055c D3ED016A 		flds	s13, [r3, #4]
 440 0560 DDED0E7A 		flds	s15, [sp, #56]
 441 0564 66EEA77A 		fmuls	s15, s13, s15
 442 0568 77EE677A 		fsubs	s15, s14, s15
 443 056c 40F20003 		movw	r3, #:lower16:eepromConfig
 444 0570 C0F20003 		movt	r3, #:upper16:eepromConfig
 445 0574 C3ED047A 		fsts	s15, [r3, #16]
 446 0578 9DED047A 		flds	s14, [sp, #16]
 447 057c 40F20003 		movw	r3, #:lower16:eepromConfig
 448 0580 C0F20003 		movt	r3, #:upper16:eepromConfig
 449 0584 D3ED026A 		flds	s13, [r3, #8]
 450 0588 DDED0E7A 		flds	s15, [sp, #56]
 451 058c 66EEA77A 		fmuls	s15, s13, s15
 452 0590 77EE677A 		fsubs	s15, s14, s15
 453 0594 40F20003 		movw	r3, #:lower16:eepromConfig
 454 0598 C0F20003 		movt	r3, #:upper16:eepromConfig
 455 059c C3ED057A 		fsts	s15, [r3, #20]
 456 05a0 9DED057A 		flds	s14, [sp, #20]
 457 05a4 40F20003 		movw	r3, #:lower16:eepromConfig
 458 05a8 C0F20003 		movt	r3, #:upper16:eepromConfig
 459 05ac D3ED036A 		flds	s13, [r3, #12]
 460 05b0 DDED0E7A 		flds	s15, [sp, #56]
 461 05b4 66EEA77A 		fmuls	s15, s13, s15
 462 05b8 77EE677A 		fsubs	s15, s14, s15
 463 05bc 40F20003 		movw	r3, #:lower16:eepromConfig
 464 05c0 C0F20003 		movt	r3, #:upper16:eepromConfig
 465 05c4 C3ED067A 		fsts	s15, [r3, #24]
 466 05c8 9DED007A 		flds	s14, [sp, #0]
 467 05cc DDED067A 		flds	s15, [sp, #24]
 468 05d0 37EE677A 		fsubs	s14, s14, s15
 469 05d4 DDED0E6A 		flds	s13, [sp, #56]
 470 05d8 DDED0F7A 		flds	s15, [sp, #60]
 471 05dc 76EEE77A 		fsubs	s15, s13, s15
 472 05e0 C7EE277A 		fdivs	s15, s14, s15
 473 05e4 40F20003 		movw	r3, #:lower16:eepromConfig
 474 05e8 C0F20003 		movt	r3, #:upper16:eepromConfig
 475 05ec C3ED077A 		fsts	s15, [r3, #28]
 476 05f0 9DED017A 		flds	s14, [sp, #4]
 477 05f4 DDED077A 		flds	s15, [sp, #28]
 478 05f8 37EE677A 		fsubs	s14, s14, s15
 479 05fc DDED0E6A 		flds	s13, [sp, #56]
 480 0600 DDED0F7A 		flds	s15, [sp, #60]
 481 0604 76EEE77A 		fsubs	s15, s13, s15
 482 0608 C7EE277A 		fdivs	s15, s14, s15
 483 060c 40F20003 		movw	r3, #:lower16:eepromConfig
 484 0610 C0F20003 		movt	r3, #:upper16:eepromConfig
 485 0614 C3ED087A 		fsts	s15, [r3, #32]
 486 0618 9DED027A 		flds	s14, [sp, #8]
 487 061c DDED087A 		flds	s15, [sp, #32]
 488 0620 37EE677A 		fsubs	s14, s14, s15
 489 0624 DDED0E6A 		flds	s13, [sp, #56]
 490 0628 DDED0F7A 		flds	s15, [sp, #60]
 491 062c 76EEE77A 		fsubs	s15, s13, s15
 492 0630 C7EE277A 		fdivs	s15, s14, s15
 493 0634 40F20003 		movw	r3, #:lower16:eepromConfig
 494 0638 C0F20003 		movt	r3, #:upper16:eepromConfig
 495 063c C3ED097A 		fsts	s15, [r3, #36]
 496 0640 9DED007A 		flds	s14, [sp, #0]
 497 0644 40F20003 		movw	r3, #:lower16:eepromConfig
 498 0648 C0F20003 		movt	r3, #:upper16:eepromConfig
 499 064c D3ED076A 		flds	s13, [r3, #28]
 500 0650 DDED0E7A 		flds	s15, [sp, #56]
 501 0654 66EEA77A 		fmuls	s15, s13, s15
 502 0658 77EE677A 		fsubs	s15, s14, s15
 503 065c 40F20003 		movw	r3, #:lower16:eepromConfig
 504 0660 C0F20003 		movt	r3, #:upper16:eepromConfig
 505 0664 C3ED0A7A 		fsts	s15, [r3, #40]
 506 0668 9DED017A 		flds	s14, [sp, #4]
 507 066c 40F20003 		movw	r3, #:lower16:eepromConfig
 508 0670 C0F20003 		movt	r3, #:upper16:eepromConfig
 509 0674 D3ED086A 		flds	s13, [r3, #32]
 510 0678 DDED0E7A 		flds	s15, [sp, #56]
 511 067c 66EEA77A 		fmuls	s15, s13, s15
 512 0680 77EE677A 		fsubs	s15, s14, s15
 513 0684 40F20003 		movw	r3, #:lower16:eepromConfig
 514 0688 C0F20003 		movt	r3, #:upper16:eepromConfig
 515 068c C3ED0B7A 		fsts	s15, [r3, #44]
 516 0690 9DED027A 		flds	s14, [sp, #8]
 517 0694 40F20003 		movw	r3, #:lower16:eepromConfig
 518 0698 C0F20003 		movt	r3, #:upper16:eepromConfig
 519 069c D3ED096A 		flds	s13, [r3, #36]
 520 06a0 DDED0E7A 		flds	s15, [sp, #56]
 521 06a4 66EEA77A 		fmuls	s15, s13, s15
 522 06a8 77EE677A 		fsubs	s15, s14, s15
 523 06ac 40F20003 		movw	r3, #:lower16:eepromConfig
 524 06b0 C0F20003 		movt	r3, #:upper16:eepromConfig
 525 06b4 C3ED0C7A 		fsts	s15, [r3, #48]
 526 06b8 40F20000 		movw	r0, #:lower16:.LC7
 527 06bc C0F20000 		movt	r0, #:upper16:.LC7
 528 06c0 FFF7FEFF 		bl	usbPrint
 529 06c4 40F20003 		movw	r3, #:lower16:mpu6000Calibrating
 530 06c8 C0F20003 		movt	r3, #:upper16:mpu6000Calibrating
 531 06cc 4FF00002 		mov	r2, #0
 532 06d0 1A70     		strb	r2, [r3, #0]
 533 06d2 11B0     		add	sp, sp, #68
 534 06d4 00BD     		pop	{pc}
 536 06d6 00BF     		.ident	"GCC: (Sourcery CodeBench Lite 2012.03-56) 4.6.3"
DEFINED SYMBOLS
                            *ABS*:00000000 mpu6000Calibration.c
C:\Users\JOHNIH~1\AppData\Local\Temp\cczYNZKZ.s:17     .rodata:00000000 $d
C:\Users\JOHNIH~1\AppData\Local\Temp\cczYNZKZ.s:18     .rodata:00000000 .LC0
C:\Users\JOHNIH~1\AppData\Local\Temp\cczYNZKZ.s:21     .rodata:00000018 .LC1
C:\Users\JOHNIH~1\AppData\Local\Temp\cczYNZKZ.s:24     .rodata:0000003c .LC2
C:\Users\JOHNIH~1\AppData\Local\Temp\cczYNZKZ.s:27     .rodata:0000005c .LC3
C:\Users\JOHNIH~1\AppData\Local\Temp\cczYNZKZ.s:30     .rodata:0000007c .LC4
C:\Users\JOHNIH~1\AppData\Local\Temp\cczYNZKZ.s:34     .rodata:000000b4 .LC5
C:\Users\JOHNIH~1\AppData\Local\Temp\cczYNZKZ.s:37     .rodata:000000d8 .LC6
C:\Users\JOHNIH~1\AppData\Local\Temp\cczYNZKZ.s:40     .rodata:000000f8 .LC7
C:\Users\JOHNIH~1\AppData\Local\Temp\cczYNZKZ.s:43     .text:00000000 $t
C:\Users\JOHNIH~1\AppData\Local\Temp\cczYNZKZ.s:48     .text:00000000 mpu6000Calibration
C:\Users\JOHNIH~1\AppData\Local\Temp\cczYNZKZ.s:258    .text:000002bc $d
C:\Users\JOHNIH~1\AppData\Local\Temp\cczYNZKZ.s:262    .text:000002c8 $t

UNDEFINED SYMBOLS
mpu6000Calibrating
usbPrint
readMPU6000
rawAccel
rawGyro
rawMPU6000Temperature
delayMicroseconds
numberString
ftoa
delay
eepromConfig
