   1              		.syntax unified
   2              		.cpu cortex-m4
   3              		.eabi_attribute 27, 3
   4              		.fpu fpv4-sp-d16
   5              		.eabi_attribute 20, 1
   6              		.eabi_attribute 21, 1
   7              		.eabi_attribute 23, 3
   8              		.eabi_attribute 24, 1
   9              		.eabi_attribute 25, 1
  10              		.eabi_attribute 26, 1
  11              		.eabi_attribute 30, 6
  12              		.eabi_attribute 34, 1
  13              		.eabi_attribute 18, 4
  14              		.thumb
  15              		.file	"cli.c"
  16              		.global	cliBusy
  17              		.bss
  20              	cliBusy:
  21 0000 00       		.space	1
  22              	queryType:
  23 0001 00       		.space	1
  24              	validCommand:
  25 0002 00       		.space	1
  26              		.global	highSpeedTelem1Enabled
  29              	highSpeedTelem1Enabled:
  30 0003 00       		.space	1
  31              		.global	highSpeedTelem2Enabled
  34              	highSpeedTelem2Enabled:
  35 0004 00       		.space	1
  36              		.global	highSpeedTelem3Enabled
  39              	highSpeedTelem3Enabled:
  40 0005 00       		.space	1
  41              		.global	highSpeedTelem4Enabled
  44              	highSpeedTelem4Enabled:
  45 0006 00       		.space	1
  46              		.global	highSpeedTelem5Enabled
  49              	highSpeedTelem5Enabled:
  50 0007 00       		.space	1
  51              		.global	highSpeedTelem6Enabled
  54              	highSpeedTelem6Enabled:
  55 0008 00       		.space	1
  56              		.global	highSpeedTelem7Enabled
  59              	highSpeedTelem7Enabled:
  60 0009 00       		.space	1
  61              		.global	highSpeedTelem8Enabled
  64              	highSpeedTelem8Enabled:
  65 000a 00       		.space	1
  66              		.global	highSpeedTelem9Enabled
  69              	highSpeedTelem9Enabled:
  70 000b 00       		.space	1
  71              		.text
  72              		.align	2
  73              		.global	highSpeedTelemDisable
  74              		.thumb
  75              		.thumb_func
  77              	highSpeedTelemDisable:
  78              		@ args = 0, pretend = 0, frame = 0
  79              		@ frame_needed = 0, uses_anonymous_args = 0
  80              		@ link register save eliminated.
  81 0000 40F20003 		movw	r3, #:lower16:highSpeedTelem1Enabled
  82 0004 C0F20003 		movt	r3, #:upper16:highSpeedTelem1Enabled
  83 0008 4FF00002 		mov	r2, #0
  84 000c 1A70     		strb	r2, [r3, #0]
  85 000e 40F20003 		movw	r3, #:lower16:highSpeedTelem2Enabled
  86 0012 C0F20003 		movt	r3, #:upper16:highSpeedTelem2Enabled
  87 0016 4FF00002 		mov	r2, #0
  88 001a 1A70     		strb	r2, [r3, #0]
  89 001c 40F20003 		movw	r3, #:lower16:highSpeedTelem3Enabled
  90 0020 C0F20003 		movt	r3, #:upper16:highSpeedTelem3Enabled
  91 0024 4FF00002 		mov	r2, #0
  92 0028 1A70     		strb	r2, [r3, #0]
  93 002a 40F20003 		movw	r3, #:lower16:highSpeedTelem4Enabled
  94 002e C0F20003 		movt	r3, #:upper16:highSpeedTelem4Enabled
  95 0032 4FF00002 		mov	r2, #0
  96 0036 1A70     		strb	r2, [r3, #0]
  97 0038 40F20003 		movw	r3, #:lower16:highSpeedTelem5Enabled
  98 003c C0F20003 		movt	r3, #:upper16:highSpeedTelem5Enabled
  99 0040 4FF00002 		mov	r2, #0
 100 0044 1A70     		strb	r2, [r3, #0]
 101 0046 40F20003 		movw	r3, #:lower16:highSpeedTelem6Enabled
 102 004a C0F20003 		movt	r3, #:upper16:highSpeedTelem6Enabled
 103 004e 4FF00002 		mov	r2, #0
 104 0052 1A70     		strb	r2, [r3, #0]
 105 0054 40F20003 		movw	r3, #:lower16:highSpeedTelem7Enabled
 106 0058 C0F20003 		movt	r3, #:upper16:highSpeedTelem7Enabled
 107 005c 4FF00002 		mov	r2, #0
 108 0060 1A70     		strb	r2, [r3, #0]
 109 0062 40F20003 		movw	r3, #:lower16:highSpeedTelem8Enabled
 110 0066 C0F20003 		movt	r3, #:upper16:highSpeedTelem8Enabled
 111 006a 4FF00002 		mov	r2, #0
 112 006e 1A70     		strb	r2, [r3, #0]
 113 0070 40F20003 		movw	r3, #:lower16:highSpeedTelem9Enabled
 114 0074 C0F20003 		movt	r3, #:upper16:highSpeedTelem9Enabled
 115 0078 4FF00002 		mov	r2, #0
 116 007c 1A70     		strb	r2, [r3, #0]
 117 007e 7047     		bx	lr
 119              		.align	2
 120              		.global	readStringUsb
 121              		.thumb
 122              		.thumb_func
 124              	readStringUsb:
 125              		@ args = 0, pretend = 0, frame = 16
 126              		@ frame_needed = 0, uses_anonymous_args = 0
 127 0080 10B5     		push	{r4, lr}
 128 0082 84B0     		sub	sp, sp, #16
 129 0084 0190     		str	r0, [sp, #4]
 130 0086 0B46     		mov	r3, r1
 131 0088 8DF80330 		strb	r3, [sp, #3]
 132 008c 4FF00003 		mov	r3, #0
 133 0090 8DF80F30 		strb	r3, [sp, #15]
 134 0094 4FF00003 		mov	r3, #0
 135 0098 8DF80E30 		strb	r3, [sp, #14]
 136              	.L7:
 137 009c 9DF80F30 		ldrb	r3, [sp, #15]	@ zero_extendqisi2
 138 00a0 019A     		ldr	r2, [sp, #4]
 139 00a2 D418     		adds	r4, r2, r3
 140 00a4 FFF7FEFF 		bl	usbRead
 141 00a8 0346     		mov	r3, r0
 142 00aa 2370     		strb	r3, [r4, #0]
 143 00ac 2378     		ldrb	r3, [r4, #0]	@ zero_extendqisi2
 144 00ae 002B     		cmp	r3, #0
 145 00b0 0AD1     		bne	.L3
 146 00b2 4FF00A00 		mov	r0, #10
 147 00b6 FFF7FEFF 		bl	delay
 148 00ba 9DF80E30 		ldrb	r3, [sp, #14]
 149 00be 03F10103 		add	r3, r3, #1
 150 00c2 8DF80E30 		strb	r3, [sp, #14]
 151 00c6 09E0     		b	.L4
 152              	.L3:
 153 00c8 4FF00003 		mov	r3, #0
 154 00cc 8DF80E30 		strb	r3, [sp, #14]
 155 00d0 9DF80F30 		ldrb	r3, [sp, #15]
 156 00d4 03F10103 		add	r3, r3, #1
 157 00d8 8DF80F30 		strb	r3, [sp, #15]
 158              	.L4:
 159 00dc 9DF80F30 		ldrb	r3, [sp, #15]	@ zero_extendqisi2
 160 00e0 002B     		cmp	r3, #0
 161 00e2 09D0     		beq	.L5
 162 00e4 9DF80F30 		ldrb	r3, [sp, #15]	@ zero_extendqisi2
 163 00e8 03F1FF33 		add	r3, r3, #-1
 164 00ec 019A     		ldr	r2, [sp, #4]
 165 00ee D318     		adds	r3, r2, r3
 166 00f0 1B78     		ldrb	r3, [r3, #0]	@ zero_extendqisi2
 167 00f2 5BB2     		sxtb	r3, r3
 168 00f4 3B2B     		cmp	r3, #59
 169 00f6 09D0     		beq	.L6
 170              	.L5:
 171 00f8 9DF80E30 		ldrb	r3, [sp, #14]	@ zero_extendqisi2
 172 00fc 042B     		cmp	r3, #4
 173 00fe 05D8     		bhi	.L6
 174 0100 9DF80F20 		ldrb	r2, [sp, #15]	@ zero_extendqisi2
 175 0104 9DF80330 		ldrb	r3, [sp, #3]	@ zero_extendqisi2
 176 0108 9A42     		cmp	r2, r3
 177 010a C7D3     		bcc	.L7
 178              	.L6:
 179 010c 9DF80F30 		ldrb	r3, [sp, #15]	@ zero_extendqisi2
 180 0110 019A     		ldr	r2, [sp, #4]
 181 0112 D318     		adds	r3, r2, r3
 182 0114 4FF00002 		mov	r2, #0
 183 0118 1A70     		strb	r2, [r3, #0]
 184 011a 019B     		ldr	r3, [sp, #4]
 185 011c 1846     		mov	r0, r3
 186 011e 04B0     		add	sp, sp, #16
 187 0120 10BD     		pop	{r4, pc}
 189 0122 00BF     		.align	2
 190              		.global	readFloatUsb
 191              		.thumb
 192              		.thumb_func
 194              	readFloatUsb:
 195              		@ args = 0, pretend = 0, frame = 16
 196              		@ frame_needed = 0, uses_anonymous_args = 0
 197 0124 10B5     		push	{r4, lr}
 198 0126 84B0     		sub	sp, sp, #16
 199 0128 4FF00003 		mov	r3, #0
 200 012c 8DF80F30 		strb	r3, [sp, #15]
 201 0130 4FF00003 		mov	r3, #0
 202 0134 8DF80E30 		strb	r3, [sp, #14]
 203 0138 4FF00003 		mov	r3, #0
 204 013c 0093     		str	r3, [sp, #0]
 205 013e 01AB     		add	r3, sp, #4
 206 0140 4FF00002 		mov	r2, #0
 207 0144 1A60     		str	r2, [r3, #0]
 208 0146 03F10403 		add	r3, r3, #4
 209 014a 4FF00002 		mov	r2, #0
 210 014e 1A60     		str	r2, [r3, #0]
 211 0150 03F10403 		add	r3, r3, #4
 212 0154 4FF00002 		mov	r2, #0
 213 0158 1A70     		strb	r2, [r3, #0]
 214 015a 03F10103 		add	r3, r3, #1
 215              	.L13:
 216 015e 9DF80F40 		ldrb	r4, [sp, #15]	@ zero_extendqisi2
 217 0162 FFF7FEFF 		bl	usbRead
 218 0166 0346     		mov	r3, r0
 219 0168 1A46     		mov	r2, r3
 220 016a 04A9     		add	r1, sp, #16
 221 016c 0B19     		adds	r3, r1, r4
 222 016e 03F8102C 		strb	r2, [r3, #-16]
 223 0172 04AA     		add	r2, sp, #16
 224 0174 1319     		adds	r3, r2, r4
 225 0176 13F8103C 		ldrb	r3, [r3, #-16]	@ zero_extendqisi2
 226 017a 002B     		cmp	r3, #0
 227 017c 0AD1     		bne	.L9
 228 017e 4FF00A00 		mov	r0, #10
 229 0182 FFF7FEFF 		bl	delay
 230 0186 9DF80E30 		ldrb	r3, [sp, #14]
 231 018a 03F10103 		add	r3, r3, #1
 232 018e 8DF80E30 		strb	r3, [sp, #14]
 233 0192 09E0     		b	.L10
 234              	.L9:
 235 0194 4FF00003 		mov	r3, #0
 236 0198 8DF80E30 		strb	r3, [sp, #14]
 237 019c 9DF80F30 		ldrb	r3, [sp, #15]
 238 01a0 03F10103 		add	r3, r3, #1
 239 01a4 8DF80F30 		strb	r3, [sp, #15]
 240              	.L10:
 241 01a8 9DF80F30 		ldrb	r3, [sp, #15]	@ zero_extendqisi2
 242 01ac 002B     		cmp	r3, #0
 243 01ae 0AD0     		beq	.L11
 244 01b0 9DF80F30 		ldrb	r3, [sp, #15]	@ zero_extendqisi2
 245 01b4 03F1FF33 		add	r3, r3, #-1
 246 01b8 04A9     		add	r1, sp, #16
 247 01ba CB18     		adds	r3, r1, r3
 248 01bc 13F8103C 		ldrb	r3, [r3, #-16]	@ zero_extendqisi2
 249 01c0 5BB2     		sxtb	r3, r3
 250 01c2 3B2B     		cmp	r3, #59
 251 01c4 07D0     		beq	.L12
 252              	.L11:
 253 01c6 9DF80E30 		ldrb	r3, [sp, #14]	@ zero_extendqisi2
 254 01ca 042B     		cmp	r3, #4
 255 01cc 03D8     		bhi	.L12
 256 01ce 9DF80F30 		ldrb	r3, [sp, #15]	@ zero_extendqisi2
 257 01d2 0B2B     		cmp	r3, #11
 258 01d4 C3D9     		bls	.L13
 259              	.L12:
 260 01d6 9DF80F30 		ldrb	r3, [sp, #15]	@ zero_extendqisi2
 261 01da 04AA     		add	r2, sp, #16
 262 01dc D318     		adds	r3, r2, r3
 263 01de 4FF00002 		mov	r2, #0
 264 01e2 03F8102C 		strb	r2, [r3, #-16]
 265 01e6 6B46     		mov	r3, sp
 266 01e8 1846     		mov	r0, r3
 267 01ea FFF7FEFF 		bl	stringToFloat
 268 01ee 0346     		mov	r3, r0	@ float
 269 01f0 1846     		mov	r0, r3	@ float
 270 01f2 04B0     		add	sp, sp, #16
 271 01f4 10BD     		pop	{r4, pc}
 273 01f6 00BF     		.align	2
 274              		.global	readUsbPID
 275              		.thumb
 276              		.thumb_func
 278              	readUsbPID:
 279              		@ args = 0, pretend = 0, frame = 16
 280              		@ frame_needed = 0, uses_anonymous_args = 0
 281 01f8 00B5     		push	{lr}
 282 01fa 85B0     		sub	sp, sp, #20
 283 01fc 0346     		mov	r3, r0
 284 01fe 8DF80730 		strb	r3, [sp, #7]
 285 0202 9DF80720 		ldrb	r2, [sp, #7]	@ zero_extendqisi2
 286 0206 1346     		mov	r3, r2
 287 0208 4FEA8303 		lsl	r3, r3, #2
 288 020c 9B18     		adds	r3, r3, r2
 289 020e 4FEAC303 		lsl	r3, r3, #3
 290 0212 1A46     		mov	r2, r3
 291 0214 144B     		ldr	r3, .L15
 292 0216 D318     		adds	r3, r2, r3
 293 0218 0393     		str	r3, [sp, #12]
 294 021a FFF7FEFF 		bl	readFloatUsb
 295 021e 0246     		mov	r2, r0	@ float
 296 0220 039B     		ldr	r3, [sp, #12]
 297 0222 1A60     		str	r2, [r3, #0]	@ float
 298 0224 FFF7FEFF 		bl	readFloatUsb
 299 0228 0246     		mov	r2, r0	@ float
 300 022a 039B     		ldr	r3, [sp, #12]
 301 022c 5A60     		str	r2, [r3, #4]	@ float
 302 022e FFF7FEFF 		bl	readFloatUsb
 303 0232 0246     		mov	r2, r0	@ float
 304 0234 039B     		ldr	r3, [sp, #12]
 305 0236 9A60     		str	r2, [r3, #8]	@ float
 306 0238 FFF7FEFF 		bl	readFloatUsb
 307 023c 0246     		mov	r2, r0	@ float
 308 023e 039B     		ldr	r3, [sp, #12]
 309 0240 DA60     		str	r2, [r3, #12]	@ float
 310 0242 FFF7FEFF 		bl	readFloatUsb
 311 0246 0246     		mov	r2, r0	@ float
 312 0248 039B     		ldr	r3, [sp, #12]
 313 024a 5A61     		str	r2, [r3, #20]	@ float
 314 024c 039B     		ldr	r3, [sp, #12]
 315 024e 074A     		ldr	r2, .L15+4	@ float
 316 0250 1A61     		str	r2, [r3, #16]	@ float
 317 0252 039B     		ldr	r3, [sp, #12]
 318 0254 054A     		ldr	r2, .L15+4	@ float
 319 0256 9A61     		str	r2, [r3, #24]	@ float
 320 0258 039B     		ldr	r3, [sp, #12]
 321 025a 044A     		ldr	r2, .L15+4	@ float
 322 025c DA61     		str	r2, [r3, #28]	@ float
 323 025e 039B     		ldr	r3, [sp, #12]
 324 0260 024A     		ldr	r2, .L15+4	@ float
 325 0262 1A62     		str	r2, [r3, #32]	@ float
 326 0264 05B0     		add	sp, sp, #20
 327 0266 00BD     		pop	{pc}
 328              	.L16:
 329              		.align	2
 330              	.L15:
 331 0268 80000000 		.word	eepromConfig+128
 332 026c 00000000 		.word	0
 334              		.section	.rodata
 335              		.align	2
 336              	.LC0:
 337 0000 2C2000   		.ascii	", \000"
 338 0003 00       		.align	2
 339              	.LC1:
 340 0004 0A00     		.ascii	"\012\000"
 341 0006 0000     		.align	2
 342              	.LC2:
 343 0008 74727565 		.ascii	"true\000"
 343      00
 344 000d 000000   		.align	2
 345              	.LC3:
 346 0010 66616C73 		.ascii	"false\000"
 346      6500
 347 0016 0000     		.align	2
 348              	.LC4:
 349 0018 526F6C6C 		.ascii	"Roll Rate PID:  \000"
 349      20526174 
 349      65205049 
 349      443A2020 
 349      00
 350 0029 000000   		.align	2
 351              	.LC5:
 352 002c 50697463 		.ascii	"Pitch Rate PID: \000"
 352      68205261 
 352      74652050 
 352      49443A20 
 352      00
 353 003d 000000   		.align	2
 354              	.LC6:
 355 0040 59617720 		.ascii	"Yaw Rate PID:   \000"
 355      52617465 
 355      20504944 
 355      3A202020 
 355      00
 356 0051 000000   		.align	2
 357              	.LC7:
 358 0054 526F6C6C 		.ascii	"Roll Attitude PID:  \000"
 358      20417474 
 358      69747564 
 358      65205049 
 358      443A2020 
 359 0069 000000   		.align	2
 360              	.LC8:
 361 006c 50697463 		.ascii	"Pitch Attitude PID: \000"
 361      68204174 
 361      74697475 
 361      64652050 
 361      49443A20 
 362 0081 000000   		.align	2
 363              	.LC9:
 364 0084 48656164 		.ascii	"Heading PID:        \000"
 364      696E6720 
 364      5049443A 
 364      20202020 
 364      20202020 
 365 0099 000000   		.align	2
 366              	.LC10:
 367 009c 41636365 		.ascii	"Accel One G:               \000"
 367      6C204F6E 
 367      6520473A 
 367      20202020 
 367      20202020 
 368              		.align	2
 369              	.LC11:
 370 00b8 41636365 		.ascii	"Accel Temp Comp Slope:     \000"
 370      6C205465 
 370      6D702043 
 370      6F6D7020 
 370      536C6F70 
 371              		.align	2
 372              	.LC12:
 373 00d4 41636365 		.ascii	"Accel Temp Comp Bias:      \000"
 373      6C205465 
 373      6D702043 
 373      6F6D7020 
 373      42696173 
 374              		.align	2
 375              	.LC13:
 376 00f0 4779726F 		.ascii	"Gyro Temp Comp Slope:      \000"
 376      2054656D 
 376      7020436F 
 376      6D702053 
 376      6C6F7065 
 377              		.align	2
 378              	.LC14:
 379 010c 4779726F 		.ascii	"Gyro Temp Comp Intercept:  \000"
 379      2054656D 
 379      7020436F 
 379      6D702049 
 379      6E746572 
 380              		.align	2
 381              	.LC15:
 382 0128 4D616720 		.ascii	"Mag Bias:                  \000"
 382      42696173 
 382      3A202020 
 382      20202020 
 382      20202020 
 383              		.align	2
 384              	.LC16:
 385 0144 41636365 		.ascii	"Accel Cutoff:              \000"
 385      6C204375 
 385      746F6666 
 385      3A202020 
 385      20202020 
 386              		.align	2
 387              	.LC17:
 388 0160 4B704163 		.ascii	"KpAcc (MARG):              \000"
 388      6320284D 
 388      41524729 
 388      3A202020 
 388      20202020 
 389              		.align	2
 390              	.LC18:
 391 017c 4B694163 		.ascii	"KiAcc (MARG):              \000"
 391      6320284D 
 391      41524729 
 391      3A202020 
 391      20202020 
 392              		.align	2
 393              	.LC19:
 394 0198 4B704D61 		.ascii	"KpMag (MARG):              \000"
 394      6720284D 
 394      41524729 
 394      3A202020 
 394      20202020 
 395              		.align	2
 396              	.LC20:
 397 01b4 4B694D61 		.ascii	"KiMag (MARG):              \000"
 397      6720284D 
 397      41524729 
 397      3A202020 
 397      20202020 
 398              		.align	2
 399              	.LC21:
 400 01d0 436F6D70 		.ascii	"Complementary Filter A:    \000"
 400      6C656D65 
 400      6E746172 
 400      79204669 
 400      6C746572 
 401              		.align	2
 402              	.LC22:
 403 01ec 436F6D70 		.ascii	"Complementary Filter B:    \000"
 403      6C656D65 
 403      6E746172 
 403      79204669 
 403      6C746572 
 404              		.align	2
 405              	.LC23:
 406 0208 4D505536 		.ascii	"MPU6000 DLPF:               \000"
 406      30303020 
 406      444C5046 
 406      3A202020 
 406      20202020 
 407 0225 000000   		.align	2
 408              	.LC24:
 409 0228 32353620 		.ascii	"256 Hz\012\000"
 409      487A0A00 
 410              		.align	2
 411              	.LC25:
 412 0230 31383820 		.ascii	"188 Hz\012\000"
 412      487A0A00 
 413              		.align	2
 414              	.LC26:
 415 0238 39382048 		.ascii	"98 Hz\012\000"
 415      7A0A00
 416 023f 00       		.align	2
 417              	.LC27:
 418 0240 34322048 		.ascii	"42 Hz\012\000"
 418      7A0A00
 419 0247 00       		.align	2
 420              	.LC28:
 421 0248 0A526563 		.ascii	"\012Receiver Type:                  \000"
 421      65697665 
 421      72205479 
 421      70653A20 
 421      20202020 
 422 026a 0000     		.align	2
 423              	.LC29:
 424 026c 50617261 		.ascii	"Parallel\012\000"
 424      6C6C656C 
 424      0A00
 425 0276 0000     		.align	2
 426              	.LC30:
 427 0278 53657269 		.ascii	"Serial\012\000"
 427      616C0A00 
 428              		.align	2
 429              	.LC31:
 430 0280 5370656B 		.ascii	"Spektrum \000"
 430      7472756D 
 430      2000
 431 028a 0000     		.align	2
 432              	.LC32:
 433 028c 31312042 		.ascii	"11 Bit Mode, \000"
 433      6974204D 
 433      6F64652C 
 433      2000
 434 029a 0000     		.align	2
 435              	.LC33:
 436 029c 31302042 		.ascii	"10 Bit Mode,\000"
 436      6974204D 
 436      6F64652C 
 436      00
 437 02a9 000000   		.align	2
 438              	.LC34:
 439 02ac 20436861 		.ascii	" Channels\012\000"
 439      6E6E656C 
 439      730A00
 440 02b7 00       		.align	2
 441              	.LC35:
 442 02b8 43757272 		.ascii	"Current RC Channel Assignment:  \000"
 442      656E7420 
 442      52432043 
 442      68616E6E 
 442      656C2041 
 443 02d9 000000   		.align	2
 444              	.LC36:
 445 02dc 4D697865 		.ascii	"Mixer Configuration:            \000"
 445      7220436F 
 445      6E666967 
 445      75726174 
 445      696F6E3A 
 446 02fd 000000   		.align	2
 447              	.LC37:
 448 0300 4D495845 		.ascii	"MIXERTYPE GIMBAL\012\000"
 448      52545950 
 448      45204749 
 448      4D42414C 
 448      0A00
 449 0312 0000     		.align	2
 450              	.LC38:
 451 0314 4D495845 		.ascii	"MIXERTYPE FLYING WING\012\000"
 451      52545950 
 451      4520464C 
 451      59494E47 
 451      2057494E 
 452 032b 00       		.align	2
 453              	.LC39:
 454 032c 4D495845 		.ascii	"MIXERTYPE BICOPTER\012\000"
 454      52545950 
 454      45204249 
 454      434F5054 
 454      45520A00 
 455              		.align	2
 456              	.LC40:
 457 0340 4D495845 		.ascii	"MIXERTYPE TRICOPTER\012\000"
 457      52545950 
 457      45205452 
 457      49434F50 
 457      5445520A 
 458 0355 000000   		.align	2
 459              	.LC41:
 460 0358 4D495845 		.ascii	"MIXERTYPE QUAD PLUS\012\000"
 460      52545950 
 460      45205155 
 460      41442050 
 460      4C55530A 
 461 036d 000000   		.align	2
 462              	.LC42:
 463 0370 4D495845 		.ascii	"MIXERTYPE QUAD X\012\000"
 463      52545950 
 463      45205155 
 463      41442058 
 463      0A00
 464 0382 0000     		.align	2
 465              	.LC43:
 466 0384 4D554C54 		.ascii	"MULTITYPE VTAIL NO COMP\012\000"
 466      49545950 
 466      45205654 
 466      41494C20 
 466      4E4F2043 
 467 039d 000000   		.align	2
 468              	.LC44:
 469 03a0 4D554C54 		.ascii	"MULTITYPE VTAIL Y COMP\012\000"
 469      49545950 
 469      45205654 
 469      41494C20 
 469      5920434F 
 470              		.align	2
 471              	.LC45:
 472 03b8 4D554C54 		.ascii	"MULTITYPE VTAIL RY COMP\012\000"
 472      49545950 
 472      45205654 
 472      41494C20 
 472      52592043 
 473 03d1 000000   		.align	2
 474              	.LC46:
 475 03d4 4D554C54 		.ascii	"MULTITYPE VTAIL PY COMP\012\000"
 475      49545950 
 475      45205654 
 475      41494C20 
 475      50592043 
 476 03ed 000000   		.align	2
 477              	.LC47:
 478 03f0 4D554C54 		.ascii	"MULTITYPE VTAIL RP COMP\012\000"
 478      49545950 
 478      45205654 
 478      41494C20 
 478      52502043 
 479 0409 000000   		.align	2
 480              	.LC48:
 481 040c 4D554C54 		.ascii	"MULTITYPE VTAIL RPY COMP\012\000"
 481      49545950 
 481      45205654 
 481      41494C20 
 481      52505920 
 482 0426 0000     		.align	2
 483              	.LC49:
 484 0428 4D495845 		.ascii	"MIXERTYPE Y4\012\000"
 484      52545950 
 484      45205934 
 484      0A00
 485 0436 0000     		.align	2
 486              	.LC50:
 487 0438 4D495845 		.ascii	"MIXERTYPE HEX PLUS\012\000"
 487      52545950 
 487      45204845 
 487      5820504C 
 487      55530A00 
 488              		.align	2
 489              	.LC51:
 490 044c 4D495845 		.ascii	"MIXERTYPE HEX X\012\000"
 490      52545950 
 490      45204845 
 490      5820580A 
 490      00
 491 045d 000000   		.align	2
 492              	.LC52:
 493 0460 4D495845 		.ascii	"MIXERTYPE Y6\012\000"
 493      52545950 
 493      45205936 
 493      0A00
 494 046e 0000     		.align	2
 495              	.LC53:
 496 0470 4D495845 		.ascii	"MIXERTYPE FLAT OCTO PLUS\012\000"
 496      52545950 
 496      4520464C 
 496      4154204F 
 496      43544F20 
 497 048a 0000     		.align	2
 498              	.LC54:
 499 048c 4D495845 		.ascii	"MIXERTYPE FLAT OCTO X\012\000"
 499      52545950 
 499      4520464C 
 499      4154204F 
 499      43544F20 
 500 04a3 00       		.align	2
 501              	.LC55:
 502 04a4 4D495845 		.ascii	"MIXERTYPE COAXIAL OCTO PLUS\012\000"
 502      52545950 
 502      4520434F 
 502      41584941 
 502      4C204F43 
 503 04c1 000000   		.align	2
 504              	.LC56:
 505 04c4 4D495845 		.ascii	"MIXERTYPE COAXIAL OCTO X\012\000"
 505      52545950 
 505      4520434F 
 505      41584941 
 505      4C204F43 
 506 04de 0000     		.align	2
 507              	.LC57:
 508 04e0 4D495845 		.ascii	"MIXERTYPE FREE MIX\012\000"
 508      52545950 
 508      45204652 
 508      4545204D 
 508      49580A00 
 509              		.align	2
 510              	.LC58:
 511 04f4 56205461 		.ascii	"V Tail Angle                   \000"
 511      696C2041 
 511      6E676C65 
 511      20202020 
 511      20202020 
 512              		.align	2
 513              	.LC59:
 514 0514 59617720 		.ascii	"Yaw Direction:                  \000"
 514      44697265 
 514      6374696F 
 514      6E3A2020 
 514      20202020 
 515 0535 000000   		.align	2
 516              	.LC60:
 517 0538 4E756D62 		.ascii	"Number of Motors:               \000"
 517      6572206F 
 517      66204D6F 
 517      746F7273 
 517      3A202020 
 518 0559 000000   		.align	2
 519              	.LC61:
 520 055c 45534320 		.ascii	"ESC PWM Rate:                   \000"
 520      50574D20 
 520      52617465 
 520      3A202020 
 520      20202020 
 521 057d 000000   		.align	2
 522              	.LC62:
 523 0580 53657276 		.ascii	"Servo PWM Rate:                 \000"
 523      6F205057 
 523      4D205261 
 523      74653A20 
 523      20202020 
 524 05a1 000000   		.align	2
 525              	.LC63:
 526 05a4 4D696420 		.ascii	"Mid Command:                    \000"
 526      436F6D6D 
 526      616E643A 
 526      20202020 
 526      20202020 
 527 05c5 000000   		.align	2
 528              	.LC64:
 529 05c8 4D696E20 		.ascii	"Min Check:                      \000"
 529      43686563 
 529      6B3A2020 
 529      20202020 
 529      20202020 
 530 05e9 000000   		.align	2
 531              	.LC65:
 532 05ec 4D617820 		.ascii	"Max Check:                      \000"
 532      43686563 
 532      6B3A2020 
 532      20202020 
 532      20202020 
 533 060d 000000   		.align	2
 534              	.LC66:
 535 0610 4D696E20 		.ascii	"Min Throttle:                   \000"
 535      5468726F 
 535      74746C65 
 535      3A202020 
 535      20202020 
 536 0631 000000   		.align	2
 537              	.LC67:
 538 0634 4D617820 		.ascii	"Max Thottle:                    \000"
 538      54686F74 
 538      746C653A 
 538      20202020 
 538      20202020 
 539 0655 000000   		.align	2
 540              	.LC68:
 541 0658 47696D62 		.ascii	"Gimbal Roll Servo Min:          \000"
 541      616C2052 
 541      6F6C6C20 
 541      53657276 
 541      6F204D69 
 542 0679 000000   		.align	2
 543              	.LC69:
 544 067c 47696D62 		.ascii	"Gimbal Roll Servo Mid:          \000"
 544      616C2052 
 544      6F6C6C20 
 544      53657276 
 544      6F204D69 
 545 069d 000000   		.align	2
 546              	.LC70:
 547 06a0 47696D62 		.ascii	"Gimbal Roll Servo Max:          \000"
 547      616C2052 
 547      6F6C6C20 
 547      53657276 
 547      6F204D61 
 548 06c1 000000   		.align	2
 549              	.LC71:
 550 06c4 47696D62 		.ascii	"Gimbal Roll Servo Gain:         \000"
 550      616C2052 
 550      6F6C6C20 
 550      53657276 
 550      6F204761 
 551 06e5 000000   		.align	2
 552              	.LC72:
 553 06e8 47696D62 		.ascii	"Gimbal Pitch Servo Min:         \000"
 553      616C2050 
 553      69746368 
 553      20536572 
 553      766F204D 
 554 0709 000000   		.align	2
 555              	.LC73:
 556 070c 47696D62 		.ascii	"Gimbal Pitch Servo Mid:         \000"
 556      616C2050 
 556      69746368 
 556      20536572 
 556      766F204D 
 557 072d 000000   		.align	2
 558              	.LC74:
 559 0730 47696D62 		.ascii	"Gimbal Pitch Servo Max:         \000"
 559      616C2050 
 559      69746368 
 559      20536572 
 559      766F204D 
 560 0751 000000   		.align	2
 561              	.LC75:
 562 0754 47696D62 		.ascii	"Gimbal Pitch Servo Gain:        \000"
 562      616C2050 
 562      69746368 
 562      20536572 
 562      766F2047 
 563 0775 000000   		.align	2
 564              	.LC76:
 565 0778 4269436F 		.ascii	"BiCopter Left Servo Min:        \000"
 565      70746572 
 565      204C6566 
 565      74205365 
 565      72766F20 
 566 0799 000000   		.align	2
 567              	.LC77:
 568 079c 4269436F 		.ascii	"BiCopter Left Servo Mid:        \000"
 568      70746572 
 568      204C6566 
 568      74205365 
 568      72766F20 
 569 07bd 000000   		.align	2
 570              	.LC78:
 571 07c0 4269436F 		.ascii	"BiCopter Left Servo Max:        \000"
 571      70746572 
 571      204C6566 
 571      74205365 
 571      72766F20 
 572 07e1 000000   		.align	2
 573              	.LC79:
 574 07e4 4269436F 		.ascii	"BiCopter Right Servo Min:       \000"
 574      70746572 
 574      20526967 
 574      68742053 
 574      6572766F 
 575 0805 000000   		.align	2
 576              	.LC80:
 577 0808 4269436F 		.ascii	"BiCopter Right Servo Mid:       \000"
 577      70746572 
 577      20526967 
 577      68742053 
 577      6572766F 
 578 0829 000000   		.align	2
 579              	.LC81:
 580 082c 4269436F 		.ascii	"BiCopter Right Servo Max:       \000"
 580      70746572 
 580      20526967 
 580      68742053 
 580      6572766F 
 581 084d 000000   		.align	2
 582              	.LC82:
 583 0850 54726943 		.ascii	"TriCopter Yaw Servo Min:        \000"
 583      6F707465 
 583      72205961 
 583      77205365 
 583      72766F20 
 584 0871 000000   		.align	2
 585              	.LC83:
 586 0874 54726943 		.ascii	"TriCopter Yaw Servo Mid:        \000"
 586      6F707465 
 586      72205961 
 586      77205365 
 586      72766F20 
 587 0895 000000   		.align	2
 588              	.LC84:
 589 0898 54726943 		.ascii	"TriCopter Yaw Servo Max:        \000"
 589      6F707465 
 589      72205961 
 589      77205365 
 589      72766F20 
 590 08b9 000000   		.align	2
 591              	.LC85:
 592 08bc 526F6C6C 		.ascii	"Roll Direction Left:            \000"
 592      20446972 
 592      65637469 
 592      6F6E204C 
 592      6566743A 
 593 08dd 000000   		.align	2
 594              	.LC86:
 595 08e0 526F6C6C 		.ascii	"Roll Direction Right:           \000"
 595      20446972 
 595      65637469 
 595      6F6E2052 
 595      69676874 
 596 0901 000000   		.align	2
 597              	.LC87:
 598 0904 50697463 		.ascii	"Pitch Direction Left:           \000"
 598      68204469 
 598      72656374 
 598      696F6E20 
 598      4C656674 
 599 0925 000000   		.align	2
 600              	.LC88:
 601 0928 50697463 		.ascii	"Pitch Direction Right:          \000"
 601      68204469 
 601      72656374 
 601      696F6E20 
 601      52696768 
 602 0949 000000   		.align	2
 603              	.LC89:
 604 094c 57696E67 		.ascii	"Wing Left Minimum:              \000"
 604      204C6566 
 604      74204D69 
 604      6E696D75 
 604      6D3A2020 
 605 096d 000000   		.align	2
 606              	.LC90:
 607 0970 57696E67 		.ascii	"Wing Left Maximum:              \000"
 607      204C6566 
 607      74204D61 
 607      78696D75 
 607      6D3A2020 
 608 0991 000000   		.align	2
 609              	.LC91:
 610 0994 57696E67 		.ascii	"Wing Right Minimum:             \000"
 610      20526967 
 610      6874204D 
 610      696E696D 
 610      756D3A20 
 611 09b5 000000   		.align	2
 612              	.LC92:
 613 09b8 57696E67 		.ascii	"Wing Right Maximum:             \000"
 613      20526967 
 613      6874204D 
 613      6178696D 
 613      756D3A20 
 614 09d9 000000   		.align	2
 615              	.LC93:
 616 09dc 0A4E756D 		.ascii	"\012Number of Free Mixer Motors:  \000"
 616      62657220 
 616      6F662046 
 616      72656520 
 616      4D697865 
 617              		.align	2
 618              	.LC94:
 619 09fc 0A0A00   		.ascii	"\012\012\000"
 620 09ff 00       		.align	2
 621              	.LC95:
 622 0a00 20202020 		.ascii	"         Roll    Pitch   Yaw\012\000"
 622      20202020 
 622      20526F6C 
 622      6C202020 
 622      20506974 
 623 0a1e 0000     		.align	2
 624              	.LC96:
 625 0a20 4D6F746F 		.ascii	"Motor\000"
 625      7200
 626 0a26 0000     		.align	2
 627              	.LC97:
 628 0a28 202000   		.ascii	"  \000"
 629 0a2b 00       		.align	2
 630              	.LC98:
 631 0a2c 0A526F6C 		.ascii	"\012Roll Rate PID Received....\012\000"
 631      6C205261 
 631      74652050 
 631      49442052 
 631      65636569 
 632 0a49 000000   		.align	2
 633              	.LC99:
 634 0a4c 0A506974 		.ascii	"\012Pitch Rate PID Received....\012\000"
 634      63682052 
 634      61746520 
 634      50494420 
 634      52656365 
 635 0a6a 0000     		.align	2
 636              	.LC100:
 637 0a6c 0A596177 		.ascii	"\012Yaw Rate PID Received....\012\000"
 637      20526174 
 637      65205049 
 637      44205265 
 637      63656976 
 638              		.align	2
 639              	.LC101:
 640 0a88 0A526F6C 		.ascii	"\012Roll Attitude PID Received....\012\000"
 640      6C204174 
 640      74697475 
 640      64652050 
 640      49442052 
 641 0aa9 000000   		.align	2
 642              	.LC102:
 643 0aac 0A506974 		.ascii	"\012Pitch Attitude PID Received....\012\000"
 643      63682041 
 643      74746974 
 643      75646520 
 643      50494420 
 644 0ace 0000     		.align	2
 645              	.LC103:
 646 0ad0 0A486561 		.ascii	"\012Heading PID Received....\012\000"
 646      64696E67 
 646      20504944 
 646      20526563 
 646      65697665 
 647 0aeb 00       		.align	2
 648              	.LC104:
 649 0aec 0A526563 		.ascii	"\012Receiver Type Received....\012\000"
 649      65697665 
 649      72205479 
 649      70652052 
 649      65636569 
 650 0b09 000000   		.align	2
 651              	.LC105:
 652 0b0c 0A537973 		.ascii	"\012System Reseting....\012\000"
 652      74656D20 
 652      52657365 
 652      74696E67 
 652      2E2E2E2E 
 653 0b22 0000     		.align	2
 654              	.LC106:
 655 0b24 0A524320 		.ascii	"\012RC Channel Order Received....\000"
 655      4368616E 
 655      6E656C20 
 655      4F726465 
 655      72205265 
 656 0b43 00       		.align	2
 657              	.LC107:
 658 0b44 0A537065 		.ascii	"\012Spektrum Resolution Received....\012\000"
 658      6B747275 
 658      6D205265 
 658      736F6C75 
 658      74696F6E 
 659 0b67 00       		.align	2
 660              	.LC108:
 661 0b68 0A537065 		.ascii	"\012Spektrum Channels Received....\012\000"
 661      6B747275 
 661      6D204368 
 661      616E6E65 
 661      6C732052 
 662 0b89 000000   		.align	2
 663              	.LC109:
 664 0b8c 0A4D6978 		.ascii	"\012Mixer Configuration Received....\012\000"
 664      65722043 
 664      6F6E6669 
 664      67757261 
 664      74696F6E 
 665 0baf 00       		.align	2
 666              	.LC110:
 667 0bb0 0A562054 		.ascii	"\012V Tail Angle Received....\012\000"
 667      61696C20 
 667      416E676C 
 667      65205265 
 667      63656976 
 668              		.align	2
 669              	.LC111:
 670 0bcc 0A50574D 		.ascii	"\012PWM Update Rates Received....\012\000"
 670      20557064 
 670      61746520 
 670      52617465 
 670      73205265 
 671              		.align	2
 672              	.LC112:
 673 0bec 0A524320 		.ascii	"\012RC Control Points Received....\012\000"
 673      436F6E74 
 673      726F6C20 
 673      506F696E 
 673      74732052 
 674 0c0d 000000   		.align	2
 675              	.LC113:
 676 0c10 0A47696D 		.ascii	"\012Gimbal Roll Servo Parameters Received....\012\000"
 676      62616C20 
 676      526F6C6C 
 676      20536572 
 676      766F2050 
 677              		.align	2
 678              	.LC114:
 679 0c3c 0A47696D 		.ascii	"\012Gimbal Pitch Servo Parameters Received....\012\000"
 679      62616C20 
 679      50697463 
 679      68205365 
 679      72766F20 
 680 0c69 000000   		.align	2
 681              	.LC115:
 682 0c6c 0A426943 		.ascii	"\012BiCopter Left Servo Parameters Received....\012"
 682      6F707465 
 682      72204C65 
 682      66742053 
 682      6572766F 
 683 0c99 00       		.ascii	"\000"
 684 0c9a 0000     		.align	2
 685              	.LC116:
 686 0c9c 0A426943 		.ascii	"\012BiCopter Right Servo Parameters Received....\012"
 686      6F707465 
 686      72205269 
 686      67687420 
 686      53657276 
 687 0cca 00       		.ascii	"\000"
 688 0ccb 00       		.align	2
 689              	.LC117:
 690 0ccc 0A547269 		.ascii	"\012TriCopter Yaw Servo Parameters Received....\012"
 690      436F7074 
 690      65722059 
 690      61772053 
 690      6572766F 
 691 0cf9 00       		.ascii	"\000"
 692 0cfa 0000     		.align	2
 693              	.LC118:
 694 0cfc 0A466C79 		.ascii	"\012Flying Wing Servo Directions Received....\012\000"
 694      696E6720 
 694      57696E67 
 694      20536572 
 694      766F2044 
 695              		.align	2
 696              	.LC119:
 697 0d28 0A466C79 		.ascii	"\012Flying Wing Servo Limits Received....\012\000"
 697      696E6720 
 697      57696E67 
 697      20536572 
 697      766F204C 
 698              		.align	2
 699              	.LC120:
 700 0d50 0A467265 		.ascii	"\012Free Mix Motor Number Received....\012\000"
 700      65204D69 
 700      78204D6F 
 700      746F7220 
 700      4E756D62 
 701 0d75 000000   		.align	2
 702              	.LC121:
 703 0d78 0A467265 		.ascii	"\012Free Mix Value Received....\012\000"
 703      65204D69 
 703      78205661 
 703      6C756520 
 703      52656365 
 704 0d96 0000     		.align	2
 705              	.LC122:
 706 0d98 0A416363 		.ascii	"\012Accel Cutoff Received....\012\000"
 706      656C2043 
 706      75746F66 
 706      66205265 
 706      63656976 
 707              		.align	2
 708              	.LC123:
 709 0db4 0A4D5055 		.ascii	"\012MPU6000 DLPF Configuration Received....\012\000"
 709      36303030 
 709      20444C50 
 709      4620436F 
 709      6E666967 
 710 0dde 0000     		.align	2
 711              	.LC124:
 712 0de0 0A6B7041 		.ascii	"\012kpAcc and kiAcc Received....\012\000"
 712      63632061 
 712      6E64206B 
 712      69416363 
 712      20526563 
 713 0dff 00       		.align	2
 714              	.LC125:
 715 0e00 0A6B704D 		.ascii	"\012kpMag and kiMag Received....\012\000"
 715      61672061 
 715      6E64206B 
 715      694D6167 
 715      20526563 
 716 0e1f 00       		.align	2
 717              	.LC126:
 718 0e20 0A436F6D 		.ascii	"\012Comp Filter A and Comp Filter B Received....\012"
 718      70204669 
 718      6C746572 
 718      20412061 
 718      6E642043 
 719 0e4e 00       		.ascii	"\000"
 720 0e4f 00       		.align	2
 721              	.LC127:
 722 0e50 0A596177 		.ascii	"\012Yaw Direciton Received....\012\000"
 722      20446972 
 722      65636974 
 722      6F6E2052 
 722      65636569 
 723 0e6d 000000   		.align	2
 724              	.LC128:
 725 0e70 0A454550 		.ascii	"\012EEPROM Parameters Reset....\012\000"
 725      524F4D20 
 725      50617261 
 725      6D657465 
 725      72732052 
 726 0e8e 0000     		.align	2
 727              	.LC129:
 728 0e90 0A537973 		.ascii	"\012System Resetting....\012\012\000"
 728      74656D20 
 728      52657365 
 728      7474696E 
 728      672E2E2E 
 729              		.align	2
 730              	.LC130:
 731 0ea8 0A577269 		.ascii	"\012Writing EEPROM Parameters....\012\000"
 731      74696E67 
 731      20454550 
 731      524F4D20 
 731      50617261 
 732              		.align	2
 733              	.LC131:
 734 0ec8 0A537973 		.ascii	"\012System Reseting....\012\012\000"
 734      74656D20 
 734      52657365 
 734      74696E67 
 734      2E2E2E2E 
 735 0edf 00       		.align	2
 736              	.LC132:
 737 0ee0 0A456E74 		.ascii	"\012Entering Bootloader....\012\012\000"
 737      6572696E 
 737      6720426F 
 737      6F746C6F 
 737      61646572 
 738 0efb 00       		.align	2
 739              	.LC133:
 740 0efc 27612720 		.ascii	"'a' Loop Delta Times                       'A' Set "
 740      4C6F6F70 
 740      2044656C 
 740      74612054 
 740      696D6573 
 741 0f2f 526F6C6C 		.ascii	"Roll Rate PID Data               AB;P;I;D;WindupGua"
 741      20526174 
 741      65205049 
 741      44204461 
 741      74612020 
 742 0f62 72640A00 		.ascii	"rd\012\000"
 743 0f66 0000     		.align	2
 744              	.LC134:
 745 0f68 27622720 		.ascii	"'b' Loop Execution Times                   'B' Set "
 745      4C6F6F70 
 745      20457865 
 745      63757469 
 745      6F6E2054 
 746 0f9b 50697463 		.ascii	"Pitch Rate PID Data              BB;P;I;D;WindupGua"
 746      68205261 
 746      74652050 
 746      49442044 
 746      61746120 
 747 0fce 72640A00 		.ascii	"rd\012\000"
 748 0fd2 0000     		.align	2
 749              	.LC135:
 750 0fd4 27632720 		.ascii	"'c' MPU6000 Calibration                    'C' Set "
 750      4D505536 
 750      30303020 
 750      43616C69 
 750      62726174 
 751 1007 59617720 		.ascii	"Yaw Rate PID Data                CB;P;I;D;WindupGua"
 751      52617465 
 751      20504944 
 751      20446174 
 751      61202020 
 752 103a 72640A00 		.ascii	"rd\012\000"
 753 103e 0000     		.align	2
 754              	.LC136:
 755 1040 27642720 		.ascii	"'d' Mag Calibration                        'D' Set "
 755      4D616720 
 755      43616C69 
 755      62726174 
 755      696F6E20 
 756 1073 526F6C6C 		.ascii	"Roll Att PID Data                DB;P;I;D;WindupGua"
 756      20417474 
 756      20504944 
 756      20446174 
 756      61202020 
 757 10a6 72640A00 		.ascii	"rd\012\000"
 758 10aa 0000     		.align	2
 759              	.LC137:
 760 10ac 27652720 		.ascii	"'e' ESC Calibration                        'E' Set "
 760      45534320 
 760      43616C69 
 760      62726174 
 760      696F6E20 
 761 10df 50697463 		.ascii	"Pitch Att PID Data               EB;P;I;D;WindupGua"
 761      68204174 
 761      74205049 
 761      44204461 
 761      74612020 
 762 1112 72640A00 		.ascii	"rd\012\000"
 763 1116 0000     		.align	2
 764              	.LC138:
 765 1118 27662720 		.ascii	"'f' 500 Hz Gyro Data                       'F' Set "
 765      35303020 
 765      487A2047 
 765      79726F20 
 765      44617461 
 766 114b 48646720 		.ascii	"Hdg Hold PID Data                FB;P;I;D;WindupGua"
 766      486F6C64 
 766      20504944 
 766      20446174 
 766      61202020 
 767 117e 72640A00 		.ascii	"rd\012\000"
 768 1182 0000     		.align	2
 769              	.LC139:
 770 1184 27672720 		.ascii	"'g' 500 Hz Accel Data                      'G' Set "
 770      35303020 
 770      487A2041 
 770      6363656C 
 770      20446174 
 771 11b7 416C7420 		.ascii	"Alt Hold PID Data                TBD\012\000"
 771      486F6C64 
 771      20504944 
 771      20446174 
 771      61202020 
 772 11dd 000000   		.align	2
 773              	.LC140:
 774 11e0 27682720 		.ascii	"'h' Earth Axis Accels                      'H' Set "
 774      45617274 
 774      68204178 
 774      69732041 
 774      6363656C 
 775 1213 52582049 		.ascii	"RX Input Type                    HX, 1=Parallel, 2="
 775      6E707574 
 775      20547970 
 775      65202020 
 775      20202020 
 776 1246 53657269 		.ascii	"Serial, 3=Spektrum\012\000"
 776      616C2C20 
 776      333D5370 
 776      656B7472 
 776      756D0A00 
 777 125a 0000     		.align	2
 778              	.LC141:
 779 125c 27692720 		.ascii	"'i' 50 Hz Mag Data                         'I' Set "
 779      35302048 
 779      7A204D61 
 779      67204461 
 779      74612020 
 780 128f 52432043 		.ascii	"RC Control Order                 ITAER1234\012\000"
 780      6F6E7472 
 780      6F6C204F 
 780      72646572 
 780      20202020 
 781 12bb 00       		.align	2
 782              	.LC142:
 783 12bc 276A2720 		.ascii	"'j' Vertical Axis Variables                'J' Set "
 783      56657274 
 783      6963616C 
 783      20417869 
 783      73205661 
 784 12ef 5370656B 		.ascii	"Spektrum Resolution              J0 or J1\012\000"
 784      7472756D 
 784      20526573 
 784      6F6C7574 
 784      696F6E20 
 785 131a 0000     		.align	2
 786              	.LC143:
 787 131c 276B2720 		.ascii	"'k' Euler Angles                           'K' Set "
 787      45756C65 
 787      7220416E 
 787      676C6573 
 787      20202020 
 788 134f 4E756D62 		.ascii	"Number of Spektrum Channels      K6 thru 12\012\000"
 788      6572206F 
 788      66205370 
 788      656B7472 
 788      756D2043 
 789              		.align	2
 790              	.LC144:
 791 137c 276C2720 		.ascii	"'l' Not Used                               'L' Set "
 791      4E6F7420 
 791      55736564 
 791      20202020 
 791      20202020 
 792 13af 4D697865 		.ascii	"Mixer Configuration              L1 thru 21, see aq"
 792      7220436F 
 792      6E666967 
 792      75726174 
 792      696F6E20 
 793 13e2 3332506C 		.ascii	"32Plus.h\012\000"
 793      75732E68 
 793      0A00
 794              		.align	2
 795              	.LC145:
 796 13ec 50726573 		.ascii	"Press space bar for more, or enter a command....\012"
 796      73207370 
 796      61636520 
 796      62617220 
 796      666F7220 
 797 141d 00       		.ascii	"\000"
 798 141e 0000     		.align	2
 799              	.LC146:
 800 1420 276D2720 		.ascii	"'m' Processed Receiver Commands            'M' Set "
 800      50726F63 
 800      65737365 
 800      64205265 
 800      63656976 
 801 1453 56205461 		.ascii	"V Tail Angle                     MAngle\012\000"
 801      696C2041 
 801      6E676C65 
 801      20202020 
 801      20202020 
 802              		.align	2
 803              	.LC147:
 804 147c 276E2720 		.ascii	"'n' Command in Detent Discretes            'N' Set "
 804      436F6D6D 
 804      616E6420 
 804      696E2044 
 804      6574656E 
 805 14af 50574D20 		.ascii	"PWM Rates                        NESC;Servo\012\000"
 805      52617465 
 805      73202020 
 805      20202020 
 805      20202020 
 806              		.align	2
 807              	.LC148:
 808 14dc 276F2720 		.ascii	"'o' ESC PWM Outputs                        'O' Set "
 808      45534320 
 808      50574D20 
 808      4F757470 
 808      75747320 
 809 150f 52432043 		.ascii	"RC Control Points                OMidCmd;minChk;Max"
 809      6F6E7472 
 809      6F6C2050 
 809      6F696E74 
 809      73202020 
 810 1542 43686B3B 		.ascii	"Chk;MinThrot;MaxThrot\012\000"
 810      4D696E54 
 810      68726F74 
 810      3B4D6178 
 810      5468726F 
 811 1559 000000   		.align	2
 812              	.LC149:
 813 155c 27702720 		.ascii	"'p' Servo PWM Outputs                      'P' Set "
 813      53657276 
 813      6F205057 
 813      4D204F75 
 813      74707574 
 814 158f 47696D62 		.ascii	"Gimbal Roll Servo Parameters     PMin;Mid;Max;Gain\012"
 814      616C2052 
 814      6F6C6C20 
 814      53657276 
 814      6F205061 
 815 15c2 00       		.ascii	"\000"
 816 15c3 00       		.align	2
 817              	.LC150:
 818 15c4 27712720 		.ascii	"'q' Rate PIDs                              'Q' Set "
 818      52617465 
 818      20504944 
 818      73202020 
 818      20202020 
 819 15f7 47696D62 		.ascii	"Gimbal Pitch Servo Parameters    QMin;Mid;Max;Gain\012"
 819      616C2050 
 819      69746368 
 819      20536572 
 819      766F2050 
 820 162a 00       		.ascii	"\000"
 821 162b 00       		.align	2
 822              	.LC151:
 823 162c 27722720 		.ascii	"'r' Attitude PIDs                          'R' Set "
 823      41747469 
 823      74756465 
 823      20504944 
 823      73202020 
 824 165f 4269436F 		.ascii	"BiCopter Left Servo Parameters   RMin;Mid;Max\012\000"
 824      70746572 
 824      204C6566 
 824      74205365 
 824      72766F20 
 825 168e 0000     		.align	2
 826              	.LC152:
 827 1690 27732720 		.ascii	"'s' Altitude PIDs (TBD)                    'S' Set "
 827      416C7469 
 827      74756465 
 827      20504944 
 827      73202854 
 828 16c3 4269436F 		.ascii	"BiCopter Right Servo Parameters  SMin;Mid;Max\012\000"
 828      70746572 
 828      20526967 
 828      68742053 
 828      6572766F 
 829 16f2 0000     		.align	2
 830              	.LC153:
 831 16f4 27742720 		.ascii	"'t' Sensor Calibration Data                'T' Set "
 831      53656E73 
 831      6F722043 
 831      616C6962 
 831      72617469 
 832 1727 54726943 		.ascii	"TriCopter Servo Paramters        TMin;Mid;Max\012\000"
 832      6F707465 
 832      72205365 
 832      72766F20 
 832      50617261 
 833 1756 0000     		.align	2
 834              	.LC154:
 835 1758 27752720 		.ascii	"'u' System Configuration Data              'U' Set "
 835      53797374 
 835      656D2043 
 835      6F6E6669 
 835      67757261 
 836 178b 466C7969 		.ascii	"Flying Wing Servo Directions     URollLeft;RollRigh"
 836      6E672057 
 836      696E6720 
 836      53657276 
 836      6F204469 
 837 17be 743B5069 		.ascii	"t;PitchLeft;PitchRight\012\000"
 837      7463684C 
 837      6566743B 
 837      50697463 
 837      68526967 
 838 17d6 0000     		.align	2
 839              	.LC155:
 840 17d8 27762720 		.ascii	"'v' Free Mix Element Display               'V' Set "
 840      46726565 
 840      204D6978 
 840      20456C65 
 840      6D656E74 
 841 180b 466C7969 		.ascii	"Flying Wing Servo Limits         VLeftMin;LeftMax;R"
 841      6E672057 
 841      696E6720 
 841      53657276 
 841      6F204C69 
 842 183e 69676874 		.ascii	"ightMin;RightMax\012\000"
 842      4D696E3B 
 842      52696768 
 842      744D6178 
 842      0A00
 843              		.align	2
 844              	.LC156:
 845 1850 27772720 		.ascii	"'w' Raw Receiver Commands                  'W' Set "
 845      52617720 
 845      52656365 
 845      69766572 
 845      20436F6D 
 846 1883 4E756D62 		.ascii	"Number of FreeMix Motors         WNumber\012\000"
 846      6572206F 
 846      66204672 
 846      65654D69 
 846      78204D6F 
 847 18ad 000000   		.align	2
 848              	.LC157:
 849 18b0 27782720 		.ascii	"'x' Terminate Serial Communication         'X' Set "
 849      5465726D 
 849      696E6174 
 849      65205365 
 849      7269616C 
 850 18e3 46726565 		.ascii	"FreeMix Matrix Element           XRow;Column;Elemen"
 850      4D697820 
 850      4D617472 
 850      69782045 
 850      6C656D65 
 851 1916 740A00   		.ascii	"t\012\000"
 852 1919 000000   		.align	2
 853              	.LC158:
 854 191c 27792720 		.ascii	"'y' Not Used                               'Y' Set "
 854      4E6F7420 
 854      55736564 
 854      20202020 
 854      20202020 
 855 194f 41636365 		.ascii	"Accel Cutoff                     YAccelCutoff\012\000"
 855      6C204375 
 855      746F6666 
 855      20202020 
 855      20202020 
 856 197e 0000     		.align	2
 857              	.LC159:
 858 1980 277A2720 		.ascii	"'z' Not Used                               'Z' Set "
 858      4E6F7420 
 858      55736564 
 858      20202020 
 858      20202020 
 859 19b3 4D505536 		.ascii	"MPU6000 DLPF                     Z0 thru 3, see aq3"
 859      30303020 
 859      444C5046 
 859      20202020 
 859      20202020 
 860 19e6 32506C75 		.ascii	"2Plus.h\012\000"
 860      732E680A 
 860      00
 861 19ef 00       		.align	2
 862              	.LC160:
 863 19f0 27312720 		.ascii	"'1' High Speed Telemetry 1 Enable          '!' Set "
 863      48696768 
 863      20537065 
 863      65642054 
 863      656C656D 
 864 1a23 6B704163 		.ascii	"kpAcc/kiAcc                      !KpAcc;KiAcc\012\000"
 864      632F6B69 
 864      41636320 
 864      20202020 
 864      20202020 
 865 1a52 0000     		.align	2
 866              	.LC161:
 867 1a54 27322720 		.ascii	"'2' High Speed Telemetry 2 Enable          '@' Set "
 867      48696768 
 867      20537065 
 867      65642054 
 867      656C656D 
 868 1a87 6B704D61 		.ascii	"kpMag/kiMag                      @KpMag;KiMag\012\000"
 868      672F6B69 
 868      4D616720 
 868      20202020 
 868      20202020 
 869 1ab6 0000     		.align	2
 870              	.LC162:
 871 1ab8 27332720 		.ascii	"'3' High Speed Telemetry 3 Enable          '#' Set "
 871      48696768 
 871      20537065 
 871      65642054 
 871      656C656D 
 872 1aeb 436F6D70 		.ascii	"Complementary Filter A/B         #A;B\012\000"
 872      6C656D65 
 872      6E746172 
 872      79204669 
 872      6C746572 
 873 1b12 0000     		.align	2
 874              	.LC163:
 875 1b14 27342720 		.ascii	"'4' High Speed Telemetry 4 Enable          '$' Set "
 875      48696768 
 875      20537065 
 875      65642054 
 875      656C656D 
 876 1b47 59617720 		.ascii	"Yaw Direction                    $1 or $-1\012\000"
 876      44697265 
 876      6374696F 
 876      6E202020 
 876      20202020 
 877 1b73 00       		.align	2
 878              	.LC164:
 879 1b74 27352720 		.ascii	"'5' High Speed Telemetry 5 Enable           '%' Not"
 879      48696768 
 879      20537065 
 879      65642054 
 879      656C656D 
 880 1ba7 20557365 		.ascii	" Used\012\000"
 880      640A00
 881 1bae 0000     		.align	2
 882              	.LC165:
 883 1bb0 27362720 		.ascii	"'6' High Speed Telemetry 6 Enable          '^' Rese"
 883      48696768 
 883      20537065 
 883      65642054 
 883      656C656D 
 884 1be3 74204545 		.ascii	"t EEPROM Parameters\012\000"
 884      50524F4D 
 884      20506172 
 884      616D6574 
 884      6572730A 
 885              		.align	2
 886              	.LC166:
 887 1bf8 27372720 		.ascii	"'7' High Speed Telemetry 7 Enable          '&' Writ"
 887      48696768 
 887      20537065 
 887      65642054 
 887      656C656D 
 888 1c2b 65204545 		.ascii	"e EEPROM Parameters\012\000"
 888      50524F4D 
 888      20506172 
 888      616D6574 
 888      6572730A 
 889              		.align	2
 890              	.LC167:
 891 1c40 27382720 		.ascii	"'8' High Speed Telemetry 8 Enable          '*' Rese"
 891      48696768 
 891      20537065 
 891      65642054 
 891      656C656D 
 892 1c73 740A00   		.ascii	"t\012\000"
 893 1c76 0000     		.align	2
 894              	.LC168:
 895 1c78 27392720 		.ascii	"'9' High Speed Telemetry 9 Enable          '(' Rese"
 895      48696768 
 895      20537065 
 895      65642054 
 895      656C656D 
 896 1cab 7420616E 		.ascii	"t and Enter Bootloader\012\000"
 896      6420456E 
 896      74657220 
 896      426F6F74 
 896      6C6F6164 
 897 1cc3 00       		.align	2
 898              	.LC169:
 899 1cc4 27302720 		.ascii	"'0' High Speed Telemetry Disable           ')' Not "
 899      48696768 
 899      20537065 
 899      65642054 
 899      656C656D 
 900 1cf7 55736564 		.ascii	"Used\012\000"
 900      0A00
 901 1cfd 000000   		.align	2
 902              	.LC170:
 903 1d00 20202020 		.ascii	"                                           '?' Comm"
 903      20202020 
 903      20202020 
 903      20202020 
 903      20202020 
 904 1d33 616E6420 		.ascii	"and Summary\012\000"
 904      53756D6D 
 904      6172790A 
 904      00
 905              		.text
 906              		.align	2
 907              		.global	cliCom
 908              		.thumb
 909              		.thumb_func
 911              	cliCom:
 912              		@ args = 0, pretend = 0, frame = 32
 913              		@ frame_needed = 0, uses_anonymous_args = 0
 914 0270 30B5     		push	{r4, r5, lr}
 915 0272 89B0     		sub	sp, sp, #36
 916 0274 FFF7FEFF 		bl	usbAvailable
 917 0278 0346     		mov	r3, r0
 918 027a 002B     		cmp	r3, #0
 919 027c 10D0     		beq	.L18
 920 027e 40F20003 		movw	r3, #:lower16:validCommand
 921 0282 C0F20003 		movt	r3, #:upper16:validCommand
 922 0286 1B78     		ldrb	r3, [r3, #0]
 923 0288 DBB2     		uxtb	r3, r3
 924 028a 002B     		cmp	r3, #0
 925 028c 08D1     		bne	.L18
 926 028e FFF7FEFF 		bl	usbRead
 927 0292 0346     		mov	r3, r0
 928 0294 DAB2     		uxtb	r2, r3
 929 0296 40F20003 		movw	r3, #:lower16:queryType
 930 029a C0F20003 		movt	r3, #:upper16:queryType
 931 029e 1A70     		strb	r2, [r3, #0]
 932              	.L18:
 933 02a0 40F20003 		movw	r3, #:lower16:queryType
 934 02a4 C0F20003 		movt	r3, #:upper16:queryType
 935 02a8 1B78     		ldrb	r3, [r3, #0]
 936 02aa DBB2     		uxtb	r3, r3
 937 02ac A3F12103 		sub	r3, r3, #33
 938 02b0 592B     		cmp	r3, #89
 939 02b2 03F26E82 		bhi	.L17
 940 02b6 01A0     		adr	r0, .L92
 941 02b8 50F823F0 		ldr	pc, [r0, r3, lsl #2]
 942              		.align	2
 943              	.L92:
 944 02bc FF320000 		.word	.L20+1
 945 02c0 93370000 		.word	.L17+1
 946 02c4 77330000 		.word	.L21+1
 947 02c8 B7330000 		.word	.L22+1
 948 02cc 07340000 		.word	.L23+1
 949 02d0 49340000 		.word	.L24+1
 950 02d4 93370000 		.word	.L17+1
 951 02d8 95340000 		.word	.L25+1
 952 02dc 93370000 		.word	.L17+1
 953 02e0 77340000 		.word	.L26+1
 954 02e4 93370000 		.word	.L17+1
 955 02e8 93370000 		.word	.L17+1
 956 02ec 93370000 		.word	.L17+1
 957 02f0 93370000 		.word	.L17+1
 958 02f4 93370000 		.word	.L17+1
 959 02f8 CF290000 		.word	.L27+1
 960 02fc 8B280000 		.word	.L28+1
 961 0300 AF280000 		.word	.L29+1
 962 0304 D3280000 		.word	.L30+1
 963 0308 F7280000 		.word	.L31+1
 964 030c 1B290000 		.word	.L32+1
 965 0310 3F290000 		.word	.L33+1
 966 0314 63290000 		.word	.L34+1
 967 0318 87290000 		.word	.L35+1
 968 031c AB290000 		.word	.L36+1
 969 0320 93370000 		.word	.L17+1
 970 0324 93370000 		.word	.L17+1
 971 0328 93370000 		.word	.L17+1
 972 032c 93370000 		.word	.L17+1
 973 0330 93370000 		.word	.L17+1
 974 0334 B3340000 		.word	.L37+1
 975 0338 3B330000 		.word	.L38+1
 976 033c E5290000 		.word	.L39+1
 977 0340 192A0000 		.word	.L40+1
 978 0344 4D2A0000 		.word	.L41+1
 979 0348 812A0000 		.word	.L42+1
 980 034c B52A0000 		.word	.L43+1
 981 0350 E92A0000 		.word	.L44+1
 982 0354 1D2B0000 		.word	.L45+1
 983 0358 3D2B0000 		.word	.L46+1
 984 035c 992B0000 		.word	.L47+1
 985 0360 ED2B0000 		.word	.L48+1
 986 0364 372C0000 		.word	.L49+1
 987 0368 812C0000 		.word	.L50+1
 988 036c CF2C0000 		.word	.L51+1
 989 0370 0D2D0000 		.word	.L52+1
 990 0374 992D0000 		.word	.L53+1
 991 0378 152E0000 		.word	.L54+1
 992 037c 892E0000 		.word	.L55+1
 993 0380 FD2E0000 		.word	.L56+1
 994 0384 5F2F0000 		.word	.L57+1
 995 0388 BF2F0000 		.word	.L58+1
 996 038c 1F300000 		.word	.L59+1
 997 0390 91300000 		.word	.L60+1
 998 0394 03310000 		.word	.L61+1
 999 0398 4F310000 		.word	.L62+1
 1000 039c D1310000 		.word	.L63+1
 1001 03a0 FD310000 		.word	.L64+1
 1002 03a4 93370000 		.word	.L17+1
 1003 03a8 93370000 		.word	.L17+1
 1004 03ac 93370000 		.word	.L17+1
 1005 03b0 17340000 		.word	.L65+1
 1006 03b4 93370000 		.word	.L17+1
 1007 03b8 93370000 		.word	.L17+1
 1008 03bc 25040000 		.word	.L66+1
 1009 03c0 97050000 		.word	.L67+1
 1010 03c4 09070000 		.word	.L68+1
 1011 03c8 2D070000 		.word	.L69+1
 1012 03cc 51070000 		.word	.L70+1
 1013 03d0 75070000 		.word	.L71+1
 1014 03d4 4B080000 		.word	.L72+1
 1015 03d8 D5080000 		.word	.L73+1
 1016 03dc 5F090000 		.word	.L74+1
 1017 03e0 ED090000 		.word	.L75+1
 1018 03e4 9F0A0000 		.word	.L76+1
 1019 03e8 4D0B0000 		.word	.L77+1
 1020 03ec 6D0B0000 		.word	.L78+1
 1021 03f0 F70B0000 		.word	.L79+1
 1022 03f4 A50C0000 		.word	.L80+1
 1023 03f8 0F0E0000 		.word	.L81+1
 1024 03fc A50E0000 		.word	.L82+1
 1025 0400 6B110000 		.word	.L83+1
 1026 0404 31140000 		.word	.L84+1
 1027 0408 51140000 		.word	.L85+1
 1028 040c 21190000 		.word	.L86+1
 1029 0410 9D250000 		.word	.L87+1
 1030 0414 1B270000 		.word	.L88+1
 1031 0418 55280000 		.word	.L89+1
 1032 041c 67280000 		.word	.L90+1
 1033 0420 79280000 		.word	.L91+1
 1034              	.L66:
 1035 0424 40F20003 		movw	r3, #:lower16:deltaTime1000Hz
 1036 0428 C0F20003 		movt	r3, #:upper16:deltaTime1000Hz
 1037 042c 1B68     		ldr	r3, [r3, #0]
 1038 042e 1846     		mov	r0, r3
 1039 0430 03AB     		add	r3, sp, #12
 1040 0432 1946     		mov	r1, r3
 1041 0434 4FF00A02 		mov	r2, #10
 1042 0438 FFF7FEFF 		bl	itoa
 1043 043c 03AB     		add	r3, sp, #12
 1044 043e 1846     		mov	r0, r3
 1045 0440 FFF7FEFF 		bl	usbPrint
 1046 0444 40F20000 		movw	r0, #:lower16:.LC0
 1047 0448 C0F20000 		movt	r0, #:upper16:.LC0
 1048 044c FFF7FEFF 		bl	usbPrint
 1049 0450 40F20003 		movw	r3, #:lower16:deltaTime500Hz
 1050 0454 C0F20003 		movt	r3, #:upper16:deltaTime500Hz
 1051 0458 1B68     		ldr	r3, [r3, #0]
 1052 045a 1846     		mov	r0, r3
 1053 045c 03AB     		add	r3, sp, #12
 1054 045e 1946     		mov	r1, r3
 1055 0460 4FF00A02 		mov	r2, #10
 1056 0464 FFF7FEFF 		bl	itoa
 1057 0468 03AB     		add	r3, sp, #12
 1058 046a 1846     		mov	r0, r3
 1059 046c FFF7FEFF 		bl	usbPrint
 1060 0470 40F20000 		movw	r0, #:lower16:.LC0
 1061 0474 C0F20000 		movt	r0, #:upper16:.LC0
 1062 0478 FFF7FEFF 		bl	usbPrint
 1063 047c 40F20003 		movw	r3, #:lower16:deltaTime200Hz
 1064 0480 C0F20003 		movt	r3, #:upper16:deltaTime200Hz
 1065 0484 1B68     		ldr	r3, [r3, #0]
 1066 0486 1846     		mov	r0, r3
 1067 0488 03AB     		add	r3, sp, #12
 1068 048a 1946     		mov	r1, r3
 1069 048c 4FF00A02 		mov	r2, #10
 1070 0490 FFF7FEFF 		bl	itoa
 1071 0494 03AB     		add	r3, sp, #12
 1072 0496 1846     		mov	r0, r3
 1073 0498 FFF7FEFF 		bl	usbPrint
 1074 049c 40F20000 		movw	r0, #:lower16:.LC0
 1075 04a0 C0F20000 		movt	r0, #:upper16:.LC0
 1076 04a4 FFF7FEFF 		bl	usbPrint
 1077 04a8 40F20003 		movw	r3, #:lower16:deltaTime100Hz
 1078 04ac C0F20003 		movt	r3, #:upper16:deltaTime100Hz
 1079 04b0 1B68     		ldr	r3, [r3, #0]
 1080 04b2 1846     		mov	r0, r3
 1081 04b4 03AB     		add	r3, sp, #12
 1082 04b6 1946     		mov	r1, r3
 1083 04b8 4FF00A02 		mov	r2, #10
 1084 04bc FFF7FEFF 		bl	itoa
 1085 04c0 03AB     		add	r3, sp, #12
 1086 04c2 1846     		mov	r0, r3
 1087 04c4 FFF7FEFF 		bl	usbPrint
 1088 04c8 40F20000 		movw	r0, #:lower16:.LC0
 1089 04cc C0F20000 		movt	r0, #:upper16:.LC0
 1090 04d0 FFF7FEFF 		bl	usbPrint
 1091 04d4 40F20003 		movw	r3, #:lower16:deltaTime50Hz
 1092 04d8 C0F20003 		movt	r3, #:upper16:deltaTime50Hz
 1093 04dc 1B68     		ldr	r3, [r3, #0]
 1094 04de 1846     		mov	r0, r3
 1095 04e0 03AB     		add	r3, sp, #12
 1096 04e2 1946     		mov	r1, r3
 1097 04e4 4FF00A02 		mov	r2, #10
 1098 04e8 FFF7FEFF 		bl	itoa
 1099 04ec 03AB     		add	r3, sp, #12
 1100 04ee 1846     		mov	r0, r3
 1101 04f0 FFF7FEFF 		bl	usbPrint
 1102 04f4 40F20000 		movw	r0, #:lower16:.LC0
 1103 04f8 C0F20000 		movt	r0, #:upper16:.LC0
 1104 04fc FFF7FEFF 		bl	usbPrint
 1105 0500 40F20003 		movw	r3, #:lower16:deltaTime10Hz
 1106 0504 C0F20003 		movt	r3, #:upper16:deltaTime10Hz
 1107 0508 1B68     		ldr	r3, [r3, #0]
 1108 050a 1846     		mov	r0, r3
 1109 050c 03AB     		add	r3, sp, #12
 1110 050e 1946     		mov	r1, r3
 1111 0510 4FF00A02 		mov	r2, #10
 1112 0514 FFF7FEFF 		bl	itoa
 1113 0518 03AB     		add	r3, sp, #12
 1114 051a 1846     		mov	r0, r3
 1115 051c FFF7FEFF 		bl	usbPrint
 1116 0520 40F20000 		movw	r0, #:lower16:.LC0
 1117 0524 C0F20000 		movt	r0, #:upper16:.LC0
 1118 0528 FFF7FEFF 		bl	usbPrint
 1119 052c 40F20003 		movw	r3, #:lower16:deltaTime5Hz
 1120 0530 C0F20003 		movt	r3, #:upper16:deltaTime5Hz
 1121 0534 1B68     		ldr	r3, [r3, #0]
 1122 0536 1846     		mov	r0, r3
 1123 0538 03AB     		add	r3, sp, #12
 1124 053a 1946     		mov	r1, r3
 1125 053c 4FF00A02 		mov	r2, #10
 1126 0540 FFF7FEFF 		bl	itoa
 1127 0544 03AB     		add	r3, sp, #12
 1128 0546 1846     		mov	r0, r3
 1129 0548 FFF7FEFF 		bl	usbPrint
 1130 054c 40F20000 		movw	r0, #:lower16:.LC0
 1131 0550 C0F20000 		movt	r0, #:upper16:.LC0
 1132 0554 FFF7FEFF 		bl	usbPrint
 1133 0558 40F20003 		movw	r3, #:lower16:deltaTime1Hz
 1134 055c C0F20003 		movt	r3, #:upper16:deltaTime1Hz
 1135 0560 1B68     		ldr	r3, [r3, #0]
 1136 0562 1846     		mov	r0, r3
 1137 0564 03AB     		add	r3, sp, #12
 1138 0566 1946     		mov	r1, r3
 1139 0568 4FF00A02 		mov	r2, #10
 1140 056c FFF7FEFF 		bl	itoa
 1141 0570 03AB     		add	r3, sp, #12
 1142 0572 1846     		mov	r0, r3
 1143 0574 FFF7FEFF 		bl	usbPrint
 1144 0578 40F20000 		movw	r0, #:lower16:.LC1
 1145 057c C0F20000 		movt	r0, #:upper16:.LC1
 1146 0580 FFF7FEFF 		bl	usbPrint
 1147 0584 40F20003 		movw	r3, #:lower16:validCommand
 1148 0588 C0F20003 		movt	r3, #:upper16:validCommand
 1149 058c 4FF00002 		mov	r2, #0
 1150 0590 1A70     		strb	r2, [r3, #0]
 1151 0592 03F0FEB8 		b	.L17
 1152              	.L67:
 1153 0596 40F20003 		movw	r3, #:lower16:executionTime1000Hz
 1154 059a C0F20003 		movt	r3, #:upper16:executionTime1000Hz
 1155 059e 1B68     		ldr	r3, [r3, #0]
 1156 05a0 1846     		mov	r0, r3
 1157 05a2 03AB     		add	r3, sp, #12
 1158 05a4 1946     		mov	r1, r3
 1159 05a6 4FF00A02 		mov	r2, #10
 1160 05aa FFF7FEFF 		bl	itoa
 1161 05ae 03AB     		add	r3, sp, #12
 1162 05b0 1846     		mov	r0, r3
 1163 05b2 FFF7FEFF 		bl	usbPrint
 1164 05b6 40F20000 		movw	r0, #:lower16:.LC0
 1165 05ba C0F20000 		movt	r0, #:upper16:.LC0
 1166 05be FFF7FEFF 		bl	usbPrint
 1167 05c2 40F20003 		movw	r3, #:lower16:executionTime500Hz
 1168 05c6 C0F20003 		movt	r3, #:upper16:executionTime500Hz
 1169 05ca 1B68     		ldr	r3, [r3, #0]
 1170 05cc 1846     		mov	r0, r3
 1171 05ce 03AB     		add	r3, sp, #12
 1172 05d0 1946     		mov	r1, r3
 1173 05d2 4FF00A02 		mov	r2, #10
 1174 05d6 FFF7FEFF 		bl	itoa
 1175 05da 03AB     		add	r3, sp, #12
 1176 05dc 1846     		mov	r0, r3
 1177 05de FFF7FEFF 		bl	usbPrint
 1178 05e2 40F20000 		movw	r0, #:lower16:.LC0
 1179 05e6 C0F20000 		movt	r0, #:upper16:.LC0
 1180 05ea FFF7FEFF 		bl	usbPrint
 1181 05ee 40F20003 		movw	r3, #:lower16:executionTime200Hz
 1182 05f2 C0F20003 		movt	r3, #:upper16:executionTime200Hz
 1183 05f6 1B68     		ldr	r3, [r3, #0]
 1184 05f8 1846     		mov	r0, r3
 1185 05fa 03AB     		add	r3, sp, #12
 1186 05fc 1946     		mov	r1, r3
 1187 05fe 4FF00A02 		mov	r2, #10
 1188 0602 FFF7FEFF 		bl	itoa
 1189 0606 03AB     		add	r3, sp, #12
 1190 0608 1846     		mov	r0, r3
 1191 060a FFF7FEFF 		bl	usbPrint
 1192 060e 40F20000 		movw	r0, #:lower16:.LC0
 1193 0612 C0F20000 		movt	r0, #:upper16:.LC0
 1194 0616 FFF7FEFF 		bl	usbPrint
 1195 061a 40F20003 		movw	r3, #:lower16:executionTime100Hz
 1196 061e C0F20003 		movt	r3, #:upper16:executionTime100Hz
 1197 0622 1B68     		ldr	r3, [r3, #0]
 1198 0624 1846     		mov	r0, r3
 1199 0626 03AB     		add	r3, sp, #12
 1200 0628 1946     		mov	r1, r3
 1201 062a 4FF00A02 		mov	r2, #10
 1202 062e FFF7FEFF 		bl	itoa
 1203 0632 03AB     		add	r3, sp, #12
 1204 0634 1846     		mov	r0, r3
 1205 0636 FFF7FEFF 		bl	usbPrint
 1206 063a 40F20000 		movw	r0, #:lower16:.LC0
 1207 063e C0F20000 		movt	r0, #:upper16:.LC0
 1208 0642 FFF7FEFF 		bl	usbPrint
 1209 0646 40F20003 		movw	r3, #:lower16:executionTime50Hz
 1210 064a C0F20003 		movt	r3, #:upper16:executionTime50Hz
 1211 064e 1B68     		ldr	r3, [r3, #0]
 1212 0650 1846     		mov	r0, r3
 1213 0652 03AB     		add	r3, sp, #12
 1214 0654 1946     		mov	r1, r3
 1215 0656 4FF00A02 		mov	r2, #10
 1216 065a FFF7FEFF 		bl	itoa
 1217 065e 03AB     		add	r3, sp, #12
 1218 0660 1846     		mov	r0, r3
 1219 0662 FFF7FEFF 		bl	usbPrint
 1220 0666 40F20000 		movw	r0, #:lower16:.LC0
 1221 066a C0F20000 		movt	r0, #:upper16:.LC0
 1222 066e FFF7FEFF 		bl	usbPrint
 1223 0672 40F20003 		movw	r3, #:lower16:executionTime10Hz
 1224 0676 C0F20003 		movt	r3, #:upper16:executionTime10Hz
 1225 067a 1B68     		ldr	r3, [r3, #0]
 1226 067c 1846     		mov	r0, r3
 1227 067e 03AB     		add	r3, sp, #12
 1228 0680 1946     		mov	r1, r3
 1229 0682 4FF00A02 		mov	r2, #10
 1230 0686 FFF7FEFF 		bl	itoa
 1231 068a 03AB     		add	r3, sp, #12
 1232 068c 1846     		mov	r0, r3
 1233 068e FFF7FEFF 		bl	usbPrint
 1234 0692 40F20000 		movw	r0, #:lower16:.LC0
 1235 0696 C0F20000 		movt	r0, #:upper16:.LC0
 1236 069a FFF7FEFF 		bl	usbPrint
 1237 069e 40F20003 		movw	r3, #:lower16:executionTime5Hz
 1238 06a2 C0F20003 		movt	r3, #:upper16:executionTime5Hz
 1239 06a6 1B68     		ldr	r3, [r3, #0]
 1240 06a8 1846     		mov	r0, r3
 1241 06aa 03AB     		add	r3, sp, #12
 1242 06ac 1946     		mov	r1, r3
 1243 06ae 4FF00A02 		mov	r2, #10
 1244 06b2 FFF7FEFF 		bl	itoa
 1245 06b6 03AB     		add	r3, sp, #12
 1246 06b8 1846     		mov	r0, r3
 1247 06ba FFF7FEFF 		bl	usbPrint
 1248 06be 40F20000 		movw	r0, #:lower16:.LC0
 1249 06c2 C0F20000 		movt	r0, #:upper16:.LC0
 1250 06c6 FFF7FEFF 		bl	usbPrint
 1251 06ca 40F20003 		movw	r3, #:lower16:executionTime1Hz
 1252 06ce C0F20003 		movt	r3, #:upper16:executionTime1Hz
 1253 06d2 1B68     		ldr	r3, [r3, #0]
 1254 06d4 1846     		mov	r0, r3
 1255 06d6 03AB     		add	r3, sp, #12
 1256 06d8 1946     		mov	r1, r3
 1257 06da 4FF00A02 		mov	r2, #10
 1258 06de FFF7FEFF 		bl	itoa
 1259 06e2 03AB     		add	r3, sp, #12
 1260 06e4 1846     		mov	r0, r3
 1261 06e6 FFF7FEFF 		bl	usbPrint
 1262 06ea 40F20000 		movw	r0, #:lower16:.LC1
 1263 06ee C0F20000 		movt	r0, #:upper16:.LC1
 1264 06f2 FFF7FEFF 		bl	usbPrint
 1265 06f6 40F20003 		movw	r3, #:lower16:validCommand
 1266 06fa C0F20003 		movt	r3, #:upper16:validCommand
 1267 06fe 4FF00002 		mov	r2, #0
 1268 0702 1A70     		strb	r2, [r3, #0]
 1269 0704 03F045B8 		b	.L17
 1270              	.L68:
 1271 0708 FFF7FEFF 		bl	mpu6000Calibration
 1272 070c 40F20003 		movw	r3, #:lower16:queryType
 1273 0710 C0F20003 		movt	r3, #:upper16:queryType
 1274 0714 4FF07802 		mov	r2, #120
 1275 0718 1A70     		strb	r2, [r3, #0]
 1276 071a 40F20003 		movw	r3, #:lower16:validCommand
 1277 071e C0F20003 		movt	r3, #:upper16:validCommand
 1278 0722 4FF00002 		mov	r2, #0
 1279 0726 1A70     		strb	r2, [r3, #0]
 1280 0728 03F033B8 		b	.L17
 1281              	.L69:
 1282 072c FFF7FEFF 		bl	magCalibration
 1283 0730 40F20003 		movw	r3, #:lower16:queryType
 1284 0734 C0F20003 		movt	r3, #:upper16:queryType
 1285 0738 4FF07802 		mov	r2, #120
 1286 073c 1A70     		strb	r2, [r3, #0]
 1287 073e 40F20003 		movw	r3, #:lower16:validCommand
 1288 0742 C0F20003 		movt	r3, #:upper16:validCommand
 1289 0746 4FF00002 		mov	r2, #0
 1290 074a 1A70     		strb	r2, [r3, #0]
 1291 074c 03F021B8 		b	.L17
 1292              	.L70:
 1293 0750 FFF7FEFF 		bl	escCalibration
 1294 0754 40F20003 		movw	r3, #:lower16:queryType
 1295 0758 C0F20003 		movt	r3, #:upper16:queryType
 1296 075c 4FF07802 		mov	r2, #120
 1297 0760 1A70     		strb	r2, [r3, #0]
 1298 0762 40F20003 		movw	r3, #:lower16:validCommand
 1299 0766 C0F20003 		movt	r3, #:upper16:validCommand
 1300 076a 4FF00002 		mov	r2, #0
 1301 076e 1A70     		strb	r2, [r3, #0]
 1302 0770 03F00FB8 		b	.L17
 1303              	.L71:
 1304 0774 40F20003 		movw	r3, #:lower16:sensors
 1305 0778 C0F20003 		movt	r3, #:upper16:sensors
 1306 077c 93ED097A 		flds	s14, [r3, #36]
 1307 0780 DFED997A 		flds	s15, .L164
 1308 0784 67EE277A 		fmuls	s15, s14, s15
 1309 0788 17EE900A 		fmrs	r0, s15
 1310 078c 03AB     		add	r3, sp, #12
 1311 078e 1946     		mov	r1, r3
 1312 0790 FFF7FEFF 		bl	ftoa
 1313 0794 03AB     		add	r3, sp, #12
 1314 0796 1846     		mov	r0, r3
 1315 0798 FFF7FEFF 		bl	usbPrint
 1316 079c 40F20000 		movw	r0, #:lower16:.LC0
 1317 07a0 C0F20000 		movt	r0, #:upper16:.LC0
 1318 07a4 FFF7FEFF 		bl	usbPrint
 1319 07a8 40F20003 		movw	r3, #:lower16:sensors
 1320 07ac C0F20003 		movt	r3, #:upper16:sensors
 1321 07b0 93ED0A7A 		flds	s14, [r3, #40]
 1322 07b4 DFED8C7A 		flds	s15, .L164
 1323 07b8 67EE277A 		fmuls	s15, s14, s15
 1324 07bc 17EE900A 		fmrs	r0, s15
 1325 07c0 03AB     		add	r3, sp, #12
 1326 07c2 1946     		mov	r1, r3
 1327 07c4 FFF7FEFF 		bl	ftoa
 1328 07c8 03AB     		add	r3, sp, #12
 1329 07ca 1846     		mov	r0, r3
 1330 07cc FFF7FEFF 		bl	usbPrint
 1331 07d0 40F20000 		movw	r0, #:lower16:.LC0
 1332 07d4 C0F20000 		movt	r0, #:upper16:.LC0
 1333 07d8 FFF7FEFF 		bl	usbPrint
 1334 07dc 40F20003 		movw	r3, #:lower16:sensors
 1335 07e0 C0F20003 		movt	r3, #:upper16:sensors
 1336 07e4 93ED0B7A 		flds	s14, [r3, #44]
 1337 07e8 DFED7F7A 		flds	s15, .L164
 1338 07ec 67EE277A 		fmuls	s15, s14, s15
 1339 07f0 17EE900A 		fmrs	r0, s15
 1340 07f4 03AB     		add	r3, sp, #12
 1341 07f6 1946     		mov	r1, r3
 1342 07f8 FFF7FEFF 		bl	ftoa
 1343 07fc 03AB     		add	r3, sp, #12
 1344 07fe 1846     		mov	r0, r3
 1345 0800 FFF7FEFF 		bl	usbPrint
 1346 0804 40F20000 		movw	r0, #:lower16:.LC0
 1347 0808 C0F20000 		movt	r0, #:upper16:.LC0
 1348 080c FFF7FEFF 		bl	usbPrint
 1349 0810 40F20003 		movw	r3, #:lower16:mpu6000Temperature
 1350 0814 C0F20003 		movt	r3, #:upper16:mpu6000Temperature
 1351 0818 1B68     		ldr	r3, [r3, #0]	@ float
 1352 081a 1846     		mov	r0, r3	@ float
 1353 081c 03AB     		add	r3, sp, #12
 1354 081e 1946     		mov	r1, r3
 1355 0820 FFF7FEFF 		bl	ftoa
 1356 0824 03AB     		add	r3, sp, #12
 1357 0826 1846     		mov	r0, r3
 1358 0828 FFF7FEFF 		bl	usbPrint
 1359 082c 40F20000 		movw	r0, #:lower16:.LC1
 1360 0830 C0F20000 		movt	r0, #:upper16:.LC1
 1361 0834 FFF7FEFF 		bl	usbPrint
 1362 0838 40F20003 		movw	r3, #:lower16:validCommand
 1363 083c C0F20003 		movt	r3, #:upper16:validCommand
 1364 0840 4FF00002 		mov	r2, #0
 1365 0844 1A70     		strb	r2, [r3, #0]
 1366 0846 02F0A4BF 		b	.L17
 1367              	.L72:
 1368 084a 40F20003 		movw	r3, #:lower16:sensors
 1369 084e C0F20003 		movt	r3, #:upper16:sensors
 1370 0852 1B68     		ldr	r3, [r3, #0]	@ float
 1371 0854 1846     		mov	r0, r3	@ float
 1372 0856 03AB     		add	r3, sp, #12
 1373 0858 1946     		mov	r1, r3
 1374 085a FFF7FEFF 		bl	ftoa
 1375 085e 03AB     		add	r3, sp, #12
 1376 0860 1846     		mov	r0, r3
 1377 0862 FFF7FEFF 		bl	usbPrint
 1378 0866 40F20000 		movw	r0, #:lower16:.LC0
 1379 086a C0F20000 		movt	r0, #:upper16:.LC0
 1380 086e FFF7FEFF 		bl	usbPrint
 1381 0872 40F20003 		movw	r3, #:lower16:sensors
 1382 0876 C0F20003 		movt	r3, #:upper16:sensors
 1383 087a 5B68     		ldr	r3, [r3, #4]	@ float
 1384 087c 1846     		mov	r0, r3	@ float
 1385 087e 03AB     		add	r3, sp, #12
 1386 0880 1946     		mov	r1, r3
 1387 0882 FFF7FEFF 		bl	ftoa
 1388 0886 03AB     		add	r3, sp, #12
 1389 0888 1846     		mov	r0, r3
 1390 088a FFF7FEFF 		bl	usbPrint
 1391 088e 40F20000 		movw	r0, #:lower16:.LC0
 1392 0892 C0F20000 		movt	r0, #:upper16:.LC0
 1393 0896 FFF7FEFF 		bl	usbPrint
 1394 089a 40F20003 		movw	r3, #:lower16:sensors
 1395 089e C0F20003 		movt	r3, #:upper16:sensors
 1396 08a2 9B68     		ldr	r3, [r3, #8]	@ float
 1397 08a4 1846     		mov	r0, r3	@ float
 1398 08a6 03AB     		add	r3, sp, #12
 1399 08a8 1946     		mov	r1, r3
 1400 08aa FFF7FEFF 		bl	ftoa
 1401 08ae 03AB     		add	r3, sp, #12
 1402 08b0 1846     		mov	r0, r3
 1403 08b2 FFF7FEFF 		bl	usbPrint
 1404 08b6 40F20000 		movw	r0, #:lower16:.LC1
 1405 08ba C0F20000 		movt	r0, #:upper16:.LC1
 1406 08be FFF7FEFF 		bl	usbPrint
 1407 08c2 40F20003 		movw	r3, #:lower16:validCommand
 1408 08c6 C0F20003 		movt	r3, #:upper16:validCommand
 1409 08ca 4FF00002 		mov	r2, #0
 1410 08ce 1A70     		strb	r2, [r3, #0]
 1411 08d0 02F05FBF 		b	.L17
 1412              	.L73:
 1413 08d4 40F20003 		movw	r3, #:lower16:earthAxisAccels
 1414 08d8 C0F20003 		movt	r3, #:upper16:earthAxisAccels
 1415 08dc 1B68     		ldr	r3, [r3, #0]	@ float
 1416 08de 1846     		mov	r0, r3	@ float
 1417 08e0 03AB     		add	r3, sp, #12
 1418 08e2 1946     		mov	r1, r3
 1419 08e4 FFF7FEFF 		bl	ftoa
 1420 08e8 03AB     		add	r3, sp, #12
 1421 08ea 1846     		mov	r0, r3
 1422 08ec FFF7FEFF 		bl	usbPrint
 1423 08f0 40F20000 		movw	r0, #:lower16:.LC0
 1424 08f4 C0F20000 		movt	r0, #:upper16:.LC0
 1425 08f8 FFF7FEFF 		bl	usbPrint
 1426 08fc 40F20003 		movw	r3, #:lower16:earthAxisAccels
 1427 0900 C0F20003 		movt	r3, #:upper16:earthAxisAccels
 1428 0904 5B68     		ldr	r3, [r3, #4]	@ float
 1429 0906 1846     		mov	r0, r3	@ float
 1430 0908 03AB     		add	r3, sp, #12
 1431 090a 1946     		mov	r1, r3
 1432 090c FFF7FEFF 		bl	ftoa
 1433 0910 03AB     		add	r3, sp, #12
 1434 0912 1846     		mov	r0, r3
 1435 0914 FFF7FEFF 		bl	usbPrint
 1436 0918 40F20000 		movw	r0, #:lower16:.LC0
 1437 091c C0F20000 		movt	r0, #:upper16:.LC0
 1438 0920 FFF7FEFF 		bl	usbPrint
 1439 0924 40F20003 		movw	r3, #:lower16:earthAxisAccels
 1440 0928 C0F20003 		movt	r3, #:upper16:earthAxisAccels
 1441 092c 9B68     		ldr	r3, [r3, #8]	@ float
 1442 092e 1846     		mov	r0, r3	@ float
 1443 0930 03AB     		add	r3, sp, #12
 1444 0932 1946     		mov	r1, r3
 1445 0934 FFF7FEFF 		bl	ftoa
 1446 0938 03AB     		add	r3, sp, #12
 1447 093a 1846     		mov	r0, r3
 1448 093c FFF7FEFF 		bl	usbPrint
 1449 0940 40F20000 		movw	r0, #:lower16:.LC1
 1450 0944 C0F20000 		movt	r0, #:upper16:.LC1
 1451 0948 FFF7FEFF 		bl	usbPrint
 1452 094c 40F20003 		movw	r3, #:lower16:validCommand
 1453 0950 C0F20003 		movt	r3, #:upper16:validCommand
 1454 0954 4FF00002 		mov	r2, #0
 1455 0958 1A70     		strb	r2, [r3, #0]
 1456 095a 02F01ABF 		b	.L17
 1457              	.L74:
 1458 095e 40F20003 		movw	r3, #:lower16:sensors
 1459 0962 C0F20003 		movt	r3, #:upper16:sensors
 1460 0966 1B6B     		ldr	r3, [r3, #48]	@ float
 1461 0968 1846     		mov	r0, r3	@ float
 1462 096a 03AB     		add	r3, sp, #12
 1463 096c 1946     		mov	r1, r3
 1464 096e FFF7FEFF 		bl	ftoa
 1465 0972 03AB     		add	r3, sp, #12
 1466 0974 1846     		mov	r0, r3
 1467 0976 FFF7FEFF 		bl	usbPrint
 1468 097a 40F20000 		movw	r0, #:lower16:.LC0
 1469 097e C0F20000 		movt	r0, #:upper16:.LC0
 1470 0982 FFF7FEFF 		bl	usbPrint
 1471 0986 40F20003 		movw	r3, #:lower16:sensors
 1472 098a C0F20003 		movt	r3, #:upper16:sensors
 1473 098e 5B6B     		ldr	r3, [r3, #52]	@ float
 1474 0990 1846     		mov	r0, r3	@ float
 1475 0992 03AB     		add	r3, sp, #12
 1476 0994 1946     		mov	r1, r3
 1477 0996 FFF7FEFF 		bl	ftoa
 1478 099a 03AB     		add	r3, sp, #12
 1479 099c 1846     		mov	r0, r3
 1480 099e FFF7FEFF 		bl	usbPrint
 1481 09a2 40F20000 		movw	r0, #:lower16:.LC0
 1482 09a6 C0F20000 		movt	r0, #:upper16:.LC0
 1483 09aa FFF7FEFF 		bl	usbPrint
 1484 09ae 40F20003 		movw	r3, #:lower16:sensors
 1485 09b2 C0F20003 		movt	r3, #:upper16:sensors
 1486 09b6 9B6B     		ldr	r3, [r3, #56]	@ float
 1487 09b8 1846     		mov	r0, r3	@ float
 1488 09ba 03AB     		add	r3, sp, #12
 1489 09bc 1946     		mov	r1, r3
 1490 09be FFF7FEFF 		bl	ftoa
 1491 09c2 03AB     		add	r3, sp, #12
 1492 09c4 1846     		mov	r0, r3
 1493 09c6 FFF7FEFF 		bl	usbPrint
 1494 09ca 40F20000 		movw	r0, #:lower16:.LC1
 1495 09ce C0F20000 		movt	r0, #:upper16:.LC1
 1496 09d2 FFF7FEFF 		bl	usbPrint
 1497 09d6 40F20003 		movw	r3, #:lower16:validCommand
 1498 09da C0F20003 		movt	r3, #:upper16:validCommand
 1499 09de 4FF00002 		mov	r2, #0
 1500 09e2 1A70     		strb	r2, [r3, #0]
 1501 09e4 02F0D5BE 		b	.L17
 1502              	.L165:
 1503              		.align	2
 1504              	.L164:
 1505 09e8 33336542 		.word	1113928499
 1506              	.L75:
 1507 09ec 40F20003 		movw	r3, #:lower16:earthAxisAccels
 1508 09f0 C0F20003 		movt	r3, #:upper16:earthAxisAccels
 1509 09f4 9B68     		ldr	r3, [r3, #8]	@ float
 1510 09f6 1846     		mov	r0, r3	@ float
 1511 09f8 03AB     		add	r3, sp, #12
 1512 09fa 1946     		mov	r1, r3
 1513 09fc FFF7FEFF 		bl	ftoa
 1514 0a00 03AB     		add	r3, sp, #12
 1515 0a02 1846     		mov	r0, r3
 1516 0a04 FFF7FEFF 		bl	usbPrint
 1517 0a08 40F20000 		movw	r0, #:lower16:.LC0
 1518 0a0c C0F20000 		movt	r0, #:upper16:.LC0
 1519 0a10 FFF7FEFF 		bl	usbPrint
 1520 0a14 40F20003 		movw	r3, #:lower16:sensors
 1521 0a18 C0F20003 		movt	r3, #:upper16:sensors
 1522 0a1c DB6B     		ldr	r3, [r3, #60]	@ float
 1523 0a1e 1846     		mov	r0, r3	@ float
 1524 0a20 03AB     		add	r3, sp, #12
 1525 0a22 1946     		mov	r1, r3
 1526 0a24 FFF7FEFF 		bl	ftoa
 1527 0a28 03AB     		add	r3, sp, #12
 1528 0a2a 1846     		mov	r0, r3
 1529 0a2c FFF7FEFF 		bl	usbPrint
 1530 0a30 40F20000 		movw	r0, #:lower16:.LC0
 1531 0a34 C0F20000 		movt	r0, #:upper16:.LC0
 1532 0a38 FFF7FEFF 		bl	usbPrint
 1533 0a3c 40F20003 		movw	r3, #:lower16:hDotEstimate
 1534 0a40 C0F20003 		movt	r3, #:upper16:hDotEstimate
 1535 0a44 1B68     		ldr	r3, [r3, #0]	@ float
 1536 0a46 1846     		mov	r0, r3	@ float
 1537 0a48 03AB     		add	r3, sp, #12
 1538 0a4a 1946     		mov	r1, r3
 1539 0a4c FFF7FEFF 		bl	ftoa
 1540 0a50 03AB     		add	r3, sp, #12
 1541 0a52 1846     		mov	r0, r3
 1542 0a54 FFF7FEFF 		bl	usbPrint
 1543 0a58 40F20000 		movw	r0, #:lower16:.LC0
 1544 0a5c C0F20000 		movt	r0, #:upper16:.LC0
 1545 0a60 FFF7FEFF 		bl	usbPrint
 1546 0a64 40F20003 		movw	r3, #:lower16:hEstimate
 1547 0a68 C0F20003 		movt	r3, #:upper16:hEstimate
 1548 0a6c 1B68     		ldr	r3, [r3, #0]	@ float
 1549 0a6e 1846     		mov	r0, r3	@ float
 1550 0a70 03AB     		add	r3, sp, #12
 1551 0a72 1946     		mov	r1, r3
 1552 0a74 FFF7FEFF 		bl	ftoa
 1553 0a78 03AB     		add	r3, sp, #12
 1554 0a7a 1846     		mov	r0, r3
 1555 0a7c FFF7FEFF 		bl	usbPrint
 1556 0a80 40F20000 		movw	r0, #:lower16:.LC1
 1557 0a84 C0F20000 		movt	r0, #:upper16:.LC1
 1558 0a88 FFF7FEFF 		bl	usbPrint
 1559 0a8c 40F20003 		movw	r3, #:lower16:validCommand
 1560 0a90 C0F20003 		movt	r3, #:upper16:validCommand
 1561 0a94 4FF00002 		mov	r2, #0
 1562 0a98 1A70     		strb	r2, [r3, #0]
 1563 0a9a 02F07ABE 		b	.L17
 1564              	.L76:
 1565 0a9e 40F20003 		movw	r3, #:lower16:sensors
 1566 0aa2 C0F20003 		movt	r3, #:upper16:sensors
 1567 0aa6 93ED067A 		flds	s14, [r3, #24]
 1568 0aaa 5FED317A 		flds	s15, .L164
 1569 0aae 67EE277A 		fmuls	s15, s14, s15
 1570 0ab2 17EE900A 		fmrs	r0, s15
 1571 0ab6 03AB     		add	r3, sp, #12
 1572 0ab8 1946     		mov	r1, r3
 1573 0aba FFF7FEFF 		bl	ftoa
 1574 0abe 03AB     		add	r3, sp, #12
 1575 0ac0 1846     		mov	r0, r3
 1576 0ac2 FFF7FEFF 		bl	usbPrint
 1577 0ac6 40F20000 		movw	r0, #:lower16:.LC0
 1578 0aca C0F20000 		movt	r0, #:upper16:.LC0
 1579 0ace FFF7FEFF 		bl	usbPrint
 1580 0ad2 40F20003 		movw	r3, #:lower16:sensors
 1581 0ad6 C0F20003 		movt	r3, #:upper16:sensors
 1582 0ada 93ED077A 		flds	s14, [r3, #28]
 1583 0ade 5FED3E7A 		flds	s15, .L164
 1584 0ae2 67EE277A 		fmuls	s15, s14, s15
 1585 0ae6 17EE900A 		fmrs	r0, s15
 1586 0aea 03AB     		add	r3, sp, #12
 1587 0aec 1946     		mov	r1, r3
 1588 0aee FFF7FEFF 		bl	ftoa
 1589 0af2 03AB     		add	r3, sp, #12
 1590 0af4 1846     		mov	r0, r3
 1591 0af6 FFF7FEFF 		bl	usbPrint
 1592 0afa 40F20000 		movw	r0, #:lower16:.LC0
 1593 0afe C0F20000 		movt	r0, #:upper16:.LC0
 1594 0b02 FFF7FEFF 		bl	usbPrint
 1595 0b06 40F20003 		movw	r3, #:lower16:sensors
 1596 0b0a C0F20003 		movt	r3, #:upper16:sensors
 1597 0b0e 93ED087A 		flds	s14, [r3, #32]
 1598 0b12 5FED4B7A 		flds	s15, .L164
 1599 0b16 67EE277A 		fmuls	s15, s14, s15
 1600 0b1a 17EE900A 		fmrs	r0, s15
 1601 0b1e 03AB     		add	r3, sp, #12
 1602 0b20 1946     		mov	r1, r3
 1603 0b22 FFF7FEFF 		bl	ftoa
 1604 0b26 03AB     		add	r3, sp, #12
 1605 0b28 1846     		mov	r0, r3
 1606 0b2a FFF7FEFF 		bl	usbPrint
 1607 0b2e 40F20000 		movw	r0, #:lower16:.LC1
 1608 0b32 C0F20000 		movt	r0, #:upper16:.LC1
 1609 0b36 FFF7FEFF 		bl	usbPrint
 1610 0b3a 40F20003 		movw	r3, #:lower16:validCommand
 1611 0b3e C0F20003 		movt	r3, #:upper16:validCommand
 1612 0b42 4FF00002 		mov	r2, #0
 1613 0b46 1A70     		strb	r2, [r3, #0]
 1614 0b48 02F023BE 		b	.L17
 1615              	.L77:
 1616 0b4c 40F20003 		movw	r3, #:lower16:queryType
 1617 0b50 C0F20003 		movt	r3, #:upper16:queryType
 1618 0b54 4FF07802 		mov	r2, #120
 1619 0b58 1A70     		strb	r2, [r3, #0]
 1620 0b5a 40F20003 		movw	r3, #:lower16:validCommand
 1621 0b5e C0F20003 		movt	r3, #:upper16:validCommand
 1622 0b62 4FF00002 		mov	r2, #0
 1623 0b66 1A70     		strb	r2, [r3, #0]
 1624 0b68 02F013BE 		b	.L17
 1625              	.L78:
 1626 0b6c 4FF00003 		mov	r3, #0
 1627 0b70 8DF81B30 		strb	r3, [sp, #27]
 1628 0b74 1EE0     		b	.L93
 1629              	.L94:
 1630 0b76 9DF81B20 		ldrb	r2, [sp, #27]	@ zero_extendqisi2
 1631 0b7a 40F20003 		movw	r3, #:lower16:rxCommand
 1632 0b7e C0F20003 		movt	r3, #:upper16:rxCommand
 1633 0b82 4FEA8202 		lsl	r2, r2, #2
 1634 0b86 9B18     		adds	r3, r3, r2
 1635 0b88 1B68     		ldr	r3, [r3, #0]	@ float
 1636 0b8a 1846     		mov	r0, r3	@ float
 1637 0b8c 03AB     		add	r3, sp, #12
 1638 0b8e 1946     		mov	r1, r3
 1639 0b90 FFF7FEFF 		bl	ftoa
 1640 0b94 03AB     		add	r3, sp, #12
 1641 0b96 1846     		mov	r0, r3
 1642 0b98 FFF7FEFF 		bl	usbPrint
 1643 0b9c 40F20000 		movw	r0, #:lower16:.LC0
 1644 0ba0 C0F20000 		movt	r0, #:upper16:.LC0
 1645 0ba4 FFF7FEFF 		bl	usbPrint
 1646 0ba8 9DF81B30 		ldrb	r3, [sp, #27]
 1647 0bac 03F10103 		add	r3, r3, #1
 1648 0bb0 8DF81B30 		strb	r3, [sp, #27]
 1649              	.L93:
 1650 0bb4 9DF81B30 		ldrb	r3, [sp, #27]	@ zero_extendqisi2
 1651 0bb8 062B     		cmp	r3, #6
 1652 0bba DCD9     		bls	.L94
 1653 0bbc 40F20003 		movw	r3, #:lower16:rxCommand
 1654 0bc0 C0F20003 		movt	r3, #:upper16:rxCommand
 1655 0bc4 DB69     		ldr	r3, [r3, #28]	@ float
 1656 0bc6 1846     		mov	r0, r3	@ float
 1657 0bc8 03AB     		add	r3, sp, #12
 1658 0bca 1946     		mov	r1, r3
 1659 0bcc FFF7FEFF 		bl	ftoa
 1660 0bd0 03AB     		add	r3, sp, #12
 1661 0bd2 1846     		mov	r0, r3
 1662 0bd4 FFF7FEFF 		bl	usbPrint
 1663 0bd8 40F20000 		movw	r0, #:lower16:.LC1
 1664 0bdc C0F20000 		movt	r0, #:upper16:.LC1
 1665 0be0 FFF7FEFF 		bl	usbPrint
 1666 0be4 40F20003 		movw	r3, #:lower16:validCommand
 1667 0be8 C0F20003 		movt	r3, #:upper16:validCommand
 1668 0bec 4FF00002 		mov	r2, #0
 1669 0bf0 1A70     		strb	r2, [r3, #0]
 1670 0bf2 02F0CEBD 		b	.L17
 1671              	.L79:
 1672 0bf6 40F20003 		movw	r3, #:lower16:commandInDetent
 1673 0bfa C0F20003 		movt	r3, #:upper16:commandInDetent
 1674 0bfe 1B78     		ldrb	r3, [r3, #0]	@ zero_extendqisi2
 1675 0c00 012B     		cmp	r3, #1
 1676 0c02 06D1     		bne	.L95
 1677 0c04 40F20000 		movw	r0, #:lower16:.LC2
 1678 0c08 C0F20000 		movt	r0, #:upper16:.LC2
 1679 0c0c FFF7FEFF 		bl	usbPrint
 1680 0c10 05E0     		b	.L96
 1681              	.L95:
 1682 0c12 40F20000 		movw	r0, #:lower16:.LC3
 1683 0c16 C0F20000 		movt	r0, #:upper16:.LC3
 1684 0c1a FFF7FEFF 		bl	usbPrint
 1685              	.L96:
 1686 0c1e 40F20000 		movw	r0, #:lower16:.LC0
 1687 0c22 C0F20000 		movt	r0, #:upper16:.LC0
 1688 0c26 FFF7FEFF 		bl	usbPrint
 1689 0c2a 40F20003 		movw	r3, #:lower16:commandInDetent
 1690 0c2e C0F20003 		movt	r3, #:upper16:commandInDetent
 1691 0c32 5B78     		ldrb	r3, [r3, #1]	@ zero_extendqisi2
 1692 0c34 012B     		cmp	r3, #1
 1693 0c36 06D1     		bne	.L97
 1694 0c38 40F20000 		movw	r0, #:lower16:.LC2
 1695 0c3c C0F20000 		movt	r0, #:upper16:.LC2
 1696 0c40 FFF7FEFF 		bl	usbPrint
 1697 0c44 05E0     		b	.L98
 1698              	.L97:
 1699 0c46 40F20000 		movw	r0, #:lower16:.LC3
 1700 0c4a C0F20000 		movt	r0, #:upper16:.LC3
 1701 0c4e FFF7FEFF 		bl	usbPrint
 1702              	.L98:
 1703 0c52 40F20000 		movw	r0, #:lower16:.LC0
 1704 0c56 C0F20000 		movt	r0, #:upper16:.LC0
 1705 0c5a FFF7FEFF 		bl	usbPrint
 1706 0c5e 40F20003 		movw	r3, #:lower16:commandInDetent
 1707 0c62 C0F20003 		movt	r3, #:upper16:commandInDetent
 1708 0c66 9B78     		ldrb	r3, [r3, #2]	@ zero_extendqisi2
 1709 0c68 012B     		cmp	r3, #1
 1710 0c6a 06D1     		bne	.L99
 1711 0c6c 40F20000 		movw	r0, #:lower16:.LC2
 1712 0c70 C0F20000 		movt	r0, #:upper16:.LC2
 1713 0c74 FFF7FEFF 		bl	usbPrint
 1714 0c78 05E0     		b	.L100
 1715              	.L99:
 1716 0c7a 40F20000 		movw	r0, #:lower16:.LC3
 1717 0c7e C0F20000 		movt	r0, #:upper16:.LC3
 1718 0c82 FFF7FEFF 		bl	usbPrint
 1719              	.L100:
 1720 0c86 40F20000 		movw	r0, #:lower16:.LC1
 1721 0c8a C0F20000 		movt	r0, #:upper16:.LC1
 1722 0c8e FFF7FEFF 		bl	usbPrint
 1723 0c92 40F20003 		movw	r3, #:lower16:validCommand
 1724 0c96 C0F20003 		movt	r3, #:upper16:validCommand
 1725 0c9a 4FF00002 		mov	r2, #0
 1726 0c9e 1A70     		strb	r2, [r3, #0]
 1727 0ca0 02F077BD 		b	.L17
 1728              	.L80:
 1729 0ca4 4FF48063 		mov	r3, #1024
 1730 0ca8 C4F20103 		movt	r3, 16385
 1731 0cac 1B6C     		ldr	r3, [r3, #64]
 1732 0cae 1846     		mov	r0, r3
 1733 0cb0 03AB     		add	r3, sp, #12
 1734 0cb2 1946     		mov	r1, r3
 1735 0cb4 4FF00A02 		mov	r2, #10
 1736 0cb8 FFF7FEFF 		bl	itoa
 1737 0cbc 03AB     		add	r3, sp, #12
 1738 0cbe 1846     		mov	r0, r3
 1739 0cc0 FFF7FEFF 		bl	usbPrint
 1740 0cc4 40F20000 		movw	r0, #:lower16:.LC0
 1741 0cc8 C0F20000 		movt	r0, #:upper16:.LC0
 1742 0ccc FFF7FEFF 		bl	usbPrint
 1743 0cd0 4FF48063 		mov	r3, #1024
 1744 0cd4 C4F20103 		movt	r3, 16385
 1745 0cd8 DB6B     		ldr	r3, [r3, #60]
 1746 0cda 1846     		mov	r0, r3
 1747 0cdc 03AB     		add	r3, sp, #12
 1748 0cde 1946     		mov	r1, r3
 1749 0ce0 4FF00A02 		mov	r2, #10
 1750 0ce4 FFF7FEFF 		bl	itoa
 1751 0ce8 03AB     		add	r3, sp, #12
 1752 0cea 1846     		mov	r0, r3
 1753 0cec FFF7FEFF 		bl	usbPrint
 1754 0cf0 40F20000 		movw	r0, #:lower16:.LC0
 1755 0cf4 C0F20000 		movt	r0, #:upper16:.LC0
 1756 0cf8 FFF7FEFF 		bl	usbPrint
 1757 0cfc 4FF48063 		mov	r3, #1024
 1758 0d00 C4F20103 		movt	r3, 16385
 1759 0d04 9B6B     		ldr	r3, [r3, #56]
 1760 0d06 1846     		mov	r0, r3
 1761 0d08 03AB     		add	r3, sp, #12
 1762 0d0a 1946     		mov	r1, r3
 1763 0d0c 4FF00A02 		mov	r2, #10
 1764 0d10 FFF7FEFF 		bl	itoa
 1765 0d14 03AB     		add	r3, sp, #12
 1766 0d16 1846     		mov	r0, r3
 1767 0d18 FFF7FEFF 		bl	usbPrint
 1768 0d1c 40F20000 		movw	r0, #:lower16:.LC0
 1769 0d20 C0F20000 		movt	r0, #:upper16:.LC0
 1770 0d24 FFF7FEFF 		bl	usbPrint
 1771 0d28 4FF48063 		mov	r3, #1024
 1772 0d2c C4F20103 		movt	r3, 16385
 1773 0d30 5B6B     		ldr	r3, [r3, #52]
 1774 0d32 1846     		mov	r0, r3
 1775 0d34 03AB     		add	r3, sp, #12
 1776 0d36 1946     		mov	r1, r3
 1777 0d38 4FF00A02 		mov	r2, #10
 1778 0d3c FFF7FEFF 		bl	itoa
 1779 0d40 03AB     		add	r3, sp, #12
 1780 0d42 1846     		mov	r0, r3
 1781 0d44 FFF7FEFF 		bl	usbPrint
 1782 0d48 40F20000 		movw	r0, #:lower16:.LC0
 1783 0d4c C0F20000 		movt	r0, #:upper16:.LC0
 1784 0d50 FFF7FEFF 		bl	usbPrint
 1785 0d54 4FF08043 		mov	r3, #1073741824
 1786 0d58 9B6B     		ldr	r3, [r3, #56]
 1787 0d5a 1846     		mov	r0, r3
 1788 0d5c 03AB     		add	r3, sp, #12
 1789 0d5e 1946     		mov	r1, r3
 1790 0d60 4FF00A02 		mov	r2, #10
 1791 0d64 FFF7FEFF 		bl	itoa
 1792 0d68 03AB     		add	r3, sp, #12
 1793 0d6a 1846     		mov	r0, r3
 1794 0d6c FFF7FEFF 		bl	usbPrint
 1795 0d70 40F20000 		movw	r0, #:lower16:.LC0
 1796 0d74 C0F20000 		movt	r0, #:upper16:.LC0
 1797 0d78 FFF7FEFF 		bl	usbPrint
 1798 0d7c 4FF48063 		mov	r3, #1024
 1799 0d80 C4F20003 		movt	r3, 16384
 1800 0d84 5B6B     		ldr	r3, [r3, #52]
 1801 0d86 1846     		mov	r0, r3
 1802 0d88 03AB     		add	r3, sp, #12
 1803 0d8a 1946     		mov	r1, r3
 1804 0d8c 4FF00A02 		mov	r2, #10
 1805 0d90 FFF7FEFF 		bl	itoa
 1806 0d94 03AB     		add	r3, sp, #12
 1807 0d96 1846     		mov	r0, r3
 1808 0d98 FFF7FEFF 		bl	usbPrint
 1809 0d9c 40F20000 		movw	r0, #:lower16:.LC0
 1810 0da0 C0F20000 		movt	r0, #:upper16:.LC0
 1811 0da4 FFF7FEFF 		bl	usbPrint
 1812 0da8 4FF48063 		mov	r3, #1024
 1813 0dac C4F20003 		movt	r3, 16384
 1814 0db0 9B6B     		ldr	r3, [r3, #56]
 1815 0db2 1846     		mov	r0, r3
 1816 0db4 03AB     		add	r3, sp, #12
 1817 0db6 1946     		mov	r1, r3
 1818 0db8 4FF00A02 		mov	r2, #10
 1819 0dbc FFF7FEFF 		bl	itoa
 1820 0dc0 03AB     		add	r3, sp, #12
 1821 0dc2 1846     		mov	r0, r3
 1822 0dc4 FFF7FEFF 		bl	usbPrint
 1823 0dc8 40F20000 		movw	r0, #:lower16:.LC0
 1824 0dcc C0F20000 		movt	r0, #:upper16:.LC0
 1825 0dd0 FFF7FEFF 		bl	usbPrint
 1826 0dd4 4FF08043 		mov	r3, #1073741824
 1827 0dd8 5B6B     		ldr	r3, [r3, #52]
 1828 0dda 1846     		mov	r0, r3
 1829 0ddc 03AB     		add	r3, sp, #12
 1830 0dde 1946     		mov	r1, r3
 1831 0de0 4FF00A02 		mov	r2, #10
 1832 0de4 FFF7FEFF 		bl	itoa
 1833 0de8 03AB     		add	r3, sp, #12
 1834 0dea 1846     		mov	r0, r3
 1835 0dec FFF7FEFF 		bl	usbPrint
 1836 0df0 40F20000 		movw	r0, #:lower16:.LC1
 1837 0df4 C0F20000 		movt	r0, #:upper16:.LC1
 1838 0df8 FFF7FEFF 		bl	usbPrint
 1839 0dfc 40F20003 		movw	r3, #:lower16:validCommand
 1840 0e00 C0F20003 		movt	r3, #:upper16:validCommand
 1841 0e04 4FF00002 		mov	r2, #0
 1842 0e08 1A70     		strb	r2, [r3, #0]
 1843 0e0a 02F0C2BC 		b	.L17
 1844              	.L81:
 1845 0e0e 4FF44063 		mov	r3, #3072
 1846 0e12 C4F20003 		movt	r3, 16384
 1847 0e16 DB6B     		ldr	r3, [r3, #60]
 1848 0e18 1846     		mov	r0, r3
 1849 0e1a 03AB     		add	r3, sp, #12
 1850 0e1c 1946     		mov	r1, r3
 1851 0e1e 4FF00A02 		mov	r2, #10
 1852 0e22 FFF7FEFF 		bl	itoa
 1853 0e26 03AB     		add	r3, sp, #12
 1854 0e28 1846     		mov	r0, r3
 1855 0e2a FFF7FEFF 		bl	usbPrint
 1856 0e2e 40F20000 		movw	r0, #:lower16:.LC0
 1857 0e32 C0F20000 		movt	r0, #:upper16:.LC0
 1858 0e36 FFF7FEFF 		bl	usbPrint
 1859 0e3a 4FF44063 		mov	r3, #3072
 1860 0e3e C4F20003 		movt	r3, 16384
 1861 0e42 9B6B     		ldr	r3, [r3, #56]
 1862 0e44 1846     		mov	r0, r3
 1863 0e46 03AB     		add	r3, sp, #12
 1864 0e48 1946     		mov	r1, r3
 1865 0e4a 4FF00A02 		mov	r2, #10
 1866 0e4e FFF7FEFF 		bl	itoa
 1867 0e52 03AB     		add	r3, sp, #12
 1868 0e54 1846     		mov	r0, r3
 1869 0e56 FFF7FEFF 		bl	usbPrint
 1870 0e5a 40F20000 		movw	r0, #:lower16:.LC0
 1871 0e5e C0F20000 		movt	r0, #:upper16:.LC0
 1872 0e62 FFF7FEFF 		bl	usbPrint
 1873 0e66 4FF44063 		mov	r3, #3072
 1874 0e6a C4F20003 		movt	r3, 16384
 1875 0e6e 5B6B     		ldr	r3, [r3, #52]
 1876 0e70 1846     		mov	r0, r3
 1877 0e72 03AB     		add	r3, sp, #12
 1878 0e74 1946     		mov	r1, r3
 1879 0e76 4FF00A02 		mov	r2, #10
 1880 0e7a FFF7FEFF 		bl	itoa
 1881 0e7e 03AB     		add	r3, sp, #12
 1882 0e80 1846     		mov	r0, r3
 1883 0e82 FFF7FEFF 		bl	usbPrint
 1884 0e86 40F20000 		movw	r0, #:lower16:.LC1
 1885 0e8a C0F20000 		movt	r0, #:upper16:.LC1
 1886 0e8e FFF7FEFF 		bl	usbPrint
 1887 0e92 40F20003 		movw	r3, #:lower16:validCommand
 1888 0e96 C0F20003 		movt	r3, #:upper16:validCommand
 1889 0e9a 4FF00002 		mov	r2, #0
 1890 0e9e 1A70     		strb	r2, [r3, #0]
 1891 0ea0 02F077BC 		b	.L17
 1892              	.L82:
 1893 0ea4 40F20000 		movw	r0, #:lower16:.LC1
 1894 0ea8 C0F20000 		movt	r0, #:upper16:.LC1
 1895 0eac FFF7FEFF 		bl	usbPrint
 1896 0eb0 40F20000 		movw	r0, #:lower16:.LC4
 1897 0eb4 C0F20000 		movt	r0, #:upper16:.LC4
 1898 0eb8 FFF7FEFF 		bl	usbPrint
 1899 0ebc 40F20003 		movw	r3, #:lower16:eepromConfig
 1900 0ec0 C0F20003 		movt	r3, #:upper16:eepromConfig
 1901 0ec4 D3F88030 		ldr	r3, [r3, #128]	@ float
 1902 0ec8 1846     		mov	r0, r3	@ float
 1903 0eca 03AB     		add	r3, sp, #12
 1904 0ecc 1946     		mov	r1, r3
 1905 0ece FFF7FEFF 		bl	ftoa
 1906 0ed2 03AB     		add	r3, sp, #12
 1907 0ed4 1846     		mov	r0, r3
 1908 0ed6 FFF7FEFF 		bl	usbPrint
 1909 0eda 40F20000 		movw	r0, #:lower16:.LC0
 1910 0ede C0F20000 		movt	r0, #:upper16:.LC0
 1911 0ee2 FFF7FEFF 		bl	usbPrint
 1912 0ee6 40F20003 		movw	r3, #:lower16:eepromConfig
 1913 0eea C0F20003 		movt	r3, #:upper16:eepromConfig
 1914 0eee D3F88430 		ldr	r3, [r3, #132]	@ float
 1915 0ef2 1846     		mov	r0, r3	@ float
 1916 0ef4 03AB     		add	r3, sp, #12
 1917 0ef6 1946     		mov	r1, r3
 1918 0ef8 FFF7FEFF 		bl	ftoa
 1919 0efc 03AB     		add	r3, sp, #12
 1920 0efe 1846     		mov	r0, r3
 1921 0f00 FFF7FEFF 		bl	usbPrint
 1922 0f04 40F20000 		movw	r0, #:lower16:.LC0
 1923 0f08 C0F20000 		movt	r0, #:upper16:.LC0
 1924 0f0c FFF7FEFF 		bl	usbPrint
 1925 0f10 40F20003 		movw	r3, #:lower16:eepromConfig
 1926 0f14 C0F20003 		movt	r3, #:upper16:eepromConfig
 1927 0f18 D3F88830 		ldr	r3, [r3, #136]	@ float
 1928 0f1c 1846     		mov	r0, r3	@ float
 1929 0f1e 03AB     		add	r3, sp, #12
 1930 0f20 1946     		mov	r1, r3
 1931 0f22 FFF7FEFF 		bl	ftoa
 1932 0f26 03AB     		add	r3, sp, #12
 1933 0f28 1846     		mov	r0, r3
 1934 0f2a FFF7FEFF 		bl	usbPrint
 1935 0f2e 40F20000 		movw	r0, #:lower16:.LC0
 1936 0f32 C0F20000 		movt	r0, #:upper16:.LC0
 1937 0f36 FFF7FEFF 		bl	usbPrint
 1938 0f3a 40F20003 		movw	r3, #:lower16:eepromConfig
 1939 0f3e C0F20003 		movt	r3, #:upper16:eepromConfig
 1940 0f42 D3F88C30 		ldr	r3, [r3, #140]	@ float
 1941 0f46 1846     		mov	r0, r3	@ float
 1942 0f48 03AB     		add	r3, sp, #12
 1943 0f4a 1946     		mov	r1, r3
 1944 0f4c FFF7FEFF 		bl	ftoa
 1945 0f50 03AB     		add	r3, sp, #12
 1946 0f52 1846     		mov	r0, r3
 1947 0f54 FFF7FEFF 		bl	usbPrint
 1948 0f58 40F20000 		movw	r0, #:lower16:.LC0
 1949 0f5c C0F20000 		movt	r0, #:upper16:.LC0
 1950 0f60 FFF7FEFF 		bl	usbPrint
 1951 0f64 40F20003 		movw	r3, #:lower16:eepromConfig
 1952 0f68 C0F20003 		movt	r3, #:upper16:eepromConfig
 1953 0f6c D3F89430 		ldr	r3, [r3, #148]	@ float
 1954 0f70 1846     		mov	r0, r3	@ float
 1955 0f72 03AB     		add	r3, sp, #12
 1956 0f74 1946     		mov	r1, r3
 1957 0f76 FFF7FEFF 		bl	ftoa
 1958 0f7a 03AB     		add	r3, sp, #12
 1959 0f7c 1846     		mov	r0, r3
 1960 0f7e FFF7FEFF 		bl	usbPrint
 1961 0f82 40F20000 		movw	r0, #:lower16:.LC1
 1962 0f86 C0F20000 		movt	r0, #:upper16:.LC1
 1963 0f8a FFF7FEFF 		bl	usbPrint
 1964 0f8e 40F20000 		movw	r0, #:lower16:.LC5
 1965 0f92 C0F20000 		movt	r0, #:upper16:.LC5
 1966 0f96 FFF7FEFF 		bl	usbPrint
 1967 0f9a 40F20003 		movw	r3, #:lower16:eepromConfig
 1968 0f9e C0F20003 		movt	r3, #:upper16:eepromConfig
 1969 0fa2 D3F8A830 		ldr	r3, [r3, #168]	@ float
 1970 0fa6 1846     		mov	r0, r3	@ float
 1971 0fa8 03AB     		add	r3, sp, #12
 1972 0faa 1946     		mov	r1, r3
 1973 0fac FFF7FEFF 		bl	ftoa
 1974 0fb0 03AB     		add	r3, sp, #12
 1975 0fb2 1846     		mov	r0, r3
 1976 0fb4 FFF7FEFF 		bl	usbPrint
 1977 0fb8 40F20000 		movw	r0, #:lower16:.LC0
 1978 0fbc C0F20000 		movt	r0, #:upper16:.LC0
 1979 0fc0 FFF7FEFF 		bl	usbPrint
 1980 0fc4 40F20003 		movw	r3, #:lower16:eepromConfig
 1981 0fc8 C0F20003 		movt	r3, #:upper16:eepromConfig
 1982 0fcc D3F8AC30 		ldr	r3, [r3, #172]	@ float
 1983 0fd0 1846     		mov	r0, r3	@ float
 1984 0fd2 03AB     		add	r3, sp, #12
 1985 0fd4 1946     		mov	r1, r3
 1986 0fd6 FFF7FEFF 		bl	ftoa
 1987 0fda 03AB     		add	r3, sp, #12
 1988 0fdc 1846     		mov	r0, r3
 1989 0fde FFF7FEFF 		bl	usbPrint
 1990 0fe2 40F20000 		movw	r0, #:lower16:.LC0
 1991 0fe6 C0F20000 		movt	r0, #:upper16:.LC0
 1992 0fea FFF7FEFF 		bl	usbPrint
 1993 0fee 40F20003 		movw	r3, #:lower16:eepromConfig
 1994 0ff2 C0F20003 		movt	r3, #:upper16:eepromConfig
 1995 0ff6 D3F8B030 		ldr	r3, [r3, #176]	@ float
 1996 0ffa 1846     		mov	r0, r3	@ float
 1997 0ffc 03AB     		add	r3, sp, #12
 1998 0ffe 1946     		mov	r1, r3
 1999 1000 FFF7FEFF 		bl	ftoa
 2000 1004 03AB     		add	r3, sp, #12
 2001 1006 1846     		mov	r0, r3
 2002 1008 FFF7FEFF 		bl	usbPrint
 2003 100c 40F20000 		movw	r0, #:lower16:.LC0
 2004 1010 C0F20000 		movt	r0, #:upper16:.LC0
 2005 1014 FFF7FEFF 		bl	usbPrint
 2006 1018 40F20003 		movw	r3, #:lower16:eepromConfig
 2007 101c C0F20003 		movt	r3, #:upper16:eepromConfig
 2008 1020 D3F8B430 		ldr	r3, [r3, #180]	@ float
 2009 1024 1846     		mov	r0, r3	@ float
 2010 1026 03AB     		add	r3, sp, #12
 2011 1028 1946     		mov	r1, r3
 2012 102a FFF7FEFF 		bl	ftoa
 2013 102e 03AB     		add	r3, sp, #12
 2014 1030 1846     		mov	r0, r3
 2015 1032 FFF7FEFF 		bl	usbPrint
 2016 1036 40F20000 		movw	r0, #:lower16:.LC0
 2017 103a C0F20000 		movt	r0, #:upper16:.LC0
 2018 103e FFF7FEFF 		bl	usbPrint
 2019 1042 40F20003 		movw	r3, #:lower16:eepromConfig
 2020 1046 C0F20003 		movt	r3, #:upper16:eepromConfig
 2021 104a D3F8BC30 		ldr	r3, [r3, #188]	@ float
 2022 104e 1846     		mov	r0, r3	@ float
 2023 1050 03AB     		add	r3, sp, #12
 2024 1052 1946     		mov	r1, r3
 2025 1054 FFF7FEFF 		bl	ftoa
 2026 1058 03AB     		add	r3, sp, #12
 2027 105a 1846     		mov	r0, r3
 2028 105c FFF7FEFF 		bl	usbPrint
 2029 1060 40F20000 		movw	r0, #:lower16:.LC1
 2030 1064 C0F20000 		movt	r0, #:upper16:.LC1
 2031 1068 FFF7FEFF 		bl	usbPrint
 2032 106c 40F20000 		movw	r0, #:lower16:.LC6
 2033 1070 C0F20000 		movt	r0, #:upper16:.LC6
 2034 1074 FFF7FEFF 		bl	usbPrint
 2035 1078 40F20003 		movw	r3, #:lower16:eepromConfig
 2036 107c C0F20003 		movt	r3, #:upper16:eepromConfig
 2037 1080 D3F8D030 		ldr	r3, [r3, #208]	@ float
 2038 1084 1846     		mov	r0, r3	@ float
 2039 1086 03AB     		add	r3, sp, #12
 2040 1088 1946     		mov	r1, r3
 2041 108a FFF7FEFF 		bl	ftoa
 2042 108e 03AB     		add	r3, sp, #12
 2043 1090 1846     		mov	r0, r3
 2044 1092 FFF7FEFF 		bl	usbPrint
 2045 1096 40F20000 		movw	r0, #:lower16:.LC0
 2046 109a C0F20000 		movt	r0, #:upper16:.LC0
 2047 109e FFF7FEFF 		bl	usbPrint
 2048 10a2 40F20003 		movw	r3, #:lower16:eepromConfig
 2049 10a6 C0F20003 		movt	r3, #:upper16:eepromConfig
 2050 10aa D3F8D430 		ldr	r3, [r3, #212]	@ float
 2051 10ae 1846     		mov	r0, r3	@ float
 2052 10b0 03AB     		add	r3, sp, #12
 2053 10b2 1946     		mov	r1, r3
 2054 10b4 FFF7FEFF 		bl	ftoa
 2055 10b8 03AB     		add	r3, sp, #12
 2056 10ba 1846     		mov	r0, r3
 2057 10bc FFF7FEFF 		bl	usbPrint
 2058 10c0 40F20000 		movw	r0, #:lower16:.LC0
 2059 10c4 C0F20000 		movt	r0, #:upper16:.LC0
 2060 10c8 FFF7FEFF 		bl	usbPrint
 2061 10cc 40F20003 		movw	r3, #:lower16:eepromConfig
 2062 10d0 C0F20003 		movt	r3, #:upper16:eepromConfig
 2063 10d4 D3F8D830 		ldr	r3, [r3, #216]	@ float
 2064 10d8 1846     		mov	r0, r3	@ float
 2065 10da 03AB     		add	r3, sp, #12
 2066 10dc 1946     		mov	r1, r3
 2067 10de FFF7FEFF 		bl	ftoa
 2068 10e2 03AB     		add	r3, sp, #12
 2069 10e4 1846     		mov	r0, r3
 2070 10e6 FFF7FEFF 		bl	usbPrint
 2071 10ea 40F20000 		movw	r0, #:lower16:.LC0
 2072 10ee C0F20000 		movt	r0, #:upper16:.LC0
 2073 10f2 FFF7FEFF 		bl	usbPrint
 2074 10f6 40F20003 		movw	r3, #:lower16:eepromConfig
 2075 10fa C0F20003 		movt	r3, #:upper16:eepromConfig
 2076 10fe D3F8DC30 		ldr	r3, [r3, #220]	@ float
 2077 1102 1846     		mov	r0, r3	@ float
 2078 1104 03AB     		add	r3, sp, #12
 2079 1106 1946     		mov	r1, r3
 2080 1108 FFF7FEFF 		bl	ftoa
 2081 110c 03AB     		add	r3, sp, #12
 2082 110e 1846     		mov	r0, r3
 2083 1110 FFF7FEFF 		bl	usbPrint
 2084 1114 40F20000 		movw	r0, #:lower16:.LC0
 2085 1118 C0F20000 		movt	r0, #:upper16:.LC0
 2086 111c FFF7FEFF 		bl	usbPrint
 2087 1120 40F20003 		movw	r3, #:lower16:eepromConfig
 2088 1124 C0F20003 		movt	r3, #:upper16:eepromConfig
 2089 1128 D3F8E430 		ldr	r3, [r3, #228]	@ float
 2090 112c 1846     		mov	r0, r3	@ float
 2091 112e 03AB     		add	r3, sp, #12
 2092 1130 1946     		mov	r1, r3
 2093 1132 FFF7FEFF 		bl	ftoa
 2094 1136 03AB     		add	r3, sp, #12
 2095 1138 1846     		mov	r0, r3
 2096 113a FFF7FEFF 		bl	usbPrint
 2097 113e 40F20000 		movw	r0, #:lower16:.LC1
 2098 1142 C0F20000 		movt	r0, #:upper16:.LC1
 2099 1146 FFF7FEFF 		bl	usbPrint
 2100 114a 40F20003 		movw	r3, #:lower16:queryType
 2101 114e C0F20003 		movt	r3, #:upper16:queryType
 2102 1152 4FF07802 		mov	r2, #120
 2103 1156 1A70     		strb	r2, [r3, #0]
 2104 1158 40F20003 		movw	r3, #:lower16:validCommand
 2105 115c C0F20003 		movt	r3, #:upper16:validCommand
 2106 1160 4FF00002 		mov	r2, #0
 2107 1164 1A70     		strb	r2, [r3, #0]
 2108 1166 02F014BB 		b	.L17
 2109              	.L83:
 2110 116a 40F20000 		movw	r0, #:lower16:.LC1
 2111 116e C0F20000 		movt	r0, #:upper16:.LC1
 2112 1172 FFF7FEFF 		bl	usbPrint
 2113 1176 40F20000 		movw	r0, #:lower16:.LC7
 2114 117a C0F20000 		movt	r0, #:upper16:.LC7
 2115 117e FFF7FEFF 		bl	usbPrint
 2116 1182 40F20003 		movw	r3, #:lower16:eepromConfig
 2117 1186 C0F20003 		movt	r3, #:upper16:eepromConfig
 2118 118a D3F8F830 		ldr	r3, [r3, #248]	@ float
 2119 118e 1846     		mov	r0, r3	@ float
 2120 1190 03AB     		add	r3, sp, #12
 2121 1192 1946     		mov	r1, r3
 2122 1194 FFF7FEFF 		bl	ftoa
 2123 1198 03AB     		add	r3, sp, #12
 2124 119a 1846     		mov	r0, r3
 2125 119c FFF7FEFF 		bl	usbPrint
 2126 11a0 40F20000 		movw	r0, #:lower16:.LC0
 2127 11a4 C0F20000 		movt	r0, #:upper16:.LC0
 2128 11a8 FFF7FEFF 		bl	usbPrint
 2129 11ac 40F20003 		movw	r3, #:lower16:eepromConfig
 2130 11b0 C0F20003 		movt	r3, #:upper16:eepromConfig
 2131 11b4 D3F8FC30 		ldr	r3, [r3, #252]	@ float
 2132 11b8 1846     		mov	r0, r3	@ float
 2133 11ba 03AB     		add	r3, sp, #12
 2134 11bc 1946     		mov	r1, r3
 2135 11be FFF7FEFF 		bl	ftoa
 2136 11c2 03AB     		add	r3, sp, #12
 2137 11c4 1846     		mov	r0, r3
 2138 11c6 FFF7FEFF 		bl	usbPrint
 2139 11ca 40F20000 		movw	r0, #:lower16:.LC0
 2140 11ce C0F20000 		movt	r0, #:upper16:.LC0
 2141 11d2 FFF7FEFF 		bl	usbPrint
 2142 11d6 40F20003 		movw	r3, #:lower16:eepromConfig
 2143 11da C0F20003 		movt	r3, #:upper16:eepromConfig
 2144 11de D3F80031 		ldr	r3, [r3, #256]	@ float
 2145 11e2 1846     		mov	r0, r3	@ float
 2146 11e4 03AB     		add	r3, sp, #12
 2147 11e6 1946     		mov	r1, r3
 2148 11e8 FFF7FEFF 		bl	ftoa
 2149 11ec 03AB     		add	r3, sp, #12
 2150 11ee 1846     		mov	r0, r3
 2151 11f0 FFF7FEFF 		bl	usbPrint
 2152 11f4 40F20000 		movw	r0, #:lower16:.LC0
 2153 11f8 C0F20000 		movt	r0, #:upper16:.LC0
 2154 11fc FFF7FEFF 		bl	usbPrint
 2155 1200 40F20003 		movw	r3, #:lower16:eepromConfig
 2156 1204 C0F20003 		movt	r3, #:upper16:eepromConfig
 2157 1208 D3F80431 		ldr	r3, [r3, #260]	@ float
 2158 120c 1846     		mov	r0, r3	@ float
 2159 120e 03AB     		add	r3, sp, #12
 2160 1210 1946     		mov	r1, r3
 2161 1212 FFF7FEFF 		bl	ftoa
 2162 1216 03AB     		add	r3, sp, #12
 2163 1218 1846     		mov	r0, r3
 2164 121a FFF7FEFF 		bl	usbPrint
 2165 121e 40F20000 		movw	r0, #:lower16:.LC0
 2166 1222 C0F20000 		movt	r0, #:upper16:.LC0
 2167 1226 FFF7FEFF 		bl	usbPrint
 2168 122a 40F20003 		movw	r3, #:lower16:eepromConfig
 2169 122e C0F20003 		movt	r3, #:upper16:eepromConfig
 2170 1232 D3F80C31 		ldr	r3, [r3, #268]	@ float
 2171 1236 1846     		mov	r0, r3	@ float
 2172 1238 03AB     		add	r3, sp, #12
 2173 123a 1946     		mov	r1, r3
 2174 123c FFF7FEFF 		bl	ftoa
 2175 1240 03AB     		add	r3, sp, #12
 2176 1242 1846     		mov	r0, r3
 2177 1244 FFF7FEFF 		bl	usbPrint
 2178 1248 40F20000 		movw	r0, #:lower16:.LC1
 2179 124c C0F20000 		movt	r0, #:upper16:.LC1
 2180 1250 FFF7FEFF 		bl	usbPrint
 2181 1254 40F20000 		movw	r0, #:lower16:.LC8
 2182 1258 C0F20000 		movt	r0, #:upper16:.LC8
 2183 125c FFF7FEFF 		bl	usbPrint
 2184 1260 40F20003 		movw	r3, #:lower16:eepromConfig
 2185 1264 C0F20003 		movt	r3, #:upper16:eepromConfig
 2186 1268 D3F82031 		ldr	r3, [r3, #288]	@ float
 2187 126c 1846     		mov	r0, r3	@ float
 2188 126e 03AB     		add	r3, sp, #12
 2189 1270 1946     		mov	r1, r3
 2190 1272 FFF7FEFF 		bl	ftoa
 2191 1276 03AB     		add	r3, sp, #12
 2192 1278 1846     		mov	r0, r3
 2193 127a FFF7FEFF 		bl	usbPrint
 2194 127e 40F20000 		movw	r0, #:lower16:.LC0
 2195 1282 C0F20000 		movt	r0, #:upper16:.LC0
 2196 1286 FFF7FEFF 		bl	usbPrint
 2197 128a 40F20003 		movw	r3, #:lower16:eepromConfig
 2198 128e C0F20003 		movt	r3, #:upper16:eepromConfig
 2199 1292 D3F82431 		ldr	r3, [r3, #292]	@ float
 2200 1296 1846     		mov	r0, r3	@ float
 2201 1298 03AB     		add	r3, sp, #12
 2202 129a 1946     		mov	r1, r3
 2203 129c FFF7FEFF 		bl	ftoa
 2204 12a0 03AB     		add	r3, sp, #12
 2205 12a2 1846     		mov	r0, r3
 2206 12a4 FFF7FEFF 		bl	usbPrint
 2207 12a8 40F20000 		movw	r0, #:lower16:.LC0
 2208 12ac C0F20000 		movt	r0, #:upper16:.LC0
 2209 12b0 FFF7FEFF 		bl	usbPrint
 2210 12b4 40F20003 		movw	r3, #:lower16:eepromConfig
 2211 12b8 C0F20003 		movt	r3, #:upper16:eepromConfig
 2212 12bc D3F82831 		ldr	r3, [r3, #296]	@ float
 2213 12c0 1846     		mov	r0, r3	@ float
 2214 12c2 03AB     		add	r3, sp, #12
 2215 12c4 1946     		mov	r1, r3
 2216 12c6 FFF7FEFF 		bl	ftoa
 2217 12ca 03AB     		add	r3, sp, #12
 2218 12cc 1846     		mov	r0, r3
 2219 12ce FFF7FEFF 		bl	usbPrint
 2220 12d2 40F20000 		movw	r0, #:lower16:.LC0
 2221 12d6 C0F20000 		movt	r0, #:upper16:.LC0
 2222 12da FFF7FEFF 		bl	usbPrint
 2223 12de 40F20003 		movw	r3, #:lower16:eepromConfig
 2224 12e2 C0F20003 		movt	r3, #:upper16:eepromConfig
 2225 12e6 D3F82C31 		ldr	r3, [r3, #300]	@ float
 2226 12ea 1846     		mov	r0, r3	@ float
 2227 12ec 03AB     		add	r3, sp, #12
 2228 12ee 1946     		mov	r1, r3
 2229 12f0 FFF7FEFF 		bl	ftoa
 2230 12f4 03AB     		add	r3, sp, #12
 2231 12f6 1846     		mov	r0, r3
 2232 12f8 FFF7FEFF 		bl	usbPrint
 2233 12fc 40F20000 		movw	r0, #:lower16:.LC0
 2234 1300 C0F20000 		movt	r0, #:upper16:.LC0
 2235 1304 FFF7FEFF 		bl	usbPrint
 2236 1308 40F20003 		movw	r3, #:lower16:eepromConfig
 2237 130c C0F20003 		movt	r3, #:upper16:eepromConfig
 2238 1310 D3F83431 		ldr	r3, [r3, #308]	@ float
 2239 1314 1846     		mov	r0, r3	@ float
 2240 1316 03AB     		add	r3, sp, #12
 2241 1318 1946     		mov	r1, r3
 2242 131a FFF7FEFF 		bl	ftoa
 2243 131e 03AB     		add	r3, sp, #12
 2244 1320 1846     		mov	r0, r3
 2245 1322 FFF7FEFF 		bl	usbPrint
 2246 1326 40F20000 		movw	r0, #:lower16:.LC1
 2247 132a C0F20000 		movt	r0, #:upper16:.LC1
 2248 132e FFF7FEFF 		bl	usbPrint
 2249 1332 40F20000 		movw	r0, #:lower16:.LC9
 2250 1336 C0F20000 		movt	r0, #:upper16:.LC9
 2251 133a FFF7FEFF 		bl	usbPrint
 2252 133e 40F20003 		movw	r3, #:lower16:eepromConfig
 2253 1342 C0F20003 		movt	r3, #:upper16:eepromConfig
 2254 1346 D3F84831 		ldr	r3, [r3, #328]	@ float
 2255 134a 1846     		mov	r0, r3	@ float
 2256 134c 03AB     		add	r3, sp, #12
 2257 134e 1946     		mov	r1, r3
 2258 1350 FFF7FEFF 		bl	ftoa
 2259 1354 03AB     		add	r3, sp, #12
 2260 1356 1846     		mov	r0, r3
 2261 1358 FFF7FEFF 		bl	usbPrint
 2262 135c 40F20000 		movw	r0, #:lower16:.LC0
 2263 1360 C0F20000 		movt	r0, #:upper16:.LC0
 2264 1364 FFF7FEFF 		bl	usbPrint
 2265 1368 40F20003 		movw	r3, #:lower16:eepromConfig
 2266 136c C0F20003 		movt	r3, #:upper16:eepromConfig
 2267 1370 D3F84C31 		ldr	r3, [r3, #332]	@ float
 2268 1374 1846     		mov	r0, r3	@ float
 2269 1376 03AB     		add	r3, sp, #12
 2270 1378 1946     		mov	r1, r3
 2271 137a FFF7FEFF 		bl	ftoa
 2272 137e 03AB     		add	r3, sp, #12
 2273 1380 1846     		mov	r0, r3
 2274 1382 FFF7FEFF 		bl	usbPrint
 2275 1386 40F20000 		movw	r0, #:lower16:.LC0
 2276 138a C0F20000 		movt	r0, #:upper16:.LC0
 2277 138e FFF7FEFF 		bl	usbPrint
 2278 1392 40F20003 		movw	r3, #:lower16:eepromConfig
 2279 1396 C0F20003 		movt	r3, #:upper16:eepromConfig
 2280 139a D3F85031 		ldr	r3, [r3, #336]	@ float
 2281 139e 1846     		mov	r0, r3	@ float
 2282 13a0 03AB     		add	r3, sp, #12
 2283 13a2 1946     		mov	r1, r3
 2284 13a4 FFF7FEFF 		bl	ftoa
 2285 13a8 03AB     		add	r3, sp, #12
 2286 13aa 1846     		mov	r0, r3
 2287 13ac FFF7FEFF 		bl	usbPrint
 2288 13b0 40F20000 		movw	r0, #:lower16:.LC0
 2289 13b4 C0F20000 		movt	r0, #:upper16:.LC0
 2290 13b8 FFF7FEFF 		bl	usbPrint
 2291 13bc 40F20003 		movw	r3, #:lower16:eepromConfig
 2292 13c0 C0F20003 		movt	r3, #:upper16:eepromConfig
 2293 13c4 D3F85431 		ldr	r3, [r3, #340]	@ float
 2294 13c8 1846     		mov	r0, r3	@ float
 2295 13ca 03AB     		add	r3, sp, #12
 2296 13cc 1946     		mov	r1, r3
 2297 13ce FFF7FEFF 		bl	ftoa
 2298 13d2 03AB     		add	r3, sp, #12
 2299 13d4 1846     		mov	r0, r3
 2300 13d6 FFF7FEFF 		bl	usbPrint
 2301 13da 40F20000 		movw	r0, #:lower16:.LC0
 2302 13de C0F20000 		movt	r0, #:upper16:.LC0
 2303 13e2 FFF7FEFF 		bl	usbPrint
 2304 13e6 40F20003 		movw	r3, #:lower16:eepromConfig
 2305 13ea C0F20003 		movt	r3, #:upper16:eepromConfig
 2306 13ee D3F85C31 		ldr	r3, [r3, #348]	@ float
 2307 13f2 1846     		mov	r0, r3	@ float
 2308 13f4 03AB     		add	r3, sp, #12
 2309 13f6 1946     		mov	r1, r3
 2310 13f8 FFF7FEFF 		bl	ftoa
 2311 13fc 03AB     		add	r3, sp, #12
 2312 13fe 1846     		mov	r0, r3
 2313 1400 FFF7FEFF 		bl	usbPrint
 2314 1404 40F20000 		movw	r0, #:lower16:.LC1
 2315 1408 C0F20000 		movt	r0, #:upper16:.LC1
 2316 140c FFF7FEFF 		bl	usbPrint
 2317 1410 40F20003 		movw	r3, #:lower16:queryType
 2318 1414 C0F20003 		movt	r3, #:upper16:queryType
 2319 1418 4FF07802 		mov	r2, #120
 2320 141c 1A70     		strb	r2, [r3, #0]
 2321 141e 40F20003 		movw	r3, #:lower16:validCommand
 2322 1422 C0F20003 		movt	r3, #:upper16:validCommand
 2323 1426 4FF00002 		mov	r2, #0
 2324 142a 1A70     		strb	r2, [r3, #0]
 2325 142c 02F0B1B9 		b	.L17
 2326              	.L84:
 2327 1430 40F20003 		movw	r3, #:lower16:queryType
 2328 1434 C0F20003 		movt	r3, #:upper16:queryType
 2329 1438 4FF07802 		mov	r2, #120
 2330 143c 1A70     		strb	r2, [r3, #0]
 2331 143e 40F20003 		movw	r3, #:lower16:validCommand
 2332 1442 C0F20003 		movt	r3, #:upper16:validCommand
 2333 1446 4FF00002 		mov	r2, #0
 2334 144a 1A70     		strb	r2, [r3, #0]
 2335 144c 02F0A1B9 		b	.L17
 2336              	.L85:
 2337 1450 40F20000 		movw	r0, #:lower16:.LC1
 2338 1454 C0F20000 		movt	r0, #:upper16:.LC1
 2339 1458 FFF7FEFF 		bl	usbPrint
 2340 145c 40F20000 		movw	r0, #:lower16:.LC10
 2341 1460 C0F20000 		movt	r0, #:upper16:.LC10
 2342 1464 FFF7FEFF 		bl	usbPrint
 2343 1468 40F20003 		movw	r3, #:lower16:accelOneG
 2344 146c C0F20003 		movt	r3, #:upper16:accelOneG
 2345 1470 1B68     		ldr	r3, [r3, #0]	@ float
 2346 1472 1846     		mov	r0, r3	@ float
 2347 1474 03AB     		add	r3, sp, #12
 2348 1476 1946     		mov	r1, r3
 2349 1478 FFF7FEFF 		bl	ftoa
 2350 147c 03AB     		add	r3, sp, #12
 2351 147e 1846     		mov	r0, r3
 2352 1480 FFF7FEFF 		bl	usbPrint
 2353 1484 40F20000 		movw	r0, #:lower16:.LC1
 2354 1488 C0F20000 		movt	r0, #:upper16:.LC1
 2355 148c FFF7FEFF 		bl	usbPrint
 2356 1490 40F20000 		movw	r0, #:lower16:.LC11
 2357 1494 C0F20000 		movt	r0, #:upper16:.LC11
 2358 1498 FFF7FEFF 		bl	usbPrint
 2359 149c 40F20003 		movw	r3, #:lower16:eepromConfig
 2360 14a0 C0F20003 		movt	r3, #:upper16:eepromConfig
 2361 14a4 5B68     		ldr	r3, [r3, #4]	@ float
 2362 14a6 1846     		mov	r0, r3	@ float
 2363 14a8 03AB     		add	r3, sp, #12
 2364 14aa 1946     		mov	r1, r3
 2365 14ac FFF7FEFF 		bl	ftoa
 2366 14b0 03AB     		add	r3, sp, #12
 2367 14b2 1846     		mov	r0, r3
 2368 14b4 FFF7FEFF 		bl	usbPrint
 2369 14b8 40F20000 		movw	r0, #:lower16:.LC0
 2370 14bc C0F20000 		movt	r0, #:upper16:.LC0
 2371 14c0 FFF7FEFF 		bl	usbPrint
 2372 14c4 40F20003 		movw	r3, #:lower16:eepromConfig
 2373 14c8 C0F20003 		movt	r3, #:upper16:eepromConfig
 2374 14cc 9B68     		ldr	r3, [r3, #8]	@ float
 2375 14ce 1846     		mov	r0, r3	@ float
 2376 14d0 03AB     		add	r3, sp, #12
 2377 14d2 1946     		mov	r1, r3
 2378 14d4 FFF7FEFF 		bl	ftoa
 2379 14d8 03AB     		add	r3, sp, #12
 2380 14da 1846     		mov	r0, r3
 2381 14dc FFF7FEFF 		bl	usbPrint
 2382 14e0 40F20000 		movw	r0, #:lower16:.LC0
 2383 14e4 C0F20000 		movt	r0, #:upper16:.LC0
 2384 14e8 FFF7FEFF 		bl	usbPrint
 2385 14ec 40F20003 		movw	r3, #:lower16:eepromConfig
 2386 14f0 C0F20003 		movt	r3, #:upper16:eepromConfig
 2387 14f4 DB68     		ldr	r3, [r3, #12]	@ float
 2388 14f6 1846     		mov	r0, r3	@ float
 2389 14f8 03AB     		add	r3, sp, #12
 2390 14fa 1946     		mov	r1, r3
 2391 14fc FFF7FEFF 		bl	ftoa
 2392 1500 03AB     		add	r3, sp, #12
 2393 1502 1846     		mov	r0, r3
 2394 1504 FFF7FEFF 		bl	usbPrint
 2395 1508 40F20000 		movw	r0, #:lower16:.LC1
 2396 150c C0F20000 		movt	r0, #:upper16:.LC1
 2397 1510 FFF7FEFF 		bl	usbPrint
 2398 1514 40F20000 		movw	r0, #:lower16:.LC12
 2399 1518 C0F20000 		movt	r0, #:upper16:.LC12
 2400 151c FFF7FEFF 		bl	usbPrint
 2401 1520 40F20003 		movw	r3, #:lower16:eepromConfig
 2402 1524 C0F20003 		movt	r3, #:upper16:eepromConfig
 2403 1528 1B69     		ldr	r3, [r3, #16]	@ float
 2404 152a 1846     		mov	r0, r3	@ float
 2405 152c 03AB     		add	r3, sp, #12
 2406 152e 1946     		mov	r1, r3
 2407 1530 FFF7FEFF 		bl	ftoa
 2408 1534 03AB     		add	r3, sp, #12
 2409 1536 1846     		mov	r0, r3
 2410 1538 FFF7FEFF 		bl	usbPrint
 2411 153c 40F20000 		movw	r0, #:lower16:.LC0
 2412 1540 C0F20000 		movt	r0, #:upper16:.LC0
 2413 1544 FFF7FEFF 		bl	usbPrint
 2414 1548 40F20003 		movw	r3, #:lower16:eepromConfig
 2415 154c C0F20003 		movt	r3, #:upper16:eepromConfig
 2416 1550 5B69     		ldr	r3, [r3, #20]	@ float
 2417 1552 1846     		mov	r0, r3	@ float
 2418 1554 03AB     		add	r3, sp, #12
 2419 1556 1946     		mov	r1, r3
 2420 1558 FFF7FEFF 		bl	ftoa
 2421 155c 03AB     		add	r3, sp, #12
 2422 155e 1846     		mov	r0, r3
 2423 1560 FFF7FEFF 		bl	usbPrint
 2424 1564 40F20000 		movw	r0, #:lower16:.LC0
 2425 1568 C0F20000 		movt	r0, #:upper16:.LC0
 2426 156c FFF7FEFF 		bl	usbPrint
 2427 1570 40F20003 		movw	r3, #:lower16:eepromConfig
 2428 1574 C0F20003 		movt	r3, #:upper16:eepromConfig
 2429 1578 9B69     		ldr	r3, [r3, #24]	@ float
 2430 157a 1846     		mov	r0, r3	@ float
 2431 157c 03AB     		add	r3, sp, #12
 2432 157e 1946     		mov	r1, r3
 2433 1580 FFF7FEFF 		bl	ftoa
 2434 1584 03AB     		add	r3, sp, #12
 2435 1586 1846     		mov	r0, r3
 2436 1588 FFF7FEFF 		bl	usbPrint
 2437 158c 40F20000 		movw	r0, #:lower16:.LC1
 2438 1590 C0F20000 		movt	r0, #:upper16:.LC1
 2439 1594 FFF7FEFF 		bl	usbPrint
 2440 1598 40F20000 		movw	r0, #:lower16:.LC13
 2441 159c C0F20000 		movt	r0, #:upper16:.LC13
 2442 15a0 FFF7FEFF 		bl	usbPrint
 2443 15a4 40F20003 		movw	r3, #:lower16:eepromConfig
 2444 15a8 C0F20003 		movt	r3, #:upper16:eepromConfig
 2445 15ac DB69     		ldr	r3, [r3, #28]	@ float
 2446 15ae 1846     		mov	r0, r3	@ float
 2447 15b0 03AB     		add	r3, sp, #12
 2448 15b2 1946     		mov	r1, r3
 2449 15b4 FFF7FEFF 		bl	ftoa
 2450 15b8 03AB     		add	r3, sp, #12
 2451 15ba 1846     		mov	r0, r3
 2452 15bc FFF7FEFF 		bl	usbPrint
 2453 15c0 40F20000 		movw	r0, #:lower16:.LC0
 2454 15c4 C0F20000 		movt	r0, #:upper16:.LC0
 2455 15c8 FFF7FEFF 		bl	usbPrint
 2456 15cc 40F20003 		movw	r3, #:lower16:eepromConfig
 2457 15d0 C0F20003 		movt	r3, #:upper16:eepromConfig
 2458 15d4 1B6A     		ldr	r3, [r3, #32]	@ float
 2459 15d6 1846     		mov	r0, r3	@ float
 2460 15d8 03AB     		add	r3, sp, #12
 2461 15da 1946     		mov	r1, r3
 2462 15dc FFF7FEFF 		bl	ftoa
 2463 15e0 03AB     		add	r3, sp, #12
 2464 15e2 1846     		mov	r0, r3
 2465 15e4 FFF7FEFF 		bl	usbPrint
 2466 15e8 40F20000 		movw	r0, #:lower16:.LC0
 2467 15ec C0F20000 		movt	r0, #:upper16:.LC0
 2468 15f0 FFF7FEFF 		bl	usbPrint
 2469 15f4 40F20003 		movw	r3, #:lower16:eepromConfig
 2470 15f8 C0F20003 		movt	r3, #:upper16:eepromConfig
 2471 15fc 5B6A     		ldr	r3, [r3, #36]	@ float
 2472 15fe 1846     		mov	r0, r3	@ float
 2473 1600 03AB     		add	r3, sp, #12
 2474 1602 1946     		mov	r1, r3
 2475 1604 FFF7FEFF 		bl	ftoa
 2476 1608 03AB     		add	r3, sp, #12
 2477 160a 1846     		mov	r0, r3
 2478 160c FFF7FEFF 		bl	usbPrint
 2479 1610 40F20000 		movw	r0, #:lower16:.LC1
 2480 1614 C0F20000 		movt	r0, #:upper16:.LC1
 2481 1618 FFF7FEFF 		bl	usbPrint
 2482 161c 40F20000 		movw	r0, #:lower16:.LC14
 2483 1620 C0F20000 		movt	r0, #:upper16:.LC14
 2484 1624 FFF7FEFF 		bl	usbPrint
 2485 1628 40F20003 		movw	r3, #:lower16:eepromConfig
 2486 162c C0F20003 		movt	r3, #:upper16:eepromConfig
 2487 1630 9B6A     		ldr	r3, [r3, #40]	@ float
 2488 1632 1846     		mov	r0, r3	@ float
 2489 1634 03AB     		add	r3, sp, #12
 2490 1636 1946     		mov	r1, r3
 2491 1638 FFF7FEFF 		bl	ftoa
 2492 163c 03AB     		add	r3, sp, #12
 2493 163e 1846     		mov	r0, r3
 2494 1640 FFF7FEFF 		bl	usbPrint
 2495 1644 40F20000 		movw	r0, #:lower16:.LC0
 2496 1648 C0F20000 		movt	r0, #:upper16:.LC0
 2497 164c FFF7FEFF 		bl	usbPrint
 2498 1650 40F20003 		movw	r3, #:lower16:eepromConfig
 2499 1654 C0F20003 		movt	r3, #:upper16:eepromConfig
 2500 1658 DB6A     		ldr	r3, [r3, #44]	@ float
 2501 165a 1846     		mov	r0, r3	@ float
 2502 165c 03AB     		add	r3, sp, #12
 2503 165e 1946     		mov	r1, r3
 2504 1660 FFF7FEFF 		bl	ftoa
 2505 1664 03AB     		add	r3, sp, #12
 2506 1666 1846     		mov	r0, r3
 2507 1668 FFF7FEFF 		bl	usbPrint
 2508 166c 40F20000 		movw	r0, #:lower16:.LC0
 2509 1670 C0F20000 		movt	r0, #:upper16:.LC0
 2510 1674 FFF7FEFF 		bl	usbPrint
 2511 1678 40F20003 		movw	r3, #:lower16:eepromConfig
 2512 167c C0F20003 		movt	r3, #:upper16:eepromConfig
 2513 1680 1B6B     		ldr	r3, [r3, #48]	@ float
 2514 1682 1846     		mov	r0, r3	@ float
 2515 1684 03AB     		add	r3, sp, #12
 2516 1686 1946     		mov	r1, r3
 2517 1688 FFF7FEFF 		bl	ftoa
 2518 168c 03AB     		add	r3, sp, #12
 2519 168e 1846     		mov	r0, r3
 2520 1690 FFF7FEFF 		bl	usbPrint
 2521 1694 40F20000 		movw	r0, #:lower16:.LC1
 2522 1698 C0F20000 		movt	r0, #:upper16:.LC1
 2523 169c FFF7FEFF 		bl	usbPrint
 2524 16a0 40F20000 		movw	r0, #:lower16:.LC15
 2525 16a4 C0F20000 		movt	r0, #:upper16:.LC15
 2526 16a8 FFF7FEFF 		bl	usbPrint
 2527 16ac 40F20003 		movw	r3, #:lower16:eepromConfig
 2528 16b0 C0F20003 		movt	r3, #:upper16:eepromConfig
 2529 16b4 5B6B     		ldr	r3, [r3, #52]	@ float
 2530 16b6 1846     		mov	r0, r3	@ float
 2531 16b8 03AB     		add	r3, sp, #12
 2532 16ba 1946     		mov	r1, r3
 2533 16bc FFF7FEFF 		bl	ftoa
 2534 16c0 03AB     		add	r3, sp, #12
 2535 16c2 1846     		mov	r0, r3
 2536 16c4 FFF7FEFF 		bl	usbPrint
 2537 16c8 40F20000 		movw	r0, #:lower16:.LC0
 2538 16cc C0F20000 		movt	r0, #:upper16:.LC0
 2539 16d0 FFF7FEFF 		bl	usbPrint
 2540 16d4 40F20003 		movw	r3, #:lower16:eepromConfig
 2541 16d8 C0F20003 		movt	r3, #:upper16:eepromConfig
 2542 16dc 9B6B     		ldr	r3, [r3, #56]	@ float
 2543 16de 1846     		mov	r0, r3	@ float
 2544 16e0 03AB     		add	r3, sp, #12
 2545 16e2 1946     		mov	r1, r3
 2546 16e4 FFF7FEFF 		bl	ftoa
 2547 16e8 03AB     		add	r3, sp, #12
 2548 16ea 1846     		mov	r0, r3
 2549 16ec FFF7FEFF 		bl	usbPrint
 2550 16f0 40F20000 		movw	r0, #:lower16:.LC0
 2551 16f4 C0F20000 		movt	r0, #:upper16:.LC0
 2552 16f8 FFF7FEFF 		bl	usbPrint
 2553 16fc 40F20003 		movw	r3, #:lower16:eepromConfig
 2554 1700 C0F20003 		movt	r3, #:upper16:eepromConfig
 2555 1704 DB6B     		ldr	r3, [r3, #60]	@ float
 2556 1706 1846     		mov	r0, r3	@ float
 2557 1708 03AB     		add	r3, sp, #12
 2558 170a 1946     		mov	r1, r3
 2559 170c FFF7FEFF 		bl	ftoa
 2560 1710 03AB     		add	r3, sp, #12
 2561 1712 1846     		mov	r0, r3
 2562 1714 FFF7FEFF 		bl	usbPrint
 2563 1718 40F20000 		movw	r0, #:lower16:.LC1
 2564 171c C0F20000 		movt	r0, #:upper16:.LC1
 2565 1720 FFF7FEFF 		bl	usbPrint
 2566 1724 40F20000 		movw	r0, #:lower16:.LC16
 2567 1728 C0F20000 		movt	r0, #:upper16:.LC16
 2568 172c FFF7FEFF 		bl	usbPrint
 2569 1730 40F20003 		movw	r3, #:lower16:eepromConfig
 2570 1734 C0F20003 		movt	r3, #:upper16:eepromConfig
 2571 1738 1B6C     		ldr	r3, [r3, #64]	@ float
 2572 173a 1846     		mov	r0, r3	@ float
 2573 173c 03AB     		add	r3, sp, #12
 2574 173e 1946     		mov	r1, r3
 2575 1740 FFF7FEFF 		bl	ftoa
 2576 1744 03AB     		add	r3, sp, #12
 2577 1746 1846     		mov	r0, r3
 2578 1748 FFF7FEFF 		bl	usbPrint
 2579 174c 40F20000 		movw	r0, #:lower16:.LC1
 2580 1750 C0F20000 		movt	r0, #:upper16:.LC1
 2581 1754 FFF7FEFF 		bl	usbPrint
 2582 1758 40F20000 		movw	r0, #:lower16:.LC17
 2583 175c C0F20000 		movt	r0, #:upper16:.LC17
 2584 1760 FFF7FEFF 		bl	usbPrint
 2585 1764 40F20003 		movw	r3, #:lower16:eepromConfig
 2586 1768 C0F20003 		movt	r3, #:upper16:eepromConfig
 2587 176c 5B6C     		ldr	r3, [r3, #68]	@ float
 2588 176e 1846     		mov	r0, r3	@ float
 2589 1770 03AB     		add	r3, sp, #12
 2590 1772 1946     		mov	r1, r3
 2591 1774 FFF7FEFF 		bl	ftoa
 2592 1778 03AB     		add	r3, sp, #12
 2593 177a 1846     		mov	r0, r3
 2594 177c FFF7FEFF 		bl	usbPrint
 2595 1780 40F20000 		movw	r0, #:lower16:.LC1
 2596 1784 C0F20000 		movt	r0, #:upper16:.LC1
 2597 1788 FFF7FEFF 		bl	usbPrint
 2598 178c 40F20000 		movw	r0, #:lower16:.LC18
 2599 1790 C0F20000 		movt	r0, #:upper16:.LC18
 2600 1794 FFF7FEFF 		bl	usbPrint
 2601 1798 40F20003 		movw	r3, #:lower16:eepromConfig
 2602 179c C0F20003 		movt	r3, #:upper16:eepromConfig
 2603 17a0 9B6C     		ldr	r3, [r3, #72]	@ float
 2604 17a2 1846     		mov	r0, r3	@ float
 2605 17a4 03AB     		add	r3, sp, #12
 2606 17a6 1946     		mov	r1, r3
 2607 17a8 FFF7FEFF 		bl	ftoa
 2608 17ac 03AB     		add	r3, sp, #12
 2609 17ae 1846     		mov	r0, r3
 2610 17b0 FFF7FEFF 		bl	usbPrint
 2611 17b4 40F20000 		movw	r0, #:lower16:.LC1
 2612 17b8 C0F20000 		movt	r0, #:upper16:.LC1
 2613 17bc FFF7FEFF 		bl	usbPrint
 2614 17c0 40F20000 		movw	r0, #:lower16:.LC19
 2615 17c4 C0F20000 		movt	r0, #:upper16:.LC19
 2616 17c8 FFF7FEFF 		bl	usbPrint
 2617 17cc 40F20003 		movw	r3, #:lower16:eepromConfig
 2618 17d0 C0F20003 		movt	r3, #:upper16:eepromConfig
 2619 17d4 DB6C     		ldr	r3, [r3, #76]	@ float
 2620 17d6 1846     		mov	r0, r3	@ float
 2621 17d8 03AB     		add	r3, sp, #12
 2622 17da 1946     		mov	r1, r3
 2623 17dc FFF7FEFF 		bl	ftoa
 2624 17e0 03AB     		add	r3, sp, #12
 2625 17e2 1846     		mov	r0, r3
 2626 17e4 FFF7FEFF 		bl	usbPrint
 2627 17e8 40F20000 		movw	r0, #:lower16:.LC1
 2628 17ec C0F20000 		movt	r0, #:upper16:.LC1
 2629 17f0 FFF7FEFF 		bl	usbPrint
 2630 17f4 40F20000 		movw	r0, #:lower16:.LC20
 2631 17f8 C0F20000 		movt	r0, #:upper16:.LC20
 2632 17fc FFF7FEFF 		bl	usbPrint
 2633 1800 40F20003 		movw	r3, #:lower16:eepromConfig
 2634 1804 C0F20003 		movt	r3, #:upper16:eepromConfig
 2635 1808 1B6D     		ldr	r3, [r3, #80]	@ float
 2636 180a 1846     		mov	r0, r3	@ float
 2637 180c 03AB     		add	r3, sp, #12
 2638 180e 1946     		mov	r1, r3
 2639 1810 FFF7FEFF 		bl	ftoa
 2640 1814 03AB     		add	r3, sp, #12
 2641 1816 1846     		mov	r0, r3
 2642 1818 FFF7FEFF 		bl	usbPrint
 2643 181c 40F20000 		movw	r0, #:lower16:.LC1
 2644 1820 C0F20000 		movt	r0, #:upper16:.LC1
 2645 1824 FFF7FEFF 		bl	usbPrint
 2646 1828 40F20000 		movw	r0, #:lower16:.LC21
 2647 182c C0F20000 		movt	r0, #:upper16:.LC21
 2648 1830 FFF7FEFF 		bl	usbPrint
 2649 1834 40F20003 		movw	r3, #:lower16:eepromConfig
 2650 1838 C0F20003 		movt	r3, #:upper16:eepromConfig
 2651 183c D3F83C32 		ldr	r3, [r3, #572]	@ float
 2652 1840 1846     		mov	r0, r3	@ float
 2653 1842 03AB     		add	r3, sp, #12
 2654 1844 1946     		mov	r1, r3
 2655 1846 FFF7FEFF 		bl	ftoa
 2656 184a 03AB     		add	r3, sp, #12
 2657 184c 1846     		mov	r0, r3
 2658 184e FFF7FEFF 		bl	usbPrint
 2659 1852 40F20000 		movw	r0, #:lower16:.LC1
 2660 1856 C0F20000 		movt	r0, #:upper16:.LC1
 2661 185a FFF7FEFF 		bl	usbPrint
 2662 185e 40F20000 		movw	r0, #:lower16:.LC22
 2663 1862 C0F20000 		movt	r0, #:upper16:.LC22
 2664 1866 FFF7FEFF 		bl	usbPrint
 2665 186a 40F20003 		movw	r3, #:lower16:eepromConfig
 2666 186e C0F20003 		movt	r3, #:upper16:eepromConfig
 2667 1872 D3F84032 		ldr	r3, [r3, #576]	@ float
 2668 1876 1846     		mov	r0, r3	@ float
 2669 1878 03AB     		add	r3, sp, #12
 2670 187a 1946     		mov	r1, r3
 2671 187c FFF7FEFF 		bl	ftoa
 2672 1880 03AB     		add	r3, sp, #12
 2673 1882 1846     		mov	r0, r3
 2674 1884 FFF7FEFF 		bl	usbPrint
 2675 1888 40F20000 		movw	r0, #:lower16:.LC1
 2676 188c C0F20000 		movt	r0, #:upper16:.LC1
 2677 1890 FFF7FEFF 		bl	usbPrint
 2678 1894 40F20000 		movw	r0, #:lower16:.LC23
 2679 1898 C0F20000 		movt	r0, #:upper16:.LC23
 2680 189c FFF7FEFF 		bl	usbPrint
 2681 18a0 40F20003 		movw	r3, #:lower16:eepromConfig
 2682 18a4 C0F20003 		movt	r3, #:upper16:eepromConfig
 2683 18a8 93F85430 		ldrb	r3, [r3, #84]	@ zero_extendqisi2
 2684 18ac 032B     		cmp	r3, #3
 2685 18ae 27D8     		bhi	.L101
 2686 18b0 01A2     		adr	r2, .L106
 2687 18b2 52F823F0 		ldr	pc, [r2, r3, lsl #2]
 2688 18b6 00BF     		.align	2
 2689              	.L106:
 2690 18b8 C9180000 		.word	.L102+1
 2691 18bc D7180000 		.word	.L103+1
 2692 18c0 E5180000 		.word	.L104+1
 2693 18c4 F3180000 		.word	.L105+1
 2694              	.L102:
 2695 18c8 40F20000 		movw	r0, #:lower16:.LC24
 2696 18cc C0F20000 		movt	r0, #:upper16:.LC24
 2697 18d0 FFF7FEFF 		bl	usbPrint
 2698 18d4 14E0     		b	.L101
 2699              	.L103:
 2700 18d6 40F20000 		movw	r0, #:lower16:.LC25
 2701 18da C0F20000 		movt	r0, #:upper16:.LC25
 2702 18de FFF7FEFF 		bl	usbPrint
 2703 18e2 0DE0     		b	.L101
 2704              	.L104:
 2705 18e4 40F20000 		movw	r0, #:lower16:.LC26
 2706 18e8 C0F20000 		movt	r0, #:upper16:.LC26
 2707 18ec FFF7FEFF 		bl	usbPrint
 2708 18f0 06E0     		b	.L101
 2709              	.L105:
 2710 18f2 40F20000 		movw	r0, #:lower16:.LC27
 2711 18f6 C0F20000 		movt	r0, #:upper16:.LC27
 2712 18fa FFF7FEFF 		bl	usbPrint
 2713 18fe 00BF     		nop
 2714              	.L101:
 2715 1900 40F20003 		movw	r3, #:lower16:queryType
 2716 1904 C0F20003 		movt	r3, #:upper16:queryType
 2717 1908 4FF07802 		mov	r2, #120
 2718 190c 1A70     		strb	r2, [r3, #0]
 2719 190e 40F20003 		movw	r3, #:lower16:validCommand
 2720 1912 C0F20003 		movt	r3, #:upper16:validCommand
 2721 1916 4FF00002 		mov	r2, #0
 2722 191a 1A70     		strb	r2, [r3, #0]
 2723 191c 01F039BF 		b	.L17
 2724              	.L86:
 2725 1920 40F20000 		movw	r0, #:lower16:.LC28
 2726 1924 C0F20000 		movt	r0, #:upper16:.LC28
 2727 1928 FFF7FEFF 		bl	usbPrint
 2728 192c 40F20003 		movw	r3, #:lower16:eepromConfig
 2729 1930 C0F20003 		movt	r3, #:upper16:eepromConfig
 2730 1934 93F85530 		ldrb	r3, [r3, #85]	@ zero_extendqisi2
 2731 1938 022B     		cmp	r3, #2
 2732 193a 0AD0     		beq	.L109
 2733 193c 032B     		cmp	r3, #3
 2734 193e 0FD0     		beq	.L110
 2735 1940 012B     		cmp	r3, #1
 2736 1942 40D1     		bne	.L107
 2737              	.L108:
 2738 1944 40F20000 		movw	r0, #:lower16:.LC29
 2739 1948 C0F20000 		movt	r0, #:upper16:.LC29
 2740 194c FFF7FEFF 		bl	usbPrint
 2741 1950 39E0     		b	.L107
 2742              	.L109:
 2743 1952 40F20000 		movw	r0, #:lower16:.LC30
 2744 1956 C0F20000 		movt	r0, #:upper16:.LC30
 2745 195a FFF7FEFF 		bl	usbPrint
 2746 195e 32E0     		b	.L107
 2747              	.L110:
 2748 1960 40F20000 		movw	r0, #:lower16:.LC31
 2749 1964 C0F20000 		movt	r0, #:upper16:.LC31
 2750 1968 FFF7FEFF 		bl	usbPrint
 2751 196c 40F20003 		movw	r3, #:lower16:eepromConfig
 2752 1970 C0F20003 		movt	r3, #:upper16:eepromConfig
 2753 1974 93F85730 		ldrb	r3, [r3, #87]	@ zero_extendqisi2
 2754 1978 002B     		cmp	r3, #0
 2755 197a 06D0     		beq	.L111
 2756 197c 40F20000 		movw	r0, #:lower16:.LC32
 2757 1980 C0F20000 		movt	r0, #:upper16:.LC32
 2758 1984 FFF7FEFF 		bl	usbPrint
 2759 1988 05E0     		b	.L112
 2760              	.L111:
 2761 198a 40F20000 		movw	r0, #:lower16:.LC33
 2762 198e C0F20000 		movt	r0, #:upper16:.LC33
 2763 1992 FFF7FEFF 		bl	usbPrint
 2764              	.L112:
 2765 1996 40F20003 		movw	r3, #:lower16:eepromConfig
 2766 199a C0F20003 		movt	r3, #:upper16:eepromConfig
 2767 199e 93F85630 		ldrb	r3, [r3, #86]	@ zero_extendqisi2
 2768 19a2 1846     		mov	r0, r3
 2769 19a4 03AB     		add	r3, sp, #12
 2770 19a6 1946     		mov	r1, r3
 2771 19a8 4FF00A02 		mov	r2, #10
 2772 19ac FFF7FEFF 		bl	itoa
 2773 19b0 03AB     		add	r3, sp, #12
 2774 19b2 1846     		mov	r0, r3
 2775 19b4 FFF7FEFF 		bl	usbPrint
 2776 19b8 40F20000 		movw	r0, #:lower16:.LC34
 2777 19bc C0F20000 		movt	r0, #:upper16:.LC34
 2778 19c0 FFF7FEFF 		bl	usbPrint
 2779 19c4 00BF     		nop
 2780              	.L107:
 2781 19c6 40F20000 		movw	r0, #:lower16:.LC35
 2782 19ca C0F20000 		movt	r0, #:upper16:.LC35
 2783 19ce FFF7FEFF 		bl	usbPrint
 2784 19d2 4FF00003 		mov	r3, #0
 2785 19d6 8DF81B30 		strb	r3, [sp, #27]
 2786 19da 1AE0     		b	.L113
 2787              	.L114:
 2788 19dc 9DF81B20 		ldrb	r2, [sp, #27]	@ zero_extendqisi2
 2789 19e0 40F20003 		movw	r3, #:lower16:eepromConfig
 2790 19e4 C0F20003 		movt	r3, #:upper16:eepromConfig
 2791 19e8 9B18     		adds	r3, r3, r2
 2792 19ea 93F85830 		ldrb	r3, [r3, #88]	@ zero_extendqisi2
 2793 19ee 1946     		mov	r1, r3
 2794 19f0 9DF81B20 		ldrb	r2, [sp, #27]	@ zero_extendqisi2
 2795 19f4 40F20003 		movw	r3, #:lower16:rcChannelLetters
 2796 19f8 C0F20003 		movt	r3, #:upper16:rcChannelLetters
 2797 19fc 9A5C     		ldrb	r2, [r3, r2]	@ zero_extendqisi2
 2798 19fe 08A8     		add	r0, sp, #32
 2799 1a00 4318     		adds	r3, r0, r1
 2800 1a02 03F8202C 		strb	r2, [r3, #-32]
 2801 1a06 9DF81B30 		ldrb	r3, [sp, #27]
 2802 1a0a 03F10103 		add	r3, r3, #1
 2803 1a0e 8DF81B30 		strb	r3, [sp, #27]
 2804              	.L113:
 2805 1a12 9DF81B30 		ldrb	r3, [sp, #27]	@ zero_extendqisi2
 2806 1a16 072B     		cmp	r3, #7
 2807 1a18 E0D9     		bls	.L114
 2808 1a1a 9DF81B30 		ldrb	r3, [sp, #27]	@ zero_extendqisi2
 2809 1a1e 08AA     		add	r2, sp, #32
 2810 1a20 D318     		adds	r3, r2, r3
 2811 1a22 4FF00002 		mov	r2, #0
 2812 1a26 03F8202C 		strb	r2, [r3, #-32]
 2813 1a2a 6B46     		mov	r3, sp
 2814 1a2c 1846     		mov	r0, r3
 2815 1a2e FFF7FEFF 		bl	usbPrint
 2816 1a32 40F20000 		movw	r0, #:lower16:.LC1
 2817 1a36 C0F20000 		movt	r0, #:upper16:.LC1
 2818 1a3a FFF7FEFF 		bl	usbPrint
 2819 1a3e 40F20000 		movw	r0, #:lower16:.LC36
 2820 1a42 C0F20000 		movt	r0, #:upper16:.LC36
 2821 1a46 FFF7FEFF 		bl	usbPrint
 2822 1a4a 40F20003 		movw	r3, #:lower16:eepromConfig
 2823 1a4e C0F20003 		movt	r3, #:upper16:eepromConfig
 2824 1a52 93F86430 		ldrb	r3, [r3, #100]	@ zero_extendqisi2
 2825 1a56 03F1FF33 		add	r3, r3, #-1
 2826 1a5a 142B     		cmp	r3, #20
 2827 1a5c 00F2C180 		bhi	.L115
 2828 1a60 01A0     		adr	r0, .L137
 2829 1a62 50F823F0 		ldr	pc, [r0, r3, lsl #2]
 2830 1a66 00BF     		.align	2
 2831              	.L137:
 2832 1a68 BD1A0000 		.word	.L116+1
 2833 1a6c CB1A0000 		.word	.L117+1
 2834 1a70 D91A0000 		.word	.L118+1
 2835 1a74 E71A0000 		.word	.L119+1
 2836 1a78 F51A0000 		.word	.L120+1
 2837 1a7c 031B0000 		.word	.L121+1
 2838 1a80 111B0000 		.word	.L122+1
 2839 1a84 1F1B0000 		.word	.L123+1
 2840 1a88 2D1B0000 		.word	.L124+1
 2841 1a8c 3B1B0000 		.word	.L125+1
 2842 1a90 491B0000 		.word	.L126+1
 2843 1a94 571B0000 		.word	.L127+1
 2844 1a98 651B0000 		.word	.L128+1
 2845 1a9c 731B0000 		.word	.L129+1
 2846 1aa0 811B0000 		.word	.L130+1
 2847 1aa4 8F1B0000 		.word	.L131+1
 2848 1aa8 9D1B0000 		.word	.L132+1
 2849 1aac AB1B0000 		.word	.L133+1
 2850 1ab0 B91B0000 		.word	.L134+1
 2851 1ab4 C71B0000 		.word	.L135+1
 2852 1ab8 D51B0000 		.word	.L136+1
 2853              	.L116:
 2854 1abc 40F20000 		movw	r0, #:lower16:.LC37
 2855 1ac0 C0F20000 		movt	r0, #:upper16:.LC37
 2856 1ac4 FFF7FEFF 		bl	usbPrint
 2857 1ac8 8BE0     		b	.L115
 2858              	.L117:
 2859 1aca 40F20000 		movw	r0, #:lower16:.LC38
 2860 1ace C0F20000 		movt	r0, #:upper16:.LC38
 2861 1ad2 FFF7FEFF 		bl	usbPrint
 2862 1ad6 84E0     		b	.L115
 2863              	.L118:
 2864 1ad8 40F20000 		movw	r0, #:lower16:.LC39
 2865 1adc C0F20000 		movt	r0, #:upper16:.LC39
 2866 1ae0 FFF7FEFF 		bl	usbPrint
 2867 1ae4 7DE0     		b	.L115
 2868              	.L119:
 2869 1ae6 40F20000 		movw	r0, #:lower16:.LC40
 2870 1aea C0F20000 		movt	r0, #:upper16:.LC40
 2871 1aee FFF7FEFF 		bl	usbPrint
 2872 1af2 76E0     		b	.L115
 2873              	.L120:
 2874 1af4 40F20000 		movw	r0, #:lower16:.LC41
 2875 1af8 C0F20000 		movt	r0, #:upper16:.LC41
 2876 1afc FFF7FEFF 		bl	usbPrint
 2877 1b00 6FE0     		b	.L115
 2878              	.L121:
 2879 1b02 40F20000 		movw	r0, #:lower16:.LC42
 2880 1b06 C0F20000 		movt	r0, #:upper16:.LC42
 2881 1b0a FFF7FEFF 		bl	usbPrint
 2882 1b0e 68E0     		b	.L115
 2883              	.L122:
 2884 1b10 40F20000 		movw	r0, #:lower16:.LC43
 2885 1b14 C0F20000 		movt	r0, #:upper16:.LC43
 2886 1b18 FFF7FEFF 		bl	usbPrint
 2887 1b1c 61E0     		b	.L115
 2888              	.L123:
 2889 1b1e 40F20000 		movw	r0, #:lower16:.LC44
 2890 1b22 C0F20000 		movt	r0, #:upper16:.LC44
 2891 1b26 FFF7FEFF 		bl	usbPrint
 2892 1b2a 5AE0     		b	.L115
 2893              	.L124:
 2894 1b2c 40F20000 		movw	r0, #:lower16:.LC45
 2895 1b30 C0F20000 		movt	r0, #:upper16:.LC45
 2896 1b34 FFF7FEFF 		bl	usbPrint
 2897 1b38 53E0     		b	.L115
 2898              	.L125:
 2899 1b3a 40F20000 		movw	r0, #:lower16:.LC46
 2900 1b3e C0F20000 		movt	r0, #:upper16:.LC46
 2901 1b42 FFF7FEFF 		bl	usbPrint
 2902 1b46 4CE0     		b	.L115
 2903              	.L126:
 2904 1b48 40F20000 		movw	r0, #:lower16:.LC47
 2905 1b4c C0F20000 		movt	r0, #:upper16:.LC47
 2906 1b50 FFF7FEFF 		bl	usbPrint
 2907 1b54 45E0     		b	.L115
 2908              	.L127:
 2909 1b56 40F20000 		movw	r0, #:lower16:.LC48
 2910 1b5a C0F20000 		movt	r0, #:upper16:.LC48
 2911 1b5e FFF7FEFF 		bl	usbPrint
 2912 1b62 3EE0     		b	.L115
 2913              	.L128:
 2914 1b64 40F20000 		movw	r0, #:lower16:.LC49
 2915 1b68 C0F20000 		movt	r0, #:upper16:.LC49
 2916 1b6c FFF7FEFF 		bl	usbPrint
 2917 1b70 37E0     		b	.L115
 2918              	.L129:
 2919 1b72 40F20000 		movw	r0, #:lower16:.LC50
 2920 1b76 C0F20000 		movt	r0, #:upper16:.LC50
 2921 1b7a FFF7FEFF 		bl	usbPrint
 2922 1b7e 30E0     		b	.L115
 2923              	.L130:
 2924 1b80 40F20000 		movw	r0, #:lower16:.LC51
 2925 1b84 C0F20000 		movt	r0, #:upper16:.LC51
 2926 1b88 FFF7FEFF 		bl	usbPrint
 2927 1b8c 29E0     		b	.L115
 2928              	.L131:
 2929 1b8e 40F20000 		movw	r0, #:lower16:.LC52
 2930 1b92 C0F20000 		movt	r0, #:upper16:.LC52
 2931 1b96 FFF7FEFF 		bl	usbPrint
 2932 1b9a 22E0     		b	.L115
 2933              	.L132:
 2934 1b9c 40F20000 		movw	r0, #:lower16:.LC53
 2935 1ba0 C0F20000 		movt	r0, #:upper16:.LC53
 2936 1ba4 FFF7FEFF 		bl	usbPrint
 2937 1ba8 1BE0     		b	.L115
 2938              	.L133:
 2939 1baa 40F20000 		movw	r0, #:lower16:.LC54
 2940 1bae C0F20000 		movt	r0, #:upper16:.LC54
 2941 1bb2 FFF7FEFF 		bl	usbPrint
 2942 1bb6 14E0     		b	.L115
 2943              	.L134:
 2944 1bb8 40F20000 		movw	r0, #:lower16:.LC55
 2945 1bbc C0F20000 		movt	r0, #:upper16:.LC55
 2946 1bc0 FFF7FEFF 		bl	usbPrint
 2947 1bc4 0DE0     		b	.L115
 2948              	.L135:
 2949 1bc6 40F20000 		movw	r0, #:lower16:.LC56
 2950 1bca C0F20000 		movt	r0, #:upper16:.LC56
 2951 1bce FFF7FEFF 		bl	usbPrint
 2952 1bd2 06E0     		b	.L115
 2953              	.L136:
 2954 1bd4 40F20000 		movw	r0, #:lower16:.LC57
 2955 1bd8 C0F20000 		movt	r0, #:upper16:.LC57
 2956 1bdc FFF7FEFF 		bl	usbPrint
 2957 1be0 00BF     		nop
 2958              	.L115:
 2959 1be2 40F20003 		movw	r3, #:lower16:eepromConfig
 2960 1be6 C0F20003 		movt	r3, #:upper16:eepromConfig
 2961 1bea 93F86430 		ldrb	r3, [r3, #100]	@ zero_extendqisi2
 2962 1bee 082B     		cmp	r3, #8
 2963 1bf0 1FD0     		beq	.L138
 2964 1bf2 40F20003 		movw	r3, #:lower16:eepromConfig
 2965 1bf6 C0F20003 		movt	r3, #:upper16:eepromConfig
 2966 1bfa 93F86430 		ldrb	r3, [r3, #100]	@ zero_extendqisi2
 2967 1bfe 092B     		cmp	r3, #9
 2968 1c00 17D0     		beq	.L138
 2969 1c02 40F20003 		movw	r3, #:lower16:eepromConfig
 2970 1c06 C0F20003 		movt	r3, #:upper16:eepromConfig
 2971 1c0a 93F86430 		ldrb	r3, [r3, #100]	@ zero_extendqisi2
 2972 1c0e 0A2B     		cmp	r3, #10
 2973 1c10 0FD0     		beq	.L138
 2974 1c12 40F20003 		movw	r3, #:lower16:eepromConfig
 2975 1c16 C0F20003 		movt	r3, #:upper16:eepromConfig
 2976 1c1a 93F86430 		ldrb	r3, [r3, #100]	@ zero_extendqisi2
 2977 1c1e 0B2B     		cmp	r3, #11
 2978 1c20 07D0     		beq	.L138
 2979 1c22 40F20003 		movw	r3, #:lower16:eepromConfig
 2980 1c26 C0F20003 		movt	r3, #:upper16:eepromConfig
 2981 1c2a 93F86430 		ldrb	r3, [r3, #100]	@ zero_extendqisi2
 2982 1c2e 0C2B     		cmp	r3, #12
 2983 1c30 1AD1     		bne	.L139
 2984              	.L138:
 2985 1c32 40F20000 		movw	r0, #:lower16:.LC58
 2986 1c36 C0F20000 		movt	r0, #:upper16:.LC58
 2987 1c3a FFF7FEFF 		bl	usbPrint
 2988 1c3e 40F20003 		movw	r3, #:lower16:eepromConfig
 2989 1c42 C0F20003 		movt	r3, #:upper16:eepromConfig
 2990 1c46 D3F8D431 		ldr	r3, [r3, #468]	@ float
 2991 1c4a 1846     		mov	r0, r3	@ float
 2992 1c4c 03AB     		add	r3, sp, #12
 2993 1c4e 1946     		mov	r1, r3
 2994 1c50 FFF7FEFF 		bl	ftoa
 2995 1c54 03AB     		add	r3, sp, #12
 2996 1c56 1846     		mov	r0, r3
 2997 1c58 FFF7FEFF 		bl	usbPrint
 2998 1c5c 40F20000 		movw	r0, #:lower16:.LC1
 2999 1c60 C0F20000 		movt	r0, #:upper16:.LC1
 3000 1c64 FFF7FEFF 		bl	usbPrint
 3001              	.L139:
 3002 1c68 40F20000 		movw	r0, #:lower16:.LC59
 3003 1c6c C0F20000 		movt	r0, #:upper16:.LC59
 3004 1c70 FFF7FEFF 		bl	usbPrint
 3005 1c74 40F20003 		movw	r3, #:lower16:eepromConfig
 3006 1c78 C0F20003 		movt	r3, #:upper16:eepromConfig
 3007 1c7c D3ED1A7A 		flds	s15, [r3, #104]
 3008 1c80 FDEEE77A 		ftosizs	s15, s15
 3009 1c84 17EE903A 		fmrs	r3, s15	@ int
 3010 1c88 DBB2     		uxtb	r3, r3
 3011 1c8a 5BB2     		sxtb	r3, r3
 3012 1c8c 1846     		mov	r0, r3
 3013 1c8e 03AB     		add	r3, sp, #12
 3014 1c90 1946     		mov	r1, r3
 3015 1c92 4FF00A02 		mov	r2, #10
 3016 1c96 FFF7FEFF 		bl	itoa
 3017 1c9a 03AB     		add	r3, sp, #12
 3018 1c9c 1846     		mov	r0, r3
 3019 1c9e FFF7FEFF 		bl	usbPrint
 3020 1ca2 40F20000 		movw	r0, #:lower16:.LC1
 3021 1ca6 C0F20000 		movt	r0, #:upper16:.LC1
 3022 1caa FFF7FEFF 		bl	usbPrint
 3023 1cae 40F20000 		movw	r0, #:lower16:.LC60
 3024 1cb2 C0F20000 		movt	r0, #:upper16:.LC60
 3025 1cb6 FFF7FEFF 		bl	usbPrint
 3026 1cba 40F20003 		movw	r3, #:lower16:numberMotor
 3027 1cbe C0F20003 		movt	r3, #:upper16:numberMotor
 3028 1cc2 1B78     		ldrb	r3, [r3, #0]	@ zero_extendqisi2
 3029 1cc4 1846     		mov	r0, r3
 3030 1cc6 03AB     		add	r3, sp, #12
 3031 1cc8 1946     		mov	r1, r3
 3032 1cca 4FF00A02 		mov	r2, #10
 3033 1cce FFF7FEFF 		bl	itoa
 3034 1cd2 03AB     		add	r3, sp, #12
 3035 1cd4 1846     		mov	r0, r3
 3036 1cd6 FFF7FEFF 		bl	usbPrint
 3037 1cda 40F20000 		movw	r0, #:lower16:.LC1
 3038 1cde C0F20000 		movt	r0, #:upper16:.LC1
 3039 1ce2 FFF7FEFF 		bl	usbPrint
 3040 1ce6 40F20000 		movw	r0, #:lower16:.LC61
 3041 1cea C0F20000 		movt	r0, #:upper16:.LC61
 3042 1cee FFF7FEFF 		bl	usbPrint
 3043 1cf2 40F20003 		movw	r3, #:lower16:eepromConfig
 3044 1cf6 C0F20003 		movt	r3, #:upper16:eepromConfig
 3045 1cfa B3F86030 		ldrh	r3, [r3, #96]
 3046 1cfe 1846     		mov	r0, r3
 3047 1d00 03AB     		add	r3, sp, #12
 3048 1d02 1946     		mov	r1, r3
 3049 1d04 4FF00A02 		mov	r2, #10
 3050 1d08 FFF7FEFF 		bl	itoa
 3051 1d0c 03AB     		add	r3, sp, #12
 3052 1d0e 1846     		mov	r0, r3
 3053 1d10 FFF7FEFF 		bl	usbPrint
 3054 1d14 40F20000 		movw	r0, #:lower16:.LC1
 3055 1d18 C0F20000 		movt	r0, #:upper16:.LC1
 3056 1d1c FFF7FEFF 		bl	usbPrint
 3057 1d20 40F20000 		movw	r0, #:lower16:.LC62
 3058 1d24 C0F20000 		movt	r0, #:upper16:.LC62
 3059 1d28 FFF7FEFF 		bl	usbPrint
 3060 1d2c 40F20003 		movw	r3, #:lower16:eepromConfig
 3061 1d30 C0F20003 		movt	r3, #:upper16:eepromConfig
 3062 1d34 B3F86230 		ldrh	r3, [r3, #98]
 3063 1d38 1846     		mov	r0, r3
 3064 1d3a 03AB     		add	r3, sp, #12
 3065 1d3c 1946     		mov	r1, r3
 3066 1d3e 4FF00A02 		mov	r2, #10
 3067 1d42 FFF7FEFF 		bl	itoa
 3068 1d46 03AB     		add	r3, sp, #12
 3069 1d48 1846     		mov	r0, r3
 3070 1d4a FFF7FEFF 		bl	usbPrint
 3071 1d4e 40F20000 		movw	r0, #:lower16:.LC1
 3072 1d52 C0F20000 		movt	r0, #:upper16:.LC1
 3073 1d56 FFF7FEFF 		bl	usbPrint
 3074 1d5a 40F20000 		movw	r0, #:lower16:.LC63
 3075 1d5e C0F20000 		movt	r0, #:upper16:.LC63
 3076 1d62 FFF7FEFF 		bl	usbPrint
 3077 1d66 40F20003 		movw	r3, #:lower16:eepromConfig
 3078 1d6a C0F20003 		movt	r3, #:upper16:eepromConfig
 3079 1d6e D3ED1B7A 		flds	s15, [r3, #108]
 3080 1d72 FCEEE77A 		ftouizs	s15, s15
 3081 1d76 17EE903A 		fmrs	r3, s15	@ int
 3082 1d7a 9BB2     		uxth	r3, r3
 3083 1d7c 1846     		mov	r0, r3
 3084 1d7e 03AB     		add	r3, sp, #12
 3085 1d80 1946     		mov	r1, r3
 3086 1d82 4FF00A02 		mov	r2, #10
 3087 1d86 FFF7FEFF 		bl	itoa
 3088 1d8a 03AB     		add	r3, sp, #12
 3089 1d8c 1846     		mov	r0, r3
 3090 1d8e FFF7FEFF 		bl	usbPrint
 3091 1d92 40F20000 		movw	r0, #:lower16:.LC1
 3092 1d96 C0F20000 		movt	r0, #:upper16:.LC1
 3093 1d9a FFF7FEFF 		bl	usbPrint
 3094 1d9e 40F20000 		movw	r0, #:lower16:.LC64
 3095 1da2 C0F20000 		movt	r0, #:upper16:.LC64
 3096 1da6 FFF7FEFF 		bl	usbPrint
 3097 1daa 40F20003 		movw	r3, #:lower16:eepromConfig
 3098 1dae C0F20003 		movt	r3, #:upper16:eepromConfig
 3099 1db2 D3ED1C7A 		flds	s15, [r3, #112]
 3100 1db6 FCEEE77A 		ftouizs	s15, s15
 3101 1dba 17EE903A 		fmrs	r3, s15	@ int
 3102 1dbe 9BB2     		uxth	r3, r3
 3103 1dc0 1846     		mov	r0, r3
 3104 1dc2 03AB     		add	r3, sp, #12
 3105 1dc4 1946     		mov	r1, r3
 3106 1dc6 4FF00A02 		mov	r2, #10
 3107 1dca FFF7FEFF 		bl	itoa
 3108 1dce 03AB     		add	r3, sp, #12
 3109 1dd0 1846     		mov	r0, r3
 3110 1dd2 FFF7FEFF 		bl	usbPrint
 3111 1dd6 40F20000 		movw	r0, #:lower16:.LC1
 3112 1dda C0F20000 		movt	r0, #:upper16:.LC1
 3113 1dde FFF7FEFF 		bl	usbPrint
 3114 1de2 40F20000 		movw	r0, #:lower16:.LC65
 3115 1de6 C0F20000 		movt	r0, #:upper16:.LC65
 3116 1dea FFF7FEFF 		bl	usbPrint
 3117 1dee 40F20003 		movw	r3, #:lower16:eepromConfig
 3118 1df2 C0F20003 		movt	r3, #:upper16:eepromConfig
 3119 1df6 D3ED1D7A 		flds	s15, [r3, #116]
 3120 1dfa FCEEE77A 		ftouizs	s15, s15
 3121 1dfe 17EE903A 		fmrs	r3, s15	@ int
 3122 1e02 9BB2     		uxth	r3, r3
 3123 1e04 1846     		mov	r0, r3
 3124 1e06 03AB     		add	r3, sp, #12
 3125 1e08 1946     		mov	r1, r3
 3126 1e0a 4FF00A02 		mov	r2, #10
 3127 1e0e FFF7FEFF 		bl	itoa
 3128 1e12 03AB     		add	r3, sp, #12
 3129 1e14 1846     		mov	r0, r3
 3130 1e16 FFF7FEFF 		bl	usbPrint
 3131 1e1a 40F20000 		movw	r0, #:lower16:.LC1
 3132 1e1e C0F20000 		movt	r0, #:upper16:.LC1
 3133 1e22 FFF7FEFF 		bl	usbPrint
 3134 1e26 40F20000 		movw	r0, #:lower16:.LC66
 3135 1e2a C0F20000 		movt	r0, #:upper16:.LC66
 3136 1e2e FFF7FEFF 		bl	usbPrint
 3137 1e32 40F20003 		movw	r3, #:lower16:eepromConfig
 3138 1e36 C0F20003 		movt	r3, #:upper16:eepromConfig
 3139 1e3a D3ED1E7A 		flds	s15, [r3, #120]
 3140 1e3e FCEEE77A 		ftouizs	s15, s15
 3141 1e42 17EE903A 		fmrs	r3, s15	@ int
 3142 1e46 9BB2     		uxth	r3, r3
 3143 1e48 1846     		mov	r0, r3
 3144 1e4a 03AB     		add	r3, sp, #12
 3145 1e4c 1946     		mov	r1, r3
 3146 1e4e 4FF00A02 		mov	r2, #10
 3147 1e52 FFF7FEFF 		bl	itoa
 3148 1e56 03AB     		add	r3, sp, #12
 3149 1e58 1846     		mov	r0, r3
 3150 1e5a FFF7FEFF 		bl	usbPrint
 3151 1e5e 40F20000 		movw	r0, #:lower16:.LC1
 3152 1e62 C0F20000 		movt	r0, #:upper16:.LC1
 3153 1e66 FFF7FEFF 		bl	usbPrint
 3154 1e6a 40F20000 		movw	r0, #:lower16:.LC67
 3155 1e6e C0F20000 		movt	r0, #:upper16:.LC67
 3156 1e72 FFF7FEFF 		bl	usbPrint
 3157 1e76 40F20003 		movw	r3, #:lower16:eepromConfig
 3158 1e7a C0F20003 		movt	r3, #:upper16:eepromConfig
 3159 1e7e D3ED1F7A 		flds	s15, [r3, #124]
 3160 1e82 FCEEE77A 		ftouizs	s15, s15
 3161 1e86 17EE903A 		fmrs	r3, s15	@ int
 3162 1e8a 9BB2     		uxth	r3, r3
 3163 1e8c 1846     		mov	r0, r3
 3164 1e8e 03AB     		add	r3, sp, #12
 3165 1e90 1946     		mov	r1, r3
 3166 1e92 4FF00A02 		mov	r2, #10
 3167 1e96 FFF7FEFF 		bl	itoa
 3168 1e9a 03AB     		add	r3, sp, #12
 3169 1e9c 1846     		mov	r0, r3
 3170 1e9e FFF7FEFF 		bl	usbPrint
 3171 1ea2 40F20000 		movw	r0, #:lower16:.LC1
 3172 1ea6 C0F20000 		movt	r0, #:upper16:.LC1
 3173 1eaa FFF7FEFF 		bl	usbPrint
 3174 1eae 40F20003 		movw	r3, #:lower16:eepromConfig
 3175 1eb2 C0F20003 		movt	r3, #:upper16:eepromConfig
 3176 1eb6 93F86430 		ldrb	r3, [r3, #100]	@ zero_extendqisi2
 3177 1eba 012B     		cmp	r3, #1
 3178 1ebc 40F00281 		bne	.L140
 3179 1ec0 40F20000 		movw	r0, #:lower16:.LC68
 3180 1ec4 C0F20000 		movt	r0, #:upper16:.LC68
 3181 1ec8 FFF7FEFF 		bl	usbPrint
 3182 1ecc 40F20003 		movw	r3, #:lower16:eepromConfig
 3183 1ed0 C0F20003 		movt	r3, #:upper16:eepromConfig
 3184 1ed4 D3ED5C7A 		flds	s15, [r3, #368]
 3185 1ed8 FCEEE77A 		ftouizs	s15, s15
 3186 1edc 17EE903A 		fmrs	r3, s15	@ int
 3187 1ee0 9BB2     		uxth	r3, r3
 3188 1ee2 1846     		mov	r0, r3
 3189 1ee4 03AB     		add	r3, sp, #12
 3190 1ee6 1946     		mov	r1, r3
 3191 1ee8 4FF00A02 		mov	r2, #10
 3192 1eec FFF7FEFF 		bl	itoa
 3193 1ef0 03AB     		add	r3, sp, #12
 3194 1ef2 1846     		mov	r0, r3
 3195 1ef4 FFF7FEFF 		bl	usbPrint
 3196 1ef8 40F20000 		movw	r0, #:lower16:.LC1
 3197 1efc C0F20000 		movt	r0, #:upper16:.LC1
 3198 1f00 FFF7FEFF 		bl	usbPrint
 3199 1f04 40F20000 		movw	r0, #:lower16:.LC69
 3200 1f08 C0F20000 		movt	r0, #:upper16:.LC69
 3201 1f0c FFF7FEFF 		bl	usbPrint
 3202 1f10 40F20003 		movw	r3, #:lower16:eepromConfig
 3203 1f14 C0F20003 		movt	r3, #:upper16:eepromConfig
 3204 1f18 D3ED5D7A 		flds	s15, [r3, #372]
 3205 1f1c FCEEE77A 		ftouizs	s15, s15
 3206 1f20 17EE903A 		fmrs	r3, s15	@ int
 3207 1f24 9BB2     		uxth	r3, r3
 3208 1f26 1846     		mov	r0, r3
 3209 1f28 03AB     		add	r3, sp, #12
 3210 1f2a 1946     		mov	r1, r3
 3211 1f2c 4FF00A02 		mov	r2, #10
 3212 1f30 FFF7FEFF 		bl	itoa
 3213 1f34 03AB     		add	r3, sp, #12
 3214 1f36 1846     		mov	r0, r3
 3215 1f38 FFF7FEFF 		bl	usbPrint
 3216 1f3c 40F20000 		movw	r0, #:lower16:.LC1
 3217 1f40 C0F20000 		movt	r0, #:upper16:.LC1
 3218 1f44 FFF7FEFF 		bl	usbPrint
 3219 1f48 40F20000 		movw	r0, #:lower16:.LC70
 3220 1f4c C0F20000 		movt	r0, #:upper16:.LC70
 3221 1f50 FFF7FEFF 		bl	usbPrint
 3222 1f54 40F20003 		movw	r3, #:lower16:eepromConfig
 3223 1f58 C0F20003 		movt	r3, #:upper16:eepromConfig
 3224 1f5c D3ED5E7A 		flds	s15, [r3, #376]
 3225 1f60 FCEEE77A 		ftouizs	s15, s15
 3226 1f64 17EE903A 		fmrs	r3, s15	@ int
 3227 1f68 9BB2     		uxth	r3, r3
 3228 1f6a 1846     		mov	r0, r3
 3229 1f6c 03AB     		add	r3, sp, #12
 3230 1f6e 1946     		mov	r1, r3
 3231 1f70 4FF00A02 		mov	r2, #10
 3232 1f74 FFF7FEFF 		bl	itoa
 3233 1f78 03AB     		add	r3, sp, #12
 3234 1f7a 1846     		mov	r0, r3
 3235 1f7c FFF7FEFF 		bl	usbPrint
 3236 1f80 40F20000 		movw	r0, #:lower16:.LC1
 3237 1f84 C0F20000 		movt	r0, #:upper16:.LC1
 3238 1f88 FFF7FEFF 		bl	usbPrint
 3239 1f8c 40F20000 		movw	r0, #:lower16:.LC71
 3240 1f90 C0F20000 		movt	r0, #:upper16:.LC71
 3241 1f94 FFF7FEFF 		bl	usbPrint
 3242 1f98 40F20003 		movw	r3, #:lower16:eepromConfig
 3243 1f9c C0F20003 		movt	r3, #:upper16:eepromConfig
 3244 1fa0 D3F87C31 		ldr	r3, [r3, #380]	@ float
 3245 1fa4 1846     		mov	r0, r3	@ float
 3246 1fa6 03AB     		add	r3, sp, #12
 3247 1fa8 1946     		mov	r1, r3
 3248 1faa FFF7FEFF 		bl	ftoa
 3249 1fae 03AB     		add	r3, sp, #12
 3250 1fb0 1846     		mov	r0, r3
 3251 1fb2 FFF7FEFF 		bl	usbPrint
 3252 1fb6 40F20000 		movw	r0, #:lower16:.LC1
 3253 1fba C0F20000 		movt	r0, #:upper16:.LC1
 3254 1fbe FFF7FEFF 		bl	usbPrint
 3255 1fc2 40F20000 		movw	r0, #:lower16:.LC72
 3256 1fc6 C0F20000 		movt	r0, #:upper16:.LC72
 3257 1fca FFF7FEFF 		bl	usbPrint
 3258 1fce 40F20003 		movw	r3, #:lower16:eepromConfig
 3259 1fd2 C0F20003 		movt	r3, #:upper16:eepromConfig
 3260 1fd6 D3ED607A 		flds	s15, [r3, #384]
 3261 1fda FCEEE77A 		ftouizs	s15, s15
 3262 1fde 17EE903A 		fmrs	r3, s15	@ int
 3263 1fe2 9BB2     		uxth	r3, r3
 3264 1fe4 1846     		mov	r0, r3
 3265 1fe6 03AB     		add	r3, sp, #12
 3266 1fe8 1946     		mov	r1, r3
 3267 1fea 4FF00A02 		mov	r2, #10
 3268 1fee FFF7FEFF 		bl	itoa
 3269 1ff2 03AB     		add	r3, sp, #12
 3270 1ff4 1846     		mov	r0, r3
 3271 1ff6 FFF7FEFF 		bl	usbPrint
 3272 1ffa 40F20000 		movw	r0, #:lower16:.LC1
 3273 1ffe C0F20000 		movt	r0, #:upper16:.LC1
 3274 2002 FFF7FEFF 		bl	usbPrint
 3275 2006 40F20000 		movw	r0, #:lower16:.LC73
 3276 200a C0F20000 		movt	r0, #:upper16:.LC73
 3277 200e FFF7FEFF 		bl	usbPrint
 3278 2012 40F20003 		movw	r3, #:lower16:eepromConfig
 3279 2016 C0F20003 		movt	r3, #:upper16:eepromConfig
 3280 201a D3ED617A 		flds	s15, [r3, #388]
 3281 201e FCEEE77A 		ftouizs	s15, s15
 3282 2022 17EE903A 		fmrs	r3, s15	@ int
 3283 2026 9BB2     		uxth	r3, r3
 3284 2028 1846     		mov	r0, r3
 3285 202a 03AB     		add	r3, sp, #12
 3286 202c 1946     		mov	r1, r3
 3287 202e 4FF00A02 		mov	r2, #10
 3288 2032 FFF7FEFF 		bl	itoa
 3289 2036 03AB     		add	r3, sp, #12
 3290 2038 1846     		mov	r0, r3
 3291 203a FFF7FEFF 		bl	usbPrint
 3292 203e 40F20000 		movw	r0, #:lower16:.LC1
 3293 2042 C0F20000 		movt	r0, #:upper16:.LC1
 3294 2046 FFF7FEFF 		bl	usbPrint
 3295 204a 40F20000 		movw	r0, #:lower16:.LC74
 3296 204e C0F20000 		movt	r0, #:upper16:.LC74
 3297 2052 FFF7FEFF 		bl	usbPrint
 3298 2056 40F20003 		movw	r3, #:lower16:eepromConfig
 3299 205a C0F20003 		movt	r3, #:upper16:eepromConfig
 3300 205e D3ED627A 		flds	s15, [r3, #392]
 3301 2062 FCEEE77A 		ftouizs	s15, s15
 3302 2066 17EE903A 		fmrs	r3, s15	@ int
 3303 206a 9BB2     		uxth	r3, r3
 3304 206c 1846     		mov	r0, r3
 3305 206e 03AB     		add	r3, sp, #12
 3306 2070 1946     		mov	r1, r3
 3307 2072 4FF00A02 		mov	r2, #10
 3308 2076 FFF7FEFF 		bl	itoa
 3309 207a 03AB     		add	r3, sp, #12
 3310 207c 1846     		mov	r0, r3
 3311 207e FFF7FEFF 		bl	usbPrint
 3312 2082 40F20000 		movw	r0, #:lower16:.LC1
 3313 2086 C0F20000 		movt	r0, #:upper16:.LC1
 3314 208a FFF7FEFF 		bl	usbPrint
 3315 208e 40F20000 		movw	r0, #:lower16:.LC75
 3316 2092 C0F20000 		movt	r0, #:upper16:.LC75
 3317 2096 FFF7FEFF 		bl	usbPrint
 3318 209a 40F20003 		movw	r3, #:lower16:eepromConfig
 3319 209e C0F20003 		movt	r3, #:upper16:eepromConfig
 3320 20a2 D3F88C31 		ldr	r3, [r3, #396]	@ float
 3321 20a6 1846     		mov	r0, r3	@ float
 3322 20a8 03AB     		add	r3, sp, #12
 3323 20aa 1946     		mov	r1, r3
 3324 20ac FFF7FEFF 		bl	ftoa
 3325 20b0 03AB     		add	r3, sp, #12
 3326 20b2 1846     		mov	r0, r3
 3327 20b4 FFF7FEFF 		bl	usbPrint
 3328 20b8 40F20000 		movw	r0, #:lower16:.LC1
 3329 20bc C0F20000 		movt	r0, #:upper16:.LC1
 3330 20c0 FFF7FEFF 		bl	usbPrint
 3331              	.L140:
 3332 20c4 40F20003 		movw	r3, #:lower16:eepromConfig
 3333 20c8 C0F20003 		movt	r3, #:upper16:eepromConfig
 3334 20cc 93F86430 		ldrb	r3, [r3, #100]	@ zero_extendqisi2
 3335 20d0 032B     		cmp	r3, #3
 3336 20d2 40F0CC80 		bne	.L141
 3337 20d6 40F20000 		movw	r0, #:lower16:.LC76
 3338 20da C0F20000 		movt	r0, #:upper16:.LC76
 3339 20de FFF7FEFF 		bl	usbPrint
 3340 20e2 40F20003 		movw	r3, #:lower16:eepromConfig
 3341 20e6 C0F20003 		movt	r3, #:upper16:eepromConfig
 3342 20ea D3ED6C7A 		flds	s15, [r3, #432]
 3343 20ee FCEEE77A 		ftouizs	s15, s15
 3344 20f2 17EE903A 		fmrs	r3, s15	@ int
 3345 20f6 9BB2     		uxth	r3, r3
 3346 20f8 1846     		mov	r0, r3
 3347 20fa 03AB     		add	r3, sp, #12
 3348 20fc 1946     		mov	r1, r3
 3349 20fe 4FF00A02 		mov	r2, #10
 3350 2102 FFF7FEFF 		bl	itoa
 3351 2106 03AB     		add	r3, sp, #12
 3352 2108 1846     		mov	r0, r3
 3353 210a FFF7FEFF 		bl	usbPrint
 3354 210e 40F20000 		movw	r0, #:lower16:.LC1
 3355 2112 C0F20000 		movt	r0, #:upper16:.LC1
 3356 2116 FFF7FEFF 		bl	usbPrint
 3357 211a 40F20000 		movw	r0, #:lower16:.LC77
 3358 211e C0F20000 		movt	r0, #:upper16:.LC77
 3359 2122 FFF7FEFF 		bl	usbPrint
 3360 2126 40F20003 		movw	r3, #:lower16:eepromConfig
 3361 212a C0F20003 		movt	r3, #:upper16:eepromConfig
 3362 212e D3ED6D7A 		flds	s15, [r3, #436]
 3363 2132 FCEEE77A 		ftouizs	s15, s15
 3364 2136 17EE903A 		fmrs	r3, s15	@ int
 3365 213a 9BB2     		uxth	r3, r3
 3366 213c 1846     		mov	r0, r3
 3367 213e 03AB     		add	r3, sp, #12
 3368 2140 1946     		mov	r1, r3
 3369 2142 4FF00A02 		mov	r2, #10
 3370 2146 FFF7FEFF 		bl	itoa
 3371 214a 03AB     		add	r3, sp, #12
 3372 214c 1846     		mov	r0, r3
 3373 214e FFF7FEFF 		bl	usbPrint
 3374 2152 40F20000 		movw	r0, #:lower16:.LC1
 3375 2156 C0F20000 		movt	r0, #:upper16:.LC1
 3376 215a FFF7FEFF 		bl	usbPrint
 3377 215e 40F20000 		movw	r0, #:lower16:.LC78
 3378 2162 C0F20000 		movt	r0, #:upper16:.LC78
 3379 2166 FFF7FEFF 		bl	usbPrint
 3380 216a 40F20003 		movw	r3, #:lower16:eepromConfig
 3381 216e C0F20003 		movt	r3, #:upper16:eepromConfig
 3382 2172 D3ED6E7A 		flds	s15, [r3, #440]
 3383 2176 FCEEE77A 		ftouizs	s15, s15
 3384 217a 17EE903A 		fmrs	r3, s15	@ int
 3385 217e 9BB2     		uxth	r3, r3
 3386 2180 1846     		mov	r0, r3
 3387 2182 03AB     		add	r3, sp, #12
 3388 2184 1946     		mov	r1, r3
 3389 2186 4FF00A02 		mov	r2, #10
 3390 218a FFF7FEFF 		bl	itoa
 3391 218e 03AB     		add	r3, sp, #12
 3392 2190 1846     		mov	r0, r3
 3393 2192 FFF7FEFF 		bl	usbPrint
 3394 2196 40F20000 		movw	r0, #:lower16:.LC1
 3395 219a C0F20000 		movt	r0, #:upper16:.LC1
 3396 219e FFF7FEFF 		bl	usbPrint
 3397 21a2 40F20000 		movw	r0, #:lower16:.LC79
 3398 21a6 C0F20000 		movt	r0, #:upper16:.LC79
 3399 21aa FFF7FEFF 		bl	usbPrint
 3400 21ae 40F20003 		movw	r3, #:lower16:eepromConfig
 3401 21b2 C0F20003 		movt	r3, #:upper16:eepromConfig
 3402 21b6 D3ED6F7A 		flds	s15, [r3, #444]
 3403 21ba FCEEE77A 		ftouizs	s15, s15
 3404 21be 17EE903A 		fmrs	r3, s15	@ int
 3405 21c2 9BB2     		uxth	r3, r3
 3406 21c4 1846     		mov	r0, r3
 3407 21c6 03AB     		add	r3, sp, #12
 3408 21c8 1946     		mov	r1, r3
 3409 21ca 4FF00A02 		mov	r2, #10
 3410 21ce FFF7FEFF 		bl	itoa
 3411 21d2 03AB     		add	r3, sp, #12
 3412 21d4 1846     		mov	r0, r3
 3413 21d6 FFF7FEFF 		bl	usbPrint
 3414 21da 40F20000 		movw	r0, #:lower16:.LC1
 3415 21de C0F20000 		movt	r0, #:upper16:.LC1
 3416 21e2 FFF7FEFF 		bl	usbPrint
 3417 21e6 40F20000 		movw	r0, #:lower16:.LC80
 3418 21ea C0F20000 		movt	r0, #:upper16:.LC80
 3419 21ee FFF7FEFF 		bl	usbPrint
 3420 21f2 40F20003 		movw	r3, #:lower16:eepromConfig
 3421 21f6 C0F20003 		movt	r3, #:upper16:eepromConfig
 3422 21fa D3ED707A 		flds	s15, [r3, #448]
 3423 21fe FCEEE77A 		ftouizs	s15, s15
 3424 2202 17EE903A 		fmrs	r3, s15	@ int
 3425 2206 9BB2     		uxth	r3, r3
 3426 2208 1846     		mov	r0, r3
 3427 220a 03AB     		add	r3, sp, #12
 3428 220c 1946     		mov	r1, r3
 3429 220e 4FF00A02 		mov	r2, #10
 3430 2212 FFF7FEFF 		bl	itoa
 3431 2216 03AB     		add	r3, sp, #12
 3432 2218 1846     		mov	r0, r3
 3433 221a FFF7FEFF 		bl	usbPrint
 3434 221e 40F20000 		movw	r0, #:lower16:.LC1
 3435 2222 C0F20000 		movt	r0, #:upper16:.LC1
 3436 2226 FFF7FEFF 		bl	usbPrint
 3437 222a 40F20000 		movw	r0, #:lower16:.LC81
 3438 222e C0F20000 		movt	r0, #:upper16:.LC81
 3439 2232 FFF7FEFF 		bl	usbPrint
 3440 2236 40F20003 		movw	r3, #:lower16:eepromConfig
 3441 223a C0F20003 		movt	r3, #:upper16:eepromConfig
 3442 223e D3ED717A 		flds	s15, [r3, #452]
 3443 2242 FCEEE77A 		ftouizs	s15, s15
 3444 2246 17EE903A 		fmrs	r3, s15	@ int
 3445 224a 9BB2     		uxth	r3, r3
 3446 224c 1846     		mov	r0, r3
 3447 224e 03AB     		add	r3, sp, #12
 3448 2250 1946     		mov	r1, r3
 3449 2252 4FF00A02 		mov	r2, #10
 3450 2256 FFF7FEFF 		bl	itoa
 3451 225a 03AB     		add	r3, sp, #12
 3452 225c 1846     		mov	r0, r3
 3453 225e FFF7FEFF 		bl	usbPrint
 3454 2262 40F20000 		movw	r0, #:lower16:.LC1
 3455 2266 C0F20000 		movt	r0, #:upper16:.LC1
 3456 226a FFF7FEFF 		bl	usbPrint
 3457              	.L141:
 3458 226e 40F20003 		movw	r3, #:lower16:eepromConfig
 3459 2272 C0F20003 		movt	r3, #:upper16:eepromConfig
 3460 2276 93F86430 		ldrb	r3, [r3, #100]	@ zero_extendqisi2
 3461 227a 042B     		cmp	r3, #4
 3462 227c 65D1     		bne	.L142
 3463 227e 40F20000 		movw	r0, #:lower16:.LC82
 3464 2282 C0F20000 		movt	r0, #:upper16:.LC82
 3465 2286 FFF7FEFF 		bl	usbPrint
 3466 228a 40F20003 		movw	r3, #:lower16:eepromConfig
 3467 228e C0F20003 		movt	r3, #:upper16:eepromConfig
 3468 2292 D3ED727A 		flds	s15, [r3, #456]
 3469 2296 FCEEE77A 		ftouizs	s15, s15
 3470 229a 17EE903A 		fmrs	r3, s15	@ int
 3471 229e 9BB2     		uxth	r3, r3
 3472 22a0 1846     		mov	r0, r3
 3473 22a2 03AB     		add	r3, sp, #12
 3474 22a4 1946     		mov	r1, r3
 3475 22a6 4FF00A02 		mov	r2, #10
 3476 22aa FFF7FEFF 		bl	itoa
 3477 22ae 03AB     		add	r3, sp, #12
 3478 22b0 1846     		mov	r0, r3
 3479 22b2 FFF7FEFF 		bl	usbPrint
 3480 22b6 40F20000 		movw	r0, #:lower16:.LC1
 3481 22ba C0F20000 		movt	r0, #:upper16:.LC1
 3482 22be FFF7FEFF 		bl	usbPrint
 3483 22c2 40F20000 		movw	r0, #:lower16:.LC83
 3484 22c6 C0F20000 		movt	r0, #:upper16:.LC83
 3485 22ca FFF7FEFF 		bl	usbPrint
 3486 22ce 40F20003 		movw	r3, #:lower16:eepromConfig
 3487 22d2 C0F20003 		movt	r3, #:upper16:eepromConfig
 3488 22d6 D3ED737A 		flds	s15, [r3, #460]
 3489 22da FCEEE77A 		ftouizs	s15, s15
 3490 22de 17EE903A 		fmrs	r3, s15	@ int
 3491 22e2 9BB2     		uxth	r3, r3
 3492 22e4 1846     		mov	r0, r3
 3493 22e6 03AB     		add	r3, sp, #12
 3494 22e8 1946     		mov	r1, r3
 3495 22ea 4FF00A02 		mov	r2, #10
 3496 22ee FFF7FEFF 		bl	itoa
 3497 22f2 03AB     		add	r3, sp, #12
 3498 22f4 1846     		mov	r0, r3
 3499 22f6 FFF7FEFF 		bl	usbPrint
 3500 22fa 40F20000 		movw	r0, #:lower16:.LC1
 3501 22fe C0F20000 		movt	r0, #:upper16:.LC1
 3502 2302 FFF7FEFF 		bl	usbPrint
 3503 2306 40F20000 		movw	r0, #:lower16:.LC84
 3504 230a C0F20000 		movt	r0, #:upper16:.LC84
 3505 230e FFF7FEFF 		bl	usbPrint
 3506 2312 40F20003 		movw	r3, #:lower16:eepromConfig
 3507 2316 C0F20003 		movt	r3, #:upper16:eepromConfig
 3508 231a D3ED747A 		flds	s15, [r3, #464]
 3509 231e FCEEE77A 		ftouizs	s15, s15
 3510 2322 17EE903A 		fmrs	r3, s15	@ int
 3511 2326 9BB2     		uxth	r3, r3
 3512 2328 1846     		mov	r0, r3
 3513 232a 03AB     		add	r3, sp, #12
 3514 232c 1946     		mov	r1, r3
 3515 232e 4FF00A02 		mov	r2, #10
 3516 2332 FFF7FEFF 		bl	itoa
 3517 2336 03AB     		add	r3, sp, #12
 3518 2338 1846     		mov	r0, r3
 3519 233a FFF7FEFF 		bl	usbPrint
 3520 233e 40F20000 		movw	r0, #:lower16:.LC1
 3521 2342 C0F20000 		movt	r0, #:upper16:.LC1
 3522 2346 FFF7FEFF 		bl	usbPrint
 3523              	.L142:
 3524 234a 40F20003 		movw	r3, #:lower16:eepromConfig
 3525 234e C0F20003 		movt	r3, #:upper16:eepromConfig
 3526 2352 93F86430 		ldrb	r3, [r3, #100]	@ zero_extendqisi2
 3527 2356 022B     		cmp	r3, #2
 3528 2358 40F01081 		bne	.L143
 3529 235c 40F20000 		movw	r0, #:lower16:.LC85
 3530 2360 C0F20000 		movt	r0, #:upper16:.LC85
 3531 2364 FFF7FEFF 		bl	usbPrint
 3532 2368 40F20003 		movw	r3, #:lower16:eepromConfig
 3533 236c C0F20003 		movt	r3, #:upper16:eepromConfig
 3534 2370 D3ED647A 		flds	s15, [r3, #400]
 3535 2374 FCEEE77A 		ftouizs	s15, s15
 3536 2378 17EE903A 		fmrs	r3, s15	@ int
 3537 237c 9BB2     		uxth	r3, r3
 3538 237e 1846     		mov	r0, r3
 3539 2380 03AB     		add	r3, sp, #12
 3540 2382 1946     		mov	r1, r3
 3541 2384 4FF00A02 		mov	r2, #10
 3542 2388 FFF7FEFF 		bl	itoa
 3543 238c 03AB     		add	r3, sp, #12
 3544 238e 1846     		mov	r0, r3
 3545 2390 FFF7FEFF 		bl	usbPrint
 3546 2394 40F20000 		movw	r0, #:lower16:.LC1
 3547 2398 C0F20000 		movt	r0, #:upper16:.LC1
 3548 239c FFF7FEFF 		bl	usbPrint
 3549 23a0 40F20000 		movw	r0, #:lower16:.LC86
 3550 23a4 C0F20000 		movt	r0, #:upper16:.LC86
 3551 23a8 FFF7FEFF 		bl	usbPrint
 3552 23ac 40F20003 		movw	r3, #:lower16:eepromConfig
 3553 23b0 C0F20003 		movt	r3, #:upper16:eepromConfig
 3554 23b4 D3ED657A 		flds	s15, [r3, #404]
 3555 23b8 FCEEE77A 		ftouizs	s15, s15
 3556 23bc 17EE903A 		fmrs	r3, s15	@ int
 3557 23c0 9BB2     		uxth	r3, r3
 3558 23c2 1846     		mov	r0, r3
 3559 23c4 03AB     		add	r3, sp, #12
 3560 23c6 1946     		mov	r1, r3
 3561 23c8 4FF00A02 		mov	r2, #10
 3562 23cc FFF7FEFF 		bl	itoa
 3563 23d0 03AB     		add	r3, sp, #12
 3564 23d2 1846     		mov	r0, r3
 3565 23d4 FFF7FEFF 		bl	usbPrint
 3566 23d8 40F20000 		movw	r0, #:lower16:.LC1
 3567 23dc C0F20000 		movt	r0, #:upper16:.LC1
 3568 23e0 FFF7FEFF 		bl	usbPrint
 3569 23e4 40F20000 		movw	r0, #:lower16:.LC87
 3570 23e8 C0F20000 		movt	r0, #:upper16:.LC87
 3571 23ec FFF7FEFF 		bl	usbPrint
 3572 23f0 40F20003 		movw	r3, #:lower16:eepromConfig
 3573 23f4 C0F20003 		movt	r3, #:upper16:eepromConfig
 3574 23f8 D3ED667A 		flds	s15, [r3, #408]
 3575 23fc FCEEE77A 		ftouizs	s15, s15
 3576 2400 17EE903A 		fmrs	r3, s15	@ int
 3577 2404 9BB2     		uxth	r3, r3
 3578 2406 1846     		mov	r0, r3
 3579 2408 03AB     		add	r3, sp, #12
 3580 240a 1946     		mov	r1, r3
 3581 240c 4FF00A02 		mov	r2, #10
 3582 2410 FFF7FEFF 		bl	itoa
 3583 2414 03AB     		add	r3, sp, #12
 3584 2416 1846     		mov	r0, r3
 3585 2418 FFF7FEFF 		bl	usbPrint
 3586 241c 40F20000 		movw	r0, #:lower16:.LC1
 3587 2420 C0F20000 		movt	r0, #:upper16:.LC1
 3588 2424 FFF7FEFF 		bl	usbPrint
 3589 2428 40F20000 		movw	r0, #:lower16:.LC88
 3590 242c C0F20000 		movt	r0, #:upper16:.LC88
 3591 2430 FFF7FEFF 		bl	usbPrint
 3592 2434 40F20003 		movw	r3, #:lower16:eepromConfig
 3593 2438 C0F20003 		movt	r3, #:upper16:eepromConfig
 3594 243c D3ED677A 		flds	s15, [r3, #412]
 3595 2440 FCEEE77A 		ftouizs	s15, s15
 3596 2444 17EE903A 		fmrs	r3, s15	@ int
 3597 2448 9BB2     		uxth	r3, r3
 3598 244a 1846     		mov	r0, r3
 3599 244c 03AB     		add	r3, sp, #12
 3600 244e 1946     		mov	r1, r3
 3601 2450 4FF00A02 		mov	r2, #10
 3602 2454 FFF7FEFF 		bl	itoa
 3603 2458 03AB     		add	r3, sp, #12
 3604 245a 1846     		mov	r0, r3
 3605 245c FFF7FEFF 		bl	usbPrint
 3606 2460 40F20000 		movw	r0, #:lower16:.LC1
 3607 2464 C0F20000 		movt	r0, #:upper16:.LC1
 3608 2468 FFF7FEFF 		bl	usbPrint
 3609 246c 40F20000 		movw	r0, #:lower16:.LC89
 3610 2470 C0F20000 		movt	r0, #:upper16:.LC89
 3611 2474 FFF7FEFF 		bl	usbPrint
 3612 2478 40F20003 		movw	r3, #:lower16:eepromConfig
 3613 247c C0F20003 		movt	r3, #:upper16:eepromConfig
 3614 2480 D3ED687A 		flds	s15, [r3, #416]
 3615 2484 FCEEE77A 		ftouizs	s15, s15
 3616 2488 17EE903A 		fmrs	r3, s15	@ int
 3617 248c 9BB2     		uxth	r3, r3
 3618 248e 1846     		mov	r0, r3
 3619 2490 03AB     		add	r3, sp, #12
 3620 2492 1946     		mov	r1, r3
 3621 2494 4FF00A02 		mov	r2, #10
 3622 2498 FFF7FEFF 		bl	itoa
 3623 249c 03AB     		add	r3, sp, #12
 3624 249e 1846     		mov	r0, r3
 3625 24a0 FFF7FEFF 		bl	usbPrint
 3626 24a4 40F20000 		movw	r0, #:lower16:.LC1
 3627 24a8 C0F20000 		movt	r0, #:upper16:.LC1
 3628 24ac FFF7FEFF 		bl	usbPrint
 3629 24b0 40F20000 		movw	r0, #:lower16:.LC90
 3630 24b4 C0F20000 		movt	r0, #:upper16:.LC90
 3631 24b8 FFF7FEFF 		bl	usbPrint
 3632 24bc 40F20003 		movw	r3, #:lower16:eepromConfig
 3633 24c0 C0F20003 		movt	r3, #:upper16:eepromConfig
 3634 24c4 D3ED697A 		flds	s15, [r3, #420]
 3635 24c8 FCEEE77A 		ftouizs	s15, s15
 3636 24cc 17EE903A 		fmrs	r3, s15	@ int
 3637 24d0 9BB2     		uxth	r3, r3
 3638 24d2 1846     		mov	r0, r3
 3639 24d4 03AB     		add	r3, sp, #12
 3640 24d6 1946     		mov	r1, r3
 3641 24d8 4FF00A02 		mov	r2, #10
 3642 24dc FFF7FEFF 		bl	itoa
 3643 24e0 03AB     		add	r3, sp, #12
 3644 24e2 1846     		mov	r0, r3
 3645 24e4 FFF7FEFF 		bl	usbPrint
 3646 24e8 40F20000 		movw	r0, #:lower16:.LC1
 3647 24ec C0F20000 		movt	r0, #:upper16:.LC1
 3648 24f0 FFF7FEFF 		bl	usbPrint
 3649 24f4 40F20000 		movw	r0, #:lower16:.LC91
 3650 24f8 C0F20000 		movt	r0, #:upper16:.LC91
 3651 24fc FFF7FEFF 		bl	usbPrint
 3652 2500 40F20003 		movw	r3, #:lower16:eepromConfig
 3653 2504 C0F20003 		movt	r3, #:upper16:eepromConfig
 3654 2508 D3ED6A7A 		flds	s15, [r3, #424]
 3655 250c FCEEE77A 		ftouizs	s15, s15
 3656 2510 17EE903A 		fmrs	r3, s15	@ int
 3657 2514 9BB2     		uxth	r3, r3
 3658 2516 1846     		mov	r0, r3
 3659 2518 03AB     		add	r3, sp, #12
 3660 251a 1946     		mov	r1, r3
 3661 251c 4FF00A02 		mov	r2, #10
 3662 2520 FFF7FEFF 		bl	itoa
 3663 2524 03AB     		add	r3, sp, #12
 3664 2526 1846     		mov	r0, r3
 3665 2528 FFF7FEFF 		bl	usbPrint
 3666 252c 40F20000 		movw	r0, #:lower16:.LC1
 3667 2530 C0F20000 		movt	r0, #:upper16:.LC1
 3668 2534 FFF7FEFF 		bl	usbPrint
 3669 2538 40F20000 		movw	r0, #:lower16:.LC92
 3670 253c C0F20000 		movt	r0, #:upper16:.LC92
 3671 2540 FFF7FEFF 		bl	usbPrint
 3672 2544 40F20003 		movw	r3, #:lower16:eepromConfig
 3673 2548 C0F20003 		movt	r3, #:upper16:eepromConfig
 3674 254c D3ED6B7A 		flds	s15, [r3, #428]
 3675 2550 FCEEE77A 		ftouizs	s15, s15
 3676 2554 17EE903A 		fmrs	r3, s15	@ int
 3677 2558 9BB2     		uxth	r3, r3
 3678 255a 1846     		mov	r0, r3
 3679 255c 03AB     		add	r3, sp, #12
 3680 255e 1946     		mov	r1, r3
 3681 2560 4FF00A02 		mov	r2, #10
 3682 2564 FFF7FEFF 		bl	itoa
 3683 2568 03AB     		add	r3, sp, #12
 3684 256a 1846     		mov	r0, r3
 3685 256c FFF7FEFF 		bl	usbPrint
 3686 2570 40F20000 		movw	r0, #:lower16:.LC1
 3687 2574 C0F20000 		movt	r0, #:upper16:.LC1
 3688 2578 FFF7FEFF 		bl	usbPrint
 3689              	.L143:
 3690 257c 40F20003 		movw	r3, #:lower16:queryType
 3691 2580 C0F20003 		movt	r3, #:upper16:queryType
 3692 2584 4FF07802 		mov	r2, #120
 3693 2588 1A70     		strb	r2, [r3, #0]
 3694 258a 40F20003 		movw	r3, #:lower16:validCommand
 3695 258e C0F20003 		movt	r3, #:upper16:validCommand
 3696 2592 4FF00002 		mov	r2, #0
 3697 2596 1A70     		strb	r2, [r3, #0]
 3698 2598 01F0FBB8 		b	.L17
 3699              	.L87:
 3700 259c 40F20000 		movw	r0, #:lower16:.LC93
 3701 25a0 C0F20000 		movt	r0, #:upper16:.LC93
 3702 25a4 FFF7FEFF 		bl	usbPrint
 3703 25a8 40F20003 		movw	r3, #:lower16:eepromConfig
 3704 25ac C0F20003 		movt	r3, #:upper16:eepromConfig
 3705 25b0 93F8D831 		ldrb	r3, [r3, #472]	@ zero_extendqisi2
 3706 25b4 1846     		mov	r0, r3
 3707 25b6 03AB     		add	r3, sp, #12
 3708 25b8 1946     		mov	r1, r3
 3709 25ba 4FF00A02 		mov	r2, #10
 3710 25be FFF7FEFF 		bl	itoa
 3711 25c2 03AB     		add	r3, sp, #12
 3712 25c4 1846     		mov	r0, r3
 3713 25c6 FFF7FEFF 		bl	usbPrint
 3714 25ca 40F20000 		movw	r0, #:lower16:.LC94
 3715 25ce C0F20000 		movt	r0, #:upper16:.LC94
 3716 25d2 FFF7FEFF 		bl	usbPrint
 3717 25d6 40F20000 		movw	r0, #:lower16:.LC95
 3718 25da C0F20000 		movt	r0, #:upper16:.LC95
 3719 25de FFF7FEFF 		bl	usbPrint
 3720 25e2 4FF00003 		mov	r3, #0
 3721 25e6 8DF81B30 		strb	r3, [sp, #27]
 3722 25ea 7BE0     		b	.L144
 3723              	.L145:
 3724 25ec 40F20000 		movw	r0, #:lower16:.LC96
 3725 25f0 C0F20000 		movt	r0, #:upper16:.LC96
 3726 25f4 FFF7FEFF 		bl	usbPrint
 3727 25f8 9DF81B30 		ldrb	r3, [sp, #27]	@ zero_extendqisi2
 3728 25fc 1846     		mov	r0, r3
 3729 25fe 03AB     		add	r3, sp, #12
 3730 2600 1946     		mov	r1, r3
 3731 2602 4FF00A02 		mov	r2, #10
 3732 2606 FFF7FEFF 		bl	itoa
 3733 260a 03AB     		add	r3, sp, #12
 3734 260c 1846     		mov	r0, r3
 3735 260e FFF7FEFF 		bl	usbPrint
 3736 2612 40F20000 		movw	r0, #:lower16:.LC97
 3737 2616 C0F20000 		movt	r0, #:upper16:.LC97
 3738 261a FFF7FEFF 		bl	usbPrint
 3739 261e 9DF81B10 		ldrb	r1, [sp, #27]	@ zero_extendqisi2
 3740 2622 40F20002 		movw	r2, #:lower16:eepromConfig
 3741 2626 C0F20002 		movt	r2, #:upper16:eepromConfig
 3742 262a 0B46     		mov	r3, r1
 3743 262c 4FEA4303 		lsl	r3, r3, #1
 3744 2630 5B18     		adds	r3, r3, r1
 3745 2632 4FEA8303 		lsl	r3, r3, #2
 3746 2636 D318     		adds	r3, r2, r3
 3747 2638 03F5EE73 		add	r3, r3, #476
 3748 263c 1B68     		ldr	r3, [r3, #0]	@ float
 3749 263e 1846     		mov	r0, r3	@ float
 3750 2640 03AB     		add	r3, sp, #12
 3751 2642 1946     		mov	r1, r3
 3752 2644 FFF7FEFF 		bl	ftoa
 3753 2648 03AB     		add	r3, sp, #12
 3754 264a 1846     		mov	r0, r3
 3755 264c FFF7FEFF 		bl	usbPrint
 3756 2650 40F20000 		movw	r0, #:lower16:.LC97
 3757 2654 C0F20000 		movt	r0, #:upper16:.LC97
 3758 2658 FFF7FEFF 		bl	usbPrint
 3759 265c 9DF81B10 		ldrb	r1, [sp, #27]	@ zero_extendqisi2
 3760 2660 40F20002 		movw	r2, #:lower16:eepromConfig
 3761 2664 C0F20002 		movt	r2, #:upper16:eepromConfig
 3762 2668 0B46     		mov	r3, r1
 3763 266a 4FEA4303 		lsl	r3, r3, #1
 3764 266e 5B18     		adds	r3, r3, r1
 3765 2670 4FEA8303 		lsl	r3, r3, #2
 3766 2674 D318     		adds	r3, r2, r3
 3767 2676 03F5F073 		add	r3, r3, #480
 3768 267a 1B68     		ldr	r3, [r3, #0]	@ float
 3769 267c 1846     		mov	r0, r3	@ float
 3770 267e 03AB     		add	r3, sp, #12
 3771 2680 1946     		mov	r1, r3
 3772 2682 FFF7FEFF 		bl	ftoa
 3773 2686 03AB     		add	r3, sp, #12
 3774 2688 1846     		mov	r0, r3
 3775 268a FFF7FEFF 		bl	usbPrint
 3776 268e 40F20000 		movw	r0, #:lower16:.LC97
 3777 2692 C0F20000 		movt	r0, #:upper16:.LC97
 3778 2696 FFF7FEFF 		bl	usbPrint
 3779 269a 9DF81B10 		ldrb	r1, [sp, #27]	@ zero_extendqisi2
 3780 269e 40F20002 		movw	r2, #:lower16:eepromConfig
 3781 26a2 C0F20002 		movt	r2, #:upper16:eepromConfig
 3782 26a6 0B46     		mov	r3, r1
 3783 26a8 4FEA4303 		lsl	r3, r3, #1
 3784 26ac 5B18     		adds	r3, r3, r1
 3785 26ae 4FEA8303 		lsl	r3, r3, #2
 3786 26b2 D318     		adds	r3, r2, r3
 3787 26b4 03F5F273 		add	r3, r3, #484
 3788 26b8 1B68     		ldr	r3, [r3, #0]	@ float
 3789 26ba 1846     		mov	r0, r3	@ float
 3790 26bc 03AB     		add	r3, sp, #12
 3791 26be 1946     		mov	r1, r3
 3792 26c0 FFF7FEFF 		bl	ftoa
 3793 26c4 03AB     		add	r3, sp, #12
 3794 26c6 1846     		mov	r0, r3
 3795 26c8 FFF7FEFF 		bl	usbPrint
 3796 26cc 40F20000 		movw	r0, #:lower16:.LC1
 3797 26d0 C0F20000 		movt	r0, #:upper16:.LC1
 3798 26d4 FFF7FEFF 		bl	usbPrint
 3799 26d8 9DF81B30 		ldrb	r3, [sp, #27]
 3800 26dc 03F10103 		add	r3, r3, #1
 3801 26e0 8DF81B30 		strb	r3, [sp, #27]
 3802              	.L144:
 3803 26e4 40F20003 		movw	r3, #:lower16:eepromConfig
 3804 26e8 C0F20003 		movt	r3, #:upper16:eepromConfig
 3805 26ec 93F8D831 		ldrb	r3, [r3, #472]	@ zero_extendqisi2
 3806 26f0 9DF81B20 		ldrb	r2, [sp, #27]	@ zero_extendqisi2
 3807 26f4 9A42     		cmp	r2, r3
 3808 26f6 FFF479AF 		bcc	.L145
 3809 26fa 40F20003 		movw	r3, #:lower16:queryType
 3810 26fe C0F20003 		movt	r3, #:upper16:queryType
 3811 2702 4FF07802 		mov	r2, #120
 3812 2706 1A70     		strb	r2, [r3, #0]
 3813 2708 40F20003 		movw	r3, #:lower16:validCommand
 3814 270c C0F20003 		movt	r3, #:upper16:validCommand
 3815 2710 4FF00002 		mov	r2, #0
 3816 2714 1A70     		strb	r2, [r3, #0]
 3817 2716 01F03CB8 		b	.L17
 3818              	.L88:
 3819 271a 40F20003 		movw	r3, #:lower16:eepromConfig
 3820 271e C0F20003 		movt	r3, #:upper16:eepromConfig
 3821 2722 93F85530 		ldrb	r3, [r3, #85]	@ zero_extendqisi2
 3822 2726 032B     		cmp	r3, #3
 3823 2728 4FD1     		bne	.L146
 3824 272a 4FF00003 		mov	r3, #0
 3825 272e 8DF81B30 		strb	r3, [sp, #27]
 3826 2732 1EE0     		b	.L147
 3827              	.L148:
 3828 2734 9DF81B20 		ldrb	r2, [sp, #27]	@ zero_extendqisi2
 3829 2738 40F20003 		movw	r3, #:lower16:spektrumChannelData
 3830 273c C0F20003 		movt	r3, #:upper16:spektrumChannelData
 3831 2740 53F82230 		ldr	r3, [r3, r2, lsl #2]
 3832 2744 1846     		mov	r0, r3
 3833 2746 03AB     		add	r3, sp, #12
 3834 2748 1946     		mov	r1, r3
 3835 274a 4FF00A02 		mov	r2, #10
 3836 274e FFF7FEFF 		bl	itoa
 3837 2752 03AB     		add	r3, sp, #12
 3838 2754 1846     		mov	r0, r3
 3839 2756 FFF7FEFF 		bl	usbPrint
 3840 275a 40F20000 		movw	r0, #:lower16:.LC0
 3841 275e C0F20000 		movt	r0, #:upper16:.LC0
 3842 2762 FFF7FEFF 		bl	usbPrint
 3843 2766 9DF81B30 		ldrb	r3, [sp, #27]
 3844 276a 03F10103 		add	r3, r3, #1
 3845 276e 8DF81B30 		strb	r3, [sp, #27]
 3846              	.L147:
 3847 2772 9DF81B20 		ldrb	r2, [sp, #27]	@ zero_extendqisi2
 3848 2776 40F20003 		movw	r3, #:lower16:eepromConfig
 3849 277a C0F20003 		movt	r3, #:upper16:eepromConfig
 3850 277e 93F85630 		ldrb	r3, [r3, #86]	@ zero_extendqisi2
 3851 2782 03F1FF33 		add	r3, r3, #-1
 3852 2786 9A42     		cmp	r2, r3
 3853 2788 D4DB     		blt	.L148
 3854 278a 40F20003 		movw	r3, #:lower16:eepromConfig
 3855 278e C0F20003 		movt	r3, #:upper16:eepromConfig
 3856 2792 93F85630 		ldrb	r3, [r3, #86]	@ zero_extendqisi2
 3857 2796 03F1FF32 		add	r2, r3, #-1
 3858 279a 40F20003 		movw	r3, #:lower16:spektrumChannelData
 3859 279e C0F20003 		movt	r3, #:upper16:spektrumChannelData
 3860 27a2 53F82230 		ldr	r3, [r3, r2, lsl #2]
 3861 27a6 1846     		mov	r0, r3
 3862 27a8 03AB     		add	r3, sp, #12
 3863 27aa 1946     		mov	r1, r3
 3864 27ac 4FF00A02 		mov	r2, #10
 3865 27b0 FFF7FEFF 		bl	itoa
 3866 27b4 03AB     		add	r3, sp, #12
 3867 27b6 1846     		mov	r0, r3
 3868 27b8 FFF7FEFF 		bl	usbPrint
 3869 27bc 40F20000 		movw	r0, #:lower16:.LC1
 3870 27c0 C0F20000 		movt	r0, #:upper16:.LC1
 3871 27c4 FFF7FEFF 		bl	usbPrint
 3872 27c8 3BE0     		b	.L149
 3873              	.L146:
 3874 27ca 4FF00003 		mov	r3, #0
 3875 27ce 8DF81B30 		strb	r3, [sp, #27]
 3876 27d2 1CE0     		b	.L150
 3877              	.L151:
 3878 27d4 9DF81B30 		ldrb	r3, [sp, #27]	@ zero_extendqisi2
 3879 27d8 1846     		mov	r0, r3
 3880 27da FFF7FEFF 		bl	rxRead
 3881 27de 0346     		mov	r3, r0
 3882 27e0 1846     		mov	r0, r3
 3883 27e2 03AB     		add	r3, sp, #12
 3884 27e4 1946     		mov	r1, r3
 3885 27e6 4FF00A02 		mov	r2, #10
 3886 27ea FFF7FEFF 		bl	itoa
 3887 27ee 03AB     		add	r3, sp, #12
 3888 27f0 1846     		mov	r0, r3
 3889 27f2 FFF7FEFF 		bl	usbPrint
 3890 27f6 40F20000 		movw	r0, #:lower16:.LC0
 3891 27fa C0F20000 		movt	r0, #:upper16:.LC0
 3892 27fe FFF7FEFF 		bl	usbPrint
 3893 2802 9DF81B30 		ldrb	r3, [sp, #27]
 3894 2806 03F10103 		add	r3, r3, #1
 3895 280a 8DF81B30 		strb	r3, [sp, #27]
 3896              	.L150:
 3897 280e 9DF81B30 		ldrb	r3, [sp, #27]	@ zero_extendqisi2
 3898 2812 062B     		cmp	r3, #6
 3899 2814 DED9     		bls	.L151
 3900 2816 4FF00700 		mov	r0, #7
 3901 281a FFF7FEFF 		bl	rxRead
 3902 281e 0346     		mov	r3, r0
 3903 2820 1846     		mov	r0, r3
 3904 2822 03AB     		add	r3, sp, #12
 3905 2824 1946     		mov	r1, r3
 3906 2826 4FF00A02 		mov	r2, #10
 3907 282a FFF7FEFF 		bl	itoa
 3908 282e 03AB     		add	r3, sp, #12
 3909 2830 1846     		mov	r0, r3
 3910 2832 FFF7FEFF 		bl	usbPrint
 3911 2836 40F20000 		movw	r0, #:lower16:.LC1
 3912 283a C0F20000 		movt	r0, #:upper16:.LC1
 3913 283e FFF7FEFF 		bl	usbPrint
 3914              	.L149:
 3915 2842 40F20003 		movw	r3, #:lower16:validCommand
 3916 2846 C0F20003 		movt	r3, #:upper16:validCommand
 3917 284a 4FF00002 		mov	r2, #0
 3918 284e 1A70     		strb	r2, [r3, #0]
 3919 2850 00F09FBF 		b	.L17
 3920              	.L89:
 3921 2854 40F20003 		movw	r3, #:lower16:validCommand
 3922 2858 C0F20003 		movt	r3, #:upper16:validCommand
 3923 285c 4FF00002 		mov	r2, #0
 3924 2860 1A70     		strb	r2, [r3, #0]
 3925 2862 00F096BF 		b	.L17
 3926              	.L90:
 3927 2866 40F20003 		movw	r3, #:lower16:queryType
 3928 286a C0F20003 		movt	r3, #:upper16:queryType
 3929 286e 4FF07802 		mov	r2, #120
 3930 2872 1A70     		strb	r2, [r3, #0]
 3931 2874 00F08DBF 		b	.L17
 3932              	.L91:
 3933 2878 40F20003 		movw	r3, #:lower16:queryType
 3934 287c C0F20003 		movt	r3, #:upper16:queryType
 3935 2880 4FF07802 		mov	r2, #120
 3936 2884 1A70     		strb	r2, [r3, #0]
 3937 2886 00F084BF 		b	.L17
 3938              	.L28:
 3939 288a FFF7FEFF 		bl	highSpeedTelemDisable
 3940 288e 40F20003 		movw	r3, #:lower16:highSpeedTelem1Enabled
 3941 2892 C0F20003 		movt	r3, #:upper16:highSpeedTelem1Enabled
 3942 2896 4FF00102 		mov	r2, #1
 3943 289a 1A70     		strb	r2, [r3, #0]
 3944 289c 40F20003 		movw	r3, #:lower16:queryType
 3945 28a0 C0F20003 		movt	r3, #:upper16:queryType
 3946 28a4 4FF07802 		mov	r2, #120
 3947 28a8 1A70     		strb	r2, [r3, #0]
 3948 28aa 00F072BF 		b	.L17
 3949              	.L29:
 3950 28ae FFF7FEFF 		bl	highSpeedTelemDisable
 3951 28b2 40F20003 		movw	r3, #:lower16:highSpeedTelem2Enabled
 3952 28b6 C0F20003 		movt	r3, #:upper16:highSpeedTelem2Enabled
 3953 28ba 4FF00102 		mov	r2, #1
 3954 28be 1A70     		strb	r2, [r3, #0]
 3955 28c0 40F20003 		movw	r3, #:lower16:queryType
 3956 28c4 C0F20003 		movt	r3, #:upper16:queryType
 3957 28c8 4FF07802 		mov	r2, #120
 3958 28cc 1A70     		strb	r2, [r3, #0]
 3959 28ce 00F060BF 		b	.L17
 3960              	.L30:
 3961 28d2 FFF7FEFF 		bl	highSpeedTelemDisable
 3962 28d6 40F20003 		movw	r3, #:lower16:highSpeedTelem3Enabled
 3963 28da C0F20003 		movt	r3, #:upper16:highSpeedTelem3Enabled
 3964 28de 4FF00102 		mov	r2, #1
 3965 28e2 1A70     		strb	r2, [r3, #0]
 3966 28e4 40F20003 		movw	r3, #:lower16:queryType
 3967 28e8 C0F20003 		movt	r3, #:upper16:queryType
 3968 28ec 4FF07802 		mov	r2, #120
 3969 28f0 1A70     		strb	r2, [r3, #0]
 3970 28f2 00F04EBF 		b	.L17
 3971              	.L31:
 3972 28f6 FFF7FEFF 		bl	highSpeedTelemDisable
 3973 28fa 40F20003 		movw	r3, #:lower16:highSpeedTelem4Enabled
 3974 28fe C0F20003 		movt	r3, #:upper16:highSpeedTelem4Enabled
 3975 2902 4FF00102 		mov	r2, #1
 3976 2906 1A70     		strb	r2, [r3, #0]
 3977 2908 40F20003 		movw	r3, #:lower16:queryType
 3978 290c C0F20003 		movt	r3, #:upper16:queryType
 3979 2910 4FF07802 		mov	r2, #120
 3980 2914 1A70     		strb	r2, [r3, #0]
 3981 2916 00F03CBF 		b	.L17
 3982              	.L32:
 3983 291a FFF7FEFF 		bl	highSpeedTelemDisable
 3984 291e 40F20003 		movw	r3, #:lower16:highSpeedTelem5Enabled
 3985 2922 C0F20003 		movt	r3, #:upper16:highSpeedTelem5Enabled
 3986 2926 4FF00102 		mov	r2, #1
 3987 292a 1A70     		strb	r2, [r3, #0]
 3988 292c 40F20003 		movw	r3, #:lower16:queryType
 3989 2930 C0F20003 		movt	r3, #:upper16:queryType
 3990 2934 4FF07802 		mov	r2, #120
 3991 2938 1A70     		strb	r2, [r3, #0]
 3992 293a 00F02ABF 		b	.L17
 3993              	.L33:
 3994 293e FFF7FEFF 		bl	highSpeedTelemDisable
 3995 2942 40F20003 		movw	r3, #:lower16:highSpeedTelem6Enabled
 3996 2946 C0F20003 		movt	r3, #:upper16:highSpeedTelem6Enabled
 3997 294a 4FF00102 		mov	r2, #1
 3998 294e 1A70     		strb	r2, [r3, #0]
 3999 2950 40F20003 		movw	r3, #:lower16:queryType
 4000 2954 C0F20003 		movt	r3, #:upper16:queryType
 4001 2958 4FF07802 		mov	r2, #120
 4002 295c 1A70     		strb	r2, [r3, #0]
 4003 295e 00F018BF 		b	.L17
 4004              	.L34:
 4005 2962 FFF7FEFF 		bl	highSpeedTelemDisable
 4006 2966 40F20003 		movw	r3, #:lower16:highSpeedTelem7Enabled
 4007 296a C0F20003 		movt	r3, #:upper16:highSpeedTelem7Enabled
 4008 296e 4FF00102 		mov	r2, #1
 4009 2972 1A70     		strb	r2, [r3, #0]
 4010 2974 40F20003 		movw	r3, #:lower16:queryType
 4011 2978 C0F20003 		movt	r3, #:upper16:queryType
 4012 297c 4FF07802 		mov	r2, #120
 4013 2980 1A70     		strb	r2, [r3, #0]
 4014 2982 00F006BF 		b	.L17
 4015              	.L35:
 4016 2986 FFF7FEFF 		bl	highSpeedTelemDisable
 4017 298a 40F20003 		movw	r3, #:lower16:highSpeedTelem8Enabled
 4018 298e C0F20003 		movt	r3, #:upper16:highSpeedTelem8Enabled
 4019 2992 4FF00102 		mov	r2, #1
 4020 2996 1A70     		strb	r2, [r3, #0]
 4021 2998 40F20003 		movw	r3, #:lower16:queryType
 4022 299c C0F20003 		movt	r3, #:upper16:queryType
 4023 29a0 4FF07802 		mov	r2, #120
 4024 29a4 1A70     		strb	r2, [r3, #0]
 4025 29a6 00F0F4BE 		b	.L17
 4026              	.L36:
 4027 29aa FFF7FEFF 		bl	highSpeedTelemDisable
 4028 29ae 40F20003 		movw	r3, #:lower16:highSpeedTelem9Enabled
 4029 29b2 C0F20003 		movt	r3, #:upper16:highSpeedTelem9Enabled
 4030 29b6 4FF00102 		mov	r2, #1
 4031 29ba 1A70     		strb	r2, [r3, #0]
 4032 29bc 40F20003 		movw	r3, #:lower16:queryType
 4033 29c0 C0F20003 		movt	r3, #:upper16:queryType
 4034 29c4 4FF07802 		mov	r2, #120
 4035 29c8 1A70     		strb	r2, [r3, #0]
 4036 29ca 00F0E2BE 		b	.L17
 4037              	.L27:
 4038 29ce FFF7FEFF 		bl	highSpeedTelemDisable
 4039 29d2 40F20003 		movw	r3, #:lower16:queryType
 4040 29d6 C0F20003 		movt	r3, #:upper16:queryType
 4041 29da 4FF07802 		mov	r2, #120
 4042 29de 1A70     		strb	r2, [r3, #0]
 4043 29e0 00F0D7BE 		b	.L17
 4044              	.L39:
 4045 29e4 4FF00000 		mov	r0, #0
 4046 29e8 FFF7FEFF 		bl	readUsbPID
 4047 29ec 40F20000 		movw	r0, #:lower16:.LC98
 4048 29f0 C0F20000 		movt	r0, #:upper16:.LC98
 4049 29f4 FFF7FEFF 		bl	usbPrint
 4050 29f8 40F20003 		movw	r3, #:lower16:queryType
 4051 29fc C0F20003 		movt	r3, #:upper16:queryType
 4052 2a00 4FF07102 		mov	r2, #113
 4053 2a04 1A70     		strb	r2, [r3, #0]
 4054 2a06 40F20003 		movw	r3, #:lower16:validCommand
 4055 2a0a C0F20003 		movt	r3, #:upper16:validCommand
 4056 2a0e 4FF00002 		mov	r2, #0
 4057 2a12 1A70     		strb	r2, [r3, #0]
 4058 2a14 00F0BDBE 		b	.L17
 4059              	.L40:
 4060 2a18 4FF00100 		mov	r0, #1
 4061 2a1c FFF7FEFF 		bl	readUsbPID
 4062 2a20 40F20000 		movw	r0, #:lower16:.LC99
 4063 2a24 C0F20000 		movt	r0, #:upper16:.LC99
 4064 2a28 FFF7FEFF 		bl	usbPrint
 4065 2a2c 40F20003 		movw	r3, #:lower16:queryType
 4066 2a30 C0F20003 		movt	r3, #:upper16:queryType
 4067 2a34 4FF07102 		mov	r2, #113
 4068 2a38 1A70     		strb	r2, [r3, #0]
 4069 2a3a 40F20003 		movw	r3, #:lower16:validCommand
 4070 2a3e C0F20003 		movt	r3, #:upper16:validCommand
 4071 2a42 4FF00002 		mov	r2, #0
 4072 2a46 1A70     		strb	r2, [r3, #0]
 4073 2a48 00F0A3BE 		b	.L17
 4074              	.L41:
 4075 2a4c 4FF00200 		mov	r0, #2
 4076 2a50 FFF7FEFF 		bl	readUsbPID
 4077 2a54 40F20000 		movw	r0, #:lower16:.LC100
 4078 2a58 C0F20000 		movt	r0, #:upper16:.LC100
 4079 2a5c FFF7FEFF 		bl	usbPrint
 4080 2a60 40F20003 		movw	r3, #:lower16:queryType
 4081 2a64 C0F20003 		movt	r3, #:upper16:queryType
 4082 2a68 4FF07102 		mov	r2, #113
 4083 2a6c 1A70     		strb	r2, [r3, #0]
 4084 2a6e 40F20003 		movw	r3, #:lower16:validCommand
 4085 2a72 C0F20003 		movt	r3, #:upper16:validCommand
 4086 2a76 4FF00002 		mov	r2, #0
 4087 2a7a 1A70     		strb	r2, [r3, #0]
 4088 2a7c 00F089BE 		b	.L17
 4089              	.L42:
 4090 2a80 4FF00300 		mov	r0, #3
 4091 2a84 FFF7FEFF 		bl	readUsbPID
 4092 2a88 40F20000 		movw	r0, #:lower16:.LC101
 4093 2a8c C0F20000 		movt	r0, #:upper16:.LC101
 4094 2a90 FFF7FEFF 		bl	usbPrint
 4095 2a94 40F20003 		movw	r3, #:lower16:queryType
 4096 2a98 C0F20003 		movt	r3, #:upper16:queryType
 4097 2a9c 4FF07202 		mov	r2, #114
 4098 2aa0 1A70     		strb	r2, [r3, #0]
 4099 2aa2 40F20003 		movw	r3, #:lower16:validCommand
 4100 2aa6 C0F20003 		movt	r3, #:upper16:validCommand
 4101 2aaa 4FF00002 		mov	r2, #0
 4102 2aae 1A70     		strb	r2, [r3, #0]
 4103 2ab0 00F06FBE 		b	.L17
 4104              	.L43:
 4105 2ab4 4FF00400 		mov	r0, #4
 4106 2ab8 FFF7FEFF 		bl	readUsbPID
 4107 2abc 40F20000 		movw	r0, #:lower16:.LC102
 4108 2ac0 C0F20000 		movt	r0, #:upper16:.LC102
 4109 2ac4 FFF7FEFF 		bl	usbPrint
 4110 2ac8 40F20003 		movw	r3, #:lower16:queryType
 4111 2acc C0F20003 		movt	r3, #:upper16:queryType
 4112 2ad0 4FF07202 		mov	r2, #114
 4113 2ad4 1A70     		strb	r2, [r3, #0]
 4114 2ad6 40F20003 		movw	r3, #:lower16:validCommand
 4115 2ada C0F20003 		movt	r3, #:upper16:validCommand
 4116 2ade 4FF00002 		mov	r2, #0
 4117 2ae2 1A70     		strb	r2, [r3, #0]
 4118 2ae4 00F055BE 		b	.L17
 4119              	.L44:
 4120 2ae8 4FF00500 		mov	r0, #5
 4121 2aec FFF7FEFF 		bl	readUsbPID
 4122 2af0 40F20000 		movw	r0, #:lower16:.LC103
 4123 2af4 C0F20000 		movt	r0, #:upper16:.LC103
 4124 2af8 FFF7FEFF 		bl	usbPrint
 4125 2afc 40F20003 		movw	r3, #:lower16:queryType
 4126 2b00 C0F20003 		movt	r3, #:upper16:queryType
 4127 2b04 4FF07202 		mov	r2, #114
 4128 2b08 1A70     		strb	r2, [r3, #0]
 4129 2b0a 40F20003 		movw	r3, #:lower16:validCommand
 4130 2b0e C0F20003 		movt	r3, #:upper16:validCommand
 4131 2b12 4FF00002 		mov	r2, #0
 4132 2b16 1A70     		strb	r2, [r3, #0]
 4133 2b18 00F03BBE 		b	.L17
 4134              	.L45:
 4135 2b1c 40F20003 		movw	r3, #:lower16:queryType
 4136 2b20 C0F20003 		movt	r3, #:upper16:queryType
 4137 2b24 4FF07802 		mov	r2, #120
 4138 2b28 1A70     		strb	r2, [r3, #0]
 4139 2b2a 40F20003 		movw	r3, #:lower16:validCommand
 4140 2b2e C0F20003 		movt	r3, #:upper16:validCommand
 4141 2b32 4FF00002 		mov	r2, #0
 4142 2b36 1A70     		strb	r2, [r3, #0]
 4143 2b38 00F02BBE 		b	.L17
 4144              	.L46:
 4145 2b3c FFF7FEFF 		bl	readFloatUsb
 4146 2b40 07EE900A 		fmsr	s15, r0
 4147 2b44 FCEEE77A 		ftouizs	s15, s15
 4148 2b48 17EE903A 		fmrs	r3, s15	@ int
 4149 2b4c DAB2     		uxtb	r2, r3
 4150 2b4e 40F20003 		movw	r3, #:lower16:eepromConfig
 4151 2b52 C0F20003 		movt	r3, #:upper16:eepromConfig
 4152 2b56 83F85520 		strb	r2, [r3, #85]
 4153 2b5a 40F20000 		movw	r0, #:lower16:.LC104
 4154 2b5e C0F20000 		movt	r0, #:upper16:.LC104
 4155 2b62 FFF7FEFF 		bl	usbPrint
 4156 2b66 40F20000 		movw	r0, #:lower16:.LC105
 4157 2b6a C0F20000 		movt	r0, #:upper16:.LC105
 4158 2b6e FFF7FEFF 		bl	usbPrint
 4159 2b72 4FF06400 		mov	r0, #100
 4160 2b76 FFF7FEFF 		bl	delay
 4161 2b7a FFF7FEFF 		bl	writeEEPROM
 4162 2b7e 4FF00000 		mov	r0, #0
 4163 2b82 FFF7FEFF 		bl	systemReset
 4164 2b86 40F20003 		movw	r3, #:lower16:validCommand
 4165 2b8a C0F20003 		movt	r3, #:upper16:validCommand
 4166 2b8e 4FF00002 		mov	r2, #0
 4167 2b92 1A70     		strb	r2, [r3, #0]
 4168 2b94 00F0FDBD 		b	.L17
 4169              	.L47:
 4170 2b98 6B46     		mov	r3, sp
 4171 2b9a 1846     		mov	r0, r3
 4172 2b9c 4FF00801 		mov	r1, #8
 4173 2ba0 FFF7FEFF 		bl	readStringUsb
 4174 2ba4 40F20000 		movw	r0, #:lower16:.LC106
 4175 2ba8 C0F20000 		movt	r0, #:upper16:.LC106
 4176 2bac FFF7FEFF 		bl	usbPrint
 4177 2bb0 6B46     		mov	r3, sp
 4178 2bb2 1846     		mov	r0, r3
 4179 2bb4 FFF7FEFF 		bl	usbPrint
 4180 2bb8 40F20000 		movw	r0, #:lower16:.LC1
 4181 2bbc C0F20000 		movt	r0, #:upper16:.LC1
 4182 2bc0 FFF7FEFF 		bl	usbPrint
 4183 2bc4 6B46     		mov	r3, sp
 4184 2bc6 1846     		mov	r0, r3
 4185 2bc8 FFF7FEFF 		bl	parseRcChannels
 4186 2bcc 40F20003 		movw	r3, #:lower16:queryType
 4187 2bd0 C0F20003 		movt	r3, #:upper16:queryType
 4188 2bd4 4FF07502 		mov	r2, #117
 4189 2bd8 1A70     		strb	r2, [r3, #0]
 4190 2bda 40F20003 		movw	r3, #:lower16:validCommand
 4191 2bde C0F20003 		movt	r3, #:upper16:validCommand
 4192 2be2 4FF00002 		mov	r2, #0
 4193 2be6 1A70     		strb	r2, [r3, #0]
 4194 2be8 00F0D3BD 		b	.L17
 4195              	.L48:
 4196 2bec FFF7FEFF 		bl	readFloatUsb
 4197 2bf0 07EE900A 		fmsr	s15, r0
 4198 2bf4 FCEEE77A 		ftouizs	s15, s15
 4199 2bf8 17EE903A 		fmrs	r3, s15	@ int
 4200 2bfc DAB2     		uxtb	r2, r3
 4201 2bfe 40F20003 		movw	r3, #:lower16:eepromConfig
 4202 2c02 C0F20003 		movt	r3, #:upper16:eepromConfig
 4203 2c06 83F85720 		strb	r2, [r3, #87]
 4204 2c0a 40F20000 		movw	r0, #:lower16:.LC107
 4205 2c0e C0F20000 		movt	r0, #:upper16:.LC107
 4206 2c12 FFF7FEFF 		bl	usbPrint
 4207 2c16 40F20003 		movw	r3, #:lower16:queryType
 4208 2c1a C0F20003 		movt	r3, #:upper16:queryType
 4209 2c1e 4FF07502 		mov	r2, #117
 4210 2c22 1A70     		strb	r2, [r3, #0]
 4211 2c24 40F20003 		movw	r3, #:lower16:validCommand
 4212 2c28 C0F20003 		movt	r3, #:upper16:validCommand
 4213 2c2c 4FF00002 		mov	r2, #0
 4214 2c30 1A70     		strb	r2, [r3, #0]
 4215 2c32 00F0AEBD 		b	.L17
 4216              	.L49:
 4217 2c36 FFF7FEFF 		bl	readFloatUsb
 4218 2c3a 07EE900A 		fmsr	s15, r0
 4219 2c3e FCEEE77A 		ftouizs	s15, s15
 4220 2c42 17EE903A 		fmrs	r3, s15	@ int
 4221 2c46 DAB2     		uxtb	r2, r3
 4222 2c48 40F20003 		movw	r3, #:lower16:eepromConfig
 4223 2c4c C0F20003 		movt	r3, #:upper16:eepromConfig
 4224 2c50 83F85620 		strb	r2, [r3, #86]
 4225 2c54 40F20000 		movw	r0, #:lower16:.LC108
 4226 2c58 C0F20000 		movt	r0, #:upper16:.LC108
 4227 2c5c FFF7FEFF 		bl	usbPrint
 4228 2c60 40F20003 		movw	r3, #:lower16:queryType
 4229 2c64 C0F20003 		movt	r3, #:upper16:queryType
 4230 2c68 4FF07502 		mov	r2, #117
 4231 2c6c 1A70     		strb	r2, [r3, #0]
 4232 2c6e 40F20003 		movw	r3, #:lower16:validCommand
 4233 2c72 C0F20003 		movt	r3, #:upper16:validCommand
 4234 2c76 4FF00002 		mov	r2, #0
 4235 2c7a 1A70     		strb	r2, [r3, #0]
 4236 2c7c 00F089BD 		b	.L17
 4237              	.L50:
 4238 2c80 FFF7FEFF 		bl	readFloatUsb
 4239 2c84 07EE900A 		fmsr	s15, r0
 4240 2c88 FCEEE77A 		ftouizs	s15, s15
 4241 2c8c 17EE903A 		fmrs	r3, s15	@ int
 4242 2c90 DAB2     		uxtb	r2, r3
 4243 2c92 40F20003 		movw	r3, #:lower16:eepromConfig
 4244 2c96 C0F20003 		movt	r3, #:upper16:eepromConfig
 4245 2c9a 83F86420 		strb	r2, [r3, #100]
 4246 2c9e 40F20000 		movw	r0, #:lower16:.LC109
 4247 2ca2 C0F20000 		movt	r0, #:upper16:.LC109
 4248 2ca6 FFF7FEFF 		bl	usbPrint
 4249 2caa FFF7FEFF 		bl	initMixer
 4250 2cae 40F20003 		movw	r3, #:lower16:queryType
 4251 2cb2 C0F20003 		movt	r3, #:upper16:queryType
 4252 2cb6 4FF07502 		mov	r2, #117
 4253 2cba 1A70     		strb	r2, [r3, #0]
 4254 2cbc 40F20003 		movw	r3, #:lower16:validCommand
 4255 2cc0 C0F20003 		movt	r3, #:upper16:validCommand
 4256 2cc4 4FF00002 		mov	r2, #0
 4257 2cc8 1A70     		strb	r2, [r3, #0]
 4258 2cca 00F062BD 		b	.L17
 4259              	.L51:
 4260 2cce FFF7FEFF 		bl	readFloatUsb
 4261 2cd2 0246     		mov	r2, r0	@ float
 4262 2cd4 40F20003 		movw	r3, #:lower16:eepromConfig
 4263 2cd8 C0F20003 		movt	r3, #:upper16:eepromConfig
 4264 2cdc C3F8D421 		str	r2, [r3, #468]	@ float
 4265 2ce0 40F20000 		movw	r0, #:lower16:.LC110
 4266 2ce4 C0F20000 		movt	r0, #:upper16:.LC110
 4267 2ce8 FFF7FEFF 		bl	usbPrint
 4268 2cec 40F20003 		movw	r3, #:lower16:queryType
 4269 2cf0 C0F20003 		movt	r3, #:upper16:queryType
 4270 2cf4 4FF07502 		mov	r2, #117
 4271 2cf8 1A70     		strb	r2, [r3, #0]
 4272 2cfa 40F20003 		movw	r3, #:lower16:validCommand
 4273 2cfe C0F20003 		movt	r3, #:upper16:validCommand
 4274 2d02 4FF00002 		mov	r2, #0
 4275 2d06 1A70     		strb	r2, [r3, #0]
 4276 2d08 00F043BD 		b	.L17
 4277              	.L52:
 4278 2d0c FFF7FEFF 		bl	readFloatUsb
 4279 2d10 07EE900A 		fmsr	s15, r0
 4280 2d14 FCEEE77A 		ftouizs	s15, s15
 4281 2d18 17EE903A 		fmrs	r3, s15	@ int
 4282 2d1c 9AB2     		uxth	r2, r3
 4283 2d1e 40F20003 		movw	r3, #:lower16:eepromConfig
 4284 2d22 C0F20003 		movt	r3, #:upper16:eepromConfig
 4285 2d26 A3F86020 		strh	r2, [r3, #96]	@ movhi
 4286 2d2a FFF7FEFF 		bl	readFloatUsb
 4287 2d2e 07EE900A 		fmsr	s15, r0
 4288 2d32 FCEEE77A 		ftouizs	s15, s15
 4289 2d36 17EE903A 		fmrs	r3, s15	@ int
 4290 2d3a 9AB2     		uxth	r2, r3
 4291 2d3c 40F20003 		movw	r3, #:lower16:eepromConfig
 4292 2d40 C0F20003 		movt	r3, #:upper16:eepromConfig
 4293 2d44 A3F86220 		strh	r2, [r3, #98]	@ movhi
 4294 2d48 40F20000 		movw	r0, #:lower16:.LC111
 4295 2d4c C0F20000 		movt	r0, #:upper16:.LC111
 4296 2d50 FFF7FEFF 		bl	usbPrint
 4297 2d54 40F20003 		movw	r3, #:lower16:eepromConfig
 4298 2d58 C0F20003 		movt	r3, #:upper16:eepromConfig
 4299 2d5c B3F86030 		ldrh	r3, [r3, #96]
 4300 2d60 1846     		mov	r0, r3
 4301 2d62 FFF7FEFF 		bl	pwmEscInit
 4302 2d66 40F20003 		movw	r3, #:lower16:eepromConfig
 4303 2d6a C0F20003 		movt	r3, #:upper16:eepromConfig
 4304 2d6e B3F86230 		ldrh	r3, [r3, #98]
 4305 2d72 1846     		mov	r0, r3
 4306 2d74 FFF7FEFF 		bl	pwmServoInit
 4307 2d78 40F20003 		movw	r3, #:lower16:queryType
 4308 2d7c C0F20003 		movt	r3, #:upper16:queryType
 4309 2d80 4FF07502 		mov	r2, #117
 4310 2d84 1A70     		strb	r2, [r3, #0]
 4311 2d86 40F20003 		movw	r3, #:lower16:validCommand
 4312 2d8a C0F20003 		movt	r3, #:upper16:validCommand
 4313 2d8e 4FF00002 		mov	r2, #0
 4314 2d92 1A70     		strb	r2, [r3, #0]
 4315 2d94 00F0FDBC 		b	.L17
 4316              	.L53:
 4317 2d98 FFF7FEFF 		bl	readFloatUsb
 4318 2d9c 0246     		mov	r2, r0	@ float
 4319 2d9e 40F20003 		movw	r3, #:lower16:eepromConfig
 4320 2da2 C0F20003 		movt	r3, #:upper16:eepromConfig
 4321 2da6 DA66     		str	r2, [r3, #108]	@ float
 4322 2da8 FFF7FEFF 		bl	readFloatUsb
 4323 2dac 0246     		mov	r2, r0	@ float
 4324 2dae 40F20003 		movw	r3, #:lower16:eepromConfig
 4325 2db2 C0F20003 		movt	r3, #:upper16:eepromConfig
 4326 2db6 1A67     		str	r2, [r3, #112]	@ float
 4327 2db8 FFF7FEFF 		bl	readFloatUsb
 4328 2dbc 0246     		mov	r2, r0	@ float
 4329 2dbe 40F20003 		movw	r3, #:lower16:eepromConfig
 4330 2dc2 C0F20003 		movt	r3, #:upper16:eepromConfig
 4331 2dc6 5A67     		str	r2, [r3, #116]	@ float
 4332 2dc8 FFF7FEFF 		bl	readFloatUsb
 4333 2dcc 0246     		mov	r2, r0	@ float
 4334 2dce 40F20003 		movw	r3, #:lower16:eepromConfig
 4335 2dd2 C0F20003 		movt	r3, #:upper16:eepromConfig
 4336 2dd6 9A67     		str	r2, [r3, #120]	@ float
 4337 2dd8 FFF7FEFF 		bl	readFloatUsb
 4338 2ddc 0246     		mov	r2, r0	@ float
 4339 2dde 40F20003 		movw	r3, #:lower16:eepromConfig
 4340 2de2 C0F20003 		movt	r3, #:upper16:eepromConfig
 4341 2de6 DA67     		str	r2, [r3, #124]	@ float
 4342 2de8 40F20000 		movw	r0, #:lower16:.LC112
 4343 2dec C0F20000 		movt	r0, #:upper16:.LC112
 4344 2df0 FFF7FEFF 		bl	usbPrint
 4345 2df4 40F20003 		movw	r3, #:lower16:queryType
 4346 2df8 C0F20003 		movt	r3, #:upper16:queryType
 4347 2dfc 4FF07502 		mov	r2, #117
 4348 2e00 1A70     		strb	r2, [r3, #0]
 4349 2e02 40F20003 		movw	r3, #:lower16:validCommand
 4350 2e06 C0F20003 		movt	r3, #:upper16:validCommand
 4351 2e0a 4FF00002 		mov	r2, #0
 4352 2e0e 1A70     		strb	r2, [r3, #0]
 4353 2e10 00F0BFBC 		b	.L17
 4354              	.L54:
 4355 2e14 FFF7FEFF 		bl	readFloatUsb
 4356 2e18 0246     		mov	r2, r0	@ float
 4357 2e1a 40F20003 		movw	r3, #:lower16:eepromConfig
 4358 2e1e C0F20003 		movt	r3, #:upper16:eepromConfig
 4359 2e22 C3F87021 		str	r2, [r3, #368]	@ float
 4360 2e26 FFF7FEFF 		bl	readFloatUsb
 4361 2e2a 0246     		mov	r2, r0	@ float
 4362 2e2c 40F20003 		movw	r3, #:lower16:eepromConfig
 4363 2e30 C0F20003 		movt	r3, #:upper16:eepromConfig
 4364 2e34 C3F87421 		str	r2, [r3, #372]	@ float
 4365 2e38 FFF7FEFF 		bl	readFloatUsb
 4366 2e3c 0246     		mov	r2, r0	@ float
 4367 2e3e 40F20003 		movw	r3, #:lower16:eepromConfig
 4368 2e42 C0F20003 		movt	r3, #:upper16:eepromConfig
 4369 2e46 C3F87821 		str	r2, [r3, #376]	@ float
 4370 2e4a FFF7FEFF 		bl	readFloatUsb
 4371 2e4e 0246     		mov	r2, r0	@ float
 4372 2e50 40F20003 		movw	r3, #:lower16:eepromConfig
 4373 2e54 C0F20003 		movt	r3, #:upper16:eepromConfig
 4374 2e58 C3F87C21 		str	r2, [r3, #380]	@ float
 4375 2e5c 40F20000 		movw	r0, #:lower16:.LC113
 4376 2e60 C0F20000 		movt	r0, #:upper16:.LC113
 4377 2e64 FFF7FEFF 		bl	usbPrint
 4378 2e68 40F20003 		movw	r3, #:lower16:queryType
 4379 2e6c C0F20003 		movt	r3, #:upper16:queryType
 4380 2e70 4FF07502 		mov	r2, #117
 4381 2e74 1A70     		strb	r2, [r3, #0]
 4382 2e76 40F20003 		movw	r3, #:lower16:validCommand
 4383 2e7a C0F20003 		movt	r3, #:upper16:validCommand
 4384 2e7e 4FF00002 		mov	r2, #0
 4385 2e82 1A70     		strb	r2, [r3, #0]
 4386 2e84 00F085BC 		b	.L17
 4387              	.L55:
 4388 2e88 FFF7FEFF 		bl	readFloatUsb
 4389 2e8c 0246     		mov	r2, r0	@ float
 4390 2e8e 40F20003 		movw	r3, #:lower16:eepromConfig
 4391 2e92 C0F20003 		movt	r3, #:upper16:eepromConfig
 4392 2e96 C3F88021 		str	r2, [r3, #384]	@ float
 4393 2e9a FFF7FEFF 		bl	readFloatUsb
 4394 2e9e 0246     		mov	r2, r0	@ float
 4395 2ea0 40F20003 		movw	r3, #:lower16:eepromConfig
 4396 2ea4 C0F20003 		movt	r3, #:upper16:eepromConfig
 4397 2ea8 C3F88421 		str	r2, [r3, #388]	@ float
 4398 2eac FFF7FEFF 		bl	readFloatUsb
 4399 2eb0 0246     		mov	r2, r0	@ float
 4400 2eb2 40F20003 		movw	r3, #:lower16:eepromConfig
 4401 2eb6 C0F20003 		movt	r3, #:upper16:eepromConfig
 4402 2eba C3F88821 		str	r2, [r3, #392]	@ float
 4403 2ebe FFF7FEFF 		bl	readFloatUsb
 4404 2ec2 0246     		mov	r2, r0	@ float
 4405 2ec4 40F20003 		movw	r3, #:lower16:eepromConfig
 4406 2ec8 C0F20003 		movt	r3, #:upper16:eepromConfig
 4407 2ecc C3F88C21 		str	r2, [r3, #396]	@ float
 4408 2ed0 40F20000 		movw	r0, #:lower16:.LC114
 4409 2ed4 C0F20000 		movt	r0, #:upper16:.LC114
 4410 2ed8 FFF7FEFF 		bl	usbPrint
 4411 2edc 40F20003 		movw	r3, #:lower16:queryType
 4412 2ee0 C0F20003 		movt	r3, #:upper16:queryType
 4413 2ee4 4FF07502 		mov	r2, #117
 4414 2ee8 1A70     		strb	r2, [r3, #0]
 4415 2eea 40F20003 		movw	r3, #:lower16:validCommand
 4416 2eee C0F20003 		movt	r3, #:upper16:validCommand
 4417 2ef2 4FF00002 		mov	r2, #0
 4418 2ef6 1A70     		strb	r2, [r3, #0]
 4419 2ef8 00F04BBC 		b	.L17
 4420              	.L56:
 4421 2efc FFF7FEFF 		bl	readFloatUsb
 4422 2f00 0246     		mov	r2, r0	@ float
 4423 2f02 40F20003 		movw	r3, #:lower16:eepromConfig
 4424 2f06 C0F20003 		movt	r3, #:upper16:eepromConfig
 4425 2f0a C3F8B021 		str	r2, [r3, #432]	@ float
 4426 2f0e FFF7FEFF 		bl	readFloatUsb
 4427 2f12 0246     		mov	r2, r0	@ float
 4428 2f14 40F20003 		movw	r3, #:lower16:eepromConfig
 4429 2f18 C0F20003 		movt	r3, #:upper16:eepromConfig
 4430 2f1c C3F8B421 		str	r2, [r3, #436]	@ float
 4431 2f20 FFF7FEFF 		bl	readFloatUsb
 4432 2f24 0246     		mov	r2, r0	@ float
 4433 2f26 40F20003 		movw	r3, #:lower16:eepromConfig
 4434 2f2a C0F20003 		movt	r3, #:upper16:eepromConfig
 4435 2f2e C3F8B821 		str	r2, [r3, #440]	@ float
 4436 2f32 40F20000 		movw	r0, #:lower16:.LC115
 4437 2f36 C0F20000 		movt	r0, #:upper16:.LC115
 4438 2f3a FFF7FEFF 		bl	usbPrint
 4439 2f3e 40F20003 		movw	r3, #:lower16:queryType
 4440 2f42 C0F20003 		movt	r3, #:upper16:queryType
 4441 2f46 4FF07502 		mov	r2, #117
 4442 2f4a 1A70     		strb	r2, [r3, #0]
 4443 2f4c 40F20003 		movw	r3, #:lower16:validCommand
 4444 2f50 C0F20003 		movt	r3, #:upper16:validCommand
 4445 2f54 4FF00002 		mov	r2, #0
 4446 2f58 1A70     		strb	r2, [r3, #0]
 4447 2f5a 00F01ABC 		b	.L17
 4448              	.L57:
 4449 2f5e FFF7FEFF 		bl	readFloatUsb
 4450 2f62 0246     		mov	r2, r0	@ float
 4451 2f64 40F20003 		movw	r3, #:lower16:eepromConfig
 4452 2f68 C0F20003 		movt	r3, #:upper16:eepromConfig
 4453 2f6c C3F8BC21 		str	r2, [r3, #444]	@ float
 4454 2f70 FFF7FEFF 		bl	readFloatUsb
 4455 2f74 0246     		mov	r2, r0	@ float
 4456 2f76 40F20003 		movw	r3, #:lower16:eepromConfig
 4457 2f7a C0F20003 		movt	r3, #:upper16:eepromConfig
 4458 2f7e C3F8C021 		str	r2, [r3, #448]	@ float
 4459 2f82 FFF7FEFF 		bl	readFloatUsb
 4460 2f86 0246     		mov	r2, r0	@ float
 4461 2f88 40F20003 		movw	r3, #:lower16:eepromConfig
 4462 2f8c C0F20003 		movt	r3, #:upper16:eepromConfig
 4463 2f90 C3F8C421 		str	r2, [r3, #452]	@ float
 4464 2f94 40F20000 		movw	r0, #:lower16:.LC116
 4465 2f98 C0F20000 		movt	r0, #:upper16:.LC116
 4466 2f9c FFF7FEFF 		bl	usbPrint
 4467 2fa0 40F20003 		movw	r3, #:lower16:queryType
 4468 2fa4 C0F20003 		movt	r3, #:upper16:queryType
 4469 2fa8 4FF07502 		mov	r2, #117
 4470 2fac 1A70     		strb	r2, [r3, #0]
 4471 2fae 40F20003 		movw	r3, #:lower16:validCommand
 4472 2fb2 C0F20003 		movt	r3, #:upper16:validCommand
 4473 2fb6 4FF00002 		mov	r2, #0
 4474 2fba 1A70     		strb	r2, [r3, #0]
 4475 2fbc E9E3     		b	.L17
 4476              	.L58:
 4477 2fbe FFF7FEFF 		bl	readFloatUsb
 4478 2fc2 0246     		mov	r2, r0	@ float
 4479 2fc4 40F20003 		movw	r3, #:lower16:eepromConfig
 4480 2fc8 C0F20003 		movt	r3, #:upper16:eepromConfig
 4481 2fcc C3F8C821 		str	r2, [r3, #456]	@ float
 4482 2fd0 FFF7FEFF 		bl	readFloatUsb
 4483 2fd4 0246     		mov	r2, r0	@ float
 4484 2fd6 40F20003 		movw	r3, #:lower16:eepromConfig
 4485 2fda C0F20003 		movt	r3, #:upper16:eepromConfig
 4486 2fde C3F8CC21 		str	r2, [r3, #460]	@ float
 4487 2fe2 FFF7FEFF 		bl	readFloatUsb
 4488 2fe6 0246     		mov	r2, r0	@ float
 4489 2fe8 40F20003 		movw	r3, #:lower16:eepromConfig
 4490 2fec C0F20003 		movt	r3, #:upper16:eepromConfig
 4491 2ff0 C3F8D021 		str	r2, [r3, #464]	@ float
 4492 2ff4 40F20000 		movw	r0, #:lower16:.LC117
 4493 2ff8 C0F20000 		movt	r0, #:upper16:.LC117
 4494 2ffc FFF7FEFF 		bl	usbPrint
 4495 3000 40F20003 		movw	r3, #:lower16:queryType
 4496 3004 C0F20003 		movt	r3, #:upper16:queryType
 4497 3008 4FF07502 		mov	r2, #117
 4498 300c 1A70     		strb	r2, [r3, #0]
 4499 300e 40F20003 		movw	r3, #:lower16:validCommand
 4500 3012 C0F20003 		movt	r3, #:upper16:validCommand
 4501 3016 4FF00002 		mov	r2, #0
 4502 301a 1A70     		strb	r2, [r3, #0]
 4503 301c B9E3     		b	.L17
 4504              	.L59:
 4505 301e FFF7FEFF 		bl	readFloatUsb
 4506 3022 0246     		mov	r2, r0	@ float
 4507 3024 40F20003 		movw	r3, #:lower16:eepromConfig
 4508 3028 C0F20003 		movt	r3, #:upper16:eepromConfig
 4509 302c C3F89021 		str	r2, [r3, #400]	@ float
 4510 3030 FFF7FEFF 		bl	readFloatUsb
 4511 3034 0246     		mov	r2, r0	@ float
 4512 3036 40F20003 		movw	r3, #:lower16:eepromConfig
 4513 303a C0F20003 		movt	r3, #:upper16:eepromConfig
 4514 303e C3F89421 		str	r2, [r3, #404]	@ float
 4515 3042 FFF7FEFF 		bl	readFloatUsb
 4516 3046 0246     		mov	r2, r0	@ float
 4517 3048 40F20003 		movw	r3, #:lower16:eepromConfig
 4518 304c C0F20003 		movt	r3, #:upper16:eepromConfig
 4519 3050 C3F89821 		str	r2, [r3, #408]	@ float
 4520 3054 FFF7FEFF 		bl	readFloatUsb
 4521 3058 0246     		mov	r2, r0	@ float
 4522 305a 40F20003 		movw	r3, #:lower16:eepromConfig
 4523 305e C0F20003 		movt	r3, #:upper16:eepromConfig
 4524 3062 C3F89C21 		str	r2, [r3, #412]	@ float
 4525 3066 40F20000 		movw	r0, #:lower16:.LC118
 4526 306a C0F20000 		movt	r0, #:upper16:.LC118
 4527 306e FFF7FEFF 		bl	usbPrint
 4528 3072 40F20003 		movw	r3, #:lower16:queryType
 4529 3076 C0F20003 		movt	r3, #:upper16:queryType
 4530 307a 4FF07502 		mov	r2, #117
 4531 307e 1A70     		strb	r2, [r3, #0]
 4532 3080 40F20003 		movw	r3, #:lower16:validCommand
 4533 3084 C0F20003 		movt	r3, #:upper16:validCommand
 4534 3088 4FF00002 		mov	r2, #0
 4535 308c 1A70     		strb	r2, [r3, #0]
 4536 308e 80E3     		b	.L17
 4537              	.L60:
 4538 3090 FFF7FEFF 		bl	readFloatUsb
 4539 3094 0246     		mov	r2, r0	@ float
 4540 3096 40F20003 		movw	r3, #:lower16:eepromConfig
 4541 309a C0F20003 		movt	r3, #:upper16:eepromConfig
 4542 309e C3F8A021 		str	r2, [r3, #416]	@ float
 4543 30a2 FFF7FEFF 		bl	readFloatUsb
 4544 30a6 0246     		mov	r2, r0	@ float
 4545 30a8 40F20003 		movw	r3, #:lower16:eepromConfig
 4546 30ac C0F20003 		movt	r3, #:upper16:eepromConfig
 4547 30b0 C3F8A421 		str	r2, [r3, #420]	@ float
 4548 30b4 FFF7FEFF 		bl	readFloatUsb
 4549 30b8 0246     		mov	r2, r0	@ float
 4550 30ba 40F20003 		movw	r3, #:lower16:eepromConfig
 4551 30be C0F20003 		movt	r3, #:upper16:eepromConfig
 4552 30c2 C3F8A821 		str	r2, [r3, #424]	@ float
 4553 30c6 FFF7FEFF 		bl	readFloatUsb
 4554 30ca 0246     		mov	r2, r0	@ float
 4555 30cc 40F20003 		movw	r3, #:lower16:eepromConfig
 4556 30d0 C0F20003 		movt	r3, #:upper16:eepromConfig
 4557 30d4 C3F8AC21 		str	r2, [r3, #428]	@ float
 4558 30d8 40F20000 		movw	r0, #:lower16:.LC119
 4559 30dc C0F20000 		movt	r0, #:upper16:.LC119
 4560 30e0 FFF7FEFF 		bl	usbPrint
 4561 30e4 40F20003 		movw	r3, #:lower16:queryType
 4562 30e8 C0F20003 		movt	r3, #:upper16:queryType
 4563 30ec 4FF07502 		mov	r2, #117
 4564 30f0 1A70     		strb	r2, [r3, #0]
 4565 30f2 40F20003 		movw	r3, #:lower16:validCommand
 4566 30f6 C0F20003 		movt	r3, #:upper16:validCommand
 4567 30fa 4FF00002 		mov	r2, #0
 4568 30fe 1A70     		strb	r2, [r3, #0]
 4569 3100 47E3     		b	.L17
 4570              	.L61:
 4571 3102 FFF7FEFF 		bl	readFloatUsb
 4572 3106 07EE900A 		fmsr	s15, r0
 4573 310a FCEEE77A 		ftouizs	s15, s15
 4574 310e 17EE903A 		fmrs	r3, s15	@ int
 4575 3112 DAB2     		uxtb	r2, r3
 4576 3114 40F20003 		movw	r3, #:lower16:eepromConfig
 4577 3118 C0F20003 		movt	r3, #:upper16:eepromConfig
 4578 311c 83F8D821 		strb	r2, [r3, #472]
 4579 3120 40F20000 		movw	r0, #:lower16:.LC120
 4580 3124 C0F20000 		movt	r0, #:upper16:.LC120
 4581 3128 FFF7FEFF 		bl	usbPrint
 4582 312c FFF7FEFF 		bl	initMixer
 4583 3130 40F20003 		movw	r3, #:lower16:queryType
 4584 3134 C0F20003 		movt	r3, #:upper16:queryType
 4585 3138 4FF07602 		mov	r2, #118
 4586 313c 1A70     		strb	r2, [r3, #0]
 4587 313e 40F20003 		movw	r3, #:lower16:validCommand
 4588 3142 C0F20003 		movt	r3, #:upper16:validCommand
 4589 3146 4FF00002 		mov	r2, #0
 4590 314a 1A70     		strb	r2, [r3, #0]
 4591 314c 21E3     		b	.L17
 4592              	.L62:
 4593 314e FFF7FEFF 		bl	readFloatUsb
 4594 3152 07EE900A 		fmsr	s15, r0
 4595 3156 FCEEE77A 		ftouizs	s15, s15
 4596 315a 17EE903A 		fmrs	r3, s15	@ int
 4597 315e 8DF81A30 		strb	r3, [sp, #26]
 4598 3162 FFF7FEFF 		bl	readFloatUsb
 4599 3166 07EE900A 		fmsr	s15, r0
 4600 316a FCEEE77A 		ftouizs	s15, s15
 4601 316e 17EE903A 		fmrs	r3, s15	@ int
 4602 3172 8DF81930 		strb	r3, [sp, #25]
 4603 3176 9DF81A40 		ldrb	r4, [sp, #26]	@ zero_extendqisi2
 4604 317a 9DF81950 		ldrb	r5, [sp, #25]	@ zero_extendqisi2
 4605 317e FFF7FEFF 		bl	readFloatUsb
 4606 3182 0146     		mov	r1, r0	@ float
 4607 3184 40F20002 		movw	r2, #:lower16:eepromConfig
 4608 3188 C0F20002 		movt	r2, #:upper16:eepromConfig
 4609 318c 2346     		mov	r3, r4
 4610 318e 4FEA4303 		lsl	r3, r3, #1
 4611 3192 1B19     		adds	r3, r3, r4
 4612 3194 5B19     		adds	r3, r3, r5
 4613 3196 03F17603 		add	r3, r3, #118
 4614 319a 4FEA8303 		lsl	r3, r3, #2
 4615 319e D318     		adds	r3, r2, r3
 4616 31a0 03F10403 		add	r3, r3, #4
 4617 31a4 1960     		str	r1, [r3, #0]	@ float
 4618 31a6 40F20000 		movw	r0, #:lower16:.LC121
 4619 31aa C0F20000 		movt	r0, #:upper16:.LC121
 4620 31ae FFF7FEFF 		bl	usbPrint
 4621 31b2 40F20003 		movw	r3, #:lower16:queryType
 4622 31b6 C0F20003 		movt	r3, #:upper16:queryType
 4623 31ba 4FF07602 		mov	r2, #118
 4624 31be 1A70     		strb	r2, [r3, #0]
 4625 31c0 40F20003 		movw	r3, #:lower16:validCommand
 4626 31c4 C0F20003 		movt	r3, #:upper16:validCommand
 4627 31c8 4FF00002 		mov	r2, #0
 4628 31cc 1A70     		strb	r2, [r3, #0]
 4629 31ce E0E2     		b	.L17
 4630              	.L63:
 4631 31d0 FFF7FEFF 		bl	readFloatUsb
 4632 31d4 0246     		mov	r2, r0	@ float
 4633 31d6 40F20003 		movw	r3, #:lower16:eepromConfig
 4634 31da C0F20003 		movt	r3, #:upper16:eepromConfig
 4635 31de 1A64     		str	r2, [r3, #64]	@ float
 4636 31e0 40F20000 		movw	r0, #:lower16:.LC122
 4637 31e4 C0F20000 		movt	r0, #:upper16:.LC122
 4638 31e8 FFF7FEFF 		bl	usbPrint
 4639 31ec 40F20003 		movw	r3, #:lower16:queryType
 4640 31f0 C0F20003 		movt	r3, #:upper16:queryType
 4641 31f4 4FF07402 		mov	r2, #116
 4642 31f8 1A70     		strb	r2, [r3, #0]
 4643 31fa CAE2     		b	.L17
 4644              	.L64:
 4645 31fc FFF7FEFF 		bl	readFloatUsb
 4646 3200 07EE900A 		fmsr	s15, r0
 4647 3204 FCEEE77A 		ftouizs	s15, s15
 4648 3208 17EE903A 		fmrs	r3, s15	@ int
 4649 320c 8DF81830 		strb	r3, [sp, #24]
 4650 3210 9DF81830 		ldrb	r3, [sp, #24]	@ zero_extendqisi2
 4651 3214 032B     		cmp	r3, #3
 4652 3216 2FD8     		bhi	.L152
 4653 3218 01A2     		adr	r2, .L157
 4654 321a 52F823F0 		ldr	pc, [r2, r3, lsl #2]
 4655 321e 00BF     		.align	2
 4656              	.L157:
 4657 3220 31320000 		.word	.L153+1
 4658 3224 43320000 		.word	.L154+1
 4659 3228 55320000 		.word	.L155+1
 4660 322c 67320000 		.word	.L156+1
 4661              	.L153:
 4662 3230 40F20003 		movw	r3, #:lower16:eepromConfig
 4663 3234 C0F20003 		movt	r3, #:upper16:eepromConfig
 4664 3238 4FF00002 		mov	r2, #0
 4665 323c 83F85420 		strb	r2, [r3, #84]
 4666 3240 1AE0     		b	.L152
 4667              	.L154:
 4668 3242 40F20003 		movw	r3, #:lower16:eepromConfig
 4669 3246 C0F20003 		movt	r3, #:upper16:eepromConfig
 4670 324a 4FF00102 		mov	r2, #1
 4671 324e 83F85420 		strb	r2, [r3, #84]
 4672 3252 11E0     		b	.L152
 4673              	.L155:
 4674 3254 40F20003 		movw	r3, #:lower16:eepromConfig
 4675 3258 C0F20003 		movt	r3, #:upper16:eepromConfig
 4676 325c 4FF00202 		mov	r2, #2
 4677 3260 83F85420 		strb	r2, [r3, #84]
 4678 3264 08E0     		b	.L152
 4679              	.L156:
 4680 3266 40F20003 		movw	r3, #:lower16:eepromConfig
 4681 326a C0F20003 		movt	r3, #:upper16:eepromConfig
 4682 326e 4FF00302 		mov	r2, #3
 4683 3272 83F85420 		strb	r2, [r3, #84]
 4684 3276 00BF     		nop
 4685              	.L152:
 4686 3278 40F20000 		movw	r0, #:lower16:.LC123
 4687 327c C0F20000 		movt	r0, #:upper16:.LC123
 4688 3280 FFF7FEFF 		bl	usbPrint
 4689 3284 4FF47050 		mov	r0, #15360
 4690 3288 C4F20000 		movt	r0, 16384
 4691 328c 4FF04001 		mov	r1, #64
 4692 3290 FFF7FEFF 		bl	setSPIdivisor
 4693 3294 4FF48060 		mov	r0, #1024
 4694 3298 C4F20200 		movt	r0, 16386
 4695 329c 4FF48071 		mov	r1, #256
 4696 32a0 FFF7FEFF 		bl	GPIO_ResetBits
 4697 32a4 4FF47050 		mov	r0, #15360
 4698 32a8 C4F20000 		movt	r0, 16384
 4699 32ac 4FF01A01 		mov	r1, #26
 4700 32b0 FFF7FEFF 		bl	spiTransfer
 4701 32b4 40F20003 		movw	r3, #:lower16:eepromConfig
 4702 32b8 C0F20003 		movt	r3, #:upper16:eepromConfig
 4703 32bc 93F85430 		ldrb	r3, [r3, #84]	@ zero_extendqisi2
 4704 32c0 4FF47050 		mov	r0, #15360
 4705 32c4 C4F20000 		movt	r0, 16384
 4706 32c8 1946     		mov	r1, r3
 4707 32ca FFF7FEFF 		bl	spiTransfer
 4708 32ce 4FF48060 		mov	r0, #1024
 4709 32d2 C4F20200 		movt	r0, 16386
 4710 32d6 4FF48071 		mov	r1, #256
 4711 32da FFF7FEFF 		bl	GPIO_SetBits
 4712 32de 4FF47050 		mov	r0, #15360
 4713 32e2 C4F20000 		movt	r0, 16384
 4714 32e6 4FF00201 		mov	r1, #2
 4715 32ea FFF7FEFF 		bl	setSPIdivisor
 4716 32ee 40F20003 		movw	r3, #:lower16:queryType
 4717 32f2 C0F20003 		movt	r3, #:upper16:queryType
 4718 32f6 4FF07402 		mov	r2, #116
 4719 32fa 1A70     		strb	r2, [r3, #0]
 4720 32fc 49E2     		b	.L17
 4721              	.L20:
 4722 32fe FFF7FEFF 		bl	readFloatUsb
 4723 3302 0246     		mov	r2, r0	@ float
 4724 3304 40F20003 		movw	r3, #:lower16:eepromConfig
 4725 3308 C0F20003 		movt	r3, #:upper16:eepromConfig
 4726 330c 5A64     		str	r2, [r3, #68]	@ float
 4727 330e FFF7FEFF 		bl	readFloatUsb
 4728 3312 0246     		mov	r2, r0	@ float
 4729 3314 40F20003 		movw	r3, #:lower16:eepromConfig
 4730 3318 C0F20003 		movt	r3, #:upper16:eepromConfig
 4731 331c 9A64     		str	r2, [r3, #72]	@ float
 4732 331e 40F20000 		movw	r0, #:lower16:.LC124
 4733 3322 C0F20000 		movt	r0, #:upper16:.LC124
 4734 3326 FFF7FEFF 		bl	usbPrint
 4735 332a 40F20003 		movw	r3, #:lower16:queryType
 4736 332e C0F20003 		movt	r3, #:upper16:queryType
 4737 3332 4FF07402 		mov	r2, #116
 4738 3336 1A70     		strb	r2, [r3, #0]
 4739 3338 2BE2     		b	.L17
 4740              	.L38:
 4741 333a FFF7FEFF 		bl	readFloatUsb
 4742 333e 0246     		mov	r2, r0	@ float
 4743 3340 40F20003 		movw	r3, #:lower16:eepromConfig
 4744 3344 C0F20003 		movt	r3, #:upper16:eepromConfig
 4745 3348 DA64     		str	r2, [r3, #76]	@ float
 4746 334a FFF7FEFF 		bl	readFloatUsb
 4747 334e 0246     		mov	r2, r0	@ float
 4748 3350 40F20003 		movw	r3, #:lower16:eepromConfig
 4749 3354 C0F20003 		movt	r3, #:upper16:eepromConfig
 4750 3358 1A65     		str	r2, [r3, #80]	@ float
 4751 335a 40F20000 		movw	r0, #:lower16:.LC125
 4752 335e C0F20000 		movt	r0, #:upper16:.LC125
 4753 3362 FFF7FEFF 		bl	usbPrint
 4754 3366 40F20003 		movw	r3, #:lower16:queryType
 4755 336a C0F20003 		movt	r3, #:upper16:queryType
 4756 336e 4FF07402 		mov	r2, #116
 4757 3372 1A70     		strb	r2, [r3, #0]
 4758 3374 0DE2     		b	.L17
 4759              	.L21:
 4760 3376 FFF7FEFF 		bl	readFloatUsb
 4761 337a 0246     		mov	r2, r0	@ float
 4762 337c 40F20003 		movw	r3, #:lower16:eepromConfig
 4763 3380 C0F20003 		movt	r3, #:upper16:eepromConfig
 4764 3384 C3F83C22 		str	r2, [r3, #572]	@ float
 4765 3388 FFF7FEFF 		bl	readFloatUsb
 4766 338c 0246     		mov	r2, r0	@ float
 4767 338e 40F20003 		movw	r3, #:lower16:eepromConfig
 4768 3392 C0F20003 		movt	r3, #:upper16:eepromConfig
 4769 3396 C3F84022 		str	r2, [r3, #576]	@ float
 4770 339a 40F20000 		movw	r0, #:lower16:.LC126
 4771 339e C0F20000 		movt	r0, #:upper16:.LC126
 4772 33a2 FFF7FEFF 		bl	usbPrint
 4773 33a6 40F20003 		movw	r3, #:lower16:queryType
 4774 33aa C0F20003 		movt	r3, #:upper16:queryType
 4775 33ae 4FF07402 		mov	r2, #116
 4776 33b2 1A70     		strb	r2, [r3, #0]
 4777 33b4 EDE1     		b	.L17
 4778              	.L22:
 4779 33b6 FFF7FEFF 		bl	readFloatUsb
 4780 33ba 0790     		str	r0, [sp, #28]	@ float
 4781 33bc DDED077A 		flds	s15, [sp, #28]
 4782 33c0 F5EEC07A 		fcmpezs	s15
 4783 33c4 F1EE10FA 		fmstat
 4784 33c8 B4BF     		ite	lt
 4785 33ca 0023     		movlt	r3, #0
 4786 33cc 0123     		movge	r3, #1
 4787 33ce DBB2     		uxtb	r3, r3
 4788 33d0 002B     		cmp	r3, #0
 4789 33d2 02D0     		beq	.L158
 4790 33d4 F04B     		ldr	r3, .L166	@ float
 4791 33d6 0793     		str	r3, [sp, #28]	@ float
 4792 33d8 01E0     		b	.L159
 4793              	.L158:
 4794 33da F04B     		ldr	r3, .L166+4	@ float
 4795 33dc 0793     		str	r3, [sp, #28]	@ float
 4796              	.L159:
 4797 33de 40F20003 		movw	r3, #:lower16:eepromConfig
 4798 33e2 C0F20003 		movt	r3, #:upper16:eepromConfig
 4799 33e6 079A     		ldr	r2, [sp, #28]	@ float
 4800 33e8 9A66     		str	r2, [r3, #104]	@ float
 4801 33ea 40F20000 		movw	r0, #:lower16:.LC127
 4802 33ee C0F20000 		movt	r0, #:upper16:.LC127
 4803 33f2 FFF7FEFF 		bl	usbPrint
 4804 33f6 40F20003 		movw	r3, #:lower16:queryType
 4805 33fa C0F20003 		movt	r3, #:upper16:queryType
 4806 33fe 4FF07502 		mov	r2, #117
 4807 3402 1A70     		strb	r2, [r3, #0]
 4808 3404 C5E1     		b	.L17
 4809              	.L23:
 4810 3406 40F20003 		movw	r3, #:lower16:queryType
 4811 340a C0F20003 		movt	r3, #:upper16:queryType
 4812 340e 4FF07802 		mov	r2, #120
 4813 3412 1A70     		strb	r2, [r3, #0]
 4814 3414 BDE1     		b	.L17
 4815              	.L65:
 4816 3416 40F20000 		movw	r0, #:lower16:.LC128
 4817 341a C0F20000 		movt	r0, #:upper16:.LC128
 4818 341e FFF7FEFF 		bl	usbPrint
 4819 3422 4FF00100 		mov	r0, #1
 4820 3426 FFF7FEFF 		bl	checkFirstTime
 4821 342a 40F20000 		movw	r0, #:lower16:.LC129
 4822 342e C0F20000 		movt	r0, #:upper16:.LC129
 4823 3432 FFF7FEFF 		bl	usbPrint
 4824 3436 4FF06400 		mov	r0, #100
 4825 343a FFF7FEFF 		bl	delay
 4826 343e 4FF00000 		mov	r0, #0
 4827 3442 FFF7FEFF 		bl	systemReset
 4828 3446 A4E1     		b	.L17
 4829              	.L24:
 4830 3448 40F20000 		movw	r0, #:lower16:.LC130
 4831 344c C0F20000 		movt	r0, #:upper16:.LC130
 4832 3450 FFF7FEFF 		bl	usbPrint
 4833 3454 FFF7FEFF 		bl	writeEEPROM
 4834 3458 40F20000 		movw	r0, #:lower16:.LC129
 4835 345c C0F20000 		movt	r0, #:upper16:.LC129
 4836 3460 FFF7FEFF 		bl	usbPrint
 4837 3464 4FF06400 		mov	r0, #100
 4838 3468 FFF7FEFF 		bl	delay
 4839 346c 4FF00000 		mov	r0, #0
 4840 3470 FFF7FEFF 		bl	systemReset
 4841 3474 8DE1     		b	.L17
 4842              	.L26:
 4843 3476 40F20000 		movw	r0, #:lower16:.LC131
 4844 347a C0F20000 		movt	r0, #:upper16:.LC131
 4845 347e FFF7FEFF 		bl	usbPrint
 4846 3482 4FF06400 		mov	r0, #100
 4847 3486 FFF7FEFF 		bl	delay
 4848 348a 4FF00000 		mov	r0, #0
 4849 348e FFF7FEFF 		bl	systemReset
 4850 3492 7EE1     		b	.L17
 4851              	.L25:
 4852 3494 40F20000 		movw	r0, #:lower16:.LC132
 4853 3498 C0F20000 		movt	r0, #:upper16:.LC132
 4854 349c FFF7FEFF 		bl	usbPrint
 4855 34a0 4FF06400 		mov	r0, #100
 4856 34a4 FFF7FEFF 		bl	delay
 4857 34a8 4FF00100 		mov	r0, #1
 4858 34ac FFF7FEFF 		bl	systemReset
 4859 34b0 6FE1     		b	.L17
 4860              	.L37:
 4861 34b2 40F20003 		movw	r3, #:lower16:cliBusy
 4862 34b6 C0F20003 		movt	r3, #:upper16:cliBusy
 4863 34ba 4FF00102 		mov	r2, #1
 4864 34be 1A70     		strb	r2, [r3, #0]
 4865 34c0 40F20000 		movw	r0, #:lower16:.LC1
 4866 34c4 C0F20000 		movt	r0, #:upper16:.LC1
 4867 34c8 FFF7FEFF 		bl	usbPrint
 4868 34cc 40F20000 		movw	r0, #:lower16:.LC133
 4869 34d0 C0F20000 		movt	r0, #:upper16:.LC133
 4870 34d4 FFF7FEFF 		bl	usbPrint
 4871 34d8 40F20000 		movw	r0, #:lower16:.LC134
 4872 34dc C0F20000 		movt	r0, #:upper16:.LC134
 4873 34e0 FFF7FEFF 		bl	usbPrint
 4874 34e4 40F20000 		movw	r0, #:lower16:.LC135
 4875 34e8 C0F20000 		movt	r0, #:upper16:.LC135
 4876 34ec FFF7FEFF 		bl	usbPrint
 4877 34f0 40F20000 		movw	r0, #:lower16:.LC136
 4878 34f4 C0F20000 		movt	r0, #:upper16:.LC136
 4879 34f8 FFF7FEFF 		bl	usbPrint
 4880 34fc 40F20000 		movw	r0, #:lower16:.LC137
 4881 3500 C0F20000 		movt	r0, #:upper16:.LC137
 4882 3504 FFF7FEFF 		bl	usbPrint
 4883 3508 40F20000 		movw	r0, #:lower16:.LC138
 4884 350c C0F20000 		movt	r0, #:upper16:.LC138
 4885 3510 FFF7FEFF 		bl	usbPrint
 4886 3514 40F20000 		movw	r0, #:lower16:.LC139
 4887 3518 C0F20000 		movt	r0, #:upper16:.LC139
 4888 351c FFF7FEFF 		bl	usbPrint
 4889 3520 40F20000 		movw	r0, #:lower16:.LC140
 4890 3524 C0F20000 		movt	r0, #:upper16:.LC140
 4891 3528 FFF7FEFF 		bl	usbPrint
 4892 352c 40F20000 		movw	r0, #:lower16:.LC141
 4893 3530 C0F20000 		movt	r0, #:upper16:.LC141
 4894 3534 FFF7FEFF 		bl	usbPrint
 4895 3538 40F20000 		movw	r0, #:lower16:.LC142
 4896 353c C0F20000 		movt	r0, #:upper16:.LC142
 4897 3540 FFF7FEFF 		bl	usbPrint
 4898 3544 40F20000 		movw	r0, #:lower16:.LC143
 4899 3548 C0F20000 		movt	r0, #:upper16:.LC143
 4900 354c FFF7FEFF 		bl	usbPrint
 4901 3550 40F20000 		movw	r0, #:lower16:.LC144
 4902 3554 C0F20000 		movt	r0, #:upper16:.LC144
 4903 3558 FFF7FEFF 		bl	usbPrint
 4904 355c 40F20000 		movw	r0, #:lower16:.LC1
 4905 3560 C0F20000 		movt	r0, #:upper16:.LC1
 4906 3564 FFF7FEFF 		bl	usbPrint
 4907 3568 40F20000 		movw	r0, #:lower16:.LC145
 4908 356c C0F20000 		movt	r0, #:upper16:.LC145
 4909 3570 FFF7FEFF 		bl	usbPrint
 4910 3574 00BF     		nop
 4911              	.L160:
 4912 3576 FFF7FEFF 		bl	usbAvailable
 4913 357a 0346     		mov	r3, r0
 4914 357c 002B     		cmp	r3, #0
 4915 357e FAD0     		beq	.L160
 4916 3580 FFF7FEFF 		bl	usbRead
 4917 3584 0346     		mov	r3, r0
 4918 3586 DAB2     		uxtb	r2, r3
 4919 3588 40F20003 		movw	r3, #:lower16:queryType
 4920 358c C0F20003 		movt	r3, #:upper16:queryType
 4921 3590 1A70     		strb	r2, [r3, #0]
 4922 3592 40F20003 		movw	r3, #:lower16:queryType
 4923 3596 C0F20003 		movt	r3, #:upper16:queryType
 4924 359a 1B78     		ldrb	r3, [r3, #0]
 4925 359c DBB2     		uxtb	r3, r3
 4926 359e 202B     		cmp	r3, #32
 4927 35a0 0ED0     		beq	.L161
 4928 35a2 40F20003 		movw	r3, #:lower16:validCommand
 4929 35a6 C0F20003 		movt	r3, #:upper16:validCommand
 4930 35aa 4FF00102 		mov	r2, #1
 4931 35ae 1A70     		strb	r2, [r3, #0]
 4932 35b0 40F20003 		movw	r3, #:lower16:cliBusy
 4933 35b4 C0F20003 		movt	r3, #:upper16:cliBusy
 4934 35b8 4FF00002 		mov	r2, #0
 4935 35bc 1A70     		strb	r2, [r3, #0]
 4936 35be E8E0     		b	.L17
 4937              	.L161:
 4938 35c0 40F20000 		movw	r0, #:lower16:.LC1
 4939 35c4 C0F20000 		movt	r0, #:upper16:.LC1
 4940 35c8 FFF7FEFF 		bl	usbPrint
 4941 35cc 40F20000 		movw	r0, #:lower16:.LC146
 4942 35d0 C0F20000 		movt	r0, #:upper16:.LC146
 4943 35d4 FFF7FEFF 		bl	usbPrint
 4944 35d8 40F20000 		movw	r0, #:lower16:.LC147
 4945 35dc C0F20000 		movt	r0, #:upper16:.LC147
 4946 35e0 FFF7FEFF 		bl	usbPrint
 4947 35e4 40F20000 		movw	r0, #:lower16:.LC148
 4948 35e8 C0F20000 		movt	r0, #:upper16:.LC148
 4949 35ec FFF7FEFF 		bl	usbPrint
 4950 35f0 40F20000 		movw	r0, #:lower16:.LC149
 4951 35f4 C0F20000 		movt	r0, #:upper16:.LC149
 4952 35f8 FFF7FEFF 		bl	usbPrint
 4953 35fc 40F20000 		movw	r0, #:lower16:.LC150
 4954 3600 C0F20000 		movt	r0, #:upper16:.LC150
 4955 3604 FFF7FEFF 		bl	usbPrint
 4956 3608 40F20000 		movw	r0, #:lower16:.LC151
 4957 360c C0F20000 		movt	r0, #:upper16:.LC151
 4958 3610 FFF7FEFF 		bl	usbPrint
 4959 3614 40F20000 		movw	r0, #:lower16:.LC152
 4960 3618 C0F20000 		movt	r0, #:upper16:.LC152
 4961 361c FFF7FEFF 		bl	usbPrint
 4962 3620 40F20000 		movw	r0, #:lower16:.LC153
 4963 3624 C0F20000 		movt	r0, #:upper16:.LC153
 4964 3628 FFF7FEFF 		bl	usbPrint
 4965 362c 40F20000 		movw	r0, #:lower16:.LC154
 4966 3630 C0F20000 		movt	r0, #:upper16:.LC154
 4967 3634 FFF7FEFF 		bl	usbPrint
 4968 3638 40F20000 		movw	r0, #:lower16:.LC155
 4969 363c C0F20000 		movt	r0, #:upper16:.LC155
 4970 3640 FFF7FEFF 		bl	usbPrint
 4971 3644 40F20000 		movw	r0, #:lower16:.LC156
 4972 3648 C0F20000 		movt	r0, #:upper16:.LC156
 4973 364c FFF7FEFF 		bl	usbPrint
 4974 3650 40F20000 		movw	r0, #:lower16:.LC157
 4975 3654 C0F20000 		movt	r0, #:upper16:.LC157
 4976 3658 FFF7FEFF 		bl	usbPrint
 4977 365c 40F20000 		movw	r0, #:lower16:.LC1
 4978 3660 C0F20000 		movt	r0, #:upper16:.LC1
 4979 3664 FFF7FEFF 		bl	usbPrint
 4980 3668 40F20000 		movw	r0, #:lower16:.LC145
 4981 366c C0F20000 		movt	r0, #:upper16:.LC145
 4982 3670 FFF7FEFF 		bl	usbPrint
 4983 3674 00BF     		nop
 4984              	.L162:
 4985 3676 FFF7FEFF 		bl	usbAvailable
 4986 367a 0346     		mov	r3, r0
 4987 367c 002B     		cmp	r3, #0
 4988 367e FAD0     		beq	.L162
 4989 3680 FFF7FEFF 		bl	usbRead
 4990 3684 0346     		mov	r3, r0
 4991 3686 DAB2     		uxtb	r2, r3
 4992 3688 40F20003 		movw	r3, #:lower16:queryType
 4993 368c C0F20003 		movt	r3, #:upper16:queryType
 4994 3690 1A70     		strb	r2, [r3, #0]
 4995 3692 40F20003 		movw	r3, #:lower16:queryType
 4996 3696 C0F20003 		movt	r3, #:upper16:queryType
 4997 369a 1B78     		ldrb	r3, [r3, #0]
 4998 369c DBB2     		uxtb	r3, r3
 4999 369e 202B     		cmp	r3, #32
 5000 36a0 0ED0     		beq	.L163
 5001 36a2 40F20003 		movw	r3, #:lower16:validCommand
 5002 36a6 C0F20003 		movt	r3, #:upper16:validCommand
 5003 36aa 4FF00102 		mov	r2, #1
 5004 36ae 1A70     		strb	r2, [r3, #0]
 5005 36b0 40F20003 		movw	r3, #:lower16:cliBusy
 5006 36b4 C0F20003 		movt	r3, #:upper16:cliBusy
 5007 36b8 4FF00002 		mov	r2, #0
 5008 36bc 1A70     		strb	r2, [r3, #0]
 5009 36be 68E0     		b	.L17
 5010              	.L163:
 5011 36c0 40F20000 		movw	r0, #:lower16:.LC1
 5012 36c4 C0F20000 		movt	r0, #:upper16:.LC1
 5013 36c8 FFF7FEFF 		bl	usbPrint
 5014 36cc 40F20000 		movw	r0, #:lower16:.LC158
 5015 36d0 C0F20000 		movt	r0, #:upper16:.LC158
 5016 36d4 FFF7FEFF 		bl	usbPrint
 5017 36d8 40F20000 		movw	r0, #:lower16:.LC159
 5018 36dc C0F20000 		movt	r0, #:upper16:.LC159
 5019 36e0 FFF7FEFF 		bl	usbPrint
 5020 36e4 40F20000 		movw	r0, #:lower16:.LC160
 5021 36e8 C0F20000 		movt	r0, #:upper16:.LC160
 5022 36ec FFF7FEFF 		bl	usbPrint
 5023 36f0 40F20000 		movw	r0, #:lower16:.LC161
 5024 36f4 C0F20000 		movt	r0, #:upper16:.LC161
 5025 36f8 FFF7FEFF 		bl	usbPrint
 5026 36fc 40F20000 		movw	r0, #:lower16:.LC162
 5027 3700 C0F20000 		movt	r0, #:upper16:.LC162
 5028 3704 FFF7FEFF 		bl	usbPrint
 5029 3708 40F20000 		movw	r0, #:lower16:.LC163
 5030 370c C0F20000 		movt	r0, #:upper16:.LC163
 5031 3710 FFF7FEFF 		bl	usbPrint
 5032 3714 40F20000 		movw	r0, #:lower16:.LC164
 5033 3718 C0F20000 		movt	r0, #:upper16:.LC164
 5034 371c FFF7FEFF 		bl	usbPrint
 5035 3720 40F20000 		movw	r0, #:lower16:.LC165
 5036 3724 C0F20000 		movt	r0, #:upper16:.LC165
 5037 3728 FFF7FEFF 		bl	usbPrint
 5038 372c 40F20000 		movw	r0, #:lower16:.LC166
 5039 3730 C0F20000 		movt	r0, #:upper16:.LC166
 5040 3734 FFF7FEFF 		bl	usbPrint
 5041 3738 40F20000 		movw	r0, #:lower16:.LC167
 5042 373c C0F20000 		movt	r0, #:upper16:.LC167
 5043 3740 FFF7FEFF 		bl	usbPrint
 5044 3744 40F20000 		movw	r0, #:lower16:.LC168
 5045 3748 C0F20000 		movt	r0, #:upper16:.LC168
 5046 374c FFF7FEFF 		bl	usbPrint
 5047 3750 40F20000 		movw	r0, #:lower16:.LC169
 5048 3754 C0F20000 		movt	r0, #:upper16:.LC169
 5049 3758 FFF7FEFF 		bl	usbPrint
 5050 375c 40F20000 		movw	r0, #:lower16:.LC170
 5051 3760 C0F20000 		movt	r0, #:upper16:.LC170
 5052 3764 FFF7FEFF 		bl	usbPrint
 5053 3768 40F20000 		movw	r0, #:lower16:.LC1
 5054 376c C0F20000 		movt	r0, #:upper16:.LC1
 5055 3770 FFF7FEFF 		bl	usbPrint
 5056 3774 40F20003 		movw	r3, #:lower16:queryType
 5057 3778 C0F20003 		movt	r3, #:upper16:queryType
 5058 377c 4FF07802 		mov	r2, #120
 5059 3780 1A70     		strb	r2, [r3, #0]
 5060 3782 40F20003 		movw	r3, #:lower16:cliBusy
 5061 3786 C0F20003 		movt	r3, #:upper16:cliBusy
 5062 378a 4FF00002 		mov	r2, #0
 5063 378e 1A70     		strb	r2, [r3, #0]
 5064 3790 00BF     		nop
 5065              	.L17:
 5066 3792 09B0     		add	sp, sp, #36
 5067 3794 30BD     		pop	{r4, r5, pc}
 5068              	.L167:
 5069 3796 00BF     		.align	2
 5070              	.L166:
 5071 3798 0000803F 		.word	1065353216
 5072 379c 000080BF 		.word	-1082130432
 5074              		.ident	"GCC: (Sourcery CodeBench Lite 2012.03-56) 4.6.3"
DEFINED SYMBOLS
                            *ABS*:00000000 cli.c
C:\Users\JOHNIH~1\AppData\Local\Temp\ccJBxkHc.s:20     .bss:00000000 cliBusy
C:\Users\JOHNIH~1\AppData\Local\Temp\ccJBxkHc.s:21     .bss:00000000 $d
C:\Users\JOHNIH~1\AppData\Local\Temp\ccJBxkHc.s:22     .bss:00000001 queryType
C:\Users\JOHNIH~1\AppData\Local\Temp\ccJBxkHc.s:24     .bss:00000002 validCommand
C:\Users\JOHNIH~1\AppData\Local\Temp\ccJBxkHc.s:29     .bss:00000003 highSpeedTelem1Enabled
C:\Users\JOHNIH~1\AppData\Local\Temp\ccJBxkHc.s:34     .bss:00000004 highSpeedTelem2Enabled
C:\Users\JOHNIH~1\AppData\Local\Temp\ccJBxkHc.s:39     .bss:00000005 highSpeedTelem3Enabled
C:\Users\JOHNIH~1\AppData\Local\Temp\ccJBxkHc.s:44     .bss:00000006 highSpeedTelem4Enabled
C:\Users\JOHNIH~1\AppData\Local\Temp\ccJBxkHc.s:49     .bss:00000007 highSpeedTelem5Enabled
C:\Users\JOHNIH~1\AppData\Local\Temp\ccJBxkHc.s:54     .bss:00000008 highSpeedTelem6Enabled
C:\Users\JOHNIH~1\AppData\Local\Temp\ccJBxkHc.s:59     .bss:00000009 highSpeedTelem7Enabled
C:\Users\JOHNIH~1\AppData\Local\Temp\ccJBxkHc.s:64     .bss:0000000a highSpeedTelem8Enabled
C:\Users\JOHNIH~1\AppData\Local\Temp\ccJBxkHc.s:69     .bss:0000000b highSpeedTelem9Enabled
C:\Users\JOHNIH~1\AppData\Local\Temp\ccJBxkHc.s:72     .text:00000000 $t
C:\Users\JOHNIH~1\AppData\Local\Temp\ccJBxkHc.s:77     .text:00000000 highSpeedTelemDisable
C:\Users\JOHNIH~1\AppData\Local\Temp\ccJBxkHc.s:124    .text:00000080 readStringUsb
C:\Users\JOHNIH~1\AppData\Local\Temp\ccJBxkHc.s:194    .text:00000124 readFloatUsb
C:\Users\JOHNIH~1\AppData\Local\Temp\ccJBxkHc.s:278    .text:000001f8 readUsbPID
C:\Users\JOHNIH~1\AppData\Local\Temp\ccJBxkHc.s:331    .text:00000268 $d
C:\Users\JOHNIH~1\AppData\Local\Temp\ccJBxkHc.s:335    .rodata:00000000 $d
C:\Users\JOHNIH~1\AppData\Local\Temp\ccJBxkHc.s:336    .rodata:00000000 .LC0
C:\Users\JOHNIH~1\AppData\Local\Temp\ccJBxkHc.s:339    .rodata:00000004 .LC1
C:\Users\JOHNIH~1\AppData\Local\Temp\ccJBxkHc.s:342    .rodata:00000008 .LC2
C:\Users\JOHNIH~1\AppData\Local\Temp\ccJBxkHc.s:345    .rodata:00000010 .LC3
C:\Users\JOHNIH~1\AppData\Local\Temp\ccJBxkHc.s:348    .rodata:00000018 .LC4
C:\Users\JOHNIH~1\AppData\Local\Temp\ccJBxkHc.s:351    .rodata:0000002c .LC5
C:\Users\JOHNIH~1\AppData\Local\Temp\ccJBxkHc.s:354    .rodata:00000040 .LC6
C:\Users\JOHNIH~1\AppData\Local\Temp\ccJBxkHc.s:357    .rodata:00000054 .LC7
C:\Users\JOHNIH~1\AppData\Local\Temp\ccJBxkHc.s:360    .rodata:0000006c .LC8
C:\Users\JOHNIH~1\AppData\Local\Temp\ccJBxkHc.s:363    .rodata:00000084 .LC9
C:\Users\JOHNIH~1\AppData\Local\Temp\ccJBxkHc.s:366    .rodata:0000009c .LC10
C:\Users\JOHNIH~1\AppData\Local\Temp\ccJBxkHc.s:369    .rodata:000000b8 .LC11
C:\Users\JOHNIH~1\AppData\Local\Temp\ccJBxkHc.s:372    .rodata:000000d4 .LC12
C:\Users\JOHNIH~1\AppData\Local\Temp\ccJBxkHc.s:375    .rodata:000000f0 .LC13
C:\Users\JOHNIH~1\AppData\Local\Temp\ccJBxkHc.s:378    .rodata:0000010c .LC14
C:\Users\JOHNIH~1\AppData\Local\Temp\ccJBxkHc.s:381    .rodata:00000128 .LC15
C:\Users\JOHNIH~1\AppData\Local\Temp\ccJBxkHc.s:384    .rodata:00000144 .LC16
C:\Users\JOHNIH~1\AppData\Local\Temp\ccJBxkHc.s:387    .rodata:00000160 .LC17
C:\Users\JOHNIH~1\AppData\Local\Temp\ccJBxkHc.s:390    .rodata:0000017c .LC18
C:\Users\JOHNIH~1\AppData\Local\Temp\ccJBxkHc.s:393    .rodata:00000198 .LC19
C:\Users\JOHNIH~1\AppData\Local\Temp\ccJBxkHc.s:396    .rodata:000001b4 .LC20
C:\Users\JOHNIH~1\AppData\Local\Temp\ccJBxkHc.s:399    .rodata:000001d0 .LC21
C:\Users\JOHNIH~1\AppData\Local\Temp\ccJBxkHc.s:402    .rodata:000001ec .LC22
C:\Users\JOHNIH~1\AppData\Local\Temp\ccJBxkHc.s:405    .rodata:00000208 .LC23
C:\Users\JOHNIH~1\AppData\Local\Temp\ccJBxkHc.s:408    .rodata:00000228 .LC24
C:\Users\JOHNIH~1\AppData\Local\Temp\ccJBxkHc.s:411    .rodata:00000230 .LC25
C:\Users\JOHNIH~1\AppData\Local\Temp\ccJBxkHc.s:414    .rodata:00000238 .LC26
C:\Users\JOHNIH~1\AppData\Local\Temp\ccJBxkHc.s:417    .rodata:00000240 .LC27
C:\Users\JOHNIH~1\AppData\Local\Temp\ccJBxkHc.s:420    .rodata:00000248 .LC28
C:\Users\JOHNIH~1\AppData\Local\Temp\ccJBxkHc.s:423    .rodata:0000026c .LC29
C:\Users\JOHNIH~1\AppData\Local\Temp\ccJBxkHc.s:426    .rodata:00000278 .LC30
C:\Users\JOHNIH~1\AppData\Local\Temp\ccJBxkHc.s:429    .rodata:00000280 .LC31
C:\Users\JOHNIH~1\AppData\Local\Temp\ccJBxkHc.s:432    .rodata:0000028c .LC32
C:\Users\JOHNIH~1\AppData\Local\Temp\ccJBxkHc.s:435    .rodata:0000029c .LC33
C:\Users\JOHNIH~1\AppData\Local\Temp\ccJBxkHc.s:438    .rodata:000002ac .LC34
C:\Users\JOHNIH~1\AppData\Local\Temp\ccJBxkHc.s:441    .rodata:000002b8 .LC35
C:\Users\JOHNIH~1\AppData\Local\Temp\ccJBxkHc.s:444    .rodata:000002dc .LC36
C:\Users\JOHNIH~1\AppData\Local\Temp\ccJBxkHc.s:447    .rodata:00000300 .LC37
C:\Users\JOHNIH~1\AppData\Local\Temp\ccJBxkHc.s:450    .rodata:00000314 .LC38
C:\Users\JOHNIH~1\AppData\Local\Temp\ccJBxkHc.s:453    .rodata:0000032c .LC39
C:\Users\JOHNIH~1\AppData\Local\Temp\ccJBxkHc.s:456    .rodata:00000340 .LC40
C:\Users\JOHNIH~1\AppData\Local\Temp\ccJBxkHc.s:459    .rodata:00000358 .LC41
C:\Users\JOHNIH~1\AppData\Local\Temp\ccJBxkHc.s:462    .rodata:00000370 .LC42
C:\Users\JOHNIH~1\AppData\Local\Temp\ccJBxkHc.s:465    .rodata:00000384 .LC43
C:\Users\JOHNIH~1\AppData\Local\Temp\ccJBxkHc.s:468    .rodata:000003a0 .LC44
C:\Users\JOHNIH~1\AppData\Local\Temp\ccJBxkHc.s:471    .rodata:000003b8 .LC45
C:\Users\JOHNIH~1\AppData\Local\Temp\ccJBxkHc.s:474    .rodata:000003d4 .LC46
C:\Users\JOHNIH~1\AppData\Local\Temp\ccJBxkHc.s:477    .rodata:000003f0 .LC47
C:\Users\JOHNIH~1\AppData\Local\Temp\ccJBxkHc.s:480    .rodata:0000040c .LC48
C:\Users\JOHNIH~1\AppData\Local\Temp\ccJBxkHc.s:483    .rodata:00000428 .LC49
C:\Users\JOHNIH~1\AppData\Local\Temp\ccJBxkHc.s:486    .rodata:00000438 .LC50
C:\Users\JOHNIH~1\AppData\Local\Temp\ccJBxkHc.s:489    .rodata:0000044c .LC51
C:\Users\JOHNIH~1\AppData\Local\Temp\ccJBxkHc.s:492    .rodata:00000460 .LC52
C:\Users\JOHNIH~1\AppData\Local\Temp\ccJBxkHc.s:495    .rodata:00000470 .LC53
C:\Users\JOHNIH~1\AppData\Local\Temp\ccJBxkHc.s:498    .rodata:0000048c .LC54
C:\Users\JOHNIH~1\AppData\Local\Temp\ccJBxkHc.s:501    .rodata:000004a4 .LC55
C:\Users\JOHNIH~1\AppData\Local\Temp\ccJBxkHc.s:504    .rodata:000004c4 .LC56
C:\Users\JOHNIH~1\AppData\Local\Temp\ccJBxkHc.s:507    .rodata:000004e0 .LC57
C:\Users\JOHNIH~1\AppData\Local\Temp\ccJBxkHc.s:510    .rodata:000004f4 .LC58
C:\Users\JOHNIH~1\AppData\Local\Temp\ccJBxkHc.s:513    .rodata:00000514 .LC59
C:\Users\JOHNIH~1\AppData\Local\Temp\ccJBxkHc.s:516    .rodata:00000538 .LC60
C:\Users\JOHNIH~1\AppData\Local\Temp\ccJBxkHc.s:519    .rodata:0000055c .LC61
C:\Users\JOHNIH~1\AppData\Local\Temp\ccJBxkHc.s:522    .rodata:00000580 .LC62
C:\Users\JOHNIH~1\AppData\Local\Temp\ccJBxkHc.s:525    .rodata:000005a4 .LC63
C:\Users\JOHNIH~1\AppData\Local\Temp\ccJBxkHc.s:528    .rodata:000005c8 .LC64
C:\Users\JOHNIH~1\AppData\Local\Temp\ccJBxkHc.s:531    .rodata:000005ec .LC65
C:\Users\JOHNIH~1\AppData\Local\Temp\ccJBxkHc.s:534    .rodata:00000610 .LC66
C:\Users\JOHNIH~1\AppData\Local\Temp\ccJBxkHc.s:537    .rodata:00000634 .LC67
C:\Users\JOHNIH~1\AppData\Local\Temp\ccJBxkHc.s:540    .rodata:00000658 .LC68
C:\Users\JOHNIH~1\AppData\Local\Temp\ccJBxkHc.s:543    .rodata:0000067c .LC69
C:\Users\JOHNIH~1\AppData\Local\Temp\ccJBxkHc.s:546    .rodata:000006a0 .LC70
C:\Users\JOHNIH~1\AppData\Local\Temp\ccJBxkHc.s:549    .rodata:000006c4 .LC71
C:\Users\JOHNIH~1\AppData\Local\Temp\ccJBxkHc.s:552    .rodata:000006e8 .LC72
C:\Users\JOHNIH~1\AppData\Local\Temp\ccJBxkHc.s:555    .rodata:0000070c .LC73
C:\Users\JOHNIH~1\AppData\Local\Temp\ccJBxkHc.s:558    .rodata:00000730 .LC74
C:\Users\JOHNIH~1\AppData\Local\Temp\ccJBxkHc.s:561    .rodata:00000754 .LC75
C:\Users\JOHNIH~1\AppData\Local\Temp\ccJBxkHc.s:564    .rodata:00000778 .LC76
C:\Users\JOHNIH~1\AppData\Local\Temp\ccJBxkHc.s:567    .rodata:0000079c .LC77
C:\Users\JOHNIH~1\AppData\Local\Temp\ccJBxkHc.s:570    .rodata:000007c0 .LC78
C:\Users\JOHNIH~1\AppData\Local\Temp\ccJBxkHc.s:573    .rodata:000007e4 .LC79
C:\Users\JOHNIH~1\AppData\Local\Temp\ccJBxkHc.s:576    .rodata:00000808 .LC80
C:\Users\JOHNIH~1\AppData\Local\Temp\ccJBxkHc.s:579    .rodata:0000082c .LC81
C:\Users\JOHNIH~1\AppData\Local\Temp\ccJBxkHc.s:582    .rodata:00000850 .LC82
C:\Users\JOHNIH~1\AppData\Local\Temp\ccJBxkHc.s:585    .rodata:00000874 .LC83
C:\Users\JOHNIH~1\AppData\Local\Temp\ccJBxkHc.s:588    .rodata:00000898 .LC84
C:\Users\JOHNIH~1\AppData\Local\Temp\ccJBxkHc.s:591    .rodata:000008bc .LC85
C:\Users\JOHNIH~1\AppData\Local\Temp\ccJBxkHc.s:594    .rodata:000008e0 .LC86
C:\Users\JOHNIH~1\AppData\Local\Temp\ccJBxkHc.s:597    .rodata:00000904 .LC87
C:\Users\JOHNIH~1\AppData\Local\Temp\ccJBxkHc.s:600    .rodata:00000928 .LC88
C:\Users\JOHNIH~1\AppData\Local\Temp\ccJBxkHc.s:603    .rodata:0000094c .LC89
C:\Users\JOHNIH~1\AppData\Local\Temp\ccJBxkHc.s:606    .rodata:00000970 .LC90
C:\Users\JOHNIH~1\AppData\Local\Temp\ccJBxkHc.s:609    .rodata:00000994 .LC91
C:\Users\JOHNIH~1\AppData\Local\Temp\ccJBxkHc.s:612    .rodata:000009b8 .LC92
C:\Users\JOHNIH~1\AppData\Local\Temp\ccJBxkHc.s:615    .rodata:000009dc .LC93
C:\Users\JOHNIH~1\AppData\Local\Temp\ccJBxkHc.s:618    .rodata:000009fc .LC94
C:\Users\JOHNIH~1\AppData\Local\Temp\ccJBxkHc.s:621    .rodata:00000a00 .LC95
C:\Users\JOHNIH~1\AppData\Local\Temp\ccJBxkHc.s:624    .rodata:00000a20 .LC96
C:\Users\JOHNIH~1\AppData\Local\Temp\ccJBxkHc.s:627    .rodata:00000a28 .LC97
C:\Users\JOHNIH~1\AppData\Local\Temp\ccJBxkHc.s:630    .rodata:00000a2c .LC98
C:\Users\JOHNIH~1\AppData\Local\Temp\ccJBxkHc.s:633    .rodata:00000a4c .LC99
C:\Users\JOHNIH~1\AppData\Local\Temp\ccJBxkHc.s:636    .rodata:00000a6c .LC100
C:\Users\JOHNIH~1\AppData\Local\Temp\ccJBxkHc.s:639    .rodata:00000a88 .LC101
C:\Users\JOHNIH~1\AppData\Local\Temp\ccJBxkHc.s:642    .rodata:00000aac .LC102
C:\Users\JOHNIH~1\AppData\Local\Temp\ccJBxkHc.s:645    .rodata:00000ad0 .LC103
C:\Users\JOHNIH~1\AppData\Local\Temp\ccJBxkHc.s:648    .rodata:00000aec .LC104
C:\Users\JOHNIH~1\AppData\Local\Temp\ccJBxkHc.s:651    .rodata:00000b0c .LC105
C:\Users\JOHNIH~1\AppData\Local\Temp\ccJBxkHc.s:654    .rodata:00000b24 .LC106
C:\Users\JOHNIH~1\AppData\Local\Temp\ccJBxkHc.s:657    .rodata:00000b44 .LC107
C:\Users\JOHNIH~1\AppData\Local\Temp\ccJBxkHc.s:660    .rodata:00000b68 .LC108
C:\Users\JOHNIH~1\AppData\Local\Temp\ccJBxkHc.s:663    .rodata:00000b8c .LC109
C:\Users\JOHNIH~1\AppData\Local\Temp\ccJBxkHc.s:666    .rodata:00000bb0 .LC110
C:\Users\JOHNIH~1\AppData\Local\Temp\ccJBxkHc.s:669    .rodata:00000bcc .LC111
C:\Users\JOHNIH~1\AppData\Local\Temp\ccJBxkHc.s:672    .rodata:00000bec .LC112
C:\Users\JOHNIH~1\AppData\Local\Temp\ccJBxkHc.s:675    .rodata:00000c10 .LC113
C:\Users\JOHNIH~1\AppData\Local\Temp\ccJBxkHc.s:678    .rodata:00000c3c .LC114
C:\Users\JOHNIH~1\AppData\Local\Temp\ccJBxkHc.s:681    .rodata:00000c6c .LC115
C:\Users\JOHNIH~1\AppData\Local\Temp\ccJBxkHc.s:685    .rodata:00000c9c .LC116
C:\Users\JOHNIH~1\AppData\Local\Temp\ccJBxkHc.s:689    .rodata:00000ccc .LC117
C:\Users\JOHNIH~1\AppData\Local\Temp\ccJBxkHc.s:693    .rodata:00000cfc .LC118
C:\Users\JOHNIH~1\AppData\Local\Temp\ccJBxkHc.s:696    .rodata:00000d28 .LC119
C:\Users\JOHNIH~1\AppData\Local\Temp\ccJBxkHc.s:699    .rodata:00000d50 .LC120
C:\Users\JOHNIH~1\AppData\Local\Temp\ccJBxkHc.s:702    .rodata:00000d78 .LC121
C:\Users\JOHNIH~1\AppData\Local\Temp\ccJBxkHc.s:705    .rodata:00000d98 .LC122
C:\Users\JOHNIH~1\AppData\Local\Temp\ccJBxkHc.s:708    .rodata:00000db4 .LC123
C:\Users\JOHNIH~1\AppData\Local\Temp\ccJBxkHc.s:711    .rodata:00000de0 .LC124
C:\Users\JOHNIH~1\AppData\Local\Temp\ccJBxkHc.s:714    .rodata:00000e00 .LC125
C:\Users\JOHNIH~1\AppData\Local\Temp\ccJBxkHc.s:717    .rodata:00000e20 .LC126
C:\Users\JOHNIH~1\AppData\Local\Temp\ccJBxkHc.s:721    .rodata:00000e50 .LC127
C:\Users\JOHNIH~1\AppData\Local\Temp\ccJBxkHc.s:724    .rodata:00000e70 .LC128
C:\Users\JOHNIH~1\AppData\Local\Temp\ccJBxkHc.s:727    .rodata:00000e90 .LC129
C:\Users\JOHNIH~1\AppData\Local\Temp\ccJBxkHc.s:730    .rodata:00000ea8 .LC130
C:\Users\JOHNIH~1\AppData\Local\Temp\ccJBxkHc.s:733    .rodata:00000ec8 .LC131
C:\Users\JOHNIH~1\AppData\Local\Temp\ccJBxkHc.s:736    .rodata:00000ee0 .LC132
C:\Users\JOHNIH~1\AppData\Local\Temp\ccJBxkHc.s:739    .rodata:00000efc .LC133
C:\Users\JOHNIH~1\AppData\Local\Temp\ccJBxkHc.s:744    .rodata:00000f68 .LC134
C:\Users\JOHNIH~1\AppData\Local\Temp\ccJBxkHc.s:749    .rodata:00000fd4 .LC135
C:\Users\JOHNIH~1\AppData\Local\Temp\ccJBxkHc.s:754    .rodata:00001040 .LC136
C:\Users\JOHNIH~1\AppData\Local\Temp\ccJBxkHc.s:759    .rodata:000010ac .LC137
C:\Users\JOHNIH~1\AppData\Local\Temp\ccJBxkHc.s:764    .rodata:00001118 .LC138
C:\Users\JOHNIH~1\AppData\Local\Temp\ccJBxkHc.s:769    .rodata:00001184 .LC139
C:\Users\JOHNIH~1\AppData\Local\Temp\ccJBxkHc.s:773    .rodata:000011e0 .LC140
C:\Users\JOHNIH~1\AppData\Local\Temp\ccJBxkHc.s:778    .rodata:0000125c .LC141
C:\Users\JOHNIH~1\AppData\Local\Temp\ccJBxkHc.s:782    .rodata:000012bc .LC142
C:\Users\JOHNIH~1\AppData\Local\Temp\ccJBxkHc.s:786    .rodata:0000131c .LC143
C:\Users\JOHNIH~1\AppData\Local\Temp\ccJBxkHc.s:790    .rodata:0000137c .LC144
C:\Users\JOHNIH~1\AppData\Local\Temp\ccJBxkHc.s:795    .rodata:000013ec .LC145
C:\Users\JOHNIH~1\AppData\Local\Temp\ccJBxkHc.s:799    .rodata:00001420 .LC146
C:\Users\JOHNIH~1\AppData\Local\Temp\ccJBxkHc.s:803    .rodata:0000147c .LC147
C:\Users\JOHNIH~1\AppData\Local\Temp\ccJBxkHc.s:807    .rodata:000014dc .LC148
C:\Users\JOHNIH~1\AppData\Local\Temp\ccJBxkHc.s:812    .rodata:0000155c .LC149
C:\Users\JOHNIH~1\AppData\Local\Temp\ccJBxkHc.s:817    .rodata:000015c4 .LC150
C:\Users\JOHNIH~1\AppData\Local\Temp\ccJBxkHc.s:822    .rodata:0000162c .LC151
C:\Users\JOHNIH~1\AppData\Local\Temp\ccJBxkHc.s:826    .rodata:00001690 .LC152
C:\Users\JOHNIH~1\AppData\Local\Temp\ccJBxkHc.s:830    .rodata:000016f4 .LC153
C:\Users\JOHNIH~1\AppData\Local\Temp\ccJBxkHc.s:834    .rodata:00001758 .LC154
C:\Users\JOHNIH~1\AppData\Local\Temp\ccJBxkHc.s:839    .rodata:000017d8 .LC155
C:\Users\JOHNIH~1\AppData\Local\Temp\ccJBxkHc.s:844    .rodata:00001850 .LC156
C:\Users\JOHNIH~1\AppData\Local\Temp\ccJBxkHc.s:848    .rodata:000018b0 .LC157
C:\Users\JOHNIH~1\AppData\Local\Temp\ccJBxkHc.s:853    .rodata:0000191c .LC158
C:\Users\JOHNIH~1\AppData\Local\Temp\ccJBxkHc.s:857    .rodata:00001980 .LC159
C:\Users\JOHNIH~1\AppData\Local\Temp\ccJBxkHc.s:862    .rodata:000019f0 .LC160
C:\Users\JOHNIH~1\AppData\Local\Temp\ccJBxkHc.s:866    .rodata:00001a54 .LC161
C:\Users\JOHNIH~1\AppData\Local\Temp\ccJBxkHc.s:870    .rodata:00001ab8 .LC162
C:\Users\JOHNIH~1\AppData\Local\Temp\ccJBxkHc.s:874    .rodata:00001b14 .LC163
C:\Users\JOHNIH~1\AppData\Local\Temp\ccJBxkHc.s:878    .rodata:00001b74 .LC164
C:\Users\JOHNIH~1\AppData\Local\Temp\ccJBxkHc.s:882    .rodata:00001bb0 .LC165
C:\Users\JOHNIH~1\AppData\Local\Temp\ccJBxkHc.s:886    .rodata:00001bf8 .LC166
C:\Users\JOHNIH~1\AppData\Local\Temp\ccJBxkHc.s:890    .rodata:00001c40 .LC167
C:\Users\JOHNIH~1\AppData\Local\Temp\ccJBxkHc.s:894    .rodata:00001c78 .LC168
C:\Users\JOHNIH~1\AppData\Local\Temp\ccJBxkHc.s:898    .rodata:00001cc4 .LC169
C:\Users\JOHNIH~1\AppData\Local\Temp\ccJBxkHc.s:902    .rodata:00001d00 .LC170
C:\Users\JOHNIH~1\AppData\Local\Temp\ccJBxkHc.s:906    .text:00000270 $t
C:\Users\JOHNIH~1\AppData\Local\Temp\ccJBxkHc.s:911    .text:00000270 cliCom
C:\Users\JOHNIH~1\AppData\Local\Temp\ccJBxkHc.s:944    .text:000002bc $d
C:\Users\JOHNIH~1\AppData\Local\Temp\ccJBxkHc.s:1035   .text:00000424 $t
C:\Users\JOHNIH~1\AppData\Local\Temp\ccJBxkHc.s:1505   .text:000009e8 $d
C:\Users\JOHNIH~1\AppData\Local\Temp\ccJBxkHc.s:1507   .text:000009ec $t
C:\Users\JOHNIH~1\AppData\Local\Temp\ccJBxkHc.s:2690   .text:000018b8 $d
C:\Users\JOHNIH~1\AppData\Local\Temp\ccJBxkHc.s:2695   .text:000018c8 $t
C:\Users\JOHNIH~1\AppData\Local\Temp\ccJBxkHc.s:2832   .text:00001a68 $d
C:\Users\JOHNIH~1\AppData\Local\Temp\ccJBxkHc.s:2854   .text:00001abc $t
C:\Users\JOHNIH~1\AppData\Local\Temp\ccJBxkHc.s:4657   .text:00003220 $d
C:\Users\JOHNIH~1\AppData\Local\Temp\ccJBxkHc.s:4662   .text:00003230 $t
C:\Users\JOHNIH~1\AppData\Local\Temp\ccJBxkHc.s:5071   .text:00003798 $d

UNDEFINED SYMBOLS
usbRead
delay
stringToFloat
eepromConfig
usbAvailable
deltaTime1000Hz
itoa
usbPrint
deltaTime500Hz
deltaTime200Hz
deltaTime100Hz
deltaTime50Hz
deltaTime10Hz
deltaTime5Hz
deltaTime1Hz
executionTime1000Hz
executionTime500Hz
executionTime200Hz
executionTime100Hz
executionTime50Hz
executionTime10Hz
executionTime5Hz
executionTime1Hz
mpu6000Calibration
magCalibration
escCalibration
sensors
ftoa
mpu6000Temperature
earthAxisAccels
hDotEstimate
hEstimate
rxCommand
commandInDetent
accelOneG
rcChannelLetters
numberMotor
spektrumChannelData
rxRead
writeEEPROM
systemReset
parseRcChannels
initMixer
pwmEscInit
pwmServoInit
setSPIdivisor
GPIO_ResetBits
spiTransfer
GPIO_SetBits
checkFirstTime
