   1              		.syntax unified
   2              		.cpu cortex-m4
   3              		.eabi_attribute 27, 3
   4              		.fpu fpv4-sp-d16
   5              		.eabi_attribute 20, 1
   6              		.eabi_attribute 21, 1
   7              		.eabi_attribute 23, 3
   8              		.eabi_attribute 24, 1
   9              		.eabi_attribute 25, 1
  10              		.eabi_attribute 26, 1
  11              		.eabi_attribute 30, 6
  12              		.eabi_attribute 34, 1
  13              		.eabi_attribute 18, 4
  14              		.thumb
  15              		.file	"linearAlgebra.c"
  16              		.comm	mtk19ProcessDataState,1,1
  17              		.comm	nmeaProcessDataState,1,1
  18              		.comm	ubloxProcessDataState,1,1
  19              		.text
  20              		.align	2
  21              		.global	vectorDotProduct
  22              		.thumb
  23              		.thumb_func
  25              	vectorDotProduct:
  26              		@ args = 0, pretend = 0, frame = 24
  27              		@ frame_needed = 0, uses_anonymous_args = 0
  28              		@ link register save eliminated.
  29 0000 86B0     		sub	sp, sp, #24
  30 0002 0390     		str	r0, [sp, #12]
  31 0004 0291     		str	r1, [sp, #8]
  32 0006 0192     		str	r2, [sp, #4]
  33 0008 134B     		ldr	r3, .L4	@ float
  34 000a 0593     		str	r3, [sp, #20]	@ float
  35 000c 4FF00003 		mov	r3, #0
  36 0010 0493     		str	r3, [sp, #16]
  37 0012 19E0     		b	.L2
  38              	.L3:
  39 0014 049B     		ldr	r3, [sp, #16]
  40 0016 4FEA8303 		lsl	r3, r3, #2
  41 001a 029A     		ldr	r2, [sp, #8]
  42 001c D318     		adds	r3, r2, r3
  43 001e 93ED007A 		flds	s14, [r3, #0]
  44 0022 049B     		ldr	r3, [sp, #16]
  45 0024 4FEA8303 		lsl	r3, r3, #2
  46 0028 019A     		ldr	r2, [sp, #4]
  47 002a D318     		adds	r3, r2, r3
  48 002c D3ED007A 		flds	s15, [r3, #0]
  49 0030 67EE277A 		fmuls	s15, s14, s15
  50 0034 9DED057A 		flds	s14, [sp, #20]
  51 0038 77EE277A 		fadds	s15, s14, s15
  52 003c CDED057A 		fsts	s15, [sp, #20]
  53 0040 049B     		ldr	r3, [sp, #16]
  54 0042 03F10103 		add	r3, r3, #1
  55 0046 0493     		str	r3, [sp, #16]
  56              	.L2:
  57 0048 049A     		ldr	r2, [sp, #16]
  58 004a 039B     		ldr	r3, [sp, #12]
  59 004c 9A42     		cmp	r2, r3
  60 004e E1DB     		blt	.L3
  61 0050 059B     		ldr	r3, [sp, #20]	@ float
  62 0052 1846     		mov	r0, r3	@ float
  63 0054 06B0     		add	sp, sp, #24
  64 0056 7047     		bx	lr
  65              	.L5:
  66              		.align	2
  67              	.L4:
  68 0058 00000000 		.word	0
  70              		.align	2
  71              		.global	vectorCrossProduct
  72              		.thumb
  73              		.thumb_func
  75              	vectorCrossProduct:
  76              		@ args = 0, pretend = 0, frame = 16
  77              		@ frame_needed = 0, uses_anonymous_args = 0
  78              		@ link register save eliminated.
  79 005c 84B0     		sub	sp, sp, #16
  80 005e 0390     		str	r0, [sp, #12]
  81 0060 0291     		str	r1, [sp, #8]
  82 0062 0192     		str	r2, [sp, #4]
  83 0064 029B     		ldr	r3, [sp, #8]
  84 0066 03F10403 		add	r3, r3, #4
  85 006a 93ED007A 		flds	s14, [r3, #0]
  86 006e 019B     		ldr	r3, [sp, #4]
  87 0070 03F10803 		add	r3, r3, #8
  88 0074 D3ED007A 		flds	s15, [r3, #0]
  89 0078 27EE277A 		fmuls	s14, s14, s15
  90 007c 029B     		ldr	r3, [sp, #8]
  91 007e 03F10803 		add	r3, r3, #8
  92 0082 D3ED006A 		flds	s13, [r3, #0]
  93 0086 019B     		ldr	r3, [sp, #4]
  94 0088 03F10403 		add	r3, r3, #4
  95 008c D3ED007A 		flds	s15, [r3, #0]
  96 0090 66EEA77A 		fmuls	s15, s13, s15
  97 0094 77EE677A 		fsubs	s15, s14, s15
  98 0098 039B     		ldr	r3, [sp, #12]
  99 009a C3ED007A 		fsts	s15, [r3, #0]
 100 009e 039B     		ldr	r3, [sp, #12]
 101 00a0 03F10403 		add	r3, r3, #4
 102 00a4 029A     		ldr	r2, [sp, #8]
 103 00a6 02F10802 		add	r2, r2, #8
 104 00aa 92ED007A 		flds	s14, [r2, #0]
 105 00ae 019A     		ldr	r2, [sp, #4]
 106 00b0 D2ED007A 		flds	s15, [r2, #0]
 107 00b4 27EE277A 		fmuls	s14, s14, s15
 108 00b8 029A     		ldr	r2, [sp, #8]
 109 00ba D2ED006A 		flds	s13, [r2, #0]
 110 00be 019A     		ldr	r2, [sp, #4]
 111 00c0 02F10802 		add	r2, r2, #8
 112 00c4 D2ED007A 		flds	s15, [r2, #0]
 113 00c8 66EEA77A 		fmuls	s15, s13, s15
 114 00cc 77EE677A 		fsubs	s15, s14, s15
 115 00d0 C3ED007A 		fsts	s15, [r3, #0]
 116 00d4 039B     		ldr	r3, [sp, #12]
 117 00d6 03F10803 		add	r3, r3, #8
 118 00da 029A     		ldr	r2, [sp, #8]
 119 00dc 92ED007A 		flds	s14, [r2, #0]
 120 00e0 019A     		ldr	r2, [sp, #4]
 121 00e2 02F10402 		add	r2, r2, #4
 122 00e6 D2ED007A 		flds	s15, [r2, #0]
 123 00ea 27EE277A 		fmuls	s14, s14, s15
 124 00ee 029A     		ldr	r2, [sp, #8]
 125 00f0 02F10402 		add	r2, r2, #4
 126 00f4 D2ED006A 		flds	s13, [r2, #0]
 127 00f8 019A     		ldr	r2, [sp, #4]
 128 00fa D2ED007A 		flds	s15, [r2, #0]
 129 00fe 66EEA77A 		fmuls	s15, s13, s15
 130 0102 77EE677A 		fsubs	s15, s14, s15
 131 0106 C3ED007A 		fsts	s15, [r3, #0]
 132 010a 04B0     		add	sp, sp, #16
 133 010c 7047     		bx	lr
 135 010e 00BF     		.align	2
 136              		.global	vectorScale
 137              		.thumb
 138              		.thumb_func
 140              	vectorScale:
 141              		@ args = 0, pretend = 0, frame = 24
 142              		@ frame_needed = 0, uses_anonymous_args = 0
 143              		@ link register save eliminated.
 144 0110 86B0     		sub	sp, sp, #24
 145 0112 0390     		str	r0, [sp, #12]
 146 0114 0291     		str	r1, [sp, #8]
 147 0116 0192     		str	r2, [sp, #4]
 148 0118 0093     		str	r3, [sp, #0]	@ float
 149 011a 4FF00003 		mov	r3, #0
 150 011e 8DF81730 		strb	r3, [sp, #23]
 151 0122 19E0     		b	.L8
 152              	.L9:
 153 0124 9DF81730 		ldrb	r3, [sp, #23]	@ zero_extendqisi2
 154 0128 4FEA8303 		lsl	r3, r3, #2
 155 012c 029A     		ldr	r2, [sp, #8]
 156 012e D318     		adds	r3, r2, r3
 157 0130 9DF81720 		ldrb	r2, [sp, #23]	@ zero_extendqisi2
 158 0134 4FEA8202 		lsl	r2, r2, #2
 159 0138 0199     		ldr	r1, [sp, #4]
 160 013a 8A18     		adds	r2, r1, r2
 161 013c 92ED007A 		flds	s14, [r2, #0]
 162 0140 DDED007A 		flds	s15, [sp, #0]
 163 0144 67EE277A 		fmuls	s15, s14, s15
 164 0148 C3ED007A 		fsts	s15, [r3, #0]
 165 014c 9DF81730 		ldrb	r3, [sp, #23]
 166 0150 03F10103 		add	r3, r3, #1
 167 0154 8DF81730 		strb	r3, [sp, #23]
 168              	.L8:
 169 0158 9DF81720 		ldrb	r2, [sp, #23]	@ zero_extendqisi2
 170 015c 039B     		ldr	r3, [sp, #12]
 171 015e 9A42     		cmp	r2, r3
 172 0160 E0DB     		blt	.L9
 173 0162 06B0     		add	sp, sp, #24
 174 0164 7047     		bx	lr
 176 0166 00BF     		.align	2
 177              		.global	vectorAdd
 178              		.thumb
 179              		.thumb_func
 181              	vectorAdd:
 182              		@ args = 0, pretend = 0, frame = 24
 183              		@ frame_needed = 0, uses_anonymous_args = 0
 184              		@ link register save eliminated.
 185 0168 86B0     		sub	sp, sp, #24
 186 016a 0390     		str	r0, [sp, #12]
 187 016c 0291     		str	r1, [sp, #8]
 188 016e 0192     		str	r2, [sp, #4]
 189 0170 0093     		str	r3, [sp, #0]
 190 0172 4FF00003 		mov	r3, #0
 191 0176 8DF81730 		strb	r3, [sp, #23]
 192 017a 1FE0     		b	.L11
 193              	.L12:
 194 017c 9DF81730 		ldrb	r3, [sp, #23]	@ zero_extendqisi2
 195 0180 4FEA8303 		lsl	r3, r3, #2
 196 0184 029A     		ldr	r2, [sp, #8]
 197 0186 D318     		adds	r3, r2, r3
 198 0188 9DF81720 		ldrb	r2, [sp, #23]	@ zero_extendqisi2
 199 018c 4FEA8202 		lsl	r2, r2, #2
 200 0190 0199     		ldr	r1, [sp, #4]
 201 0192 8A18     		adds	r2, r1, r2
 202 0194 92ED007A 		flds	s14, [r2, #0]
 203 0198 9DF81720 		ldrb	r2, [sp, #23]	@ zero_extendqisi2
 204 019c 4FEA8202 		lsl	r2, r2, #2
 205 01a0 0099     		ldr	r1, [sp, #0]
 206 01a2 8A18     		adds	r2, r1, r2
 207 01a4 D2ED007A 		flds	s15, [r2, #0]
 208 01a8 77EE277A 		fadds	s15, s14, s15
 209 01ac C3ED007A 		fsts	s15, [r3, #0]
 210 01b0 9DF81730 		ldrb	r3, [sp, #23]
 211 01b4 03F10103 		add	r3, r3, #1
 212 01b8 8DF81730 		strb	r3, [sp, #23]
 213              	.L11:
 214 01bc 9DF81720 		ldrb	r2, [sp, #23]	@ zero_extendqisi2
 215 01c0 039B     		ldr	r3, [sp, #12]
 216 01c2 9A42     		cmp	r2, r3
 217 01c4 DADB     		blt	.L12
 218 01c6 06B0     		add	sp, sp, #24
 219 01c8 7047     		bx	lr
 221 01ca 00BF     		.align	2
 222              		.global	vectorSubtract
 223              		.thumb
 224              		.thumb_func
 226              	vectorSubtract:
 227              		@ args = 0, pretend = 0, frame = 24
 228              		@ frame_needed = 0, uses_anonymous_args = 0
 229              		@ link register save eliminated.
 230 01cc 86B0     		sub	sp, sp, #24
 231 01ce 0390     		str	r0, [sp, #12]
 232 01d0 0291     		str	r1, [sp, #8]
 233 01d2 0192     		str	r2, [sp, #4]
 234 01d4 0093     		str	r3, [sp, #0]
 235 01d6 4FF00003 		mov	r3, #0
 236 01da 8DF81730 		strb	r3, [sp, #23]
 237 01de 1FE0     		b	.L14
 238              	.L15:
 239 01e0 9DF81730 		ldrb	r3, [sp, #23]	@ zero_extendqisi2
 240 01e4 4FEA8303 		lsl	r3, r3, #2
 241 01e8 029A     		ldr	r2, [sp, #8]
 242 01ea D318     		adds	r3, r2, r3
 243 01ec 9DF81720 		ldrb	r2, [sp, #23]	@ zero_extendqisi2
 244 01f0 4FEA8202 		lsl	r2, r2, #2
 245 01f4 0199     		ldr	r1, [sp, #4]
 246 01f6 8A18     		adds	r2, r1, r2
 247 01f8 92ED007A 		flds	s14, [r2, #0]
 248 01fc 9DF81720 		ldrb	r2, [sp, #23]	@ zero_extendqisi2
 249 0200 4FEA8202 		lsl	r2, r2, #2
 250 0204 0099     		ldr	r1, [sp, #0]
 251 0206 8A18     		adds	r2, r1, r2
 252 0208 D2ED007A 		flds	s15, [r2, #0]
 253 020c 77EE677A 		fsubs	s15, s14, s15
 254 0210 C3ED007A 		fsts	s15, [r3, #0]
 255 0214 9DF81730 		ldrb	r3, [sp, #23]
 256 0218 03F10103 		add	r3, r3, #1
 257 021c 8DF81730 		strb	r3, [sp, #23]
 258              	.L14:
 259 0220 9DF81720 		ldrb	r2, [sp, #23]	@ zero_extendqisi2
 260 0224 039B     		ldr	r3, [sp, #12]
 261 0226 9A42     		cmp	r2, r3
 262 0228 DADB     		blt	.L15
 263 022a 06B0     		add	sp, sp, #24
 264 022c 7047     		bx	lr
 266 022e 00BF     		.align	2
 267              		.global	matrixMultiply
 268              		.thumb
 269              		.thumb_func
 271              	matrixMultiply:
 272              		@ args = 8, pretend = 0, frame = 24
 273              		@ frame_needed = 0, uses_anonymous_args = 0
 274              		@ link register save eliminated.
 275 0230 86B0     		sub	sp, sp, #24
 276 0232 0390     		str	r0, [sp, #12]
 277 0234 0291     		str	r1, [sp, #8]
 278 0236 0192     		str	r2, [sp, #4]
 279 0238 0093     		str	r3, [sp, #0]
 280 023a 4FF00003 		mov	r3, #0
 281 023e 8DF81730 		strb	r3, [sp, #23]
 282 0242 0DE0     		b	.L17
 283              	.L18:
 284 0244 9DF81730 		ldrb	r3, [sp, #23]	@ zero_extendqisi2
 285 0248 4FEA8303 		lsl	r3, r3, #2
 286 024c 009A     		ldr	r2, [sp, #0]
 287 024e D318     		adds	r3, r2, r3
 288 0250 3E4A     		ldr	r2, .L25	@ float
 289 0252 1A60     		str	r2, [r3, #0]	@ float
 290 0254 9DF81730 		ldrb	r3, [sp, #23]
 291 0258 03F10103 		add	r3, r3, #1
 292 025c 8DF81730 		strb	r3, [sp, #23]
 293              	.L17:
 294 0260 9DF81720 		ldrb	r2, [sp, #23]	@ zero_extendqisi2
 295 0264 039B     		ldr	r3, [sp, #12]
 296 0266 0199     		ldr	r1, [sp, #4]
 297 0268 01FB03F3 		mul	r3, r1, r3
 298 026c 9A42     		cmp	r2, r3
 299 026e E9DB     		blt	.L18
 300 0270 4FF00003 		mov	r3, #0
 301 0274 8DF81730 		strb	r3, [sp, #23]
 302 0278 61E0     		b	.L19
 303              	.L24:
 304 027a 4FF00003 		mov	r3, #0
 305 027e 8DF81630 		strb	r3, [sp, #22]
 306 0282 51E0     		b	.L20
 307              	.L23:
 308 0284 4FF00003 		mov	r3, #0
 309 0288 8DF81530 		strb	r3, [sp, #21]
 310 028c 41E0     		b	.L21
 311              	.L22:
 312 028e 9DF81730 		ldrb	r3, [sp, #23]	@ zero_extendqisi2
 313 0292 019A     		ldr	r2, [sp, #4]
 314 0294 02FB03F2 		mul	r2, r2, r3
 315 0298 9DF81530 		ldrb	r3, [sp, #21]	@ zero_extendqisi2
 316 029c D318     		adds	r3, r2, r3
 317 029e 4FEA8303 		lsl	r3, r3, #2
 318 02a2 009A     		ldr	r2, [sp, #0]
 319 02a4 D318     		adds	r3, r2, r3
 320 02a6 9DF81720 		ldrb	r2, [sp, #23]	@ zero_extendqisi2
 321 02aa 0199     		ldr	r1, [sp, #4]
 322 02ac 01FB02F1 		mul	r1, r1, r2
 323 02b0 9DF81520 		ldrb	r2, [sp, #21]	@ zero_extendqisi2
 324 02b4 8A18     		adds	r2, r1, r2
 325 02b6 4FEA8202 		lsl	r2, r2, #2
 326 02ba 0099     		ldr	r1, [sp, #0]
 327 02bc 8A18     		adds	r2, r1, r2
 328 02be 92ED007A 		flds	s14, [r2, #0]
 329 02c2 9DF81720 		ldrb	r2, [sp, #23]	@ zero_extendqisi2
 330 02c6 0299     		ldr	r1, [sp, #8]
 331 02c8 01FB02F1 		mul	r1, r1, r2
 332 02cc 9DF81620 		ldrb	r2, [sp, #22]	@ zero_extendqisi2
 333 02d0 8A18     		adds	r2, r1, r2
 334 02d2 4FEA8202 		lsl	r2, r2, #2
 335 02d6 0699     		ldr	r1, [sp, #24]
 336 02d8 8A18     		adds	r2, r1, r2
 337 02da D2ED006A 		flds	s13, [r2, #0]
 338 02de 9DF81620 		ldrb	r2, [sp, #22]	@ zero_extendqisi2
 339 02e2 0199     		ldr	r1, [sp, #4]
 340 02e4 01FB02F1 		mul	r1, r1, r2
 341 02e8 9DF81520 		ldrb	r2, [sp, #21]	@ zero_extendqisi2
 342 02ec 8A18     		adds	r2, r1, r2
 343 02ee 4FEA8202 		lsl	r2, r2, #2
 344 02f2 0799     		ldr	r1, [sp, #28]
 345 02f4 8A18     		adds	r2, r1, r2
 346 02f6 D2ED007A 		flds	s15, [r2, #0]
 347 02fa 66EEA77A 		fmuls	s15, s13, s15
 348 02fe 77EE277A 		fadds	s15, s14, s15
 349 0302 C3ED007A 		fsts	s15, [r3, #0]
 350 0306 9DF81530 		ldrb	r3, [sp, #21]
 351 030a 03F10103 		add	r3, r3, #1
 352 030e 8DF81530 		strb	r3, [sp, #21]
 353              	.L21:
 354 0312 9DF81520 		ldrb	r2, [sp, #21]	@ zero_extendqisi2
 355 0316 019B     		ldr	r3, [sp, #4]
 356 0318 9A42     		cmp	r2, r3
 357 031a B8DB     		blt	.L22
 358 031c 9DF81630 		ldrb	r3, [sp, #22]
 359 0320 03F10103 		add	r3, r3, #1
 360 0324 8DF81630 		strb	r3, [sp, #22]
 361              	.L20:
 362 0328 9DF81620 		ldrb	r2, [sp, #22]	@ zero_extendqisi2
 363 032c 029B     		ldr	r3, [sp, #8]
 364 032e 9A42     		cmp	r2, r3
 365 0330 A8DB     		blt	.L23
 366 0332 9DF81730 		ldrb	r3, [sp, #23]
 367 0336 03F10103 		add	r3, r3, #1
 368 033a 8DF81730 		strb	r3, [sp, #23]
 369              	.L19:
 370 033e 9DF81720 		ldrb	r2, [sp, #23]	@ zero_extendqisi2
 371 0342 039B     		ldr	r3, [sp, #12]
 372 0344 9A42     		cmp	r2, r3
 373 0346 98DB     		blt	.L24
 374 0348 06B0     		add	sp, sp, #24
 375 034a 7047     		bx	lr
 376              	.L26:
 377              		.align	2
 378              	.L25:
 379 034c 00000000 		.word	0
 381              		.align	2
 382              		.global	matrixAdd
 383              		.thumb
 384              		.thumb_func
 386              	matrixAdd:
 387              		@ args = 4, pretend = 0, frame = 24
 388              		@ frame_needed = 0, uses_anonymous_args = 0
 389              		@ link register save eliminated.
 390 0350 86B0     		sub	sp, sp, #24
 391 0352 0390     		str	r0, [sp, #12]
 392 0354 0291     		str	r1, [sp, #8]
 393 0356 0192     		str	r2, [sp, #4]
 394 0358 0093     		str	r3, [sp, #0]
 395 035a 4FF00003 		mov	r3, #0
 396 035e 8DF81730 		strb	r3, [sp, #23]
 397 0362 1FE0     		b	.L28
 398              	.L29:
 399 0364 9DF81730 		ldrb	r3, [sp, #23]	@ zero_extendqisi2
 400 0368 4FEA8303 		lsl	r3, r3, #2
 401 036c 019A     		ldr	r2, [sp, #4]
 402 036e D318     		adds	r3, r2, r3
 403 0370 9DF81720 		ldrb	r2, [sp, #23]	@ zero_extendqisi2
 404 0374 4FEA8202 		lsl	r2, r2, #2
 405 0378 0099     		ldr	r1, [sp, #0]
 406 037a 8A18     		adds	r2, r1, r2
 407 037c 92ED007A 		flds	s14, [r2, #0]
 408 0380 9DF81720 		ldrb	r2, [sp, #23]	@ zero_extendqisi2
 409 0384 4FEA8202 		lsl	r2, r2, #2
 410 0388 0699     		ldr	r1, [sp, #24]
 411 038a 8A18     		adds	r2, r1, r2
 412 038c D2ED007A 		flds	s15, [r2, #0]
 413 0390 77EE277A 		fadds	s15, s14, s15
 414 0394 C3ED007A 		fsts	s15, [r3, #0]
 415 0398 9DF81730 		ldrb	r3, [sp, #23]
 416 039c 03F10103 		add	r3, r3, #1
 417 03a0 8DF81730 		strb	r3, [sp, #23]
 418              	.L28:
 419 03a4 9DF81720 		ldrb	r2, [sp, #23]	@ zero_extendqisi2
 420 03a8 039B     		ldr	r3, [sp, #12]
 421 03aa 0299     		ldr	r1, [sp, #8]
 422 03ac 01FB03F3 		mul	r3, r1, r3
 423 03b0 9A42     		cmp	r2, r3
 424 03b2 D7DB     		blt	.L29
 425 03b4 06B0     		add	sp, sp, #24
 426 03b6 7047     		bx	lr
 428              		.align	2
 429              		.global	matrixSubtract
 430              		.thumb
 431              		.thumb_func
 433              	matrixSubtract:
 434              		@ args = 4, pretend = 0, frame = 24
 435              		@ frame_needed = 0, uses_anonymous_args = 0
 436              		@ link register save eliminated.
 437 03b8 86B0     		sub	sp, sp, #24
 438 03ba 0390     		str	r0, [sp, #12]
 439 03bc 0291     		str	r1, [sp, #8]
 440 03be 0192     		str	r2, [sp, #4]
 441 03c0 0093     		str	r3, [sp, #0]
 442 03c2 4FF00003 		mov	r3, #0
 443 03c6 8DF81730 		strb	r3, [sp, #23]
 444 03ca 1FE0     		b	.L31
 445              	.L32:
 446 03cc 9DF81730 		ldrb	r3, [sp, #23]	@ zero_extendqisi2
 447 03d0 4FEA8303 		lsl	r3, r3, #2
 448 03d4 019A     		ldr	r2, [sp, #4]
 449 03d6 D318     		adds	r3, r2, r3
 450 03d8 9DF81720 		ldrb	r2, [sp, #23]	@ zero_extendqisi2
 451 03dc 4FEA8202 		lsl	r2, r2, #2
 452 03e0 0099     		ldr	r1, [sp, #0]
 453 03e2 8A18     		adds	r2, r1, r2
 454 03e4 92ED007A 		flds	s14, [r2, #0]
 455 03e8 9DF81720 		ldrb	r2, [sp, #23]	@ zero_extendqisi2
 456 03ec 4FEA8202 		lsl	r2, r2, #2
 457 03f0 0699     		ldr	r1, [sp, #24]
 458 03f2 8A18     		adds	r2, r1, r2
 459 03f4 D2ED007A 		flds	s15, [r2, #0]
 460 03f8 77EE677A 		fsubs	s15, s14, s15
 461 03fc C3ED007A 		fsts	s15, [r3, #0]
 462 0400 9DF81730 		ldrb	r3, [sp, #23]
 463 0404 03F10103 		add	r3, r3, #1
 464 0408 8DF81730 		strb	r3, [sp, #23]
 465              	.L31:
 466 040c 9DF81720 		ldrb	r2, [sp, #23]	@ zero_extendqisi2
 467 0410 039B     		ldr	r3, [sp, #12]
 468 0412 0299     		ldr	r1, [sp, #8]
 469 0414 01FB03F3 		mul	r3, r1, r3
 470 0418 9A42     		cmp	r2, r3
 471 041a D7DB     		blt	.L32
 472 041c 06B0     		add	sp, sp, #24
 473 041e 7047     		bx	lr
 475              		.align	2
 476              		.global	matrixScale
 477              		.thumb
 478              		.thumb_func
 480              	matrixScale:
 481              		@ args = 4, pretend = 0, frame = 24
 482              		@ frame_needed = 0, uses_anonymous_args = 0
 483              		@ link register save eliminated.
 484 0420 86B0     		sub	sp, sp, #24
 485 0422 0390     		str	r0, [sp, #12]
 486 0424 0291     		str	r1, [sp, #8]
 487 0426 0192     		str	r2, [sp, #4]
 488 0428 0093     		str	r3, [sp, #0]	@ float
 489 042a 4FF00003 		mov	r3, #0
 490 042e 8DF81730 		strb	r3, [sp, #23]
 491 0432 19E0     		b	.L34
 492              	.L35:
 493 0434 9DF81730 		ldrb	r3, [sp, #23]	@ zero_extendqisi2
 494 0438 4FEA8303 		lsl	r3, r3, #2
 495 043c 019A     		ldr	r2, [sp, #4]
 496 043e D318     		adds	r3, r2, r3
 497 0440 9DF81720 		ldrb	r2, [sp, #23]	@ zero_extendqisi2
 498 0444 4FEA8202 		lsl	r2, r2, #2
 499 0448 0699     		ldr	r1, [sp, #24]
 500 044a 8A18     		adds	r2, r1, r2
 501 044c 92ED007A 		flds	s14, [r2, #0]
 502 0450 DDED007A 		flds	s15, [sp, #0]
 503 0454 67EE277A 		fmuls	s15, s14, s15
 504 0458 C3ED007A 		fsts	s15, [r3, #0]
 505 045c 9DF81730 		ldrb	r3, [sp, #23]
 506 0460 03F10103 		add	r3, r3, #1
 507 0464 8DF81730 		strb	r3, [sp, #23]
 508              	.L34:
 509 0468 9DF81720 		ldrb	r2, [sp, #23]	@ zero_extendqisi2
 510 046c 039B     		ldr	r3, [sp, #12]
 511 046e 0299     		ldr	r1, [sp, #8]
 512 0470 01FB03F3 		mul	r3, r1, r3
 513 0474 9A42     		cmp	r2, r3
 514 0476 DDDB     		blt	.L35
 515 0478 06B0     		add	sp, sp, #24
 516 047a 7047     		bx	lr
 518              		.align	2
 519              		.global	matrixTranspose3x3
 520              		.thumb
 521              		.thumb_func
 523              	matrixTranspose3x3:
 524              		@ args = 0, pretend = 0, frame = 8
 525              		@ frame_needed = 0, uses_anonymous_args = 0
 526              		@ link register save eliminated.
 527 047c 82B0     		sub	sp, sp, #8
 528 047e 0190     		str	r0, [sp, #4]
 529 0480 0091     		str	r1, [sp, #0]
 530 0482 009B     		ldr	r3, [sp, #0]
 531 0484 1A68     		ldr	r2, [r3, #0]	@ float
 532 0486 019B     		ldr	r3, [sp, #4]
 533 0488 1A60     		str	r2, [r3, #0]	@ float
 534 048a 019B     		ldr	r3, [sp, #4]
 535 048c 03F10403 		add	r3, r3, #4
 536 0490 009A     		ldr	r2, [sp, #0]
 537 0492 D268     		ldr	r2, [r2, #12]	@ float
 538 0494 1A60     		str	r2, [r3, #0]	@ float
 539 0496 019B     		ldr	r3, [sp, #4]
 540 0498 03F10803 		add	r3, r3, #8
 541 049c 009A     		ldr	r2, [sp, #0]
 542 049e 9269     		ldr	r2, [r2, #24]	@ float
 543 04a0 1A60     		str	r2, [r3, #0]	@ float
 544 04a2 019B     		ldr	r3, [sp, #4]
 545 04a4 03F10C03 		add	r3, r3, #12
 546 04a8 009A     		ldr	r2, [sp, #0]
 547 04aa 5268     		ldr	r2, [r2, #4]	@ float
 548 04ac 1A60     		str	r2, [r3, #0]	@ float
 549 04ae 019B     		ldr	r3, [sp, #4]
 550 04b0 03F11003 		add	r3, r3, #16
 551 04b4 009A     		ldr	r2, [sp, #0]
 552 04b6 1269     		ldr	r2, [r2, #16]	@ float
 553 04b8 1A60     		str	r2, [r3, #0]	@ float
 554 04ba 019B     		ldr	r3, [sp, #4]
 555 04bc 03F11403 		add	r3, r3, #20
 556 04c0 009A     		ldr	r2, [sp, #0]
 557 04c2 D269     		ldr	r2, [r2, #28]	@ float
 558 04c4 1A60     		str	r2, [r3, #0]	@ float
 559 04c6 019B     		ldr	r3, [sp, #4]
 560 04c8 03F11803 		add	r3, r3, #24
 561 04cc 009A     		ldr	r2, [sp, #0]
 562 04ce 9268     		ldr	r2, [r2, #8]	@ float
 563 04d0 1A60     		str	r2, [r3, #0]	@ float
 564 04d2 019B     		ldr	r3, [sp, #4]
 565 04d4 03F11C03 		add	r3, r3, #28
 566 04d8 009A     		ldr	r2, [sp, #0]
 567 04da 5269     		ldr	r2, [r2, #20]	@ float
 568 04dc 1A60     		str	r2, [r3, #0]	@ float
 569 04de 019B     		ldr	r3, [sp, #4]
 570 04e0 03F12003 		add	r3, r3, #32
 571 04e4 009A     		ldr	r2, [sp, #0]
 572 04e6 126A     		ldr	r2, [r2, #32]	@ float
 573 04e8 1A60     		str	r2, [r3, #0]	@ float
 574 04ea 02B0     		add	sp, sp, #8
 575 04ec 7047     		bx	lr
 577 04ee 00BF     		.align	2
 578              		.global	matrixInverse3x3
 579              		.thumb
 580              		.thumb_func
 582              	matrixInverse3x3:
 583              		@ args = 0, pretend = 0, frame = 120
 584              		@ frame_needed = 0, uses_anonymous_args = 0
 585 04f0 00B5     		push	{lr}
 586 04f2 A1B0     		sub	sp, sp, #132
 587 04f4 0390     		str	r0, [sp, #12]
 588 04f6 0291     		str	r1, [sp, #8]
 589 04f8 029B     		ldr	r3, [sp, #8]
 590 04fa D3ED006A 		flds	s13, [r3, #0]
 591 04fe 029B     		ldr	r3, [sp, #8]
 592 0500 03F11003 		add	r3, r3, #16
 593 0504 93ED007A 		flds	s14, [r3, #0]
 594 0508 029B     		ldr	r3, [sp, #8]
 595 050a 03F12003 		add	r3, r3, #32
 596 050e D3ED007A 		flds	s15, [r3, #0]
 597 0512 27EE277A 		fmuls	s14, s14, s15
 598 0516 029B     		ldr	r3, [sp, #8]
 599 0518 03F11403 		add	r3, r3, #20
 600 051c 93ED006A 		flds	s12, [r3, #0]
 601 0520 029B     		ldr	r3, [sp, #8]
 602 0522 03F11C03 		add	r3, r3, #28
 603 0526 D3ED007A 		flds	s15, [r3, #0]
 604 052a 66EE277A 		fmuls	s15, s12, s15
 605 052e 77EE677A 		fsubs	s15, s14, s15
 606 0532 26EEA77A 		fmuls	s14, s13, s15
 607 0536 029B     		ldr	r3, [sp, #8]
 608 0538 03F10403 		add	r3, r3, #4
 609 053c 93ED006A 		flds	s12, [r3, #0]
 610 0540 029B     		ldr	r3, [sp, #8]
 611 0542 03F10C03 		add	r3, r3, #12
 612 0546 D3ED006A 		flds	s13, [r3, #0]
 613 054a 029B     		ldr	r3, [sp, #8]
 614 054c 03F12003 		add	r3, r3, #32
 615 0550 D3ED007A 		flds	s15, [r3, #0]
 616 0554 66EEA76A 		fmuls	s13, s13, s15
 617 0558 029B     		ldr	r3, [sp, #8]
 618 055a 03F11403 		add	r3, r3, #20
 619 055e D3ED005A 		flds	s11, [r3, #0]
 620 0562 029B     		ldr	r3, [sp, #8]
 621 0564 03F11803 		add	r3, r3, #24
 622 0568 D3ED007A 		flds	s15, [r3, #0]
 623 056c 65EEA77A 		fmuls	s15, s11, s15
 624 0570 76EEE77A 		fsubs	s15, s13, s15
 625 0574 66EE277A 		fmuls	s15, s12, s15
 626 0578 77EE676A 		fsubs	s13, s14, s15
 627 057c 029B     		ldr	r3, [sp, #8]
 628 057e 03F10803 		add	r3, r3, #8
 629 0582 93ED006A 		flds	s12, [r3, #0]
 630 0586 029B     		ldr	r3, [sp, #8]
 631 0588 03F10C03 		add	r3, r3, #12
 632 058c 93ED007A 		flds	s14, [r3, #0]
 633 0590 029B     		ldr	r3, [sp, #8]
 634 0592 03F11C03 		add	r3, r3, #28
 635 0596 D3ED007A 		flds	s15, [r3, #0]
 636 059a 27EE277A 		fmuls	s14, s14, s15
 637 059e 029B     		ldr	r3, [sp, #8]
 638 05a0 03F11003 		add	r3, r3, #16
 639 05a4 D3ED005A 		flds	s11, [r3, #0]
 640 05a8 029B     		ldr	r3, [sp, #8]
 641 05aa 03F11803 		add	r3, r3, #24
 642 05ae D3ED007A 		flds	s15, [r3, #0]
 643 05b2 65EEA77A 		fmuls	s15, s11, s15
 644 05b6 77EE677A 		fsubs	s15, s14, s15
 645 05ba 66EE277A 		fmuls	s15, s12, s15
 646 05be 76EEA77A 		fadds	s15, s13, s15
 647 05c2 CDED1F7A 		fsts	s15, [sp, #124]
 648 05c6 16AB     		add	r3, sp, #88
 649 05c8 1846     		mov	r0, r3
 650 05ca 0299     		ldr	r1, [sp, #8]
 651 05cc FFF7FEFF 		bl	matrixTranspose3x3
 652 05d0 029B     		ldr	r3, [sp, #8]
 653 05d2 03F11003 		add	r3, r3, #16
 654 05d6 93ED007A 		flds	s14, [r3, #0]
 655 05da 029B     		ldr	r3, [sp, #8]
 656 05dc 03F12003 		add	r3, r3, #32
 657 05e0 D3ED007A 		flds	s15, [r3, #0]
 658 05e4 27EE277A 		fmuls	s14, s14, s15
 659 05e8 029B     		ldr	r3, [sp, #8]
 660 05ea 03F11403 		add	r3, r3, #20
 661 05ee D3ED006A 		flds	s13, [r3, #0]
 662 05f2 029B     		ldr	r3, [sp, #8]
 663 05f4 03F11C03 		add	r3, r3, #28
 664 05f8 D3ED007A 		flds	s15, [r3, #0]
 665 05fc 66EEA77A 		fmuls	s15, s13, s15
 666 0600 77EE677A 		fsubs	s15, s14, s15
 667 0604 CDED0D7A 		fsts	s15, [sp, #52]
 668 0608 029B     		ldr	r3, [sp, #8]
 669 060a 03F11403 		add	r3, r3, #20
 670 060e 93ED007A 		flds	s14, [r3, #0]
 671 0612 029B     		ldr	r3, [sp, #8]
 672 0614 03F11803 		add	r3, r3, #24
 673 0618 D3ED007A 		flds	s15, [r3, #0]
 674 061c 27EE277A 		fmuls	s14, s14, s15
 675 0620 029B     		ldr	r3, [sp, #8]
 676 0622 03F10C03 		add	r3, r3, #12
 677 0626 D3ED006A 		flds	s13, [r3, #0]
 678 062a 029B     		ldr	r3, [sp, #8]
 679 062c 03F12003 		add	r3, r3, #32
 680 0630 D3ED007A 		flds	s15, [r3, #0]
 681 0634 66EEA77A 		fmuls	s15, s13, s15
 682 0638 77EE677A 		fsubs	s15, s14, s15
 683 063c CDED0E7A 		fsts	s15, [sp, #56]
 684 0640 029B     		ldr	r3, [sp, #8]
 685 0642 03F10C03 		add	r3, r3, #12
 686 0646 93ED007A 		flds	s14, [r3, #0]
 687 064a 029B     		ldr	r3, [sp, #8]
 688 064c 03F11C03 		add	r3, r3, #28
 689 0650 D3ED007A 		flds	s15, [r3, #0]
 690 0654 27EE277A 		fmuls	s14, s14, s15
 691 0658 029B     		ldr	r3, [sp, #8]
 692 065a 03F11003 		add	r3, r3, #16
 693 065e D3ED006A 		flds	s13, [r3, #0]
 694 0662 029B     		ldr	r3, [sp, #8]
 695 0664 03F11803 		add	r3, r3, #24
 696 0668 D3ED007A 		flds	s15, [r3, #0]
 697 066c 66EEA77A 		fmuls	s15, s13, s15
 698 0670 77EE677A 		fsubs	s15, s14, s15
 699 0674 CDED0F7A 		fsts	s15, [sp, #60]
 700 0678 029B     		ldr	r3, [sp, #8]
 701 067a 03F10803 		add	r3, r3, #8
 702 067e 93ED007A 		flds	s14, [r3, #0]
 703 0682 029B     		ldr	r3, [sp, #8]
 704 0684 03F11C03 		add	r3, r3, #28
 705 0688 D3ED007A 		flds	s15, [r3, #0]
 706 068c 27EE277A 		fmuls	s14, s14, s15
 707 0690 029B     		ldr	r3, [sp, #8]
 708 0692 03F10403 		add	r3, r3, #4
 709 0696 D3ED006A 		flds	s13, [r3, #0]
 710 069a 029B     		ldr	r3, [sp, #8]
 711 069c 03F12003 		add	r3, r3, #32
 712 06a0 D3ED007A 		flds	s15, [r3, #0]
 713 06a4 66EEA77A 		fmuls	s15, s13, s15
 714 06a8 77EE677A 		fsubs	s15, s14, s15
 715 06ac CDED107A 		fsts	s15, [sp, #64]
 716 06b0 029B     		ldr	r3, [sp, #8]
 717 06b2 93ED007A 		flds	s14, [r3, #0]
 718 06b6 029B     		ldr	r3, [sp, #8]
 719 06b8 03F12003 		add	r3, r3, #32
 720 06bc D3ED007A 		flds	s15, [r3, #0]
 721 06c0 27EE277A 		fmuls	s14, s14, s15
 722 06c4 029B     		ldr	r3, [sp, #8]
 723 06c6 03F10803 		add	r3, r3, #8
 724 06ca D3ED006A 		flds	s13, [r3, #0]
 725 06ce 029B     		ldr	r3, [sp, #8]
 726 06d0 03F11803 		add	r3, r3, #24
 727 06d4 D3ED007A 		flds	s15, [r3, #0]
 728 06d8 66EEA77A 		fmuls	s15, s13, s15
 729 06dc 77EE677A 		fsubs	s15, s14, s15
 730 06e0 CDED117A 		fsts	s15, [sp, #68]
 731 06e4 029B     		ldr	r3, [sp, #8]
 732 06e6 03F10403 		add	r3, r3, #4
 733 06ea 93ED007A 		flds	s14, [r3, #0]
 734 06ee 029B     		ldr	r3, [sp, #8]
 735 06f0 03F11803 		add	r3, r3, #24
 736 06f4 D3ED007A 		flds	s15, [r3, #0]
 737 06f8 27EE277A 		fmuls	s14, s14, s15
 738 06fc 029B     		ldr	r3, [sp, #8]
 739 06fe D3ED006A 		flds	s13, [r3, #0]
 740 0702 029B     		ldr	r3, [sp, #8]
 741 0704 03F11C03 		add	r3, r3, #28
 742 0708 D3ED007A 		flds	s15, [r3, #0]
 743 070c 66EEA77A 		fmuls	s15, s13, s15
 744 0710 77EE677A 		fsubs	s15, s14, s15
 745 0714 CDED127A 		fsts	s15, [sp, #72]
 746 0718 029B     		ldr	r3, [sp, #8]
 747 071a 03F10403 		add	r3, r3, #4
 748 071e 93ED007A 		flds	s14, [r3, #0]
 749 0722 029B     		ldr	r3, [sp, #8]
 750 0724 03F11403 		add	r3, r3, #20
 751 0728 D3ED007A 		flds	s15, [r3, #0]
 752 072c 27EE277A 		fmuls	s14, s14, s15
 753 0730 029B     		ldr	r3, [sp, #8]
 754 0732 03F10803 		add	r3, r3, #8
 755 0736 D3ED006A 		flds	s13, [r3, #0]
 756 073a 029B     		ldr	r3, [sp, #8]
 757 073c 03F11003 		add	r3, r3, #16
 758 0740 D3ED007A 		flds	s15, [r3, #0]
 759 0744 66EEA77A 		fmuls	s15, s13, s15
 760 0748 77EE677A 		fsubs	s15, s14, s15
 761 074c CDED137A 		fsts	s15, [sp, #76]
 762 0750 029B     		ldr	r3, [sp, #8]
 763 0752 03F10803 		add	r3, r3, #8
 764 0756 93ED007A 		flds	s14, [r3, #0]
 765 075a 029B     		ldr	r3, [sp, #8]
 766 075c 03F10C03 		add	r3, r3, #12
 767 0760 D3ED007A 		flds	s15, [r3, #0]
 768 0764 27EE277A 		fmuls	s14, s14, s15
 769 0768 029B     		ldr	r3, [sp, #8]
 770 076a D3ED006A 		flds	s13, [r3, #0]
 771 076e 029B     		ldr	r3, [sp, #8]
 772 0770 03F11403 		add	r3, r3, #20
 773 0774 D3ED007A 		flds	s15, [r3, #0]
 774 0778 66EEA77A 		fmuls	s15, s13, s15
 775 077c 77EE677A 		fsubs	s15, s14, s15
 776 0780 CDED147A 		fsts	s15, [sp, #80]
 777 0784 029B     		ldr	r3, [sp, #8]
 778 0786 93ED007A 		flds	s14, [r3, #0]
 779 078a 029B     		ldr	r3, [sp, #8]
 780 078c 03F11003 		add	r3, r3, #16
 781 0790 D3ED007A 		flds	s15, [r3, #0]
 782 0794 27EE277A 		fmuls	s14, s14, s15
 783 0798 029B     		ldr	r3, [sp, #8]
 784 079a 03F10403 		add	r3, r3, #4
 785 079e D3ED006A 		flds	s13, [r3, #0]
 786 07a2 029B     		ldr	r3, [sp, #8]
 787 07a4 03F10C03 		add	r3, r3, #12
 788 07a8 D3ED007A 		flds	s15, [r3, #0]
 789 07ac 66EEA77A 		fmuls	s15, s13, s15
 790 07b0 77EE677A 		fsubs	s15, s14, s15
 791 07b4 CDED157A 		fsts	s15, [sp, #84]
 792 07b8 04AB     		add	r3, sp, #16
 793 07ba 1846     		mov	r0, r3
 794 07bc 0DAB     		add	r3, sp, #52
 795 07be 1946     		mov	r1, r3
 796 07c0 FFF7FEFF 		bl	matrixTranspose3x3
 797 07c4 0A4B     		ldr	r3, .L38	@ float
 798 07c6 DDED1F7A 		flds	s15, [sp, #124]
 799 07ca 07EE103A 		fmsr	s14, r3
 800 07ce C7EE277A 		fdivs	s15, s14, s15
 801 07d2 CDED1F7A 		fsts	s15, [sp, #124]
 802 07d6 04AB     		add	r3, sp, #16
 803 07d8 0093     		str	r3, [sp, #0]
 804 07da 4FF00300 		mov	r0, #3
 805 07de 4FF00301 		mov	r1, #3
 806 07e2 039A     		ldr	r2, [sp, #12]
 807 07e4 1F9B     		ldr	r3, [sp, #124]	@ float
 808 07e6 FFF7FEFF 		bl	matrixScale
 809 07ea 21B0     		add	sp, sp, #132
 810 07ec 00BD     		pop	{pc}
 811              	.L39:
 812 07ee 00BF     		.align	2
 813              	.L38:
 814 07f0 0000803F 		.word	1065353216
 816              		.ident	"GCC: (Sourcery CodeBench Lite 2012.03-56) 4.6.3"