   1              		.syntax unified
   2              		.cpu cortex-m4
   3              		.eabi_attribute 27, 3
   4              		.fpu fpv4-sp-d16
   5              		.eabi_attribute 20, 1
   6              		.eabi_attribute 21, 1
   7              		.eabi_attribute 23, 3
   8              		.eabi_attribute 24, 1
   9              		.eabi_attribute 25, 1
  10              		.eabi_attribute 26, 1
  11              		.eabi_attribute 30, 6
  12              		.eabi_attribute 34, 1
  13              		.eabi_attribute 18, 4
  14              		.thumb
  15              		.file	"main.c"
  16              		.comm	mtk19ProcessDataState,1,1
  17              		.comm	nmeaProcessDataState,1,1
  18              		.comm	ubloxProcessDataState,1,1
  19              		.global	eepromArray
  20              		.section	.eeprom,"aw",%progbits
  21              		.align	2
  24              	eepromArray:
  25 0000 00000000 		.space	16384
  25      00000000 
  25      00000000 
  25      00000000 
  25      00000000 
  26              		.comm	eepromConfig,848,4
  27              		.global	execUpCount
  28              		.bss
  31              	execUpCount:
  32 0000 00       		.space	1
  33              		.comm	sensors,100,4
  34              		.comm	timerValue,2,2
  35              		.comm	numberString,15,4
  36              		.section	.rodata
  37              		.align	2
  38              	.LC0:
  39 0000 2C00     		.ascii	",\000"
  40 0002 0000     		.align	2
  41              	.LC1:
  42 0004 0A00     		.ascii	"\012\000"
  43 0006 0000     		.align	2
  44              	.LC2:
  45 0008 2C2000   		.ascii	", \000"
  46 000b 00       		.text
  47              		.align	2
  48              		.global	main
  49              		.thumb
  50              		.thumb_func
  52              	main:
  53              		@ args = 0, pretend = 0, frame = 8
  54              		@ frame_needed = 0, uses_anonymous_args = 0
  55 0000 2DE9F043 		push	{r4, r5, r6, r7, r8, r9, lr}
  56 0004 8BB0     		sub	sp, sp, #44
  57 0006 FFF7FEFF 		bl	systemInit
  58 000a 40F20003 		movw	r3, #:lower16:systemReady
  59 000e C0F20003 		movt	r3, #:upper16:systemReady
  60 0012 4FF00102 		mov	r2, #1
  61 0016 1A70     		strb	r2, [r3, #0]
  62 0018 00E0     		b	.L30
  63              	.L31:
  64 001a 00BF     		nop
  65              	.L30:
  66 001c 40F20003 		movw	r3, #:lower16:frame_50Hz
  67 0020 C0F20003 		movt	r3, #:upper16:frame_50Hz
  68 0024 1B78     		ldrb	r3, [r3, #0]	@ zero_extendqisi2
  69 0026 002B     		cmp	r3, #0
  70 0028 00F08B80 		beq	.L2
  71 002c 40F20003 		movw	r3, #:lower16:frame_50Hz
  72 0030 C0F20003 		movt	r3, #:upper16:frame_50Hz
  73 0034 4FF00002 		mov	r2, #0
  74 0038 1A70     		strb	r2, [r3, #0]
  75 003a FFF7FEFF 		bl	micros
  76 003e 0990     		str	r0, [sp, #36]
  77 0040 40F20003 		movw	r3, #:lower16:previous50HzTime
  78 0044 C0F20003 		movt	r3, #:upper16:previous50HzTime
  79 0048 1B68     		ldr	r3, [r3, #0]
  80 004a 099A     		ldr	r2, [sp, #36]
  81 004c D21A     		subs	r2, r2, r3
  82 004e 40F20003 		movw	r3, #:lower16:deltaTime50Hz
  83 0052 C0F20003 		movt	r3, #:upper16:deltaTime50Hz
  84 0056 1A60     		str	r2, [r3, #0]
  85 0058 40F20003 		movw	r3, #:lower16:previous50HzTime
  86 005c C0F20003 		movt	r3, #:upper16:previous50HzTime
  87 0060 099A     		ldr	r2, [sp, #36]
  88 0062 1A60     		str	r2, [r3, #0]
  89 0064 FFF7FEFF 		bl	processFlightCommands
  90 0068 40F20003 		movw	r3, #:lower16:eepromConfig
  91 006c C0F20003 		movt	r3, #:upper16:eepromConfig
  92 0070 93F84833 		ldrb	r3, [r3, #840]	@ zero_extendqisi2
  93 0074 002B     		cmp	r3, #0
  94 0076 5AD0     		beq	.L3
  95 0078 40F20003 		movw	r3, #:lower16:eepromConfig
  96 007c C0F20003 		movt	r3, #:upper16:eepromConfig
  97 0080 93F84B33 		ldrb	r3, [r3, #843]	@ zero_extendqisi2
  98 0084 002B     		cmp	r3, #0
  99 0086 0AD0     		beq	.L4
 100 0088 40F20003 		movw	r3, #:lower16:sensors
 101 008c C0F20003 		movt	r3, #:upper16:sensors
 102 0090 DB6B     		ldr	r3, [r3, #60]	@ float
 103 0092 1846     		mov	r0, r3	@ float
 104 0094 9949     		ldr	r1, .L32	@ float
 105 0096 4FF00002 		mov	r2, #0
 106 009a FFF7FEFF 		bl	displayAltitude
 107              	.L4:
 108 009e 40F20003 		movw	r3, #:lower16:eepromConfig
 109 00a2 C0F20003 		movt	r3, #:upper16:eepromConfig
 110 00a6 93F84C33 		ldrb	r3, [r3, #844]	@ zero_extendqisi2
 111 00aa 002B     		cmp	r3, #0
 112 00ac 13D0     		beq	.L5
 113 00ae 40F20003 		movw	r3, #:lower16:sensors
 114 00b2 C0F20003 		movt	r3, #:upper16:sensors
 115 00b6 9969     		ldr	r1, [r3, #24]	@ float
 116 00b8 40F20003 		movw	r3, #:lower16:sensors
 117 00bc C0F20003 		movt	r3, #:upper16:sensors
 118 00c0 DA69     		ldr	r2, [r3, #28]	@ float
 119 00c2 40F20003 		movw	r3, #:lower16:flightMode
 120 00c6 C0F20003 		movt	r3, #:upper16:flightMode
 121 00ca 1B78     		ldrb	r3, [r3, #0]	@ zero_extendqisi2
 122 00cc 0846     		mov	r0, r1	@ float
 123 00ce 1146     		mov	r1, r2	@ float
 124 00d0 1A46     		mov	r2, r3
 125 00d2 FFF7FEFF 		bl	displayArtificialHorizon
 126              	.L5:
 127 00d6 40F20003 		movw	r3, #:lower16:eepromConfig
 128 00da C0F20003 		movt	r3, #:upper16:eepromConfig
 129 00de 93F84D33 		ldrb	r3, [r3, #845]	@ zero_extendqisi2
 130 00e2 002B     		cmp	r3, #0
 131 00e4 13D0     		beq	.L6
 132 00e6 40F20003 		movw	r3, #:lower16:sensors
 133 00ea C0F20003 		movt	r3, #:upper16:sensors
 134 00ee 9969     		ldr	r1, [r3, #24]	@ float
 135 00f0 40F20003 		movw	r3, #:lower16:sensors
 136 00f4 C0F20003 		movt	r3, #:upper16:sensors
 137 00f8 DA69     		ldr	r2, [r3, #28]	@ float
 138 00fa 40F20003 		movw	r3, #:lower16:flightMode
 139 00fe C0F20003 		movt	r3, #:upper16:flightMode
 140 0102 1B78     		ldrb	r3, [r3, #0]	@ zero_extendqisi2
 141 0104 0846     		mov	r0, r1	@ float
 142 0106 1146     		mov	r1, r2	@ float
 143 0108 1A46     		mov	r2, r3
 144 010a FFF7FEFF 		bl	displayAttitude
 145              	.L6:
 146 010e 40F20003 		movw	r3, #:lower16:eepromConfig
 147 0112 C0F20003 		movt	r3, #:upper16:eepromConfig
 148 0116 93F84E33 		ldrb	r3, [r3, #846]	@ zero_extendqisi2
 149 011a 002B     		cmp	r3, #0
 150 011c 07D0     		beq	.L3
 151 011e 40F20003 		movw	r3, #:lower16:sensors
 152 0122 C0F20003 		movt	r3, #:upper16:sensors
 153 0126 1B6A     		ldr	r3, [r3, #32]	@ float
 154 0128 1846     		mov	r0, r3	@ float
 155 012a FFF7FEFF 		bl	displayHeading
 156              	.L3:
 157 012e FFF7FEFF 		bl	micros
 158 0132 0246     		mov	r2, r0
 159 0134 099B     		ldr	r3, [sp, #36]
 160 0136 D21A     		subs	r2, r2, r3
 161 0138 40F20003 		movw	r3, #:lower16:executionTime50Hz
 162 013c C0F20003 		movt	r3, #:upper16:executionTime50Hz
 163 0140 1A60     		str	r2, [r3, #0]
 164              	.L2:
 165 0142 40F20003 		movw	r3, #:lower16:frame_10Hz
 166 0146 C0F20003 		movt	r3, #:upper16:frame_10Hz
 167 014a 1B78     		ldrb	r3, [r3, #0]	@ zero_extendqisi2
 168 014c 002B     		cmp	r3, #0
 169 014e 00F0EA80 		beq	.L7
 170 0152 40F20003 		movw	r3, #:lower16:frame_10Hz
 171 0156 C0F20003 		movt	r3, #:upper16:frame_10Hz
 172 015a 4FF00002 		mov	r2, #0
 173 015e 1A70     		strb	r2, [r3, #0]
 174 0160 FFF7FEFF 		bl	micros
 175 0164 0990     		str	r0, [sp, #36]
 176 0166 40F20003 		movw	r3, #:lower16:previous10HzTime
 177 016a C0F20003 		movt	r3, #:upper16:previous10HzTime
 178 016e 1B68     		ldr	r3, [r3, #0]
 179 0170 099A     		ldr	r2, [sp, #36]
 180 0172 D21A     		subs	r2, r2, r3
 181 0174 40F20003 		movw	r3, #:lower16:deltaTime10Hz
 182 0178 C0F20003 		movt	r3, #:upper16:deltaTime10Hz
 183 017c 1A60     		str	r2, [r3, #0]
 184 017e 40F20003 		movw	r3, #:lower16:previous10HzTime
 185 0182 C0F20003 		movt	r3, #:upper16:previous10HzTime
 186 0186 099A     		ldr	r2, [sp, #36]
 187 0188 1A60     		str	r2, [r3, #0]
 188 018a 40F20003 		movw	r3, #:lower16:newMagData
 189 018e C0F20003 		movt	r3, #:upper16:newMagData
 190 0192 1B78     		ldrb	r3, [r3, #0]	@ zero_extendqisi2
 191 0194 012B     		cmp	r3, #1
 192 0196 6FD1     		bne	.L8
 193 0198 40F20003 		movw	r3, #:lower16:rawMag
 194 019c C0F20003 		movt	r3, #:upper16:rawMag
 195 01a0 1B88     		ldrh	r3, [r3, #0]
 196 01a2 1BB2     		sxth	r3, r3
 197 01a4 07EE903A 		fmsr	s15, r3	@ int
 198 01a8 B8EEE77A 		fsitos	s14, s15
 199 01ac 40F20003 		movw	r3, #:lower16:magScaleFactor
 200 01b0 C0F20003 		movt	r3, #:upper16:magScaleFactor
 201 01b4 D3ED007A 		flds	s15, [r3, #0]
 202 01b8 67EE277A 		fmuls	s15, s14, s15
 203 01bc 40F20003 		movw	r3, #:lower16:eepromConfig
 204 01c0 C0F20003 		movt	r3, #:upper16:eepromConfig
 205 01c4 93ED0D7A 		flds	s14, [r3, #52]
 206 01c8 77EEC77A 		fsubs	s15, s15, s14
 207 01cc 40F20003 		movw	r3, #:lower16:sensors
 208 01d0 C0F20003 		movt	r3, #:upper16:sensors
 209 01d4 C3ED0C7A 		fsts	s15, [r3, #48]
 210 01d8 40F20003 		movw	r3, #:lower16:rawMag
 211 01dc C0F20003 		movt	r3, #:upper16:rawMag
 212 01e0 5B88     		ldrh	r3, [r3, #2]
 213 01e2 1BB2     		sxth	r3, r3
 214 01e4 07EE903A 		fmsr	s15, r3	@ int
 215 01e8 B8EEE77A 		fsitos	s14, s15
 216 01ec 40F20003 		movw	r3, #:lower16:magScaleFactor
 217 01f0 C0F20003 		movt	r3, #:upper16:magScaleFactor
 218 01f4 D3ED017A 		flds	s15, [r3, #4]
 219 01f8 67EE277A 		fmuls	s15, s14, s15
 220 01fc 40F20003 		movw	r3, #:lower16:eepromConfig
 221 0200 C0F20003 		movt	r3, #:upper16:eepromConfig
 222 0204 93ED0E7A 		flds	s14, [r3, #56]
 223 0208 77EEC77A 		fsubs	s15, s15, s14
 224 020c 40F20003 		movw	r3, #:lower16:sensors
 225 0210 C0F20003 		movt	r3, #:upper16:sensors
 226 0214 C3ED0D7A 		fsts	s15, [r3, #52]
 227 0218 40F20003 		movw	r3, #:lower16:rawMag
 228 021c C0F20003 		movt	r3, #:upper16:rawMag
 229 0220 9B88     		ldrh	r3, [r3, #4]
 230 0222 1BB2     		sxth	r3, r3
 231 0224 07EE903A 		fmsr	s15, r3	@ int
 232 0228 B8EEE77A 		fsitos	s14, s15
 233 022c 40F20003 		movw	r3, #:lower16:magScaleFactor
 234 0230 C0F20003 		movt	r3, #:upper16:magScaleFactor
 235 0234 D3ED027A 		flds	s15, [r3, #8]
 236 0238 67EE277A 		fmuls	s15, s14, s15
 237 023c 40F20003 		movw	r3, #:lower16:eepromConfig
 238 0240 C0F20003 		movt	r3, #:upper16:eepromConfig
 239 0244 93ED0F7A 		flds	s14, [r3, #60]
 240 0248 77EEC77A 		fsubs	s15, s15, s14
 241 024c F1EE677A 		fnegs	s15, s15
 242 0250 40F20003 		movw	r3, #:lower16:sensors
 243 0254 C0F20003 		movt	r3, #:upper16:sensors
 244 0258 C3ED0E7A 		fsts	s15, [r3, #56]
 245 025c 40F20003 		movw	r3, #:lower16:newMagData
 246 0260 C0F20003 		movt	r3, #:upper16:newMagData
 247 0264 4FF00002 		mov	r2, #0
 248 0268 1A70     		strb	r2, [r3, #0]
 249 026a 40F20003 		movw	r3, #:lower16:magDataUpdate
 250 026e C0F20003 		movt	r3, #:upper16:magDataUpdate
 251 0272 4FF00102 		mov	r2, #1
 252 0276 1A70     		strb	r2, [r3, #0]
 253              	.L8:
 254 0278 40F20003 		movw	r3, #:lower16:d1Sum
 255 027c C0F20003 		movt	r3, #:upper16:d1Sum
 256 0280 1A68     		ldr	r2, [r3, #0]
 257 0282 4CF6CD43 		movw	r3, #52429
 258 0286 CCF6CC43 		movt	r3, 52428
 259 028a A3FB0213 		umull	r1, r3, r3, r2
 260 028e 4FEAD302 		lsr	r2, r3, #3
 261 0292 40F20003 		movw	r3, #:lower16:d1Average
 262 0296 C0F20003 		movt	r3, #:upper16:d1Average
 263 029a 1A60     		str	r2, [r3, #0]
 264 029c 40F20003 		movw	r3, #:lower16:d1Sum
 265 02a0 C0F20003 		movt	r3, #:upper16:d1Sum
 266 02a4 4FF00002 		mov	r2, #0
 267 02a8 1A60     		str	r2, [r3, #0]
 268 02aa FFF7FEFF 		bl	calculateTemperature
 269 02ae FFF7FEFF 		bl	calculatePressureAltitude
 270 02b2 40F20003 		movw	r3, #:lower16:pressureAltValid
 271 02b6 C0F20003 		movt	r3, #:upper16:pressureAltValid
 272 02ba 4FF00102 		mov	r2, #1
 273 02be 1A70     		strb	r2, [r3, #0]
 274 02c0 FFF7FEFF 		bl	cliCom
 275 02c4 FFF7FEFF 		bl	rfCom
 276 02c8 40F20003 		movw	r3, #:lower16:eepromConfig
 277 02cc C0F20003 		movt	r3, #:upper16:eepromConfig
 278 02d0 93F84F33 		ldrb	r3, [r3, #847]	@ zero_extendqisi2
 279 02d4 032B     		cmp	r3, #3
 280 02d6 1CD8     		bhi	.L9
 281 02d8 01A2     		adr	r2, .L14
 282 02da 52F823F0 		ldr	pc, [r2, r3, lsl #2]
 283 02de 00BF     		.align	2
 284              	.L14:
 285 02e0 13030000 		.word	.L9+1
 286 02e4 F1020000 		.word	.L11+1
 287 02e8 F7020000 		.word	.L12+1
 288 02ec 0D030000 		.word	.L13+1
 289              	.L11:
 290 02f0 FFF7FEFF 		bl	decodeMediaTek3329BinaryMsg
 291 02f4 0DE0     		b	.L9
 292              	.L12:
 293 02f6 FFF7FEFF 		bl	decodeNMEAsentence
 294 02fa 0AE0     		b	.L9
 295              	.L33:
 296              		.align	2
 297              	.L32:
 298 02fc 00000000 		.word	0
 299 0300 BD370635 		.word	889599933
 300 0304 57E79C3A 		.word	983361367
 301 0308 4C7D0B3A 		.word	973831500
 302              	.L13:
 303 030c FFF7FEFF 		bl	decodeUbloxMsg
 304 0310 00BF     		nop
 305              	.L9:
 306 0312 FFF7FEFF 		bl	micros
 307 0316 0246     		mov	r2, r0
 308 0318 099B     		ldr	r3, [sp, #36]
 309 031a D21A     		subs	r2, r2, r3
 310 031c 40F20003 		movw	r3, #:lower16:executionTime10Hz
 311 0320 C0F20003 		movt	r3, #:upper16:executionTime10Hz
 312 0324 1A60     		str	r2, [r3, #0]
 313              	.L7:
 314 0326 40F20003 		movw	r3, #:lower16:frame_500Hz
 315 032a C0F20003 		movt	r3, #:upper16:frame_500Hz
 316 032e 1B78     		ldrb	r3, [r3, #0]	@ zero_extendqisi2
 317 0330 002B     		cmp	r3, #0
 318 0332 00F09E81 		beq	.L15
 319 0336 40F20003 		movw	r3, #:lower16:frame_500Hz
 320 033a C0F20003 		movt	r3, #:upper16:frame_500Hz
 321 033e 4FF00002 		mov	r2, #0
 322 0342 1A70     		strb	r2, [r3, #0]
 323 0344 FFF7FEFF 		bl	micros
 324 0348 0990     		str	r0, [sp, #36]
 325 034a 40F20003 		movw	r3, #:lower16:previous500HzTime
 326 034e C0F20003 		movt	r3, #:upper16:previous500HzTime
 327 0352 1B68     		ldr	r3, [r3, #0]
 328 0354 099A     		ldr	r2, [sp, #36]
 329 0356 D21A     		subs	r2, r2, r3
 330 0358 40F20003 		movw	r3, #:lower16:deltaTime500Hz
 331 035c C0F20003 		movt	r3, #:upper16:deltaTime500Hz
 332 0360 1A60     		str	r2, [r3, #0]
 333 0362 40F20003 		movw	r3, #:lower16:previous500HzTime
 334 0366 C0F20003 		movt	r3, #:upper16:previous500HzTime
 335 036a 099A     		ldr	r2, [sp, #36]
 336 036c 1A60     		str	r2, [r3, #0]
 337 036e 4FF48840 		mov	r0, #17408
 338 0372 C4F20100 		movt	r0, 16385
 339 0376 4FF00001 		mov	r1, #0
 340 037a FFF7FEFF 		bl	TIM_Cmd
 341 037e 4FF48840 		mov	r0, #17408
 342 0382 C4F20100 		movt	r0, 16385
 343 0386 FFF7FEFF 		bl	TIM_GetCounter
 344 038a 0346     		mov	r3, r0
 345 038c 9AB2     		uxth	r2, r3
 346 038e 40F20003 		movw	r3, #:lower16:timerValue
 347 0392 C0F20003 		movt	r3, #:upper16:timerValue
 348 0396 1A80     		strh	r2, [r3, #0]	@ movhi
 349 0398 4FF48840 		mov	r0, #17408
 350 039c C4F20100 		movt	r0, 16385
 351 03a0 4FF00001 		mov	r1, #0
 352 03a4 FFF7FEFF 		bl	TIM_SetCounter
 353 03a8 4FF48840 		mov	r0, #17408
 354 03ac C4F20100 		movt	r0, 16385
 355 03b0 4FF00101 		mov	r1, #1
 356 03b4 FFF7FEFF 		bl	TIM_Cmd
 357 03b8 40F20003 		movw	r3, #:lower16:timerValue
 358 03bc C0F20003 		movt	r3, #:upper16:timerValue
 359 03c0 1B88     		ldrh	r3, [r3, #0]
 360 03c2 07EE903A 		fmsr	s15, r3	@ int
 361 03c6 B8EE677A 		fuitos	s14, s15
 362 03ca 5FED337A 		flds	s15, .L32+4
 363 03ce 67EE277A 		fmuls	s15, s14, s15
 364 03d2 40F20003 		movw	r3, #:lower16:dt500Hz
 365 03d6 C0F20003 		movt	r3, #:upper16:dt500Hz
 366 03da C3ED007A 		fsts	s15, [r3, #0]
 367 03de FFF7FEFF 		bl	computeMPU6000TCBias
 368 03e2 40F20003 		movw	r3, #:lower16:accelSummedSamples500Hz
 369 03e6 C0F20003 		movt	r3, #:upper16:accelSummedSamples500Hz
 370 03ea 1B68     		ldr	r3, [r3, #0]
 371 03ec 07EE903A 		fmsr	s15, r3	@ int
 372 03f0 B8EEE77A 		fsitos	s14, s15
 373 03f4 F0EE007A 		fconsts	s15, #0
 374 03f8 C7EE277A 		fdivs	s15, s14, s15
 375 03fc 40F20003 		movw	r3, #:lower16:accelTCBias
 376 0400 C0F20003 		movt	r3, #:upper16:accelTCBias
 377 0404 93ED007A 		flds	s14, [r3, #0]
 378 0408 37EEC77A 		fsubs	s14, s15, s14
 379 040c 5FED437A 		flds	s15, .L32+8
 380 0410 67EE277A 		fmuls	s15, s14, s15
 381 0414 40F20003 		movw	r3, #:lower16:sensors
 382 0418 C0F20003 		movt	r3, #:upper16:sensors
 383 041c C3ED007A 		fsts	s15, [r3, #0]
 384 0420 40F20003 		movw	r3, #:lower16:accelSummedSamples500Hz
 385 0424 C0F20003 		movt	r3, #:upper16:accelSummedSamples500Hz
 386 0428 5B68     		ldr	r3, [r3, #4]
 387 042a 07EE903A 		fmsr	s15, r3	@ int
 388 042e B8EEE77A 		fsitos	s14, s15
 389 0432 F0EE007A 		fconsts	s15, #0
 390 0436 C7EE277A 		fdivs	s15, s14, s15
 391 043a 40F20003 		movw	r3, #:lower16:accelTCBias
 392 043e C0F20003 		movt	r3, #:upper16:accelTCBias
 393 0442 93ED017A 		flds	s14, [r3, #4]
 394 0446 77EEC77A 		fsubs	s15, s15, s14
 395 044a B1EE677A 		fnegs	s14, s15
 396 044e 5FED537A 		flds	s15, .L32+8
 397 0452 67EE277A 		fmuls	s15, s14, s15
 398 0456 40F20003 		movw	r3, #:lower16:sensors
 399 045a C0F20003 		movt	r3, #:upper16:sensors
 400 045e C3ED017A 		fsts	s15, [r3, #4]
 401 0462 40F20003 		movw	r3, #:lower16:accelSummedSamples500Hz
 402 0466 C0F20003 		movt	r3, #:upper16:accelSummedSamples500Hz
 403 046a 9B68     		ldr	r3, [r3, #8]
 404 046c 07EE903A 		fmsr	s15, r3	@ int
 405 0470 B8EEE77A 		fsitos	s14, s15
 406 0474 F0EE007A 		fconsts	s15, #0
 407 0478 C7EE277A 		fdivs	s15, s14, s15
 408 047c 40F20003 		movw	r3, #:lower16:accelTCBias
 409 0480 C0F20003 		movt	r3, #:upper16:accelTCBias
 410 0484 93ED027A 		flds	s14, [r3, #8]
 411 0488 77EEC77A 		fsubs	s15, s15, s14
 412 048c B1EE677A 		fnegs	s14, s15
 413 0490 5FED647A 		flds	s15, .L32+8
 414 0494 67EE277A 		fmuls	s15, s14, s15
 415 0498 40F20003 		movw	r3, #:lower16:sensors
 416 049c C0F20003 		movt	r3, #:upper16:sensors
 417 04a0 C3ED027A 		fsts	s15, [r3, #8]
 418 04a4 40F20003 		movw	r3, #:lower16:gyroSummedSamples500Hz
 419 04a8 C0F20003 		movt	r3, #:upper16:gyroSummedSamples500Hz
 420 04ac 1B68     		ldr	r3, [r3, #0]
 421 04ae 07EE903A 		fmsr	s15, r3	@ int
 422 04b2 B8EEE77A 		fsitos	s14, s15
 423 04b6 F0EE007A 		fconsts	s15, #0
 424 04ba C7EE277A 		fdivs	s15, s14, s15
 425 04be 40F20003 		movw	r3, #:lower16:gyroRTBias
 426 04c2 C0F20003 		movt	r3, #:upper16:gyroRTBias
 427 04c6 93ED007A 		flds	s14, [r3, #0]
 428 04ca 37EEC77A 		fsubs	s14, s15, s14
 429 04ce 40F20003 		movw	r3, #:lower16:gyroTCBias
 430 04d2 C0F20003 		movt	r3, #:upper16:gyroTCBias
 431 04d6 D3ED007A 		flds	s15, [r3, #0]
 432 04da 37EE677A 		fsubs	s14, s14, s15
 433 04de 5FED767A 		flds	s15, .L32+12
 434 04e2 67EE277A 		fmuls	s15, s14, s15
 435 04e6 40F20003 		movw	r3, #:lower16:sensors
 436 04ea C0F20003 		movt	r3, #:upper16:sensors
 437 04ee C3ED097A 		fsts	s15, [r3, #36]
 438 04f2 40F20003 		movw	r3, #:lower16:gyroSummedSamples500Hz
 439 04f6 C0F20003 		movt	r3, #:upper16:gyroSummedSamples500Hz
 440 04fa 5B68     		ldr	r3, [r3, #4]
 441 04fc 07EE903A 		fmsr	s15, r3	@ int
 442 0500 B8EEE77A 		fsitos	s14, s15
 443 0504 F0EE007A 		fconsts	s15, #0
 444 0508 C7EE277A 		fdivs	s15, s14, s15
 445 050c 40F20003 		movw	r3, #:lower16:gyroRTBias
 446 0510 C0F20003 		movt	r3, #:upper16:gyroRTBias
 447 0514 93ED017A 		flds	s14, [r3, #4]
 448 0518 37EEC77A 		fsubs	s14, s15, s14
 449 051c 40F20003 		movw	r3, #:lower16:gyroTCBias
 450 0520 C0F20003 		movt	r3, #:upper16:gyroTCBias
 451 0524 D3ED017A 		flds	s15, [r3, #4]
 452 0528 77EE677A 		fsubs	s15, s14, s15
 453 052c B1EE677A 		fnegs	s14, s15
 454 0530 5FED8B7A 		flds	s15, .L32+12
 455 0534 67EE277A 		fmuls	s15, s14, s15
 456 0538 40F20003 		movw	r3, #:lower16:sensors
 457 053c C0F20003 		movt	r3, #:upper16:sensors
 458 0540 C3ED0A7A 		fsts	s15, [r3, #40]
 459 0544 40F20003 		movw	r3, #:lower16:gyroSummedSamples500Hz
 460 0548 C0F20003 		movt	r3, #:upper16:gyroSummedSamples500Hz
 461 054c 9B68     		ldr	r3, [r3, #8]
 462 054e 07EE903A 		fmsr	s15, r3	@ int
 463 0552 B8EEE77A 		fsitos	s14, s15
 464 0556 F0EE007A 		fconsts	s15, #0
 465 055a C7EE277A 		fdivs	s15, s14, s15
 466 055e 40F20003 		movw	r3, #:lower16:gyroRTBias
 467 0562 C0F20003 		movt	r3, #:upper16:gyroRTBias
 468 0566 93ED027A 		flds	s14, [r3, #8]
 469 056a 37EEC77A 		fsubs	s14, s15, s14
 470 056e 40F20003 		movw	r3, #:lower16:gyroTCBias
 471 0572 C0F20003 		movt	r3, #:upper16:gyroTCBias
 472 0576 D3ED027A 		flds	s15, [r3, #8]
 473 057a 77EE677A 		fsubs	s15, s14, s15
 474 057e B1EE677A 		fnegs	s14, s15
 475 0582 5FED9F7A 		flds	s15, .L32+12
 476 0586 67EE277A 		fmuls	s15, s14, s15
 477 058a 40F20003 		movw	r3, #:lower16:sensors
 478 058e C0F20003 		movt	r3, #:upper16:sensors
 479 0592 C3ED0B7A 		fsts	s15, [r3, #44]
 480 0596 40F20003 		movw	r3, #:lower16:sensors
 481 059a C0F20003 		movt	r3, #:upper16:sensors
 482 059e 586A     		ldr	r0, [r3, #36]	@ float
 483 05a0 40F20003 		movw	r3, #:lower16:sensors
 484 05a4 C0F20003 		movt	r3, #:upper16:sensors
 485 05a8 996A     		ldr	r1, [r3, #40]	@ float
 486 05aa 40F20003 		movw	r3, #:lower16:sensors
 487 05ae C0F20003 		movt	r3, #:upper16:sensors
 488 05b2 DA6A     		ldr	r2, [r3, #44]	@ float
 489 05b4 40F20003 		movw	r3, #:lower16:sensors
 490 05b8 C0F20003 		movt	r3, #:upper16:sensors
 491 05bc 1C68     		ldr	r4, [r3, #0]	@ float
 492 05be 40F20003 		movw	r3, #:lower16:sensors
 493 05c2 C0F20003 		movt	r3, #:upper16:sensors
 494 05c6 D3F80490 		ldr	r9, [r3, #4]	@ float
 495 05ca 40F20003 		movw	r3, #:lower16:sensors
 496 05ce C0F20003 		movt	r3, #:upper16:sensors
 497 05d2 D3F80880 		ldr	r8, [r3, #8]	@ float
 498 05d6 40F20003 		movw	r3, #:lower16:sensors
 499 05da C0F20003 		movt	r3, #:upper16:sensors
 500 05de D3F830C0 		ldr	ip, [r3, #48]	@ float
 501 05e2 40F20003 		movw	r3, #:lower16:sensors
 502 05e6 C0F20003 		movt	r3, #:upper16:sensors
 503 05ea D3F834E0 		ldr	lr, [r3, #52]	@ float
 504 05ee 40F20003 		movw	r3, #:lower16:sensors
 505 05f2 C0F20003 		movt	r3, #:upper16:sensors
 506 05f6 9F6B     		ldr	r7, [r3, #56]	@ float
 507 05f8 40F20003 		movw	r3, #:lower16:eepromConfig
 508 05fc C0F20003 		movt	r3, #:upper16:eepromConfig
 509 0600 1E6C     		ldr	r6, [r3, #64]	@ float
 510 0602 40F20003 		movw	r3, #:lower16:magDataUpdate
 511 0606 C0F20003 		movt	r3, #:upper16:magDataUpdate
 512 060a 1D78     		ldrb	r5, [r3, #0]	@ zero_extendqisi2
 513 060c 40F20003 		movw	r3, #:lower16:dt500Hz
 514 0610 C0F20003 		movt	r3, #:upper16:dt500Hz
 515 0614 1B68     		ldr	r3, [r3, #0]	@ float
 516 0616 CDF80090 		str	r9, [sp, #0]	@ float
 517 061a CDF80480 		str	r8, [sp, #4]	@ float
 518 061e CDF808C0 		str	ip, [sp, #8]	@ float
 519 0622 CDF80CE0 		str	lr, [sp, #12]	@ float
 520 0626 0497     		str	r7, [sp, #16]	@ float
 521 0628 0596     		str	r6, [sp, #20]	@ float
 522 062a 0695     		str	r5, [sp, #24]
 523 062c 0793     		str	r3, [sp, #28]	@ float
 524 062e 2346     		mov	r3, r4	@ float
 525 0630 FFF7FEFF 		bl	MargAHRSupdate
 526 0634 40F20003 		movw	r3, #:lower16:magDataUpdate
 527 0638 C0F20003 		movt	r3, #:upper16:magDataUpdate
 528 063c 4FF00002 		mov	r2, #0
 529 0640 1A70     		strb	r2, [r3, #0]
 530 0642 40F20003 		movw	r3, #:lower16:dt500Hz
 531 0646 C0F20003 		movt	r3, #:upper16:dt500Hz
 532 064a 1B68     		ldr	r3, [r3, #0]	@ float
 533 064c 1846     		mov	r0, r3	@ float
 534 064e FFF7FEFF 		bl	computeAxisCommands
 535 0652 FFF7FEFF 		bl	mixTable
 536 0656 FFF7FEFF 		bl	writeServos
 537 065a FFF7FEFF 		bl	writeMotors
 538 065e FFF7FEFF 		bl	micros
 539 0662 0246     		mov	r2, r0
 540 0664 099B     		ldr	r3, [sp, #36]
 541 0666 D21A     		subs	r2, r2, r3
 542 0668 40F20003 		movw	r3, #:lower16:executionTime500Hz
 543 066c C0F20003 		movt	r3, #:upper16:executionTime500Hz
 544 0670 1A60     		str	r2, [r3, #0]
 545              	.L15:
 546 0672 40F20003 		movw	r3, #:lower16:frame_100Hz
 547 0676 C0F20003 		movt	r3, #:upper16:frame_100Hz
 548 067a 1B78     		ldrb	r3, [r3, #0]	@ zero_extendqisi2
 549 067c 002B     		cmp	r3, #0
 550 067e 00F0E882 		beq	.L16
 551 0682 40F20003 		movw	r3, #:lower16:frame_100Hz
 552 0686 C0F20003 		movt	r3, #:upper16:frame_100Hz
 553 068a 4FF00002 		mov	r2, #0
 554 068e 1A70     		strb	r2, [r3, #0]
 555 0690 FFF7FEFF 		bl	micros
 556 0694 0990     		str	r0, [sp, #36]
 557 0696 40F20003 		movw	r3, #:lower16:previous100HzTime
 558 069a C0F20003 		movt	r3, #:upper16:previous100HzTime
 559 069e 1B68     		ldr	r3, [r3, #0]
 560 06a0 099A     		ldr	r2, [sp, #36]
 561 06a2 D21A     		subs	r2, r2, r3
 562 06a4 40F20003 		movw	r3, #:lower16:deltaTime100Hz
 563 06a8 C0F20003 		movt	r3, #:upper16:deltaTime100Hz
 564 06ac 1A60     		str	r2, [r3, #0]
 565 06ae 40F20003 		movw	r3, #:lower16:previous100HzTime
 566 06b2 C0F20003 		movt	r3, #:upper16:previous100HzTime
 567 06b6 099A     		ldr	r2, [sp, #36]
 568 06b8 1A60     		str	r2, [r3, #0]
 569 06ba 4FF49040 		mov	r0, #18432
 570 06be C4F20100 		movt	r0, 16385
 571 06c2 4FF00001 		mov	r1, #0
 572 06c6 FFF7FEFF 		bl	TIM_Cmd
 573 06ca 4FF49040 		mov	r0, #18432
 574 06ce C4F20100 		movt	r0, 16385
 575 06d2 FFF7FEFF 		bl	TIM_GetCounter
 576 06d6 0346     		mov	r3, r0
 577 06d8 9AB2     		uxth	r2, r3
 578 06da 40F20003 		movw	r3, #:lower16:timerValue
 579 06de C0F20003 		movt	r3, #:upper16:timerValue
 580 06e2 1A80     		strh	r2, [r3, #0]	@ movhi
 581 06e4 4FF49040 		mov	r0, #18432
 582 06e8 C4F20100 		movt	r0, 16385
 583 06ec 4FF00001 		mov	r1, #0
 584 06f0 FFF7FEFF 		bl	TIM_SetCounter
 585 06f4 4FF49040 		mov	r0, #18432
 586 06f8 C4F20100 		movt	r0, 16385
 587 06fc 4FF00101 		mov	r1, #1
 588 0700 FFF7FEFF 		bl	TIM_Cmd
 589 0704 40F20003 		movw	r3, #:lower16:timerValue
 590 0708 C0F20003 		movt	r3, #:upper16:timerValue
 591 070c 1B88     		ldrh	r3, [r3, #0]
 592 070e 07EE903A 		fmsr	s15, r3	@ int
 593 0712 B8EE677A 		fuitos	s14, s15
 594 0716 DFEDCC7A 		flds	s15, .L34
 595 071a 67EE277A 		fmuls	s15, s14, s15
 596 071e 40F20003 		movw	r3, #:lower16:dt100Hz
 597 0722 C0F20003 		movt	r3, #:upper16:dt100Hz
 598 0726 C3ED007A 		fsts	s15, [r3, #0]
 599 072a 40F20003 		movw	r3, #:lower16:accelSummedSamples100Hz
 600 072e C0F20003 		movt	r3, #:upper16:accelSummedSamples100Hz
 601 0732 1B68     		ldr	r3, [r3, #0]
 602 0734 07EE903A 		fmsr	s15, r3	@ int
 603 0738 B8EEE77A 		fsitos	s14, s15
 604 073c F2EE047A 		fconsts	s15, #36
 605 0740 C7EE277A 		fdivs	s15, s14, s15
 606 0744 40F20003 		movw	r3, #:lower16:accelTCBias
 607 0748 C0F20003 		movt	r3, #:upper16:accelTCBias
 608 074c 93ED007A 		flds	s14, [r3, #0]
 609 0750 37EEC77A 		fsubs	s14, s15, s14
 610 0754 DFEDBD7A 		flds	s15, .L34+4
 611 0758 67EE277A 		fmuls	s15, s14, s15
 612 075c 40F20003 		movw	r3, #:lower16:sensors
 613 0760 C0F20003 		movt	r3, #:upper16:sensors
 614 0764 C3ED037A 		fsts	s15, [r3, #12]
 615 0768 40F20003 		movw	r3, #:lower16:accelSummedSamples100Hz
 616 076c C0F20003 		movt	r3, #:upper16:accelSummedSamples100Hz
 617 0770 5B68     		ldr	r3, [r3, #4]
 618 0772 07EE903A 		fmsr	s15, r3	@ int
 619 0776 B8EEE77A 		fsitos	s14, s15
 620 077a F2EE047A 		fconsts	s15, #36
 621 077e C7EE277A 		fdivs	s15, s14, s15
 622 0782 40F20003 		movw	r3, #:lower16:accelTCBias
 623 0786 C0F20003 		movt	r3, #:upper16:accelTCBias
 624 078a 93ED017A 		flds	s14, [r3, #4]
 625 078e 77EEC77A 		fsubs	s15, s15, s14
 626 0792 B1EE677A 		fnegs	s14, s15
 627 0796 DFEDAD7A 		flds	s15, .L34+4
 628 079a 67EE277A 		fmuls	s15, s14, s15
 629 079e 40F20003 		movw	r3, #:lower16:sensors
 630 07a2 C0F20003 		movt	r3, #:upper16:sensors
 631 07a6 C3ED047A 		fsts	s15, [r3, #16]
 632 07aa 40F20003 		movw	r3, #:lower16:accelSummedSamples100Hz
 633 07ae C0F20003 		movt	r3, #:upper16:accelSummedSamples100Hz
 634 07b2 9B68     		ldr	r3, [r3, #8]
 635 07b4 07EE903A 		fmsr	s15, r3	@ int
 636 07b8 B8EEE77A 		fsitos	s14, s15
 637 07bc F2EE047A 		fconsts	s15, #36
 638 07c0 C7EE277A 		fdivs	s15, s14, s15
 639 07c4 40F20003 		movw	r3, #:lower16:accelTCBias
 640 07c8 C0F20003 		movt	r3, #:upper16:accelTCBias
 641 07cc 93ED027A 		flds	s14, [r3, #8]
 642 07d0 77EEC77A 		fsubs	s15, s15, s14
 643 07d4 B1EE677A 		fnegs	s14, s15
 644 07d8 DFED9C7A 		flds	s15, .L34+4
 645 07dc 67EE277A 		fmuls	s15, s14, s15
 646 07e0 40F20003 		movw	r3, #:lower16:sensors
 647 07e4 C0F20003 		movt	r3, #:upper16:sensors
 648 07e8 C3ED057A 		fsts	s15, [r3, #20]
 649 07ec FFF7FEFF 		bl	createRotationMatrix
 650 07f0 FFF7FEFF 		bl	bodyAccelToEarthAccel
 651 07f4 40F20003 		movw	r3, #:lower16:dt100Hz
 652 07f8 C0F20003 		movt	r3, #:upper16:dt100Hz
 653 07fc 1B68     		ldr	r3, [r3, #0]	@ float
 654 07fe 1846     		mov	r0, r3	@ float
 655 0800 FFF7FEFF 		bl	vertCompFilter
 656 0804 40F20003 		movw	r3, #:lower16:highSpeedTelem1Enabled
 657 0808 C0F20003 		movt	r3, #:upper16:highSpeedTelem1Enabled
 658 080c 1B78     		ldrb	r3, [r3, #0]	@ zero_extendqisi2
 659 080e 012B     		cmp	r3, #1
 660 0810 47D1     		bne	.L17
 661 0812 40F20003 		movw	r3, #:lower16:sensors
 662 0816 C0F20003 		movt	r3, #:upper16:sensors
 663 081a 1B68     		ldr	r3, [r3, #0]	@ float
 664 081c 1846     		mov	r0, r3	@ float
 665 081e 40F20001 		movw	r1, #:lower16:numberString
 666 0822 C0F20001 		movt	r1, #:upper16:numberString
 667 0826 FFF7FEFF 		bl	ftoa
 668 082a 40F20000 		movw	r0, #:lower16:numberString
 669 082e C0F20000 		movt	r0, #:upper16:numberString
 670 0832 FFF7FEFF 		bl	uart3Print
 671 0836 40F20000 		movw	r0, #:lower16:.LC0
 672 083a C0F20000 		movt	r0, #:upper16:.LC0
 673 083e FFF7FEFF 		bl	uart3Print
 674 0842 40F20003 		movw	r3, #:lower16:sensors
 675 0846 C0F20003 		movt	r3, #:upper16:sensors
 676 084a 5B68     		ldr	r3, [r3, #4]	@ float
 677 084c 1846     		mov	r0, r3	@ float
 678 084e 40F20001 		movw	r1, #:lower16:numberString
 679 0852 C0F20001 		movt	r1, #:upper16:numberString
 680 0856 FFF7FEFF 		bl	ftoa
 681 085a 40F20000 		movw	r0, #:lower16:numberString
 682 085e C0F20000 		movt	r0, #:upper16:numberString
 683 0862 FFF7FEFF 		bl	uart3Print
 684 0866 40F20000 		movw	r0, #:lower16:.LC0
 685 086a C0F20000 		movt	r0, #:upper16:.LC0
 686 086e FFF7FEFF 		bl	uart3Print
 687 0872 40F20003 		movw	r3, #:lower16:sensors
 688 0876 C0F20003 		movt	r3, #:upper16:sensors
 689 087a 9B68     		ldr	r3, [r3, #8]	@ float
 690 087c 1846     		mov	r0, r3	@ float
 691 087e 40F20001 		movw	r1, #:lower16:numberString
 692 0882 C0F20001 		movt	r1, #:upper16:numberString
 693 0886 FFF7FEFF 		bl	ftoa
 694 088a 40F20000 		movw	r0, #:lower16:numberString
 695 088e C0F20000 		movt	r0, #:upper16:numberString
 696 0892 FFF7FEFF 		bl	uart3Print
 697 0896 40F20000 		movw	r0, #:lower16:.LC1
 698 089a C0F20000 		movt	r0, #:upper16:.LC1
 699 089e FFF7FEFF 		bl	uart3Print
 700              	.L17:
 701 08a2 40F20003 		movw	r3, #:lower16:highSpeedTelem2Enabled
 702 08a6 C0F20003 		movt	r3, #:upper16:highSpeedTelem2Enabled
 703 08aa 1B78     		ldrb	r3, [r3, #0]	@ zero_extendqisi2
 704 08ac 012B     		cmp	r3, #1
 705 08ae 47D1     		bne	.L18
 706 08b0 40F20003 		movw	r3, #:lower16:sensors
 707 08b4 C0F20003 		movt	r3, #:upper16:sensors
 708 08b8 5B6A     		ldr	r3, [r3, #36]	@ float
 709 08ba 1846     		mov	r0, r3	@ float
 710 08bc 40F20001 		movw	r1, #:lower16:numberString
 711 08c0 C0F20001 		movt	r1, #:upper16:numberString
 712 08c4 FFF7FEFF 		bl	ftoa
 713 08c8 40F20000 		movw	r0, #:lower16:numberString
 714 08cc C0F20000 		movt	r0, #:upper16:numberString
 715 08d0 FFF7FEFF 		bl	uart3Print
 716 08d4 40F20000 		movw	r0, #:lower16:.LC0
 717 08d8 C0F20000 		movt	r0, #:upper16:.LC0
 718 08dc FFF7FEFF 		bl	uart3Print
 719 08e0 40F20003 		movw	r3, #:lower16:sensors
 720 08e4 C0F20003 		movt	r3, #:upper16:sensors
 721 08e8 9B6A     		ldr	r3, [r3, #40]	@ float
 722 08ea 1846     		mov	r0, r3	@ float
 723 08ec 40F20001 		movw	r1, #:lower16:numberString
 724 08f0 C0F20001 		movt	r1, #:upper16:numberString
 725 08f4 FFF7FEFF 		bl	ftoa
 726 08f8 40F20000 		movw	r0, #:lower16:numberString
 727 08fc C0F20000 		movt	r0, #:upper16:numberString
 728 0900 FFF7FEFF 		bl	uart3Print
 729 0904 40F20000 		movw	r0, #:lower16:.LC0
 730 0908 C0F20000 		movt	r0, #:upper16:.LC0
 731 090c FFF7FEFF 		bl	uart3Print
 732 0910 40F20003 		movw	r3, #:lower16:sensors
 733 0914 C0F20003 		movt	r3, #:upper16:sensors
 734 0918 DB6A     		ldr	r3, [r3, #44]	@ float
 735 091a 1846     		mov	r0, r3	@ float
 736 091c 40F20001 		movw	r1, #:lower16:numberString
 737 0920 C0F20001 		movt	r1, #:upper16:numberString
 738 0924 FFF7FEFF 		bl	ftoa
 739 0928 40F20000 		movw	r0, #:lower16:numberString
 740 092c C0F20000 		movt	r0, #:upper16:numberString
 741 0930 FFF7FEFF 		bl	uart3Print
 742 0934 40F20000 		movw	r0, #:lower16:.LC1
 743 0938 C0F20000 		movt	r0, #:upper16:.LC1
 744 093c FFF7FEFF 		bl	uart3Print
 745              	.L18:
 746 0940 40F20003 		movw	r3, #:lower16:highSpeedTelem3Enabled
 747 0944 C0F20003 		movt	r3, #:upper16:highSpeedTelem3Enabled
 748 0948 1B78     		ldrb	r3, [r3, #0]	@ zero_extendqisi2
 749 094a 012B     		cmp	r3, #1
 750 094c 39D1     		bne	.L19
 751 094e 40F20003 		movw	r3, #:lower16:sensors
 752 0952 C0F20003 		movt	r3, #:upper16:sensors
 753 0956 5B6A     		ldr	r3, [r3, #36]	@ float
 754 0958 1846     		mov	r0, r3	@ float
 755 095a 40F20001 		movw	r1, #:lower16:numberString
 756 095e C0F20001 		movt	r1, #:upper16:numberString
 757 0962 FFF7FEFF 		bl	ftoa
 758 0966 40F20000 		movw	r0, #:lower16:numberString
 759 096a C0F20000 		movt	r0, #:upper16:numberString
 760 096e FFF7FEFF 		bl	uart3Print
 761 0972 40F20000 		movw	r0, #:lower16:.LC0
 762 0976 C0F20000 		movt	r0, #:upper16:.LC0
 763 097a FFF7FEFF 		bl	uart3Print
 764 097e 40F20003 		movw	r3, #:lower16:rxCommand
 765 0982 C0F20003 		movt	r3, #:upper16:rxCommand
 766 0986 93ED007A 		flds	s14, [r3, #0]
 767 098a 40F20003 		movw	r3, #:lower16:eepromConfig
 768 098e C0F20003 		movt	r3, #:upper16:eepromConfig
 769 0992 D3ED187A 		flds	s15, [r3, #96]
 770 0996 67EE277A 		fmuls	s15, s14, s15
 771 099a 17EE900A 		fmrs	r0, s15
 772 099e 40F20001 		movw	r1, #:lower16:numberString
 773 09a2 C0F20001 		movt	r1, #:upper16:numberString
 774 09a6 FFF7FEFF 		bl	ftoa
 775 09aa 40F20000 		movw	r0, #:lower16:numberString
 776 09ae C0F20000 		movt	r0, #:upper16:numberString
 777 09b2 FFF7FEFF 		bl	uart3Print
 778 09b6 40F20000 		movw	r0, #:lower16:.LC1
 779 09ba C0F20000 		movt	r0, #:upper16:.LC1
 780 09be FFF7FEFF 		bl	uart3Print
 781              	.L19:
 782 09c2 40F20003 		movw	r3, #:lower16:highSpeedTelem4Enabled
 783 09c6 C0F20003 		movt	r3, #:upper16:highSpeedTelem4Enabled
 784 09ca 1B78     		ldrb	r3, [r3, #0]	@ zero_extendqisi2
 785 09cc 012B     		cmp	r3, #1
 786 09ce 3FD1     		bne	.L20
 787 09d0 40F20003 		movw	r3, #:lower16:sensors
 788 09d4 C0F20003 		movt	r3, #:upper16:sensors
 789 09d8 9B6A     		ldr	r3, [r3, #40]	@ float
 790 09da 1846     		mov	r0, r3	@ float
 791 09dc 40F20001 		movw	r1, #:lower16:numberString
 792 09e0 C0F20001 		movt	r1, #:upper16:numberString
 793 09e4 FFF7FEFF 		bl	ftoa
 794 09e8 40F20000 		movw	r0, #:lower16:numberString
 795 09ec C0F20000 		movt	r0, #:upper16:numberString
 796 09f0 FFF7FEFF 		bl	uart3Print
 797 09f4 40F20000 		movw	r0, #:lower16:.LC0
 798 09f8 C0F20000 		movt	r0, #:upper16:.LC0
 799 09fc FFF7FEFF 		bl	uart3Print
 800 0a00 40F20003 		movw	r3, #:lower16:rxCommand
 801 0a04 C0F20003 		movt	r3, #:upper16:rxCommand
 802 0a08 93ED017A 		flds	s14, [r3, #4]
 803 0a0c 40F20003 		movw	r3, #:lower16:eepromConfig
 804 0a10 C0F20003 		movt	r3, #:upper16:eepromConfig
 805 0a14 D3ED187A 		flds	s15, [r3, #96]
 806 0a18 67EE277A 		fmuls	s15, s14, s15
 807 0a1c 17EE900A 		fmrs	r0, s15
 808 0a20 40F20001 		movw	r1, #:lower16:numberString
 809 0a24 C0F20001 		movt	r1, #:upper16:numberString
 810 0a28 FFF7FEFF 		bl	ftoa
 811 0a2c 40F20000 		movw	r0, #:lower16:numberString
 812 0a30 C0F20000 		movt	r0, #:upper16:numberString
 813 0a34 FFF7FEFF 		bl	uart3Print
 814 0a38 40F20000 		movw	r0, #:lower16:.LC1
 815 0a3c C0F20000 		movt	r0, #:upper16:.LC1
 816 0a40 FFF7FEFF 		bl	uart3Print
 817 0a44 04E0     		b	.L35
 818              	.L36:
 819 0a46 00BF     		.align	2
 820              	.L34:
 821 0a48 BD370635 		.word	889599933
 822 0a4c 57E79C3A 		.word	983361367
 823              	.L35:
 824              	.L20:
 825 0a50 40F20003 		movw	r3, #:lower16:highSpeedTelem5Enabled
 826 0a54 C0F20003 		movt	r3, #:upper16:highSpeedTelem5Enabled
 827 0a58 1B78     		ldrb	r3, [r3, #0]	@ zero_extendqisi2
 828 0a5a 012B     		cmp	r3, #1
 829 0a5c 39D1     		bne	.L21
 830 0a5e 40F20003 		movw	r3, #:lower16:sensors
 831 0a62 C0F20003 		movt	r3, #:upper16:sensors
 832 0a66 DB6A     		ldr	r3, [r3, #44]	@ float
 833 0a68 1846     		mov	r0, r3	@ float
 834 0a6a 40F20001 		movw	r1, #:lower16:numberString
 835 0a6e C0F20001 		movt	r1, #:upper16:numberString
 836 0a72 FFF7FEFF 		bl	ftoa
 837 0a76 40F20000 		movw	r0, #:lower16:numberString
 838 0a7a C0F20000 		movt	r0, #:upper16:numberString
 839 0a7e FFF7FEFF 		bl	uart3Print
 840 0a82 40F20000 		movw	r0, #:lower16:.LC0
 841 0a86 C0F20000 		movt	r0, #:upper16:.LC0
 842 0a8a FFF7FEFF 		bl	uart3Print
 843 0a8e 40F20003 		movw	r3, #:lower16:rxCommand
 844 0a92 C0F20003 		movt	r3, #:upper16:rxCommand
 845 0a96 93ED027A 		flds	s14, [r3, #8]
 846 0a9a 40F20003 		movw	r3, #:lower16:eepromConfig
 847 0a9e C0F20003 		movt	r3, #:upper16:eepromConfig
 848 0aa2 D3ED187A 		flds	s15, [r3, #96]
 849 0aa6 67EE277A 		fmuls	s15, s14, s15
 850 0aaa 17EE900A 		fmrs	r0, s15
 851 0aae 40F20001 		movw	r1, #:lower16:numberString
 852 0ab2 C0F20001 		movt	r1, #:upper16:numberString
 853 0ab6 FFF7FEFF 		bl	ftoa
 854 0aba 40F20000 		movw	r0, #:lower16:numberString
 855 0abe C0F20000 		movt	r0, #:upper16:numberString
 856 0ac2 FFF7FEFF 		bl	uart3Print
 857 0ac6 40F20000 		movw	r0, #:lower16:.LC1
 858 0aca C0F20000 		movt	r0, #:upper16:.LC1
 859 0ace FFF7FEFF 		bl	uart3Print
 860              	.L21:
 861 0ad2 40F20003 		movw	r3, #:lower16:highSpeedTelem6Enabled
 862 0ad6 C0F20003 		movt	r3, #:upper16:highSpeedTelem6Enabled
 863 0ada 1B78     		ldrb	r3, [r3, #0]	@ zero_extendqisi2
 864 0adc 012B     		cmp	r3, #1
 865 0ade 47D1     		bne	.L22
 866 0ae0 40F20003 		movw	r3, #:lower16:sensors
 867 0ae4 C0F20003 		movt	r3, #:upper16:sensors
 868 0ae8 9B69     		ldr	r3, [r3, #24]	@ float
 869 0aea 1846     		mov	r0, r3	@ float
 870 0aec 40F20001 		movw	r1, #:lower16:numberString
 871 0af0 C0F20001 		movt	r1, #:upper16:numberString
 872 0af4 FFF7FEFF 		bl	ftoa
 873 0af8 40F20000 		movw	r0, #:lower16:numberString
 874 0afc C0F20000 		movt	r0, #:upper16:numberString
 875 0b00 FFF7FEFF 		bl	uart3Print
 876 0b04 40F20000 		movw	r0, #:lower16:.LC0
 877 0b08 C0F20000 		movt	r0, #:upper16:.LC0
 878 0b0c FFF7FEFF 		bl	uart3Print
 879 0b10 40F20003 		movw	r3, #:lower16:sensors
 880 0b14 C0F20003 		movt	r3, #:upper16:sensors
 881 0b18 DB69     		ldr	r3, [r3, #28]	@ float
 882 0b1a 1846     		mov	r0, r3	@ float
 883 0b1c 40F20001 		movw	r1, #:lower16:numberString
 884 0b20 C0F20001 		movt	r1, #:upper16:numberString
 885 0b24 FFF7FEFF 		bl	ftoa
 886 0b28 40F20000 		movw	r0, #:lower16:numberString
 887 0b2c C0F20000 		movt	r0, #:upper16:numberString
 888 0b30 FFF7FEFF 		bl	uart3Print
 889 0b34 40F20000 		movw	r0, #:lower16:.LC0
 890 0b38 C0F20000 		movt	r0, #:upper16:.LC0
 891 0b3c FFF7FEFF 		bl	uart3Print
 892 0b40 40F20003 		movw	r3, #:lower16:sensors
 893 0b44 C0F20003 		movt	r3, #:upper16:sensors
 894 0b48 1B6A     		ldr	r3, [r3, #32]	@ float
 895 0b4a 1846     		mov	r0, r3	@ float
 896 0b4c 40F20001 		movw	r1, #:lower16:numberString
 897 0b50 C0F20001 		movt	r1, #:upper16:numberString
 898 0b54 FFF7FEFF 		bl	ftoa
 899 0b58 40F20000 		movw	r0, #:lower16:numberString
 900 0b5c C0F20000 		movt	r0, #:upper16:numberString
 901 0b60 FFF7FEFF 		bl	uart3Print
 902 0b64 40F20000 		movw	r0, #:lower16:.LC1
 903 0b68 C0F20000 		movt	r0, #:upper16:.LC1
 904 0b6c FFF7FEFF 		bl	uart3Print
 905              	.L22:
 906 0b70 40F20003 		movw	r3, #:lower16:highSpeedTelem7Enabled
 907 0b74 C0F20003 		movt	r3, #:upper16:highSpeedTelem7Enabled
 908 0b78 1B78     		ldrb	r3, [r3, #0]	@ zero_extendqisi2
 909 0b7a 012B     		cmp	r3, #1
 910 0b7c 5FD1     		bne	.L23
 911 0b7e 40F20003 		movw	r3, #:lower16:earthAxisAccels
 912 0b82 C0F20003 		movt	r3, #:upper16:earthAxisAccels
 913 0b86 9B68     		ldr	r3, [r3, #8]	@ float
 914 0b88 1846     		mov	r0, r3	@ float
 915 0b8a 40F20001 		movw	r1, #:lower16:numberString
 916 0b8e C0F20001 		movt	r1, #:upper16:numberString
 917 0b92 FFF7FEFF 		bl	ftoa
 918 0b96 40F20000 		movw	r0, #:lower16:numberString
 919 0b9a C0F20000 		movt	r0, #:upper16:numberString
 920 0b9e FFF7FEFF 		bl	uart3Print
 921 0ba2 40F20000 		movw	r0, #:lower16:.LC0
 922 0ba6 C0F20000 		movt	r0, #:upper16:.LC0
 923 0baa FFF7FEFF 		bl	uart3Print
 924 0bae 40F20003 		movw	r3, #:lower16:sensors
 925 0bb2 C0F20003 		movt	r3, #:upper16:sensors
 926 0bb6 DB6B     		ldr	r3, [r3, #60]	@ float
 927 0bb8 1846     		mov	r0, r3	@ float
 928 0bba 40F20001 		movw	r1, #:lower16:numberString
 929 0bbe C0F20001 		movt	r1, #:upper16:numberString
 930 0bc2 FFF7FEFF 		bl	ftoa
 931 0bc6 40F20000 		movw	r0, #:lower16:numberString
 932 0bca C0F20000 		movt	r0, #:upper16:numberString
 933 0bce FFF7FEFF 		bl	uart3Print
 934 0bd2 40F20000 		movw	r0, #:lower16:.LC0
 935 0bd6 C0F20000 		movt	r0, #:upper16:.LC0
 936 0bda FFF7FEFF 		bl	uart3Print
 937 0bde 40F20003 		movw	r3, #:lower16:hDotEstimate
 938 0be2 C0F20003 		movt	r3, #:upper16:hDotEstimate
 939 0be6 1B68     		ldr	r3, [r3, #0]	@ float
 940 0be8 1846     		mov	r0, r3	@ float
 941 0bea 40F20001 		movw	r1, #:lower16:numberString
 942 0bee C0F20001 		movt	r1, #:upper16:numberString
 943 0bf2 FFF7FEFF 		bl	ftoa
 944 0bf6 40F20000 		movw	r0, #:lower16:numberString
 945 0bfa C0F20000 		movt	r0, #:upper16:numberString
 946 0bfe FFF7FEFF 		bl	uart3Print
 947 0c02 40F20000 		movw	r0, #:lower16:.LC2
 948 0c06 C0F20000 		movt	r0, #:upper16:.LC2
 949 0c0a FFF7FEFF 		bl	uart3Print
 950 0c0e 40F20003 		movw	r3, #:lower16:hEstimate
 951 0c12 C0F20003 		movt	r3, #:upper16:hEstimate
 952 0c16 1B68     		ldr	r3, [r3, #0]	@ float
 953 0c18 1846     		mov	r0, r3	@ float
 954 0c1a 40F20001 		movw	r1, #:lower16:numberString
 955 0c1e C0F20001 		movt	r1, #:upper16:numberString
 956 0c22 FFF7FEFF 		bl	ftoa
 957 0c26 40F20000 		movw	r0, #:lower16:numberString
 958 0c2a C0F20000 		movt	r0, #:upper16:numberString
 959 0c2e FFF7FEFF 		bl	uart3Print
 960 0c32 40F20000 		movw	r0, #:lower16:.LC1
 961 0c36 C0F20000 		movt	r0, #:upper16:.LC1
 962 0c3a FFF7FEFF 		bl	uart3Print
 963              	.L23:
 964 0c3e FFF7FEFF 		bl	micros
 965 0c42 0246     		mov	r2, r0
 966 0c44 099B     		ldr	r3, [sp, #36]
 967 0c46 D21A     		subs	r2, r2, r3
 968 0c48 40F20003 		movw	r3, #:lower16:executionTime100Hz
 969 0c4c C0F20003 		movt	r3, #:upper16:executionTime100Hz
 970 0c50 1A60     		str	r2, [r3, #0]
 971              	.L16:
 972 0c52 40F20003 		movw	r3, #:lower16:frame_5Hz
 973 0c56 C0F20003 		movt	r3, #:upper16:frame_5Hz
 974 0c5a 1B78     		ldrb	r3, [r3, #0]	@ zero_extendqisi2
 975 0c5c 002B     		cmp	r3, #0
 976 0c5e 34D0     		beq	.L24
 977 0c60 40F20003 		movw	r3, #:lower16:frame_5Hz
 978 0c64 C0F20003 		movt	r3, #:upper16:frame_5Hz
 979 0c68 4FF00002 		mov	r2, #0
 980 0c6c 1A70     		strb	r2, [r3, #0]
 981 0c6e FFF7FEFF 		bl	micros
 982 0c72 0990     		str	r0, [sp, #36]
 983 0c74 40F20003 		movw	r3, #:lower16:previous5HzTime
 984 0c78 C0F20003 		movt	r3, #:upper16:previous5HzTime
 985 0c7c 1B68     		ldr	r3, [r3, #0]
 986 0c7e 099A     		ldr	r2, [sp, #36]
 987 0c80 D21A     		subs	r2, r2, r3
 988 0c82 40F20003 		movw	r3, #:lower16:deltaTime5Hz
 989 0c86 C0F20003 		movt	r3, #:upper16:deltaTime5Hz
 990 0c8a 1A60     		str	r2, [r3, #0]
 991 0c8c 40F20003 		movw	r3, #:lower16:previous5HzTime
 992 0c90 C0F20003 		movt	r3, #:upper16:previous5HzTime
 993 0c94 099A     		ldr	r2, [sp, #36]
 994 0c96 1A60     		str	r2, [r3, #0]
 995 0c98 40F20003 		movw	r3, #:lower16:execUp
 996 0c9c C0F20003 		movt	r3, #:upper16:execUp
 997 0ca0 1B78     		ldrb	r3, [r3, #0]	@ zero_extendqisi2
 998 0ca2 012B     		cmp	r3, #1
 999 0ca4 07D1     		bne	.L25
 1000 0ca6 4FF48050 		mov	r0, #4096
 1001 0caa C4F20200 		movt	r0, 16386
 1002 0cae 4FF02001 		mov	r1, #32
 1003 0cb2 FFF7FEFF 		bl	GPIO_ToggleBits
 1004              	.L25:
 1005 0cb6 FFF7FEFF 		bl	micros
 1006 0cba 0246     		mov	r2, r0
 1007 0cbc 099B     		ldr	r3, [sp, #36]
 1008 0cbe D21A     		subs	r2, r2, r3
 1009 0cc0 40F20003 		movw	r3, #:lower16:executionTime5Hz
 1010 0cc4 C0F20003 		movt	r3, #:upper16:executionTime5Hz
 1011 0cc8 1A60     		str	r2, [r3, #0]
 1012              	.L24:
 1013 0cca 40F20003 		movw	r3, #:lower16:frame_1Hz
 1014 0cce C0F20003 		movt	r3, #:upper16:frame_1Hz
 1015 0cd2 1B78     		ldrb	r3, [r3, #0]	@ zero_extendqisi2
 1016 0cd4 002B     		cmp	r3, #0
 1017 0cd6 3FF4A0A9 		beq	.L31
 1018 0cda 40F20003 		movw	r3, #:lower16:frame_1Hz
 1019 0cde C0F20003 		movt	r3, #:upper16:frame_1Hz
 1020 0ce2 4FF00002 		mov	r2, #0
 1021 0ce6 1A70     		strb	r2, [r3, #0]
 1022 0ce8 FFF7FEFF 		bl	micros
 1023 0cec 0990     		str	r0, [sp, #36]
 1024 0cee 40F20003 		movw	r3, #:lower16:previous1HzTime
 1025 0cf2 C0F20003 		movt	r3, #:upper16:previous1HzTime
 1026 0cf6 1B68     		ldr	r3, [r3, #0]
 1027 0cf8 099A     		ldr	r2, [sp, #36]
 1028 0cfa D21A     		subs	r2, r2, r3
 1029 0cfc 40F20003 		movw	r3, #:lower16:deltaTime1Hz
 1030 0d00 C0F20003 		movt	r3, #:upper16:deltaTime1Hz
 1031 0d04 1A60     		str	r2, [r3, #0]
 1032 0d06 40F20003 		movw	r3, #:lower16:previous1HzTime
 1033 0d0a C0F20003 		movt	r3, #:upper16:previous1HzTime
 1034 0d0e 099A     		ldr	r2, [sp, #36]
 1035 0d10 1A60     		str	r2, [r3, #0]
 1036 0d12 40F20003 		movw	r3, #:lower16:execUp
 1037 0d16 C0F20003 		movt	r3, #:upper16:execUp
 1038 0d1a 1B78     		ldrb	r3, [r3, #0]	@ zero_extendqisi2
 1039 0d1c 012B     		cmp	r3, #1
 1040 0d1e 07D1     		bne	.L27
 1041 0d20 4FF48050 		mov	r0, #4096
 1042 0d24 C4F20200 		movt	r0, 16386
 1043 0d28 4FF04001 		mov	r1, #64
 1044 0d2c FFF7FEFF 		bl	GPIO_ToggleBits
 1045              	.L27:
 1046 0d30 40F20003 		movw	r3, #:lower16:execUp
 1047 0d34 C0F20003 		movt	r3, #:upper16:execUp
 1048 0d38 1B78     		ldrb	r3, [r3, #0]	@ zero_extendqisi2
 1049 0d3a 002B     		cmp	r3, #0
 1050 0d3c 0CD1     		bne	.L28
 1051 0d3e 40F20003 		movw	r3, #:lower16:execUpCount
 1052 0d42 C0F20003 		movt	r3, #:upper16:execUpCount
 1053 0d46 1B78     		ldrb	r3, [r3, #0]	@ zero_extendqisi2
 1054 0d48 03F10103 		add	r3, r3, #1
 1055 0d4c DAB2     		uxtb	r2, r3
 1056 0d4e 40F20003 		movw	r3, #:lower16:execUpCount
 1057 0d52 C0F20003 		movt	r3, #:upper16:execUpCount
 1058 0d56 1A70     		strb	r2, [r3, #0]
 1059              	.L28:
 1060 0d58 40F20003 		movw	r3, #:lower16:execUpCount
 1061 0d5c C0F20003 		movt	r3, #:upper16:execUpCount
 1062 0d60 1B78     		ldrb	r3, [r3, #0]	@ zero_extendqisi2
 1063 0d62 052B     		cmp	r3, #5
 1064 0d64 06D1     		bne	.L29
 1065 0d66 40F20003 		movw	r3, #:lower16:execUp
 1066 0d6a C0F20003 		movt	r3, #:upper16:execUp
 1067 0d6e 4FF00102 		mov	r2, #1
 1068 0d72 1A70     		strb	r2, [r3, #0]
 1069              	.L29:
 1070 0d74 FFF7FEFF 		bl	micros
 1071 0d78 0246     		mov	r2, r0
 1072 0d7a 099B     		ldr	r3, [sp, #36]
 1073 0d7c D21A     		subs	r2, r2, r3
 1074 0d7e 40F20003 		movw	r3, #:lower16:executionTime1Hz
 1075 0d82 C0F20003 		movt	r3, #:upper16:executionTime1Hz
 1076 0d86 1A60     		str	r2, [r3, #0]
 1077 0d88 FFF747B9 		b	.L31
 1079              		.ident	"GCC: (Sourcery CodeBench Lite 2012.03-56) 4.6.3"
DEFINED SYMBOLS
                            *ABS*:00000000 main.c
                            *COM*:00000001 mtk19ProcessDataState
                            *COM*:00000001 nmeaProcessDataState
                            *COM*:00000001 ubloxProcessDataState
C:\Users\JOHNIH~1\AppData\Local\Temp\cc5hkH4d.s:24     .eeprom:00000000 eepromArray
C:\Users\JOHNIH~1\AppData\Local\Temp\cc5hkH4d.s:21     .eeprom:00000000 $d
                            *COM*:00000350 eepromConfig
C:\Users\JOHNIH~1\AppData\Local\Temp\cc5hkH4d.s:31     .bss:00000000 execUpCount
C:\Users\JOHNIH~1\AppData\Local\Temp\cc5hkH4d.s:32     .bss:00000000 $d
                            *COM*:00000064 sensors
                            *COM*:00000002 timerValue
                            *COM*:0000000f numberString
C:\Users\JOHNIH~1\AppData\Local\Temp\cc5hkH4d.s:37     .rodata:00000000 $d
C:\Users\JOHNIH~1\AppData\Local\Temp\cc5hkH4d.s:38     .rodata:00000000 .LC0
C:\Users\JOHNIH~1\AppData\Local\Temp\cc5hkH4d.s:41     .rodata:00000004 .LC1
C:\Users\JOHNIH~1\AppData\Local\Temp\cc5hkH4d.s:44     .rodata:00000008 .LC2
C:\Users\JOHNIH~1\AppData\Local\Temp\cc5hkH4d.s:47     .text:00000000 $t
C:\Users\JOHNIH~1\AppData\Local\Temp\cc5hkH4d.s:52     .text:00000000 main
C:\Users\JOHNIH~1\AppData\Local\Temp\cc5hkH4d.s:285    .text:000002e0 $d
C:\Users\JOHNIH~1\AppData\Local\Temp\cc5hkH4d.s:290    .text:000002f0 $t
C:\Users\JOHNIH~1\AppData\Local\Temp\cc5hkH4d.s:298    .text:000002fc $d
C:\Users\JOHNIH~1\AppData\Local\Temp\cc5hkH4d.s:303    .text:0000030c $t
C:\Users\JOHNIH~1\AppData\Local\Temp\cc5hkH4d.s:821    .text:00000a48 $d
C:\Users\JOHNIH~1\AppData\Local\Temp\cc5hkH4d.s:825    .text:00000a50 $t

UNDEFINED SYMBOLS
systemInit
systemReady
frame_50Hz
micros
previous50HzTime
deltaTime50Hz
processFlightCommands
displayAltitude
flightMode
displayArtificialHorizon
displayAttitude
displayHeading
executionTime50Hz
frame_10Hz
previous10HzTime
deltaTime10Hz
newMagData
rawMag
magScaleFactor
magDataUpdate
d1Sum
d1Average
calculateTemperature
calculatePressureAltitude
pressureAltValid
cliCom
rfCom
decodeMediaTek3329BinaryMsg
decodeNMEAsentence
decodeUbloxMsg
executionTime10Hz
frame_500Hz
previous500HzTime
deltaTime500Hz
TIM_Cmd
TIM_GetCounter
TIM_SetCounter
dt500Hz
computeMPU6000TCBias
accelSummedSamples500Hz
accelTCBias
gyroSummedSamples500Hz
gyroRTBias
gyroTCBias
MargAHRSupdate
computeAxisCommands
mixTable
writeServos
writeMotors
executionTime500Hz
frame_100Hz
previous100HzTime
deltaTime100Hz
dt100Hz
accelSummedSamples100Hz
createRotationMatrix
bodyAccelToEarthAccel
vertCompFilter
highSpeedTelem1Enabled
ftoa
uart3Print
highSpeedTelem2Enabled
highSpeedTelem3Enabled
rxCommand
highSpeedTelem4Enabled
highSpeedTelem5Enabled
highSpeedTelem6Enabled
highSpeedTelem7Enabled
earthAxisAccels
hDotEstimate
hEstimate
executionTime100Hz
frame_5Hz
previous5HzTime
deltaTime5Hz
execUp
GPIO_ToggleBits
executionTime5Hz
frame_1Hz
previous1HzTime
deltaTime1Hz
executionTime1Hz
