   1              		.syntax unified
   2              		.cpu cortex-m4
   3              		.eabi_attribute 27, 3
   4              		.fpu fpv4-sp-d16
   5              		.eabi_attribute 20, 1
   6              		.eabi_attribute 21, 1
   7              		.eabi_attribute 23, 3
   8              		.eabi_attribute 24, 1
   9              		.eabi_attribute 25, 1
  10              		.eabi_attribute 26, 1
  11              		.eabi_attribute 30, 6
  12              		.eabi_attribute 34, 1
  13              		.eabi_attribute 18, 4
  14              		.thumb
  15              		.file	"MargAHRS.c"
  16              		.global	exAcc
  17              		.bss
  18              		.align	2
  21              	exAcc:
  22 0000 00000000 		.space	4
  23              		.global	eyAcc
  24              		.align	2
  27              	eyAcc:
  28 0004 00000000 		.space	4
  29              		.global	ezAcc
  30              		.align	2
  33              	ezAcc:
  34 0008 00000000 		.space	4
  35              		.global	exAccInt
  36              		.align	2
  39              	exAccInt:
  40 000c 00000000 		.space	4
  41              		.global	eyAccInt
  42              		.align	2
  45              	eyAccInt:
  46 0010 00000000 		.space	4
  47              		.global	ezAccInt
  48              		.align	2
  51              	ezAccInt:
  52 0014 00000000 		.space	4
  53              		.global	exMag
  54              		.align	2
  57              	exMag:
  58 0018 00000000 		.space	4
  59              		.global	eyMag
  60              		.align	2
  63              	eyMag:
  64 001c 00000000 		.space	4
  65              		.global	ezMag
  66              		.align	2
  69              	ezMag:
  70 0020 00000000 		.space	4
  71              		.global	exMagInt
  72              		.align	2
  75              	exMagInt:
  76 0024 00000000 		.space	4
  77              		.global	eyMagInt
  78              		.align	2
  81              	eyMagInt:
  82 0028 00000000 		.space	4
  83              		.global	ezMagInt
  84              		.align	2
  87              	ezMagInt:
  88 002c 00000000 		.space	4
  89              		.comm	kpAcc,4,4
  90              		.comm	kiAcc,4,4
  91              		.global	q0
  92              		.data
  93              		.align	2
  96              	q0:
  97 0000 0000803F 		.word	1065353216
  98              		.global	q1
  99              		.bss
 100              		.align	2
 103              	q1:
 104 0030 00000000 		.space	4
 105              		.global	q2
 106              		.align	2
 109              	q2:
 110 0034 00000000 		.space	4
 111              		.global	q3
 112              		.align	2
 115              	q3:
 116 0038 00000000 		.space	4
 117              		.comm	q0q0,4,4
 118              		.comm	q0q1,4,4
 119              		.comm	q0q2,4,4
 120              		.comm	q0q3,4,4
 121              		.comm	q1q1,4,4
 122              		.comm	q1q2,4,4
 123              		.comm	q1q3,4,4
 124              		.comm	q2q2,4,4
 125              		.comm	q2q3,4,4
 126              		.comm	q3q3,4,4
 127              		.comm	halfT,4,4
 128              		.global	MargAHRSinitialized
 131              	MargAHRSinitialized:
 132 003c 00       		.space	1
 133              		.global	accConfidenceDecay
 134 003d 000000   		.align	2
 137              	accConfidenceDecay:
 138 0040 00000000 		.space	4
 139              		.global	accConfidence
 140              		.data
 141              		.align	2
 144              	accConfidence:
 145 0004 0000803F 		.word	1065353216
 146              		.global	__aeabi_f2d
 147              		.global	__aeabi_dmul
 148              		.global	__aeabi_dsub
 149              		.global	__aeabi_d2f
 150              		.text
 151              		.align	2
 152              		.global	calculateAccConfidence
 153              		.thumb
 154              		.thumb_func
 156              	calculateAccConfidence:
 157              		@ args = 0, pretend = 0, frame = 8
 158              		@ frame_needed = 0, uses_anonymous_args = 0
 159 0000 30B5     		push	{r4, r5, lr}
 160 0002 83B0     		sub	sp, sp, #12
 161 0004 0190     		str	r0, [sp, #4]	@ float
 162 0006 40F20003 		movw	r3, #:lower16:accelOneG
 163 000a C0F20003 		movt	r3, #:upper16:accelOneG
 164 000e D3ED007A 		flds	s15, [r3, #0]
 165 0012 9DED017A 		flds	s14, [sp, #4]
 166 0016 C7EE277A 		fdivs	s15, s14, s15
 167 001a CDED017A 		fsts	s15, [sp, #4]
 168 001e 40F20003 		movw	r3, #:lower16:accMagP.10920
 169 0022 C0F20003 		movt	r3, #:upper16:accMagP.10920
 170 0026 93ED007A 		flds	s14, [r3, #0]
 171 002a DFED2B7A 		flds	s15, .L2+8
 172 002e 27EE277A 		fmuls	s14, s14, s15
 173 0032 DDED016A 		flds	s13, [sp, #4]
 174 0036 DFED297A 		flds	s15, .L2+12
 175 003a 66EEA77A 		fmuls	s15, s13, s15
 176 003e 77EE277A 		fadds	s15, s14, s15
 177 0042 CDED017A 		fsts	s15, [sp, #4]
 178 0046 40F20003 		movw	r3, #:lower16:accMagP.10920
 179 004a C0F20003 		movt	r3, #:upper16:accMagP.10920
 180 004e 019A     		ldr	r2, [sp, #4]	@ float
 181 0050 1A60     		str	r2, [r3, #0]	@ float
 182 0052 40F20003 		movw	r3, #:lower16:accConfidenceDecay
 183 0056 C0F20003 		movt	r3, #:upper16:accConfidenceDecay
 184 005a 1B68     		ldr	r3, [r3, #0]	@ float
 185 005c 1846     		mov	r0, r3	@ float
 186 005e FFF7FEFF 		bl	__aeabi_f2d
 187 0062 0446     		mov	r4, r0
 188 0064 0D46     		mov	r5, r1
 189 0066 9DED017A 		flds	s14, [sp, #4]
 190 006a F7EE007A 		fconsts	s15, #112
 191 006e 77EE677A 		fsubs	s15, s14, s15
 192 0072 F0EEE77A 		fabss	s15, s15
 193 0076 17EE900A 		fmrs	r0, s15
 194 007a FFF7FEFF 		bl	__aeabi_f2d
 195 007e 0246     		mov	r2, r0
 196 0080 0B46     		mov	r3, r1
 197 0082 1046     		mov	r0, r2
 198 0084 1946     		mov	r1, r3
 199 0086 FFF7FEFF 		bl	sqrt
 200 008a 0246     		mov	r2, r0
 201 008c 0B46     		mov	r3, r1
 202 008e 2046     		mov	r0, r4
 203 0090 2946     		mov	r1, r5
 204 0092 FFF7FEFF 		bl	__aeabi_dmul
 205 0096 0246     		mov	r2, r0
 206 0098 0B46     		mov	r3, r1
 207 009a 0DA1     		adr	r1, .L2
 208 009c D1E90001 		ldrd	r0, [r1]
 209 00a0 FFF7FEFF 		bl	__aeabi_dsub
 210 00a4 0246     		mov	r2, r0
 211 00a6 0B46     		mov	r3, r1
 212 00a8 1046     		mov	r0, r2
 213 00aa 1946     		mov	r1, r3
 214 00ac FFF7FEFF 		bl	__aeabi_d2f
 215 00b0 0346     		mov	r3, r0	@ float
 216 00b2 1846     		mov	r0, r3	@ float
 217 00b4 0A49     		ldr	r1, .L2+16	@ float
 218 00b6 0B4A     		ldr	r2, .L2+20	@ float
 219 00b8 FFF7FEFF 		bl	constrain
 220 00bc 0246     		mov	r2, r0	@ float
 221 00be 40F20003 		movw	r3, #:lower16:accConfidence
 222 00c2 C0F20003 		movt	r3, #:upper16:accConfidence
 223 00c6 1A60     		str	r2, [r3, #0]	@ float
 224 00c8 03B0     		add	sp, sp, #12
 225 00ca 30BD     		pop	{r4, r5, pc}
 226              	.L3:
 227 00cc AFF30080 		.align	3
 228              	.L2:
 229 00d0 00000000 		.word	0
 230 00d4 0000F03F 		.word	1072693248
 231 00d8 6666663F 		.word	1063675494
 232 00dc CDCCCC3D 		.word	1036831949
 233 00e0 00000000 		.word	0
 234 00e4 0000803F 		.word	1065353216
 236              		.align	2
 237              		.global	MargAHRSinit
 238              		.thumb
 239              		.thumb_func
 241              	MargAHRSinit:
 242              		@ args = 8, pretend = 0, frame = 64
 243              		@ frame_needed = 0, uses_anonymous_args = 0
 244 00e8 30B5     		push	{r4, r5, lr}
 245 00ea 91B0     		sub	sp, sp, #68
 246 00ec 0390     		str	r0, [sp, #12]	@ float
 247 00ee 0291     		str	r1, [sp, #8]	@ float
 248 00f0 0192     		str	r2, [sp, #4]	@ float
 249 00f2 0093     		str	r3, [sp, #0]	@ float
 250 00f4 DDED027A 		flds	s15, [sp, #8]
 251 00f8 F1EE677A 		fnegs	s15, s15
 252 00fc 17EE903A 		fmrs	r3, s15
 253 0100 1846     		mov	r0, r3	@ float
 254 0102 FFF7FEFF 		bl	__aeabi_f2d
 255 0106 0446     		mov	r4, r0
 256 0108 0D46     		mov	r5, r1
 257 010a DDED017A 		flds	s15, [sp, #4]
 258 010e F1EE677A 		fnegs	s15, s15
 259 0112 17EE903A 		fmrs	r3, s15
 260 0116 1846     		mov	r0, r3	@ float
 261 0118 FFF7FEFF 		bl	__aeabi_f2d
 262 011c 0246     		mov	r2, r0
 263 011e 0B46     		mov	r3, r1
 264 0120 2046     		mov	r0, r4
 265 0122 2946     		mov	r1, r5
 266 0124 FFF7FEFF 		bl	atan2
 267 0128 0246     		mov	r2, r0
 268 012a 0B46     		mov	r3, r1
 269 012c 1046     		mov	r0, r2
 270 012e 1946     		mov	r1, r3
 271 0130 FFF7FEFF 		bl	__aeabi_d2f
 272 0134 0346     		mov	r3, r0	@ float
 273 0136 0F93     		str	r3, [sp, #60]	@ float
 274 0138 0398     		ldr	r0, [sp, #12]	@ float
 275 013a FFF7FEFF 		bl	__aeabi_f2d
 276 013e 0446     		mov	r4, r0
 277 0140 0D46     		mov	r5, r1
 278 0142 DDED017A 		flds	s15, [sp, #4]
 279 0146 F1EE677A 		fnegs	s15, s15
 280 014a 17EE903A 		fmrs	r3, s15
 281 014e 1846     		mov	r0, r3	@ float
 282 0150 FFF7FEFF 		bl	__aeabi_f2d
 283 0154 0246     		mov	r2, r0
 284 0156 0B46     		mov	r3, r1
 285 0158 2046     		mov	r0, r4
 286 015a 2946     		mov	r1, r5
 287 015c FFF7FEFF 		bl	atan2
 288 0160 0246     		mov	r2, r0
 289 0162 0B46     		mov	r3, r1
 290 0164 1046     		mov	r0, r2
 291 0166 1946     		mov	r1, r3
 292 0168 FFF7FEFF 		bl	__aeabi_d2f
 293 016c 0346     		mov	r3, r0	@ float
 294 016e 0E93     		str	r3, [sp, #56]	@ float
 295 0170 0F98     		ldr	r0, [sp, #60]	@ float
 296 0172 FFF7FEFF 		bl	cosf
 297 0176 0D90     		str	r0, [sp, #52]	@ float
 298 0178 0F98     		ldr	r0, [sp, #60]	@ float
 299 017a FFF7FEFF 		bl	sinf
 300 017e 0C90     		str	r0, [sp, #48]	@ float
 301 0180 0E98     		ldr	r0, [sp, #56]	@ float
 302 0182 FFF7FEFF 		bl	cosf
 303 0186 0B90     		str	r0, [sp, #44]	@ float
 304 0188 0E98     		ldr	r0, [sp, #56]	@ float
 305 018a FFF7FEFF 		bl	sinf
 306 018e 0A90     		str	r0, [sp, #40]	@ float
 307 0190 9DED007A 		flds	s14, [sp, #0]
 308 0194 DDED0B7A 		flds	s15, [sp, #44]
 309 0198 27EE277A 		fmuls	s14, s14, s15
 310 019c DDED146A 		flds	s13, [sp, #80]
 311 01a0 DDED0C7A 		flds	s15, [sp, #48]
 312 01a4 66EEA77A 		fmuls	s15, s13, s15
 313 01a8 DDED0A6A 		flds	s13, [sp, #40]
 314 01ac 67EEA67A 		fmuls	s15, s15, s13
 315 01b0 37EE277A 		fadds	s14, s14, s15
 316 01b4 DDED156A 		flds	s13, [sp, #84]
 317 01b8 DDED0D7A 		flds	s15, [sp, #52]
 318 01bc 66EEA77A 		fmuls	s15, s13, s15
 319 01c0 DDED0A6A 		flds	s13, [sp, #40]
 320 01c4 67EEA67A 		fmuls	s15, s15, s13
 321 01c8 77EE277A 		fadds	s15, s14, s15
 322 01cc CDED097A 		fsts	s15, [sp, #36]
 323 01d0 9DED147A 		flds	s14, [sp, #80]
 324 01d4 DDED0D7A 		flds	s15, [sp, #52]
 325 01d8 27EE277A 		fmuls	s14, s14, s15
 326 01dc DDED156A 		flds	s13, [sp, #84]
 327 01e0 DDED0C7A 		flds	s15, [sp, #48]
 328 01e4 66EEA77A 		fmuls	s15, s13, s15
 329 01e8 77EE677A 		fsubs	s15, s14, s15
 330 01ec CDED087A 		fsts	s15, [sp, #32]
 331 01f0 DDED087A 		flds	s15, [sp, #32]
 332 01f4 F1EE677A 		fnegs	s15, s15
 333 01f8 17EE903A 		fmrs	r3, s15
 334 01fc 1846     		mov	r0, r3	@ float
 335 01fe 0999     		ldr	r1, [sp, #36]	@ float
 336 0200 FFF7FEFF 		bl	atan2f
 337 0204 0790     		str	r0, [sp, #28]	@ float
 338 0206 9DED0F7A 		flds	s14, [sp, #60]
 339 020a F6EE007A 		fconsts	s15, #96
 340 020e 67EE277A 		fmuls	s15, s14, s15
 341 0212 17EE900A 		fmrs	r0, s15
 342 0216 FFF7FEFF 		bl	cosf
 343 021a 0D90     		str	r0, [sp, #52]	@ float
 344 021c 9DED0F7A 		flds	s14, [sp, #60]
 345 0220 F6EE007A 		fconsts	s15, #96
 346 0224 67EE277A 		fmuls	s15, s14, s15
 347 0228 17EE900A 		fmrs	r0, s15
 348 022c FFF7FEFF 		bl	sinf
 349 0230 0C90     		str	r0, [sp, #48]	@ float
 350 0232 9DED0E7A 		flds	s14, [sp, #56]
 351 0236 F6EE007A 		fconsts	s15, #96
 352 023a 67EE277A 		fmuls	s15, s14, s15
 353 023e 17EE900A 		fmrs	r0, s15
 354 0242 FFF7FEFF 		bl	cosf
 355 0246 0B90     		str	r0, [sp, #44]	@ float
 356 0248 9DED0E7A 		flds	s14, [sp, #56]
 357 024c F6EE007A 		fconsts	s15, #96
 358 0250 67EE277A 		fmuls	s15, s14, s15
 359 0254 17EE900A 		fmrs	r0, s15
 360 0258 FFF7FEFF 		bl	sinf
 361 025c 0A90     		str	r0, [sp, #40]	@ float
 362 025e 9DED077A 		flds	s14, [sp, #28]
 363 0262 F6EE007A 		fconsts	s15, #96
 364 0266 67EE277A 		fmuls	s15, s14, s15
 365 026a 17EE900A 		fmrs	r0, s15
 366 026e FFF7FEFF 		bl	cosf
 367 0272 0690     		str	r0, [sp, #24]	@ float
 368 0274 9DED077A 		flds	s14, [sp, #28]
 369 0278 F6EE007A 		fconsts	s15, #96
 370 027c 67EE277A 		fmuls	s15, s14, s15
 371 0280 17EE900A 		fmrs	r0, s15
 372 0284 FFF7FEFF 		bl	sinf
 373 0288 0590     		str	r0, [sp, #20]	@ float
 374 028a 9DED0D7A 		flds	s14, [sp, #52]
 375 028e DDED0B7A 		flds	s15, [sp, #44]
 376 0292 67EE277A 		fmuls	s15, s14, s15
 377 0296 9DED067A 		flds	s14, [sp, #24]
 378 029a 27EE877A 		fmuls	s14, s15, s14
 379 029e DDED0C6A 		flds	s13, [sp, #48]
 380 02a2 DDED0A7A 		flds	s15, [sp, #40]
 381 02a6 66EEA77A 		fmuls	s15, s13, s15
 382 02aa DDED056A 		flds	s13, [sp, #20]
 383 02ae 67EEA67A 		fmuls	s15, s15, s13
 384 02b2 77EE277A 		fadds	s15, s14, s15
 385 02b6 40F20003 		movw	r3, #:lower16:q0
 386 02ba C0F20003 		movt	r3, #:upper16:q0
 387 02be C3ED007A 		fsts	s15, [r3, #0]
 388 02c2 9DED0C7A 		flds	s14, [sp, #48]
 389 02c6 DDED0B7A 		flds	s15, [sp, #44]
 390 02ca 67EE277A 		fmuls	s15, s14, s15
 391 02ce 9DED067A 		flds	s14, [sp, #24]
 392 02d2 27EE877A 		fmuls	s14, s15, s14
 393 02d6 DDED0D6A 		flds	s13, [sp, #52]
 394 02da DDED0A7A 		flds	s15, [sp, #40]
 395 02de 66EEA77A 		fmuls	s15, s13, s15
 396 02e2 DDED056A 		flds	s13, [sp, #20]
 397 02e6 67EEA67A 		fmuls	s15, s15, s13
 398 02ea 77EE677A 		fsubs	s15, s14, s15
 399 02ee 40F20003 		movw	r3, #:lower16:q1
 400 02f2 C0F20003 		movt	r3, #:upper16:q1
 401 02f6 C3ED007A 		fsts	s15, [r3, #0]
 402 02fa 9DED0D7A 		flds	s14, [sp, #52]
 403 02fe DDED0A7A 		flds	s15, [sp, #40]
 404 0302 67EE277A 		fmuls	s15, s14, s15
 405 0306 9DED067A 		flds	s14, [sp, #24]
 406 030a 27EE877A 		fmuls	s14, s15, s14
 407 030e DDED0C6A 		flds	s13, [sp, #48]
 408 0312 DDED0B7A 		flds	s15, [sp, #44]
 409 0316 66EEA77A 		fmuls	s15, s13, s15
 410 031a DDED056A 		flds	s13, [sp, #20]
 411 031e 67EEA67A 		fmuls	s15, s15, s13
 412 0322 77EE277A 		fadds	s15, s14, s15
 413 0326 40F20003 		movw	r3, #:lower16:q2
 414 032a C0F20003 		movt	r3, #:upper16:q2
 415 032e C3ED007A 		fsts	s15, [r3, #0]
 416 0332 9DED0D7A 		flds	s14, [sp, #52]
 417 0336 DDED0B7A 		flds	s15, [sp, #44]
 418 033a 67EE277A 		fmuls	s15, s14, s15
 419 033e 9DED057A 		flds	s14, [sp, #20]
 420 0342 27EE877A 		fmuls	s14, s15, s14
 421 0346 DDED0C6A 		flds	s13, [sp, #48]
 422 034a DDED0A7A 		flds	s15, [sp, #40]
 423 034e 66EEA77A 		fmuls	s15, s13, s15
 424 0352 DDED066A 		flds	s13, [sp, #24]
 425 0356 67EEA67A 		fmuls	s15, s15, s13
 426 035a 77EE677A 		fsubs	s15, s14, s15
 427 035e 40F20003 		movw	r3, #:lower16:q3
 428 0362 C0F20003 		movt	r3, #:upper16:q3
 429 0366 C3ED007A 		fsts	s15, [r3, #0]
 430 036a 40F20003 		movw	r3, #:lower16:q0
 431 036e C0F20003 		movt	r3, #:upper16:q0
 432 0372 93ED007A 		flds	s14, [r3, #0]
 433 0376 40F20003 		movw	r3, #:lower16:q0
 434 037a C0F20003 		movt	r3, #:upper16:q0
 435 037e D3ED007A 		flds	s15, [r3, #0]
 436 0382 67EE277A 		fmuls	s15, s14, s15
 437 0386 40F20003 		movw	r3, #:lower16:q0q0
 438 038a C0F20003 		movt	r3, #:upper16:q0q0
 439 038e C3ED007A 		fsts	s15, [r3, #0]
 440 0392 40F20003 		movw	r3, #:lower16:q0
 441 0396 C0F20003 		movt	r3, #:upper16:q0
 442 039a 93ED007A 		flds	s14, [r3, #0]
 443 039e 40F20003 		movw	r3, #:lower16:q1
 444 03a2 C0F20003 		movt	r3, #:upper16:q1
 445 03a6 D3ED007A 		flds	s15, [r3, #0]
 446 03aa 67EE277A 		fmuls	s15, s14, s15
 447 03ae 40F20003 		movw	r3, #:lower16:q0q1
 448 03b2 C0F20003 		movt	r3, #:upper16:q0q1
 449 03b6 C3ED007A 		fsts	s15, [r3, #0]
 450 03ba 40F20003 		movw	r3, #:lower16:q0
 451 03be C0F20003 		movt	r3, #:upper16:q0
 452 03c2 93ED007A 		flds	s14, [r3, #0]
 453 03c6 40F20003 		movw	r3, #:lower16:q2
 454 03ca C0F20003 		movt	r3, #:upper16:q2
 455 03ce D3ED007A 		flds	s15, [r3, #0]
 456 03d2 67EE277A 		fmuls	s15, s14, s15
 457 03d6 40F20003 		movw	r3, #:lower16:q0q2
 458 03da C0F20003 		movt	r3, #:upper16:q0q2
 459 03de C3ED007A 		fsts	s15, [r3, #0]
 460 03e2 40F20003 		movw	r3, #:lower16:q0
 461 03e6 C0F20003 		movt	r3, #:upper16:q0
 462 03ea 93ED007A 		flds	s14, [r3, #0]
 463 03ee 40F20003 		movw	r3, #:lower16:q3
 464 03f2 C0F20003 		movt	r3, #:upper16:q3
 465 03f6 D3ED007A 		flds	s15, [r3, #0]
 466 03fa 67EE277A 		fmuls	s15, s14, s15
 467 03fe 40F20003 		movw	r3, #:lower16:q0q3
 468 0402 C0F20003 		movt	r3, #:upper16:q0q3
 469 0406 C3ED007A 		fsts	s15, [r3, #0]
 470 040a 40F20003 		movw	r3, #:lower16:q1
 471 040e C0F20003 		movt	r3, #:upper16:q1
 472 0412 93ED007A 		flds	s14, [r3, #0]
 473 0416 40F20003 		movw	r3, #:lower16:q1
 474 041a C0F20003 		movt	r3, #:upper16:q1
 475 041e D3ED007A 		flds	s15, [r3, #0]
 476 0422 67EE277A 		fmuls	s15, s14, s15
 477 0426 40F20003 		movw	r3, #:lower16:q1q1
 478 042a C0F20003 		movt	r3, #:upper16:q1q1
 479 042e C3ED007A 		fsts	s15, [r3, #0]
 480 0432 40F20003 		movw	r3, #:lower16:q1
 481 0436 C0F20003 		movt	r3, #:upper16:q1
 482 043a 93ED007A 		flds	s14, [r3, #0]
 483 043e 40F20003 		movw	r3, #:lower16:q2
 484 0442 C0F20003 		movt	r3, #:upper16:q2
 485 0446 D3ED007A 		flds	s15, [r3, #0]
 486 044a 67EE277A 		fmuls	s15, s14, s15
 487 044e 40F20003 		movw	r3, #:lower16:q1q2
 488 0452 C0F20003 		movt	r3, #:upper16:q1q2
 489 0456 C3ED007A 		fsts	s15, [r3, #0]
 490 045a 40F20003 		movw	r3, #:lower16:q1
 491 045e C0F20003 		movt	r3, #:upper16:q1
 492 0462 93ED007A 		flds	s14, [r3, #0]
 493 0466 40F20003 		movw	r3, #:lower16:q3
 494 046a C0F20003 		movt	r3, #:upper16:q3
 495 046e D3ED007A 		flds	s15, [r3, #0]
 496 0472 67EE277A 		fmuls	s15, s14, s15
 497 0476 40F20003 		movw	r3, #:lower16:q1q3
 498 047a C0F20003 		movt	r3, #:upper16:q1q3
 499 047e C3ED007A 		fsts	s15, [r3, #0]
 500 0482 40F20003 		movw	r3, #:lower16:q2
 501 0486 C0F20003 		movt	r3, #:upper16:q2
 502 048a 93ED007A 		flds	s14, [r3, #0]
 503 048e 40F20003 		movw	r3, #:lower16:q2
 504 0492 C0F20003 		movt	r3, #:upper16:q2
 505 0496 D3ED007A 		flds	s15, [r3, #0]
 506 049a 67EE277A 		fmuls	s15, s14, s15
 507 049e 40F20003 		movw	r3, #:lower16:q2q2
 508 04a2 C0F20003 		movt	r3, #:upper16:q2q2
 509 04a6 C3ED007A 		fsts	s15, [r3, #0]
 510 04aa 40F20003 		movw	r3, #:lower16:q2
 511 04ae C0F20003 		movt	r3, #:upper16:q2
 512 04b2 93ED007A 		flds	s14, [r3, #0]
 513 04b6 40F20003 		movw	r3, #:lower16:q3
 514 04ba C0F20003 		movt	r3, #:upper16:q3
 515 04be D3ED007A 		flds	s15, [r3, #0]
 516 04c2 67EE277A 		fmuls	s15, s14, s15
 517 04c6 40F20003 		movw	r3, #:lower16:q2q3
 518 04ca C0F20003 		movt	r3, #:upper16:q2q3
 519 04ce C3ED007A 		fsts	s15, [r3, #0]
 520 04d2 40F20003 		movw	r3, #:lower16:q3
 521 04d6 C0F20003 		movt	r3, #:upper16:q3
 522 04da 93ED007A 		flds	s14, [r3, #0]
 523 04de 40F20003 		movw	r3, #:lower16:q3
 524 04e2 C0F20003 		movt	r3, #:upper16:q3
 525 04e6 D3ED007A 		flds	s15, [r3, #0]
 526 04ea 67EE277A 		fmuls	s15, s14, s15
 527 04ee 40F20003 		movw	r3, #:lower16:q3q3
 528 04f2 C0F20003 		movt	r3, #:upper16:q3q3
 529 04f6 C3ED007A 		fsts	s15, [r3, #0]
 530 04fa 11B0     		add	sp, sp, #68
 531 04fc 30BD     		pop	{r4, r5, pc}
 533              		.global	__aeabi_ddiv
 534 04fe 00BF     		.align	2
 535              		.global	MargAHRSupdate
 536              		.thumb
 537              		.thumb_func
 539              	MargAHRSupdate:
 540              		@ args = 32, pretend = 0, frame = 88
 541              		@ frame_needed = 0, uses_anonymous_args = 0
 542 0500 00B5     		push	{lr}
 543 0502 99B0     		sub	sp, sp, #100
 544 0504 0590     		str	r0, [sp, #20]	@ float
 545 0506 0491     		str	r1, [sp, #16]	@ float
 546 0508 0392     		str	r2, [sp, #12]	@ float
 547 050a 0293     		str	r3, [sp, #8]	@ float
 548 050c 40F20003 		movw	r3, #:lower16:MargAHRSinitialized
 549 0510 C0F20003 		movt	r3, #:upper16:MargAHRSinitialized
 550 0514 1B78     		ldrb	r3, [r3, #0]	@ zero_extendqisi2
 551 0516 002B     		cmp	r3, #0
 552 0518 14D1     		bne	.L6
 553 051a 9DF88030 		ldrb	r3, [sp, #128]	@ zero_extendqisi2
 554 051e 012B     		cmp	r3, #1
 555 0520 10D1     		bne	.L6
 556 0522 1D9B     		ldr	r3, [sp, #116]	@ float
 557 0524 0093     		str	r3, [sp, #0]	@ float
 558 0526 1E9B     		ldr	r3, [sp, #120]	@ float
 559 0528 0193     		str	r3, [sp, #4]	@ float
 560 052a 0298     		ldr	r0, [sp, #8]	@ float
 561 052c 1A99     		ldr	r1, [sp, #104]	@ float
 562 052e 1B9A     		ldr	r2, [sp, #108]	@ float
 563 0530 1C9B     		ldr	r3, [sp, #112]	@ float
 564 0532 FFF7FEFF 		bl	MargAHRSinit
 565 0536 40F20003 		movw	r3, #:lower16:MargAHRSinitialized
 566 053a C0F20003 		movt	r3, #:upper16:MargAHRSinitialized
 567 053e 4FF00102 		mov	r2, #1
 568 0542 1A70     		strb	r2, [r3, #0]
 569              	.L6:
 570 0544 40F20003 		movw	r3, #:lower16:MargAHRSinitialized
 571 0548 C0F20003 		movt	r3, #:upper16:MargAHRSinitialized
 572 054c 1B78     		ldrb	r3, [r3, #0]	@ zero_extendqisi2
 573 054e 012B     		cmp	r3, #1
 574 0550 40F07687 		bne	.L5
 575 0554 9DED217A 		flds	s14, [sp, #132]
 576 0558 F6EE007A 		fconsts	s15, #96
 577 055c 67EE277A 		fmuls	s15, s14, s15
 578 0560 40F20003 		movw	r3, #:lower16:halfT
 579 0564 C0F20003 		movt	r3, #:upper16:halfT
 580 0568 C3ED007A 		fsts	s15, [r3, #0]
 581 056c 9DED027A 		flds	s14, [sp, #8]
 582 0570 DDED027A 		flds	s15, [sp, #8]
 583 0574 27EE277A 		fmuls	s14, s14, s15
 584 0578 DDED1A6A 		flds	s13, [sp, #104]
 585 057c DDED1A7A 		flds	s15, [sp, #104]
 586 0580 66EEA77A 		fmuls	s15, s13, s15
 587 0584 37EE277A 		fadds	s14, s14, s15
 588 0588 DDED1B6A 		flds	s13, [sp, #108]
 589 058c DDED1B7A 		flds	s15, [sp, #108]
 590 0590 66EEA77A 		fmuls	s15, s13, s15
 591 0594 77EE277A 		fadds	s15, s14, s15
 592 0598 17EE900A 		fmrs	r0, s15
 593 059c FFF7FEFF 		bl	__aeabi_f2d
 594 05a0 0246     		mov	r2, r0
 595 05a2 0B46     		mov	r3, r1
 596 05a4 1046     		mov	r0, r2
 597 05a6 1946     		mov	r1, r3
 598 05a8 FFF7FEFF 		bl	sqrt
 599 05ac 0246     		mov	r2, r0
 600 05ae 0B46     		mov	r3, r1
 601 05b0 1046     		mov	r0, r2
 602 05b2 1946     		mov	r1, r3
 603 05b4 FFF7FEFF 		bl	__aeabi_d2f
 604 05b8 0346     		mov	r3, r0	@ float
 605 05ba 1793     		str	r3, [sp, #92]	@ float
 606 05bc DDED177A 		flds	s15, [sp, #92]
 607 05c0 F5EE407A 		fcmpzs	s15
 608 05c4 F1EE10FA 		fmstat
 609 05c8 00F09181 		beq	.L8
 610 05cc 1798     		ldr	r0, [sp, #92]	@ float
 611 05ce FFF7FEFF 		bl	calculateAccConfidence
 612 05d2 40F20003 		movw	r3, #:lower16:eepromConfig
 613 05d6 C0F20003 		movt	r3, #:upper16:eepromConfig
 614 05da 93ED117A 		flds	s14, [r3, #68]
 615 05de 40F20003 		movw	r3, #:lower16:accConfidence
 616 05e2 C0F20003 		movt	r3, #:upper16:accConfidence
 617 05e6 D3ED007A 		flds	s15, [r3, #0]
 618 05ea 67EE277A 		fmuls	s15, s14, s15
 619 05ee 40F20003 		movw	r3, #:lower16:kpAcc
 620 05f2 C0F20003 		movt	r3, #:upper16:kpAcc
 621 05f6 C3ED007A 		fsts	s15, [r3, #0]
 622 05fa 40F20003 		movw	r3, #:lower16:eepromConfig
 623 05fe C0F20003 		movt	r3, #:upper16:eepromConfig
 624 0602 93ED127A 		flds	s14, [r3, #72]
 625 0606 40F20003 		movw	r3, #:lower16:accConfidence
 626 060a C0F20003 		movt	r3, #:upper16:accConfidence
 627 060e D3ED007A 		flds	s15, [r3, #0]
 628 0612 67EE277A 		fmuls	s15, s14, s15
 629 0616 40F20003 		movw	r3, #:lower16:kiAcc
 630 061a C0F20003 		movt	r3, #:upper16:kiAcc
 631 061e C3ED007A 		fsts	s15, [r3, #0]
 632 0622 DFF82C3E 		ldr	r3, .L10+8	@ float
 633 0626 DDED177A 		flds	s15, [sp, #92]
 634 062a 07EE103A 		fmsr	s14, r3
 635 062e C7EE277A 		fdivs	s15, s14, s15
 636 0632 CDED167A 		fsts	s15, [sp, #88]
 637 0636 9DED027A 		flds	s14, [sp, #8]
 638 063a DDED167A 		flds	s15, [sp, #88]
 639 063e 67EE277A 		fmuls	s15, s14, s15
 640 0642 CDED027A 		fsts	s15, [sp, #8]
 641 0646 9DED1A7A 		flds	s14, [sp, #104]
 642 064a DDED167A 		flds	s15, [sp, #88]
 643 064e 67EE277A 		fmuls	s15, s14, s15
 644 0652 CDED1A7A 		fsts	s15, [sp, #104]
 645 0656 9DED1B7A 		flds	s14, [sp, #108]
 646 065a DDED167A 		flds	s15, [sp, #88]
 647 065e 67EE277A 		fmuls	s15, s14, s15
 648 0662 CDED1B7A 		fsts	s15, [sp, #108]
 649 0666 40F20003 		movw	r3, #:lower16:q1q3
 650 066a C0F20003 		movt	r3, #:upper16:q1q3
 651 066e 93ED007A 		flds	s14, [r3, #0]
 652 0672 40F20003 		movw	r3, #:lower16:q0q2
 653 0676 C0F20003 		movt	r3, #:upper16:q0q2
 654 067a D3ED007A 		flds	s15, [r3, #0]
 655 067e 77EE677A 		fsubs	s15, s14, s15
 656 0682 77EEA77A 		fadds	s15, s15, s15
 657 0686 CDED157A 		fsts	s15, [sp, #84]
 658 068a 40F20003 		movw	r3, #:lower16:q0q1
 659 068e C0F20003 		movt	r3, #:upper16:q0q1
 660 0692 93ED007A 		flds	s14, [r3, #0]
 661 0696 40F20003 		movw	r3, #:lower16:q2q3
 662 069a C0F20003 		movt	r3, #:upper16:q2q3
 663 069e D3ED007A 		flds	s15, [r3, #0]
 664 06a2 77EE277A 		fadds	s15, s14, s15
 665 06a6 77EEA77A 		fadds	s15, s15, s15
 666 06aa CDED147A 		fsts	s15, [sp, #80]
 667 06ae 40F20003 		movw	r3, #:lower16:q0q0
 668 06b2 C0F20003 		movt	r3, #:upper16:q0q0
 669 06b6 93ED007A 		flds	s14, [r3, #0]
 670 06ba 40F20003 		movw	r3, #:lower16:q1q1
 671 06be C0F20003 		movt	r3, #:upper16:q1q1
 672 06c2 D3ED007A 		flds	s15, [r3, #0]
 673 06c6 37EE677A 		fsubs	s14, s14, s15
 674 06ca 40F20003 		movw	r3, #:lower16:q2q2
 675 06ce C0F20003 		movt	r3, #:upper16:q2q2
 676 06d2 D3ED007A 		flds	s15, [r3, #0]
 677 06d6 37EE677A 		fsubs	s14, s14, s15
 678 06da 40F20003 		movw	r3, #:lower16:q3q3
 679 06de C0F20003 		movt	r3, #:upper16:q3q3
 680 06e2 D3ED007A 		flds	s15, [r3, #0]
 681 06e6 77EE277A 		fadds	s15, s14, s15
 682 06ea CDED137A 		fsts	s15, [sp, #76]
 683 06ee 9DED147A 		flds	s14, [sp, #80]
 684 06f2 DDED1B7A 		flds	s15, [sp, #108]
 685 06f6 27EE277A 		fmuls	s14, s14, s15
 686 06fa DDED136A 		flds	s13, [sp, #76]
 687 06fe DDED1A7A 		flds	s15, [sp, #104]
 688 0702 66EEA77A 		fmuls	s15, s13, s15
 689 0706 77EE677A 		fsubs	s15, s14, s15
 690 070a 40F20003 		movw	r3, #:lower16:exAcc
 691 070e C0F20003 		movt	r3, #:upper16:exAcc
 692 0712 C3ED007A 		fsts	s15, [r3, #0]
 693 0716 9DED137A 		flds	s14, [sp, #76]
 694 071a DDED027A 		flds	s15, [sp, #8]
 695 071e 27EE277A 		fmuls	s14, s14, s15
 696 0722 DDED156A 		flds	s13, [sp, #84]
 697 0726 DDED1B7A 		flds	s15, [sp, #108]
 698 072a 66EEA77A 		fmuls	s15, s13, s15
 699 072e 77EE677A 		fsubs	s15, s14, s15
 700 0732 40F20003 		movw	r3, #:lower16:eyAcc
 701 0736 C0F20003 		movt	r3, #:upper16:eyAcc
 702 073a C3ED007A 		fsts	s15, [r3, #0]
 703 073e 9DED157A 		flds	s14, [sp, #84]
 704 0742 DDED1A7A 		flds	s15, [sp, #104]
 705 0746 27EE277A 		fmuls	s14, s14, s15
 706 074a DDED146A 		flds	s13, [sp, #80]
 707 074e DDED027A 		flds	s15, [sp, #8]
 708 0752 66EEA77A 		fmuls	s15, s13, s15
 709 0756 77EE677A 		fsubs	s15, s14, s15
 710 075a 40F20003 		movw	r3, #:lower16:ezAcc
 711 075e C0F20003 		movt	r3, #:upper16:ezAcc
 712 0762 C3ED007A 		fsts	s15, [r3, #0]
 713 0766 40F20003 		movw	r3, #:lower16:exAcc
 714 076a C0F20003 		movt	r3, #:upper16:exAcc
 715 076e 93ED007A 		flds	s14, [r3, #0]
 716 0772 40F20003 		movw	r3, #:lower16:kpAcc
 717 0776 C0F20003 		movt	r3, #:upper16:kpAcc
 718 077a D3ED007A 		flds	s15, [r3, #0]
 719 077e 67EE277A 		fmuls	s15, s14, s15
 720 0782 9DED057A 		flds	s14, [sp, #20]
 721 0786 77EE277A 		fadds	s15, s14, s15
 722 078a CDED057A 		fsts	s15, [sp, #20]
 723 078e 40F20003 		movw	r3, #:lower16:eyAcc
 724 0792 C0F20003 		movt	r3, #:upper16:eyAcc
 725 0796 93ED007A 		flds	s14, [r3, #0]
 726 079a 40F20003 		movw	r3, #:lower16:kpAcc
 727 079e C0F20003 		movt	r3, #:upper16:kpAcc
 728 07a2 D3ED007A 		flds	s15, [r3, #0]
 729 07a6 67EE277A 		fmuls	s15, s14, s15
 730 07aa 9DED047A 		flds	s14, [sp, #16]
 731 07ae 77EE277A 		fadds	s15, s14, s15
 732 07b2 CDED047A 		fsts	s15, [sp, #16]
 733 07b6 40F20003 		movw	r3, #:lower16:ezAcc
 734 07ba C0F20003 		movt	r3, #:upper16:ezAcc
 735 07be 93ED007A 		flds	s14, [r3, #0]
 736 07c2 40F20003 		movw	r3, #:lower16:kpAcc
 737 07c6 C0F20003 		movt	r3, #:upper16:kpAcc
 738 07ca D3ED007A 		flds	s15, [r3, #0]
 739 07ce 67EE277A 		fmuls	s15, s14, s15
 740 07d2 9DED037A 		flds	s14, [sp, #12]
 741 07d6 77EE277A 		fadds	s15, s14, s15
 742 07da CDED037A 		fsts	s15, [sp, #12]
 743 07de 40F20003 		movw	r3, #:lower16:kiAcc
 744 07e2 C0F20003 		movt	r3, #:upper16:kiAcc
 745 07e6 D3ED007A 		flds	s15, [r3, #0]
 746 07ea F5EEC07A 		fcmpezs	s15
 747 07ee F1EE10FA 		fmstat
 748 07f2 D4BF     		ite	le
 749 07f4 0023     		movle	r3, #0
 750 07f6 0123     		movgt	r3, #1
 751 07f8 DBB2     		uxtb	r3, r3
 752 07fa 002B     		cmp	r3, #0
 753 07fc 77D0     		beq	.L8
 754 07fe 40F20003 		movw	r3, #:lower16:exAcc
 755 0802 C0F20003 		movt	r3, #:upper16:exAcc
 756 0806 93ED007A 		flds	s14, [r3, #0]
 757 080a 40F20003 		movw	r3, #:lower16:kiAcc
 758 080e C0F20003 		movt	r3, #:upper16:kiAcc
 759 0812 D3ED007A 		flds	s15, [r3, #0]
 760 0816 67EE277A 		fmuls	s15, s14, s15
 761 081a 40F20003 		movw	r3, #:lower16:exAccInt
 762 081e C0F20003 		movt	r3, #:upper16:exAccInt
 763 0822 93ED007A 		flds	s14, [r3, #0]
 764 0826 77EE877A 		fadds	s15, s15, s14
 765 082a 40F20003 		movw	r3, #:lower16:exAccInt
 766 082e C0F20003 		movt	r3, #:upper16:exAccInt
 767 0832 C3ED007A 		fsts	s15, [r3, #0]
 768 0836 40F20003 		movw	r3, #:lower16:eyAcc
 769 083a C0F20003 		movt	r3, #:upper16:eyAcc
 770 083e 93ED007A 		flds	s14, [r3, #0]
 771 0842 40F20003 		movw	r3, #:lower16:kiAcc
 772 0846 C0F20003 		movt	r3, #:upper16:kiAcc
 773 084a D3ED007A 		flds	s15, [r3, #0]
 774 084e 67EE277A 		fmuls	s15, s14, s15
 775 0852 40F20003 		movw	r3, #:lower16:eyAccInt
 776 0856 C0F20003 		movt	r3, #:upper16:eyAccInt
 777 085a 93ED007A 		flds	s14, [r3, #0]
 778 085e 77EE877A 		fadds	s15, s15, s14
 779 0862 40F20003 		movw	r3, #:lower16:eyAccInt
 780 0866 C0F20003 		movt	r3, #:upper16:eyAccInt
 781 086a C3ED007A 		fsts	s15, [r3, #0]
 782 086e 40F20003 		movw	r3, #:lower16:ezAcc
 783 0872 C0F20003 		movt	r3, #:upper16:ezAcc
 784 0876 93ED007A 		flds	s14, [r3, #0]
 785 087a 40F20003 		movw	r3, #:lower16:kiAcc
 786 087e C0F20003 		movt	r3, #:upper16:kiAcc
 787 0882 D3ED007A 		flds	s15, [r3, #0]
 788 0886 67EE277A 		fmuls	s15, s14, s15
 789 088a 40F20003 		movw	r3, #:lower16:ezAccInt
 790 088e C0F20003 		movt	r3, #:upper16:ezAccInt
 791 0892 93ED007A 		flds	s14, [r3, #0]
 792 0896 77EE877A 		fadds	s15, s15, s14
 793 089a 40F20003 		movw	r3, #:lower16:ezAccInt
 794 089e C0F20003 		movt	r3, #:upper16:ezAccInt
 795 08a2 C3ED007A 		fsts	s15, [r3, #0]
 796 08a6 40F20003 		movw	r3, #:lower16:exAccInt
 797 08aa C0F20003 		movt	r3, #:upper16:exAccInt
 798 08ae D3ED007A 		flds	s15, [r3, #0]
 799 08b2 9DED057A 		flds	s14, [sp, #20]
 800 08b6 77EE277A 		fadds	s15, s14, s15
 801 08ba CDED057A 		fsts	s15, [sp, #20]
 802 08be 40F20003 		movw	r3, #:lower16:eyAccInt
 803 08c2 C0F20003 		movt	r3, #:upper16:eyAccInt
 804 08c6 D3ED007A 		flds	s15, [r3, #0]
 805 08ca 9DED047A 		flds	s14, [sp, #16]
 806 08ce 77EE277A 		fadds	s15, s14, s15
 807 08d2 CDED047A 		fsts	s15, [sp, #16]
 808 08d6 40F20003 		movw	r3, #:lower16:ezAccInt
 809 08da C0F20003 		movt	r3, #:upper16:ezAccInt
 810 08de D3ED007A 		flds	s15, [r3, #0]
 811 08e2 9DED037A 		flds	s14, [sp, #12]
 812 08e6 77EE277A 		fadds	s15, s14, s15
 813 08ea CDED037A 		fsts	s15, [sp, #12]
 814              	.L8:
 815 08ee 9DED1C7A 		flds	s14, [sp, #112]
 816 08f2 DDED1C7A 		flds	s15, [sp, #112]
 817 08f6 27EE277A 		fmuls	s14, s14, s15
 818 08fa DDED1D6A 		flds	s13, [sp, #116]
 819 08fe DDED1D7A 		flds	s15, [sp, #116]
 820 0902 66EEA77A 		fmuls	s15, s13, s15
 821 0906 37EE277A 		fadds	s14, s14, s15
 822 090a DDED1E6A 		flds	s13, [sp, #120]
 823 090e DDED1E7A 		flds	s15, [sp, #120]
 824 0912 66EEA77A 		fmuls	s15, s13, s15
 825 0916 77EE277A 		fadds	s15, s14, s15
 826 091a 17EE900A 		fmrs	r0, s15
 827 091e FFF7FEFF 		bl	__aeabi_f2d
 828 0922 0246     		mov	r2, r0
 829 0924 0B46     		mov	r3, r1
 830 0926 1046     		mov	r0, r2
 831 0928 1946     		mov	r1, r3
 832 092a FFF7FEFF 		bl	sqrt
 833 092e 0246     		mov	r2, r0
 834 0930 0B46     		mov	r3, r1
 835 0932 1046     		mov	r0, r2
 836 0934 1946     		mov	r1, r3
 837 0936 FFF7FEFF 		bl	__aeabi_d2f
 838 093a 0346     		mov	r3, r0	@ float
 839 093c 1793     		str	r3, [sp, #92]	@ float
 840 093e 9DF88030 		ldrb	r3, [sp, #128]	@ zero_extendqisi2
 841 0942 012B     		cmp	r3, #1
 842 0944 40F09882 		bne	.L9
 843 0948 DDED177A 		flds	s15, [sp, #92]
 844 094c F5EE407A 		fcmpzs	s15
 845 0950 F1EE10FA 		fmstat
 846 0954 00F09082 		beq	.L9
 847 0958 DFF8F43A 		ldr	r3, .L10+8	@ float
 848 095c DDED177A 		flds	s15, [sp, #92]
 849 0960 07EE103A 		fmsr	s14, r3
 850 0964 C7EE277A 		fdivs	s15, s14, s15
 851 0968 CDED167A 		fsts	s15, [sp, #88]
 852 096c 9DED1C7A 		flds	s14, [sp, #112]
 853 0970 DDED167A 		flds	s15, [sp, #88]
 854 0974 67EE277A 		fmuls	s15, s14, s15
 855 0978 CDED1C7A 		fsts	s15, [sp, #112]
 856 097c 9DED1D7A 		flds	s14, [sp, #116]
 857 0980 DDED167A 		flds	s15, [sp, #88]
 858 0984 67EE277A 		fmuls	s15, s14, s15
 859 0988 CDED1D7A 		fsts	s15, [sp, #116]
 860 098c 9DED1E7A 		flds	s14, [sp, #120]
 861 0990 DDED167A 		flds	s15, [sp, #88]
 862 0994 67EE277A 		fmuls	s15, s14, s15
 863 0998 CDED1E7A 		fsts	s15, [sp, #120]
 864 099c 40F20003 		movw	r3, #:lower16:q2q2
 865 09a0 C0F20003 		movt	r3, #:upper16:q2q2
 866 09a4 D3ED007A 		flds	s15, [r3, #0]
 867 09a8 B6EE007A 		fconsts	s14, #96
 868 09ac 37EE677A 		fsubs	s14, s14, s15
 869 09b0 40F20003 		movw	r3, #:lower16:q3q3
 870 09b4 C0F20003 		movt	r3, #:upper16:q3q3
 871 09b8 D3ED007A 		flds	s15, [r3, #0]
 872 09bc 37EE677A 		fsubs	s14, s14, s15
 873 09c0 DDED1C7A 		flds	s15, [sp, #112]
 874 09c4 27EE277A 		fmuls	s14, s14, s15
 875 09c8 40F20003 		movw	r3, #:lower16:q1q2
 876 09cc C0F20003 		movt	r3, #:upper16:q1q2
 877 09d0 D3ED006A 		flds	s13, [r3, #0]
 878 09d4 40F20003 		movw	r3, #:lower16:q0q3
 879 09d8 C0F20003 		movt	r3, #:upper16:q0q3
 880 09dc D3ED007A 		flds	s15, [r3, #0]
 881 09e0 76EEE76A 		fsubs	s13, s13, s15
 882 09e4 DDED1D7A 		flds	s15, [sp, #116]
 883 09e8 66EEA77A 		fmuls	s15, s13, s15
 884 09ec 37EE277A 		fadds	s14, s14, s15
 885 09f0 40F20003 		movw	r3, #:lower16:q1q3
 886 09f4 C0F20003 		movt	r3, #:upper16:q1q3
 887 09f8 D3ED006A 		flds	s13, [r3, #0]
 888 09fc 40F20003 		movw	r3, #:lower16:q0q2
 889 0a00 C0F20003 		movt	r3, #:upper16:q0q2
 890 0a04 D3ED007A 		flds	s15, [r3, #0]
 891 0a08 76EEA76A 		fadds	s13, s13, s15
 892 0a0c DDED1E7A 		flds	s15, [sp, #120]
 893 0a10 66EEA77A 		fmuls	s15, s13, s15
 894 0a14 77EE277A 		fadds	s15, s14, s15
 895 0a18 77EEA77A 		fadds	s15, s15, s15
 896 0a1c CDED127A 		fsts	s15, [sp, #72]
 897 0a20 40F20003 		movw	r3, #:lower16:q1q2
 898 0a24 C0F20003 		movt	r3, #:upper16:q1q2
 899 0a28 93ED007A 		flds	s14, [r3, #0]
 900 0a2c 40F20003 		movw	r3, #:lower16:q0q3
 901 0a30 C0F20003 		movt	r3, #:upper16:q0q3
 902 0a34 D3ED007A 		flds	s15, [r3, #0]
 903 0a38 37EE277A 		fadds	s14, s14, s15
 904 0a3c DDED1C7A 		flds	s15, [sp, #112]
 905 0a40 27EE277A 		fmuls	s14, s14, s15
 906 0a44 40F20003 		movw	r3, #:lower16:q1q1
 907 0a48 C0F20003 		movt	r3, #:upper16:q1q1
 908 0a4c D3ED007A 		flds	s15, [r3, #0]
 909 0a50 F6EE006A 		fconsts	s13, #96
 910 0a54 76EEE76A 		fsubs	s13, s13, s15
 911 0a58 40F20003 		movw	r3, #:lower16:q3q3
 912 0a5c C0F20003 		movt	r3, #:upper16:q3q3
 913 0a60 D3ED007A 		flds	s15, [r3, #0]
 914 0a64 76EEE76A 		fsubs	s13, s13, s15
 915 0a68 DDED1D7A 		flds	s15, [sp, #116]
 916 0a6c 66EEA77A 		fmuls	s15, s13, s15
 917 0a70 37EE277A 		fadds	s14, s14, s15
 918 0a74 40F20003 		movw	r3, #:lower16:q2q3
 919 0a78 C0F20003 		movt	r3, #:upper16:q2q3
 920 0a7c D3ED006A 		flds	s13, [r3, #0]
 921 0a80 40F20003 		movw	r3, #:lower16:q0q1
 922 0a84 C0F20003 		movt	r3, #:upper16:q0q1
 923 0a88 D3ED007A 		flds	s15, [r3, #0]
 924 0a8c 76EEE76A 		fsubs	s13, s13, s15
 925 0a90 DDED1E7A 		flds	s15, [sp, #120]
 926 0a94 66EEA77A 		fmuls	s15, s13, s15
 927 0a98 77EE277A 		fadds	s15, s14, s15
 928 0a9c 77EEA77A 		fadds	s15, s15, s15
 929 0aa0 CDED117A 		fsts	s15, [sp, #68]
 930 0aa4 40F20003 		movw	r3, #:lower16:q1q3
 931 0aa8 C0F20003 		movt	r3, #:upper16:q1q3
 932 0aac 93ED007A 		flds	s14, [r3, #0]
 933 0ab0 40F20003 		movw	r3, #:lower16:q0q2
 934 0ab4 C0F20003 		movt	r3, #:upper16:q0q2
 935 0ab8 D3ED007A 		flds	s15, [r3, #0]
 936 0abc 37EE677A 		fsubs	s14, s14, s15
 937 0ac0 DDED1C7A 		flds	s15, [sp, #112]
 938 0ac4 27EE277A 		fmuls	s14, s14, s15
 939 0ac8 40F20003 		movw	r3, #:lower16:q2q3
 940 0acc C0F20003 		movt	r3, #:upper16:q2q3
 941 0ad0 D3ED006A 		flds	s13, [r3, #0]
 942 0ad4 40F20003 		movw	r3, #:lower16:q0q1
 943 0ad8 C0F20003 		movt	r3, #:upper16:q0q1
 944 0adc D3ED007A 		flds	s15, [r3, #0]
 945 0ae0 76EEA76A 		fadds	s13, s13, s15
 946 0ae4 DDED1D7A 		flds	s15, [sp, #116]
 947 0ae8 66EEA77A 		fmuls	s15, s13, s15
 948 0aec 37EE277A 		fadds	s14, s14, s15
 949 0af0 40F20003 		movw	r3, #:lower16:q1q1
 950 0af4 C0F20003 		movt	r3, #:upper16:q1q1
 951 0af8 D3ED007A 		flds	s15, [r3, #0]
 952 0afc F6EE006A 		fconsts	s13, #96
 953 0b00 76EEE76A 		fsubs	s13, s13, s15
 954 0b04 40F20003 		movw	r3, #:lower16:q2q2
 955 0b08 C0F20003 		movt	r3, #:upper16:q2q2
 956 0b0c D3ED007A 		flds	s15, [r3, #0]
 957 0b10 76EEE76A 		fsubs	s13, s13, s15
 958 0b14 DDED1E7A 		flds	s15, [sp, #120]
 959 0b18 66EEA77A 		fmuls	s15, s13, s15
 960 0b1c 77EE277A 		fadds	s15, s14, s15
 961 0b20 77EEA77A 		fadds	s15, s15, s15
 962 0b24 CDED107A 		fsts	s15, [sp, #64]
 963 0b28 9DED127A 		flds	s14, [sp, #72]
 964 0b2c DDED127A 		flds	s15, [sp, #72]
 965 0b30 27EE277A 		fmuls	s14, s14, s15
 966 0b34 DDED116A 		flds	s13, [sp, #68]
 967 0b38 DDED117A 		flds	s15, [sp, #68]
 968 0b3c 66EEA77A 		fmuls	s15, s13, s15
 969 0b40 77EE277A 		fadds	s15, s14, s15
 970 0b44 17EE900A 		fmrs	r0, s15
 971 0b48 FFF7FEFF 		bl	__aeabi_f2d
 972 0b4c 0246     		mov	r2, r0
 973 0b4e 0B46     		mov	r3, r1
 974 0b50 1046     		mov	r0, r2
 975 0b52 1946     		mov	r1, r3
 976 0b54 FFF7FEFF 		bl	sqrt
 977 0b58 0246     		mov	r2, r0
 978 0b5a 0B46     		mov	r3, r1
 979 0b5c 1046     		mov	r0, r2
 980 0b5e 1946     		mov	r1, r3
 981 0b60 FFF7FEFF 		bl	__aeabi_d2f
 982 0b64 0346     		mov	r3, r0	@ float
 983 0b66 0F93     		str	r3, [sp, #60]	@ float
 984 0b68 109B     		ldr	r3, [sp, #64]	@ float
 985 0b6a 0E93     		str	r3, [sp, #56]	@ float
 986 0b6c 40F20003 		movw	r3, #:lower16:q2q2
 987 0b70 C0F20003 		movt	r3, #:upper16:q2q2
 988 0b74 D3ED007A 		flds	s15, [r3, #0]
 989 0b78 B6EE007A 		fconsts	s14, #96
 990 0b7c 37EE677A 		fsubs	s14, s14, s15
 991 0b80 40F20003 		movw	r3, #:lower16:q3q3
 992 0b84 C0F20003 		movt	r3, #:upper16:q3q3
 993 0b88 D3ED007A 		flds	s15, [r3, #0]
 994 0b8c 37EE677A 		fsubs	s14, s14, s15
 995 0b90 DDED0F7A 		flds	s15, [sp, #60]
 996 0b94 27EE277A 		fmuls	s14, s14, s15
 997 0b98 40F20003 		movw	r3, #:lower16:q1q3
 998 0b9c C0F20003 		movt	r3, #:upper16:q1q3
 999 0ba0 D3ED006A 		flds	s13, [r3, #0]
 1000 0ba4 40F20003 		movw	r3, #:lower16:q0q2
 1001 0ba8 C0F20003 		movt	r3, #:upper16:q0q2
 1002 0bac D3ED007A 		flds	s15, [r3, #0]
 1003 0bb0 76EEE76A 		fsubs	s13, s13, s15
 1004 0bb4 DDED0E7A 		flds	s15, [sp, #56]
 1005 0bb8 66EEA77A 		fmuls	s15, s13, s15
 1006 0bbc 77EE277A 		fadds	s15, s14, s15
 1007 0bc0 77EEA77A 		fadds	s15, s15, s15
 1008 0bc4 CDED0D7A 		fsts	s15, [sp, #52]
 1009 0bc8 40F20003 		movw	r3, #:lower16:q1q2
 1010 0bcc C0F20003 		movt	r3, #:upper16:q1q2
 1011 0bd0 93ED007A 		flds	s14, [r3, #0]
 1012 0bd4 40F20003 		movw	r3, #:lower16:q0q3
 1013 0bd8 C0F20003 		movt	r3, #:upper16:q0q3
 1014 0bdc D3ED007A 		flds	s15, [r3, #0]
 1015 0be0 37EE677A 		fsubs	s14, s14, s15
 1016 0be4 DDED0F7A 		flds	s15, [sp, #60]
 1017 0be8 27EE277A 		fmuls	s14, s14, s15
 1018 0bec 40F20003 		movw	r3, #:lower16:q0q1
 1019 0bf0 C0F20003 		movt	r3, #:upper16:q0q1
 1020 0bf4 D3ED006A 		flds	s13, [r3, #0]
 1021 0bf8 40F20003 		movw	r3, #:lower16:q2q3
 1022 0bfc C0F20003 		movt	r3, #:upper16:q2q3
 1023 0c00 D3ED007A 		flds	s15, [r3, #0]
 1024 0c04 76EEA76A 		fadds	s13, s13, s15
 1025 0c08 DDED0E7A 		flds	s15, [sp, #56]
 1026 0c0c 66EEA77A 		fmuls	s15, s13, s15
 1027 0c10 77EE277A 		fadds	s15, s14, s15
 1028 0c14 77EEA77A 		fadds	s15, s15, s15
 1029 0c18 CDED0C7A 		fsts	s15, [sp, #48]
 1030 0c1c 40F20003 		movw	r3, #:lower16:q0q2
 1031 0c20 C0F20003 		movt	r3, #:upper16:q0q2
 1032 0c24 93ED007A 		flds	s14, [r3, #0]
 1033 0c28 40F20003 		movw	r3, #:lower16:q1q3
 1034 0c2c C0F20003 		movt	r3, #:upper16:q1q3
 1035 0c30 D3ED007A 		flds	s15, [r3, #0]
 1036 0c34 37EE277A 		fadds	s14, s14, s15
 1037 0c38 DDED0F7A 		flds	s15, [sp, #60]
 1038 0c3c 27EE277A 		fmuls	s14, s14, s15
 1039 0c40 40F20003 		movw	r3, #:lower16:q1q1
 1040 0c44 C0F20003 		movt	r3, #:upper16:q1q1
 1041 0c48 D3ED007A 		flds	s15, [r3, #0]
 1042 0c4c F6EE006A 		fconsts	s13, #96
 1043 0c50 76EEE76A 		fsubs	s13, s13, s15
 1044 0c54 40F20003 		movw	r3, #:lower16:q2q2
 1045 0c58 C0F20003 		movt	r3, #:upper16:q2q2
 1046 0c5c D3ED007A 		flds	s15, [r3, #0]
 1047 0c60 76EEE76A 		fsubs	s13, s13, s15
 1048 0c64 DDED0E7A 		flds	s15, [sp, #56]
 1049 0c68 66EEA77A 		fmuls	s15, s13, s15
 1050 0c6c 77EE277A 		fadds	s15, s14, s15
 1051 0c70 77EEA77A 		fadds	s15, s15, s15
 1052 0c74 CDED0B7A 		fsts	s15, [sp, #44]
 1053 0c78 9DED1D7A 		flds	s14, [sp, #116]
 1054 0c7c DDED0B7A 		flds	s15, [sp, #44]
 1055 0c80 27EE277A 		fmuls	s14, s14, s15
 1056 0c84 DDED1E6A 		flds	s13, [sp, #120]
 1057 0c88 DDED0C7A 		flds	s15, [sp, #48]
 1058 0c8c 66EEA77A 		fmuls	s15, s13, s15
 1059 0c90 77EE677A 		fsubs	s15, s14, s15
 1060 0c94 40F20003 		movw	r3, #:lower16:exMag
 1061 0c98 C0F20003 		movt	r3, #:upper16:exMag
 1062 0c9c C3ED007A 		fsts	s15, [r3, #0]
 1063 0ca0 9DED1E7A 		flds	s14, [sp, #120]
 1064 0ca4 DDED0D7A 		flds	s15, [sp, #52]
 1065 0ca8 27EE277A 		fmuls	s14, s14, s15
 1066 0cac DDED1C6A 		flds	s13, [sp, #112]
 1067 0cb0 DDED0B7A 		flds	s15, [sp, #44]
 1068 0cb4 66EEA77A 		fmuls	s15, s13, s15
 1069 0cb8 77EE677A 		fsubs	s15, s14, s15
 1070 0cbc 40F20003 		movw	r3, #:lower16:eyMag
 1071 0cc0 C0F20003 		movt	r3, #:upper16:eyMag
 1072 0cc4 C3ED007A 		fsts	s15, [r3, #0]
 1073 0cc8 9DED1C7A 		flds	s14, [sp, #112]
 1074 0ccc DDED0C7A 		flds	s15, [sp, #48]
 1075 0cd0 27EE277A 		fmuls	s14, s14, s15
 1076 0cd4 DDED1D6A 		flds	s13, [sp, #116]
 1077 0cd8 DDED0D7A 		flds	s15, [sp, #52]
 1078 0cdc 66EEA77A 		fmuls	s15, s13, s15
 1079 0ce0 77EE677A 		fsubs	s15, s14, s15
 1080 0ce4 40F20003 		movw	r3, #:lower16:ezMag
 1081 0ce8 C0F20003 		movt	r3, #:upper16:ezMag
 1082 0cec C3ED007A 		fsts	s15, [r3, #0]
 1083 0cf0 40F20003 		movw	r3, #:lower16:eepromConfig
 1084 0cf4 C0F20003 		movt	r3, #:upper16:eepromConfig
 1085 0cf8 93ED137A 		flds	s14, [r3, #76]
 1086 0cfc 40F20003 		movw	r3, #:lower16:exMag
 1087 0d00 C0F20003 		movt	r3, #:upper16:exMag
 1088 0d04 D3ED007A 		flds	s15, [r3, #0]
 1089 0d08 67EE277A 		fmuls	s15, s14, s15
 1090 0d0c 9DED057A 		flds	s14, [sp, #20]
 1091 0d10 77EE277A 		fadds	s15, s14, s15
 1092 0d14 CDED057A 		fsts	s15, [sp, #20]
 1093 0d18 40F20003 		movw	r3, #:lower16:eepromConfig
 1094 0d1c C0F20003 		movt	r3, #:upper16:eepromConfig
 1095 0d20 93ED137A 		flds	s14, [r3, #76]
 1096 0d24 40F20003 		movw	r3, #:lower16:eyMag
 1097 0d28 C0F20003 		movt	r3, #:upper16:eyMag
 1098 0d2c D3ED007A 		flds	s15, [r3, #0]
 1099 0d30 67EE277A 		fmuls	s15, s14, s15
 1100 0d34 9DED047A 		flds	s14, [sp, #16]
 1101 0d38 77EE277A 		fadds	s15, s14, s15
 1102 0d3c CDED047A 		fsts	s15, [sp, #16]
 1103 0d40 40F20003 		movw	r3, #:lower16:eepromConfig
 1104 0d44 C0F20003 		movt	r3, #:upper16:eepromConfig
 1105 0d48 93ED137A 		flds	s14, [r3, #76]
 1106 0d4c 40F20003 		movw	r3, #:lower16:ezMag
 1107 0d50 C0F20003 		movt	r3, #:upper16:ezMag
 1108 0d54 D3ED007A 		flds	s15, [r3, #0]
 1109 0d58 67EE277A 		fmuls	s15, s14, s15
 1110 0d5c 9DED037A 		flds	s14, [sp, #12]
 1111 0d60 77EE277A 		fadds	s15, s14, s15
 1112 0d64 CDED037A 		fsts	s15, [sp, #12]
 1113 0d68 40F20003 		movw	r3, #:lower16:eepromConfig
 1114 0d6c C0F20003 		movt	r3, #:upper16:eepromConfig
 1115 0d70 D3ED147A 		flds	s15, [r3, #80]
 1116 0d74 F5EEC07A 		fcmpezs	s15
 1117 0d78 F1EE10FA 		fmstat
 1118 0d7c D4BF     		ite	le
 1119 0d7e 0023     		movle	r3, #0
 1120 0d80 0123     		movgt	r3, #1
 1121 0d82 DBB2     		uxtb	r3, r3
 1122 0d84 002B     		cmp	r3, #0
 1123 0d86 77D0     		beq	.L9
 1124 0d88 40F20003 		movw	r3, #:lower16:eepromConfig
 1125 0d8c C0F20003 		movt	r3, #:upper16:eepromConfig
 1126 0d90 93ED147A 		flds	s14, [r3, #80]
 1127 0d94 40F20003 		movw	r3, #:lower16:exMag
 1128 0d98 C0F20003 		movt	r3, #:upper16:exMag
 1129 0d9c D3ED007A 		flds	s15, [r3, #0]
 1130 0da0 67EE277A 		fmuls	s15, s14, s15
 1131 0da4 40F20003 		movw	r3, #:lower16:exMagInt
 1132 0da8 C0F20003 		movt	r3, #:upper16:exMagInt
 1133 0dac 93ED007A 		flds	s14, [r3, #0]
 1134 0db0 77EE877A 		fadds	s15, s15, s14
 1135 0db4 40F20003 		movw	r3, #:lower16:exMagInt
 1136 0db8 C0F20003 		movt	r3, #:upper16:exMagInt
 1137 0dbc C3ED007A 		fsts	s15, [r3, #0]
 1138 0dc0 40F20003 		movw	r3, #:lower16:eepromConfig
 1139 0dc4 C0F20003 		movt	r3, #:upper16:eepromConfig
 1140 0dc8 93ED147A 		flds	s14, [r3, #80]
 1141 0dcc 40F20003 		movw	r3, #:lower16:eyMag
 1142 0dd0 C0F20003 		movt	r3, #:upper16:eyMag
 1143 0dd4 D3ED007A 		flds	s15, [r3, #0]
 1144 0dd8 67EE277A 		fmuls	s15, s14, s15
 1145 0ddc 40F20003 		movw	r3, #:lower16:eyMagInt
 1146 0de0 C0F20003 		movt	r3, #:upper16:eyMagInt
 1147 0de4 93ED007A 		flds	s14, [r3, #0]
 1148 0de8 77EE877A 		fadds	s15, s15, s14
 1149 0dec 40F20003 		movw	r3, #:lower16:eyMagInt
 1150 0df0 C0F20003 		movt	r3, #:upper16:eyMagInt
 1151 0df4 C3ED007A 		fsts	s15, [r3, #0]
 1152 0df8 40F20003 		movw	r3, #:lower16:eepromConfig
 1153 0dfc C0F20003 		movt	r3, #:upper16:eepromConfig
 1154 0e00 93ED147A 		flds	s14, [r3, #80]
 1155 0e04 40F20003 		movw	r3, #:lower16:ezMag
 1156 0e08 C0F20003 		movt	r3, #:upper16:ezMag
 1157 0e0c D3ED007A 		flds	s15, [r3, #0]
 1158 0e10 67EE277A 		fmuls	s15, s14, s15
 1159 0e14 40F20003 		movw	r3, #:lower16:ezMagInt
 1160 0e18 C0F20003 		movt	r3, #:upper16:ezMagInt
 1161 0e1c 93ED007A 		flds	s14, [r3, #0]
 1162 0e20 77EE877A 		fadds	s15, s15, s14
 1163 0e24 40F20003 		movw	r3, #:lower16:ezMagInt
 1164 0e28 C0F20003 		movt	r3, #:upper16:ezMagInt
 1165 0e2c C3ED007A 		fsts	s15, [r3, #0]
 1166 0e30 40F20003 		movw	r3, #:lower16:exMagInt
 1167 0e34 C0F20003 		movt	r3, #:upper16:exMagInt
 1168 0e38 D3ED007A 		flds	s15, [r3, #0]
 1169 0e3c 9DED057A 		flds	s14, [sp, #20]
 1170 0e40 77EE277A 		fadds	s15, s14, s15
 1171 0e44 CDED057A 		fsts	s15, [sp, #20]
 1172 0e48 40F20003 		movw	r3, #:lower16:eyMagInt
 1173 0e4c C0F20003 		movt	r3, #:upper16:eyMagInt
 1174 0e50 D3ED007A 		flds	s15, [r3, #0]
 1175 0e54 9DED047A 		flds	s14, [sp, #16]
 1176 0e58 77EE277A 		fadds	s15, s14, s15
 1177 0e5c CDED047A 		fsts	s15, [sp, #16]
 1178 0e60 40F20003 		movw	r3, #:lower16:ezMagInt
 1179 0e64 C0F20003 		movt	r3, #:upper16:ezMagInt
 1180 0e68 D3ED007A 		flds	s15, [r3, #0]
 1181 0e6c 9DED037A 		flds	s14, [sp, #12]
 1182 0e70 77EE277A 		fadds	s15, s14, s15
 1183 0e74 CDED037A 		fsts	s15, [sp, #12]
 1184              	.L9:
 1185 0e78 40F20003 		movw	r3, #:lower16:q1
 1186 0e7c C0F20003 		movt	r3, #:upper16:q1
 1187 0e80 D3ED007A 		flds	s15, [r3, #0]
 1188 0e84 B1EE677A 		fnegs	s14, s15
 1189 0e88 DDED057A 		flds	s15, [sp, #20]
 1190 0e8c 27EE277A 		fmuls	s14, s14, s15
 1191 0e90 40F20003 		movw	r3, #:lower16:q2
 1192 0e94 C0F20003 		movt	r3, #:upper16:q2
 1193 0e98 D3ED006A 		flds	s13, [r3, #0]
 1194 0e9c DDED047A 		flds	s15, [sp, #16]
 1195 0ea0 66EEA77A 		fmuls	s15, s13, s15
 1196 0ea4 37EE677A 		fsubs	s14, s14, s15
 1197 0ea8 40F20003 		movw	r3, #:lower16:q3
 1198 0eac C0F20003 		movt	r3, #:upper16:q3
 1199 0eb0 D3ED006A 		flds	s13, [r3, #0]
 1200 0eb4 DDED037A 		flds	s15, [sp, #12]
 1201 0eb8 66EEA77A 		fmuls	s15, s13, s15
 1202 0ebc 37EE677A 		fsubs	s14, s14, s15
 1203 0ec0 40F20003 		movw	r3, #:lower16:halfT
 1204 0ec4 C0F20003 		movt	r3, #:upper16:halfT
 1205 0ec8 D3ED007A 		flds	s15, [r3, #0]
 1206 0ecc 67EE277A 		fmuls	s15, s14, s15
 1207 0ed0 CDED0A7A 		fsts	s15, [sp, #40]
 1208 0ed4 40F20003 		movw	r3, #:lower16:q0
 1209 0ed8 C0F20003 		movt	r3, #:upper16:q0
 1210 0edc 93ED007A 		flds	s14, [r3, #0]
 1211 0ee0 DDED057A 		flds	s15, [sp, #20]
 1212 0ee4 27EE277A 		fmuls	s14, s14, s15
 1213 0ee8 40F20003 		movw	r3, #:lower16:q2
 1214 0eec C0F20003 		movt	r3, #:upper16:q2
 1215 0ef0 D3ED006A 		flds	s13, [r3, #0]
 1216 0ef4 DDED037A 		flds	s15, [sp, #12]
 1217 0ef8 66EEA77A 		fmuls	s15, s13, s15
 1218 0efc 37EE277A 		fadds	s14, s14, s15
 1219 0f00 40F20003 		movw	r3, #:lower16:q3
 1220 0f04 C0F20003 		movt	r3, #:upper16:q3
 1221 0f08 D3ED006A 		flds	s13, [r3, #0]
 1222 0f0c DDED047A 		flds	s15, [sp, #16]
 1223 0f10 66EEA77A 		fmuls	s15, s13, s15
 1224 0f14 37EE677A 		fsubs	s14, s14, s15
 1225 0f18 40F20003 		movw	r3, #:lower16:halfT
 1226 0f1c C0F20003 		movt	r3, #:upper16:halfT
 1227 0f20 D3ED007A 		flds	s15, [r3, #0]
 1228 0f24 67EE277A 		fmuls	s15, s14, s15
 1229 0f28 CDED097A 		fsts	s15, [sp, #36]
 1230 0f2c 40F20003 		movw	r3, #:lower16:q0
 1231 0f30 C0F20003 		movt	r3, #:upper16:q0
 1232 0f34 93ED007A 		flds	s14, [r3, #0]
 1233 0f38 DDED047A 		flds	s15, [sp, #16]
 1234 0f3c 27EE277A 		fmuls	s14, s14, s15
 1235 0f40 40F20003 		movw	r3, #:lower16:q1
 1236 0f44 C0F20003 		movt	r3, #:upper16:q1
 1237 0f48 D3ED006A 		flds	s13, [r3, #0]
 1238 0f4c DDED037A 		flds	s15, [sp, #12]
 1239 0f50 66EEA77A 		fmuls	s15, s13, s15
 1240 0f54 37EE677A 		fsubs	s14, s14, s15
 1241 0f58 40F20003 		movw	r3, #:lower16:q3
 1242 0f5c C0F20003 		movt	r3, #:upper16:q3
 1243 0f60 D3ED006A 		flds	s13, [r3, #0]
 1244 0f64 DDED057A 		flds	s15, [sp, #20]
 1245 0f68 66EEA77A 		fmuls	s15, s13, s15
 1246 0f6c 37EE277A 		fadds	s14, s14, s15
 1247 0f70 40F20003 		movw	r3, #:lower16:halfT
 1248 0f74 C0F20003 		movt	r3, #:upper16:halfT
 1249 0f78 D3ED007A 		flds	s15, [r3, #0]
 1250 0f7c 67EE277A 		fmuls	s15, s14, s15
 1251 0f80 CDED087A 		fsts	s15, [sp, #32]
 1252 0f84 40F20003 		movw	r3, #:lower16:q0
 1253 0f88 C0F20003 		movt	r3, #:upper16:q0
 1254 0f8c 93ED007A 		flds	s14, [r3, #0]
 1255 0f90 DDED037A 		flds	s15, [sp, #12]
 1256 0f94 27EE277A 		fmuls	s14, s14, s15
 1257 0f98 40F20003 		movw	r3, #:lower16:q1
 1258 0f9c C0F20003 		movt	r3, #:upper16:q1
 1259 0fa0 D3ED006A 		flds	s13, [r3, #0]
 1260 0fa4 DDED047A 		flds	s15, [sp, #16]
 1261 0fa8 66EEA77A 		fmuls	s15, s13, s15
 1262 0fac 37EE277A 		fadds	s14, s14, s15
 1263 0fb0 40F20003 		movw	r3, #:lower16:q2
 1264 0fb4 C0F20003 		movt	r3, #:upper16:q2
 1265 0fb8 D3ED006A 		flds	s13, [r3, #0]
 1266 0fbc DDED057A 		flds	s15, [sp, #20]
 1267 0fc0 66EEA77A 		fmuls	s15, s13, s15
 1268 0fc4 37EE677A 		fsubs	s14, s14, s15
 1269 0fc8 40F20003 		movw	r3, #:lower16:halfT
 1270 0fcc C0F20003 		movt	r3, #:upper16:halfT
 1271 0fd0 D3ED007A 		flds	s15, [r3, #0]
 1272 0fd4 67EE277A 		fmuls	s15, s14, s15
 1273 0fd8 CDED077A 		fsts	s15, [sp, #28]
 1274 0fdc 40F20003 		movw	r3, #:lower16:q0
 1275 0fe0 C0F20003 		movt	r3, #:upper16:q0
 1276 0fe4 93ED007A 		flds	s14, [r3, #0]
 1277 0fe8 DDED0A7A 		flds	s15, [sp, #40]
 1278 0fec 77EE277A 		fadds	s15, s14, s15
 1279 0ff0 40F20003 		movw	r3, #:lower16:q0
 1280 0ff4 C0F20003 		movt	r3, #:upper16:q0
 1281 0ff8 C3ED007A 		fsts	s15, [r3, #0]
 1282 0ffc 40F20003 		movw	r3, #:lower16:q1
 1283 1000 C0F20003 		movt	r3, #:upper16:q1
 1284 1004 93ED007A 		flds	s14, [r3, #0]
 1285 1008 DDED097A 		flds	s15, [sp, #36]
 1286 100c 77EE277A 		fadds	s15, s14, s15
 1287 1010 40F20003 		movw	r3, #:lower16:q1
 1288 1014 C0F20003 		movt	r3, #:upper16:q1
 1289 1018 C3ED007A 		fsts	s15, [r3, #0]
 1290 101c 40F20003 		movw	r3, #:lower16:q2
 1291 1020 C0F20003 		movt	r3, #:upper16:q2
 1292 1024 93ED007A 		flds	s14, [r3, #0]
 1293 1028 DDED087A 		flds	s15, [sp, #32]
 1294 102c 77EE277A 		fadds	s15, s14, s15
 1295 1030 40F20003 		movw	r3, #:lower16:q2
 1296 1034 C0F20003 		movt	r3, #:upper16:q2
 1297 1038 C3ED007A 		fsts	s15, [r3, #0]
 1298 103c 40F20003 		movw	r3, #:lower16:q3
 1299 1040 C0F20003 		movt	r3, #:upper16:q3
 1300 1044 93ED007A 		flds	s14, [r3, #0]
 1301 1048 DDED077A 		flds	s15, [sp, #28]
 1302 104c 77EE277A 		fadds	s15, s14, s15
 1303 1050 40F20003 		movw	r3, #:lower16:q3
 1304 1054 C0F20003 		movt	r3, #:upper16:q3
 1305 1058 C3ED007A 		fsts	s15, [r3, #0]
 1306 105c 40F20003 		movw	r3, #:lower16:q0
 1307 1060 C0F20003 		movt	r3, #:upper16:q0
 1308 1064 93ED007A 		flds	s14, [r3, #0]
 1309 1068 40F20003 		movw	r3, #:lower16:q0
 1310 106c C0F20003 		movt	r3, #:upper16:q0
 1311 1070 D3ED007A 		flds	s15, [r3, #0]
 1312 1074 27EE277A 		fmuls	s14, s14, s15
 1313 1078 40F20003 		movw	r3, #:lower16:q1
 1314 107c C0F20003 		movt	r3, #:upper16:q1
 1315 1080 D3ED006A 		flds	s13, [r3, #0]
 1316 1084 40F20003 		movw	r3, #:lower16:q1
 1317 1088 C0F20003 		movt	r3, #:upper16:q1
 1318 108c D3ED007A 		flds	s15, [r3, #0]
 1319 1090 66EEA77A 		fmuls	s15, s13, s15
 1320 1094 37EE277A 		fadds	s14, s14, s15
 1321 1098 40F20003 		movw	r3, #:lower16:q2
 1322 109c C0F20003 		movt	r3, #:upper16:q2
 1323 10a0 D3ED006A 		flds	s13, [r3, #0]
 1324 10a4 40F20003 		movw	r3, #:lower16:q2
 1325 10a8 C0F20003 		movt	r3, #:upper16:q2
 1326 10ac D3ED007A 		flds	s15, [r3, #0]
 1327 10b0 66EEA77A 		fmuls	s15, s13, s15
 1328 10b4 37EE277A 		fadds	s14, s14, s15
 1329 10b8 40F20003 		movw	r3, #:lower16:q3
 1330 10bc C0F20003 		movt	r3, #:upper16:q3
 1331 10c0 D3ED006A 		flds	s13, [r3, #0]
 1332 10c4 40F20003 		movw	r3, #:lower16:q3
 1333 10c8 C0F20003 		movt	r3, #:upper16:q3
 1334 10cc D3ED007A 		flds	s15, [r3, #0]
 1335 10d0 66EEA77A 		fmuls	s15, s13, s15
 1336 10d4 77EE277A 		fadds	s15, s14, s15
 1337 10d8 17EE900A 		fmrs	r0, s15
 1338 10dc FFF7FEFF 		bl	__aeabi_f2d
 1339 10e0 0246     		mov	r2, r0
 1340 10e2 0B46     		mov	r3, r1
 1341 10e4 1046     		mov	r0, r2
 1342 10e6 1946     		mov	r1, r3
 1343 10e8 FFF7FEFF 		bl	sqrt
 1344 10ec 0246     		mov	r2, r0
 1345 10ee 0B46     		mov	r3, r1
 1346 10f0 D5A1     		adr	r1, .L10
 1347 10f2 D1E90001 		ldrd	r0, [r1]
 1348 10f6 FFF7FEFF 		bl	__aeabi_ddiv
 1349 10fa 0246     		mov	r2, r0
 1350 10fc 0B46     		mov	r3, r1
 1351 10fe 1046     		mov	r0, r2
 1352 1100 1946     		mov	r1, r3
 1353 1102 FFF7FEFF 		bl	__aeabi_d2f
 1354 1106 0346     		mov	r3, r0	@ float
 1355 1108 1693     		str	r3, [sp, #88]	@ float
 1356 110a 40F20003 		movw	r3, #:lower16:q0
 1357 110e C0F20003 		movt	r3, #:upper16:q0
 1358 1112 93ED007A 		flds	s14, [r3, #0]
 1359 1116 DDED167A 		flds	s15, [sp, #88]
 1360 111a 67EE277A 		fmuls	s15, s14, s15
 1361 111e 40F20003 		movw	r3, #:lower16:q0
 1362 1122 C0F20003 		movt	r3, #:upper16:q0
 1363 1126 C3ED007A 		fsts	s15, [r3, #0]
 1364 112a 40F20003 		movw	r3, #:lower16:q1
 1365 112e C0F20003 		movt	r3, #:upper16:q1
 1366 1132 93ED007A 		flds	s14, [r3, #0]
 1367 1136 DDED167A 		flds	s15, [sp, #88]
 1368 113a 67EE277A 		fmuls	s15, s14, s15
 1369 113e 40F20003 		movw	r3, #:lower16:q1
 1370 1142 C0F20003 		movt	r3, #:upper16:q1
 1371 1146 C3ED007A 		fsts	s15, [r3, #0]
 1372 114a 40F20003 		movw	r3, #:lower16:q2
 1373 114e C0F20003 		movt	r3, #:upper16:q2
 1374 1152 93ED007A 		flds	s14, [r3, #0]
 1375 1156 DDED167A 		flds	s15, [sp, #88]
 1376 115a 67EE277A 		fmuls	s15, s14, s15
 1377 115e 40F20003 		movw	r3, #:lower16:q2
 1378 1162 C0F20003 		movt	r3, #:upper16:q2
 1379 1166 C3ED007A 		fsts	s15, [r3, #0]
 1380 116a 40F20003 		movw	r3, #:lower16:q3
 1381 116e C0F20003 		movt	r3, #:upper16:q3
 1382 1172 93ED007A 		flds	s14, [r3, #0]
 1383 1176 DDED167A 		flds	s15, [sp, #88]
 1384 117a 67EE277A 		fmuls	s15, s14, s15
 1385 117e 40F20003 		movw	r3, #:lower16:q3
 1386 1182 C0F20003 		movt	r3, #:upper16:q3
 1387 1186 C3ED007A 		fsts	s15, [r3, #0]
 1388 118a 40F20003 		movw	r3, #:lower16:q0
 1389 118e C0F20003 		movt	r3, #:upper16:q0
 1390 1192 93ED007A 		flds	s14, [r3, #0]
 1391 1196 40F20003 		movw	r3, #:lower16:q0
 1392 119a C0F20003 		movt	r3, #:upper16:q0
 1393 119e D3ED007A 		flds	s15, [r3, #0]
 1394 11a2 67EE277A 		fmuls	s15, s14, s15
 1395 11a6 40F20003 		movw	r3, #:lower16:q0q0
 1396 11aa C0F20003 		movt	r3, #:upper16:q0q0
 1397 11ae C3ED007A 		fsts	s15, [r3, #0]
 1398 11b2 40F20003 		movw	r3, #:lower16:q0
 1399 11b6 C0F20003 		movt	r3, #:upper16:q0
 1400 11ba 93ED007A 		flds	s14, [r3, #0]
 1401 11be 40F20003 		movw	r3, #:lower16:q1
 1402 11c2 C0F20003 		movt	r3, #:upper16:q1
 1403 11c6 D3ED007A 		flds	s15, [r3, #0]
 1404 11ca 67EE277A 		fmuls	s15, s14, s15
 1405 11ce 40F20003 		movw	r3, #:lower16:q0q1
 1406 11d2 C0F20003 		movt	r3, #:upper16:q0q1
 1407 11d6 C3ED007A 		fsts	s15, [r3, #0]
 1408 11da 40F20003 		movw	r3, #:lower16:q0
 1409 11de C0F20003 		movt	r3, #:upper16:q0
 1410 11e2 93ED007A 		flds	s14, [r3, #0]
 1411 11e6 40F20003 		movw	r3, #:lower16:q2
 1412 11ea C0F20003 		movt	r3, #:upper16:q2
 1413 11ee D3ED007A 		flds	s15, [r3, #0]
 1414 11f2 67EE277A 		fmuls	s15, s14, s15
 1415 11f6 40F20003 		movw	r3, #:lower16:q0q2
 1416 11fa C0F20003 		movt	r3, #:upper16:q0q2
 1417 11fe C3ED007A 		fsts	s15, [r3, #0]
 1418 1202 40F20003 		movw	r3, #:lower16:q0
 1419 1206 C0F20003 		movt	r3, #:upper16:q0
 1420 120a 93ED007A 		flds	s14, [r3, #0]
 1421 120e 40F20003 		movw	r3, #:lower16:q3
 1422 1212 C0F20003 		movt	r3, #:upper16:q3
 1423 1216 D3ED007A 		flds	s15, [r3, #0]
 1424 121a 67EE277A 		fmuls	s15, s14, s15
 1425 121e 40F20003 		movw	r3, #:lower16:q0q3
 1426 1222 C0F20003 		movt	r3, #:upper16:q0q3
 1427 1226 C3ED007A 		fsts	s15, [r3, #0]
 1428 122a 40F20003 		movw	r3, #:lower16:q1
 1429 122e C0F20003 		movt	r3, #:upper16:q1
 1430 1232 93ED007A 		flds	s14, [r3, #0]
 1431 1236 40F20003 		movw	r3, #:lower16:q1
 1432 123a C0F20003 		movt	r3, #:upper16:q1
 1433 123e D3ED007A 		flds	s15, [r3, #0]
 1434 1242 67EE277A 		fmuls	s15, s14, s15
 1435 1246 40F20003 		movw	r3, #:lower16:q1q1
 1436 124a C0F20003 		movt	r3, #:upper16:q1q1
 1437 124e C3ED007A 		fsts	s15, [r3, #0]
 1438 1252 40F20003 		movw	r3, #:lower16:q1
 1439 1256 C0F20003 		movt	r3, #:upper16:q1
 1440 125a 93ED007A 		flds	s14, [r3, #0]
 1441 125e 40F20003 		movw	r3, #:lower16:q2
 1442 1262 C0F20003 		movt	r3, #:upper16:q2
 1443 1266 D3ED007A 		flds	s15, [r3, #0]
 1444 126a 67EE277A 		fmuls	s15, s14, s15
 1445 126e 40F20003 		movw	r3, #:lower16:q1q2
 1446 1272 C0F20003 		movt	r3, #:upper16:q1q2
 1447 1276 C3ED007A 		fsts	s15, [r3, #0]
 1448 127a 40F20003 		movw	r3, #:lower16:q1
 1449 127e C0F20003 		movt	r3, #:upper16:q1
 1450 1282 93ED007A 		flds	s14, [r3, #0]
 1451 1286 40F20003 		movw	r3, #:lower16:q3
 1452 128a C0F20003 		movt	r3, #:upper16:q3
 1453 128e D3ED007A 		flds	s15, [r3, #0]
 1454 1292 67EE277A 		fmuls	s15, s14, s15
 1455 1296 40F20003 		movw	r3, #:lower16:q1q3
 1456 129a C0F20003 		movt	r3, #:upper16:q1q3
 1457 129e C3ED007A 		fsts	s15, [r3, #0]
 1458 12a2 40F20003 		movw	r3, #:lower16:q2
 1459 12a6 C0F20003 		movt	r3, #:upper16:q2
 1460 12aa 93ED007A 		flds	s14, [r3, #0]
 1461 12ae 40F20003 		movw	r3, #:lower16:q2
 1462 12b2 C0F20003 		movt	r3, #:upper16:q2
 1463 12b6 D3ED007A 		flds	s15, [r3, #0]
 1464 12ba 67EE277A 		fmuls	s15, s14, s15
 1465 12be 40F20003 		movw	r3, #:lower16:q2q2
 1466 12c2 C0F20003 		movt	r3, #:upper16:q2q2
 1467 12c6 C3ED007A 		fsts	s15, [r3, #0]
 1468 12ca 40F20003 		movw	r3, #:lower16:q2
 1469 12ce C0F20003 		movt	r3, #:upper16:q2
 1470 12d2 93ED007A 		flds	s14, [r3, #0]
 1471 12d6 40F20003 		movw	r3, #:lower16:q3
 1472 12da C0F20003 		movt	r3, #:upper16:q3
 1473 12de D3ED007A 		flds	s15, [r3, #0]
 1474 12e2 67EE277A 		fmuls	s15, s14, s15
 1475 12e6 40F20003 		movw	r3, #:lower16:q2q3
 1476 12ea C0F20003 		movt	r3, #:upper16:q2q3
 1477 12ee C3ED007A 		fsts	s15, [r3, #0]
 1478 12f2 40F20003 		movw	r3, #:lower16:q3
 1479 12f6 C0F20003 		movt	r3, #:upper16:q3
 1480 12fa 93ED007A 		flds	s14, [r3, #0]
 1481 12fe 40F20003 		movw	r3, #:lower16:q3
 1482 1302 C0F20003 		movt	r3, #:upper16:q3
 1483 1306 D3ED007A 		flds	s15, [r3, #0]
 1484 130a 67EE277A 		fmuls	s15, s14, s15
 1485 130e 40F20003 		movw	r3, #:lower16:q3q3
 1486 1312 C0F20003 		movt	r3, #:upper16:q3q3
 1487 1316 C3ED007A 		fsts	s15, [r3, #0]
 1488 131a 40F20003 		movw	r3, #:lower16:q0q1
 1489 131e C0F20003 		movt	r3, #:upper16:q0q1
 1490 1322 93ED007A 		flds	s14, [r3, #0]
 1491 1326 40F20003 		movw	r3, #:lower16:q2q3
 1492 132a C0F20003 		movt	r3, #:upper16:q2q3
 1493 132e D3ED007A 		flds	s15, [r3, #0]
 1494 1332 77EE277A 		fadds	s15, s14, s15
 1495 1336 77EEA76A 		fadds	s13, s15, s15
 1496 133a 40F20003 		movw	r3, #:lower16:q0q0
 1497 133e C0F20003 		movt	r3, #:upper16:q0q0
 1498 1342 93ED007A 		flds	s14, [r3, #0]
 1499 1346 40F20003 		movw	r3, #:lower16:q1q1
 1500 134a C0F20003 		movt	r3, #:upper16:q1q1
 1501 134e D3ED007A 		flds	s15, [r3, #0]
 1502 1352 37EE677A 		fsubs	s14, s14, s15
 1503 1356 40F20003 		movw	r3, #:lower16:q2q2
 1504 135a C0F20003 		movt	r3, #:upper16:q2q2
 1505 135e D3ED007A 		flds	s15, [r3, #0]
 1506 1362 37EE677A 		fsubs	s14, s14, s15
 1507 1366 40F20003 		movw	r3, #:lower16:q3q3
 1508 136a C0F20003 		movt	r3, #:upper16:q3q3
 1509 136e D3ED007A 		flds	s15, [r3, #0]
 1510 1372 77EE277A 		fadds	s15, s14, s15
 1511 1376 16EE900A 		fmrs	r0, s13
 1512 137a 17EE901A 		fmrs	r1, s15
 1513 137e FFF7FEFF 		bl	atan2f
 1514 1382 0246     		mov	r2, r0	@ float
 1515 1384 40F20003 		movw	r3, #:lower16:sensors
 1516 1388 C0F20003 		movt	r3, #:upper16:sensors
 1517 138c 9A61     		str	r2, [r3, #24]	@ float
 1518 138e 40F20003 		movw	r3, #:lower16:q1q3
 1519 1392 C0F20003 		movt	r3, #:upper16:q1q3
 1520 1396 93ED007A 		flds	s14, [r3, #0]
 1521 139a 40F20003 		movw	r3, #:lower16:q0q2
 1522 139e C0F20003 		movt	r3, #:upper16:q0q2
 1523 13a2 D3ED007A 		flds	s15, [r3, #0]
 1524 13a6 77EE677A 		fsubs	s15, s14, s15
 1525 13aa 77EEA77A 		fadds	s15, s15, s15
 1526 13ae 17EE900A 		fmrs	r0, s15
 1527 13b2 FFF7FEFF 		bl	asinf
 1528 13b6 0346     		mov	r3, r0	@ float
 1529 13b8 07EE103A 		fmsr	s14, r3
 1530 13bc F1EE477A 		fnegs	s15, s14
 1531 13c0 40F20003 		movw	r3, #:lower16:sensors
 1532 13c4 C0F20003 		movt	r3, #:upper16:sensors
 1533 13c8 C3ED077A 		fsts	s15, [r3, #28]
 1534 13cc 40F20003 		movw	r3, #:lower16:q1q2
 1535 13d0 C0F20003 		movt	r3, #:upper16:q1q2
 1536 13d4 93ED007A 		flds	s14, [r3, #0]
 1537 13d8 40F20003 		movw	r3, #:lower16:q0q3
 1538 13dc C0F20003 		movt	r3, #:upper16:q0q3
 1539 13e0 D3ED007A 		flds	s15, [r3, #0]
 1540 13e4 77EE277A 		fadds	s15, s14, s15
 1541 13e8 77EEA76A 		fadds	s13, s15, s15
 1542 13ec 40F20003 		movw	r3, #:lower16:q0q0
 1543 13f0 C0F20003 		movt	r3, #:upper16:q0q0
 1544 13f4 93ED007A 		flds	s14, [r3, #0]
 1545 13f8 40F20003 		movw	r3, #:lower16:q1q1
 1546 13fc C0F20003 		movt	r3, #:upper16:q1q1
 1547 1400 D3ED007A 		flds	s15, [r3, #0]
 1548 1404 37EE277A 		fadds	s14, s14, s15
 1549 1408 40F20003 		movw	r3, #:lower16:q2q2
 1550 140c C0F20003 		movt	r3, #:upper16:q2q2
 1551 1410 D3ED007A 		flds	s15, [r3, #0]
 1552 1414 37EE677A 		fsubs	s14, s14, s15
 1553 1418 40F20003 		movw	r3, #:lower16:q3q3
 1554 141c C0F20003 		movt	r3, #:upper16:q3q3
 1555 1420 D3ED007A 		flds	s15, [r3, #0]
 1556 1424 77EE677A 		fsubs	s15, s14, s15
 1557 1428 16EE900A 		fmrs	r0, s13
 1558 142c 17EE901A 		fmrs	r1, s15
 1559 1430 FFF7FEFF 		bl	atan2f
 1560 1434 0246     		mov	r2, r0	@ float
 1561 1436 40F20003 		movw	r3, #:lower16:sensors
 1562 143a C0F20003 		movt	r3, #:upper16:sensors
 1563 143e 1A62     		str	r2, [r3, #32]	@ float
 1564              	.L5:
 1565 1440 19B0     		add	sp, sp, #100
 1566 1442 00BD     		pop	{pc}
 1567              	.L11:
 1568 1444 AFF30080 		.align	3
 1569              	.L10:
 1570 1448 00000000 		.word	0
 1571 144c 0000F03F 		.word	1072693248
 1572 1450 0000803F 		.word	1065353216
 1574 1454 AFF30080 		.data
 1575              		.align	2
 1578              	accMagP.10920:
 1579 0008 0000803F 		.word	1065353216
 1580              		.ident	"GCC: (Sourcery CodeBench Lite 2012.03-56) 4.6.3"