   1              		.syntax unified
   2              		.cpu cortex-m4
   3              		.eabi_attribute 27, 3
   4              		.fpu fpv4-sp-d16
   5              		.eabi_attribute 20, 1
   6              		.eabi_attribute 21, 1
   7              		.eabi_attribute 23, 3
   8              		.eabi_attribute 24, 1
   9              		.eabi_attribute 25, 1
  10              		.eabi_attribute 26, 1
  11              		.eabi_attribute 30, 6
  12              		.eabi_attribute 34, 1
  13              		.eabi_attribute 18, 4
  14              		.thumb
  15              		.file	"serial.c"
  16              		.global	cliBusy
  17              		.bss
  20              	cliBusy:
  21 0000 00       		.space	1
  22              	queryType:
  23 0001 00       		.space	1
  24              	validCommand:
  25 0002 00       		.space	1
  26              		.global	highSpeedAccelTelemEnabled
  29              	highSpeedAccelTelemEnabled:
  30 0003 00       		.space	1
  31              		.global	highSpeedGyroTelemEnabled
  34              	highSpeedGyroTelemEnabled:
  35 0004 00       		.space	1
  36              		.global	highSpeedRollRateTelemEnabled
  39              	highSpeedRollRateTelemEnabled:
  40 0005 00       		.space	1
  41              		.global	highSpeedPitchRateTelemEnabled
  44              	highSpeedPitchRateTelemEnabled:
  45 0006 00       		.space	1
  46              		.global	highSpeedYawRateTelemEnabled
  49              	highSpeedYawRateTelemEnabled:
  50 0007 00       		.space	1
  51              		.global	highSpeedAttitudeTelemEnabled
  54              	highSpeedAttitudeTelemEnabled:
  55 0008 00       		.space	1
  56              		.text
  57              		.align	2
  58              		.global	readStringUsb
  59              		.thumb
  60              		.thumb_func
  62              	readStringUsb:
  63              		@ args = 0, pretend = 0, frame = 16
  64              		@ frame_needed = 0, uses_anonymous_args = 0
  65 0000 10B5     		push	{r4, lr}
  66 0002 84B0     		sub	sp, sp, #16
  67 0004 0190     		str	r0, [sp, #4]
  68 0006 0B46     		mov	r3, r1
  69 0008 8DF80330 		strb	r3, [sp, #3]
  70 000c 4FF00003 		mov	r3, #0
  71 0010 8DF80F30 		strb	r3, [sp, #15]
  72 0014 4FF00003 		mov	r3, #0
  73 0018 8DF80E30 		strb	r3, [sp, #14]
  74              	.L6:
  75 001c 9DF80F30 		ldrb	r3, [sp, #15]	@ zero_extendqisi2
  76 0020 019A     		ldr	r2, [sp, #4]
  77 0022 D418     		adds	r4, r2, r3
  78 0024 FFF7FEFF 		bl	usbRead
  79 0028 0346     		mov	r3, r0
  80 002a 2370     		strb	r3, [r4, #0]
  81 002c 2378     		ldrb	r3, [r4, #0]	@ zero_extendqisi2
  82 002e 002B     		cmp	r3, #0
  83 0030 0AD1     		bne	.L2
  84 0032 4FF00A00 		mov	r0, #10
  85 0036 FFF7FEFF 		bl	delay
  86 003a 9DF80E30 		ldrb	r3, [sp, #14]
  87 003e 03F10103 		add	r3, r3, #1
  88 0042 8DF80E30 		strb	r3, [sp, #14]
  89 0046 09E0     		b	.L3
  90              	.L2:
  91 0048 4FF00003 		mov	r3, #0
  92 004c 8DF80E30 		strb	r3, [sp, #14]
  93 0050 9DF80F30 		ldrb	r3, [sp, #15]
  94 0054 03F10103 		add	r3, r3, #1
  95 0058 8DF80F30 		strb	r3, [sp, #15]
  96              	.L3:
  97 005c 9DF80F30 		ldrb	r3, [sp, #15]	@ zero_extendqisi2
  98 0060 002B     		cmp	r3, #0
  99 0062 09D0     		beq	.L4
 100 0064 9DF80F30 		ldrb	r3, [sp, #15]	@ zero_extendqisi2
 101 0068 03F1FF33 		add	r3, r3, #-1
 102 006c 019A     		ldr	r2, [sp, #4]
 103 006e D318     		adds	r3, r2, r3
 104 0070 1B78     		ldrb	r3, [r3, #0]	@ zero_extendqisi2
 105 0072 5BB2     		sxtb	r3, r3
 106 0074 3B2B     		cmp	r3, #59
 107 0076 09D0     		beq	.L5
 108              	.L4:
 109 0078 9DF80E30 		ldrb	r3, [sp, #14]	@ zero_extendqisi2
 110 007c 042B     		cmp	r3, #4
 111 007e 05D8     		bhi	.L5
 112 0080 9DF80F20 		ldrb	r2, [sp, #15]	@ zero_extendqisi2
 113 0084 9DF80330 		ldrb	r3, [sp, #3]	@ zero_extendqisi2
 114 0088 9A42     		cmp	r2, r3
 115 008a C7D3     		bcc	.L6
 116              	.L5:
 117 008c 9DF80F30 		ldrb	r3, [sp, #15]	@ zero_extendqisi2
 118 0090 019A     		ldr	r2, [sp, #4]
 119 0092 D318     		adds	r3, r2, r3
 120 0094 4FF00002 		mov	r2, #0
 121 0098 1A70     		strb	r2, [r3, #0]
 122 009a 019B     		ldr	r3, [sp, #4]
 123 009c 1846     		mov	r0, r3
 124 009e 04B0     		add	sp, sp, #16
 125 00a0 10BD     		pop	{r4, pc}
 127 00a2 00BF     		.align	2
 128              		.global	readFloatUsb
 129              		.thumb
 130              		.thumb_func
 132              	readFloatUsb:
 133              		@ args = 0, pretend = 0, frame = 16
 134              		@ frame_needed = 0, uses_anonymous_args = 0
 135 00a4 10B5     		push	{r4, lr}
 136 00a6 84B0     		sub	sp, sp, #16
 137 00a8 4FF00003 		mov	r3, #0
 138 00ac 8DF80F30 		strb	r3, [sp, #15]
 139 00b0 4FF00003 		mov	r3, #0
 140 00b4 8DF80E30 		strb	r3, [sp, #14]
 141 00b8 4FF00003 		mov	r3, #0
 142 00bc 0093     		str	r3, [sp, #0]
 143 00be 01AB     		add	r3, sp, #4
 144 00c0 4FF00002 		mov	r2, #0
 145 00c4 1A60     		str	r2, [r3, #0]
 146 00c6 03F10403 		add	r3, r3, #4
 147 00ca 4FF00002 		mov	r2, #0
 148 00ce 1A60     		str	r2, [r3, #0]
 149 00d0 03F10403 		add	r3, r3, #4
 150 00d4 4FF00002 		mov	r2, #0
 151 00d8 1A70     		strb	r2, [r3, #0]
 152 00da 03F10103 		add	r3, r3, #1
 153              	.L12:
 154 00de 9DF80F40 		ldrb	r4, [sp, #15]	@ zero_extendqisi2
 155 00e2 FFF7FEFF 		bl	usbRead
 156 00e6 0346     		mov	r3, r0
 157 00e8 1A46     		mov	r2, r3
 158 00ea 04A9     		add	r1, sp, #16
 159 00ec 0B19     		adds	r3, r1, r4
 160 00ee 03F8102C 		strb	r2, [r3, #-16]
 161 00f2 04AA     		add	r2, sp, #16
 162 00f4 1319     		adds	r3, r2, r4
 163 00f6 13F8103C 		ldrb	r3, [r3, #-16]	@ zero_extendqisi2
 164 00fa 002B     		cmp	r3, #0
 165 00fc 0AD1     		bne	.L8
 166 00fe 4FF00A00 		mov	r0, #10
 167 0102 FFF7FEFF 		bl	delay
 168 0106 9DF80E30 		ldrb	r3, [sp, #14]
 169 010a 03F10103 		add	r3, r3, #1
 170 010e 8DF80E30 		strb	r3, [sp, #14]
 171 0112 09E0     		b	.L9
 172              	.L8:
 173 0114 4FF00003 		mov	r3, #0
 174 0118 8DF80E30 		strb	r3, [sp, #14]
 175 011c 9DF80F30 		ldrb	r3, [sp, #15]
 176 0120 03F10103 		add	r3, r3, #1
 177 0124 8DF80F30 		strb	r3, [sp, #15]
 178              	.L9:
 179 0128 9DF80F30 		ldrb	r3, [sp, #15]	@ zero_extendqisi2
 180 012c 002B     		cmp	r3, #0
 181 012e 0AD0     		beq	.L10
 182 0130 9DF80F30 		ldrb	r3, [sp, #15]	@ zero_extendqisi2
 183 0134 03F1FF33 		add	r3, r3, #-1
 184 0138 04A9     		add	r1, sp, #16
 185 013a CB18     		adds	r3, r1, r3
 186 013c 13F8103C 		ldrb	r3, [r3, #-16]	@ zero_extendqisi2
 187 0140 5BB2     		sxtb	r3, r3
 188 0142 3B2B     		cmp	r3, #59
 189 0144 07D0     		beq	.L11
 190              	.L10:
 191 0146 9DF80E30 		ldrb	r3, [sp, #14]	@ zero_extendqisi2
 192 014a 042B     		cmp	r3, #4
 193 014c 03D8     		bhi	.L11
 194 014e 9DF80F30 		ldrb	r3, [sp, #15]	@ zero_extendqisi2
 195 0152 0B2B     		cmp	r3, #11
 196 0154 C3D9     		bls	.L12
 197              	.L11:
 198 0156 9DF80F30 		ldrb	r3, [sp, #15]	@ zero_extendqisi2
 199 015a 04AA     		add	r2, sp, #16
 200 015c D318     		adds	r3, r2, r3
 201 015e 4FF00002 		mov	r2, #0
 202 0162 03F8102C 		strb	r2, [r3, #-16]
 203 0166 6B46     		mov	r3, sp
 204 0168 1846     		mov	r0, r3
 205 016a FFF7FEFF 		bl	stringToFloat
 206 016e 0346     		mov	r3, r0	@ float
 207 0170 1846     		mov	r0, r3	@ float
 208 0172 04B0     		add	sp, sp, #16
 209 0174 10BD     		pop	{r4, pc}
 211 0176 00BF     		.align	2
 212              		.global	readUsbPID
 213              		.thumb
 214              		.thumb_func
 216              	readUsbPID:
 217              		@ args = 0, pretend = 0, frame = 16
 218              		@ frame_needed = 0, uses_anonymous_args = 0
 219 0178 00B5     		push	{lr}
 220 017a 85B0     		sub	sp, sp, #20
 221 017c 0346     		mov	r3, r0
 222 017e 8DF80730 		strb	r3, [sp, #7]
 223 0182 9DF80720 		ldrb	r2, [sp, #7]	@ zero_extendqisi2
 224 0186 1346     		mov	r3, r2
 225 0188 4FEAC303 		lsl	r3, r3, #3
 226 018c 9B18     		adds	r3, r3, r2
 227 018e 4FEA8303 		lsl	r3, r3, #2
 228 0192 1A46     		mov	r2, r3
 229 0194 124B     		ldr	r3, .L14
 230 0196 D318     		adds	r3, r2, r3
 231 0198 0393     		str	r3, [sp, #12]
 232 019a FFF7FEFF 		bl	readFloatUsb
 233 019e 0246     		mov	r2, r0	@ float
 234 01a0 039B     		ldr	r3, [sp, #12]
 235 01a2 1A60     		str	r2, [r3, #0]	@ float
 236 01a4 FFF7FEFF 		bl	readFloatUsb
 237 01a8 0246     		mov	r2, r0	@ float
 238 01aa 039B     		ldr	r3, [sp, #12]
 239 01ac 5A60     		str	r2, [r3, #4]	@ float
 240 01ae FFF7FEFF 		bl	readFloatUsb
 241 01b2 0246     		mov	r2, r0	@ float
 242 01b4 039B     		ldr	r3, [sp, #12]
 243 01b6 9A60     		str	r2, [r3, #8]	@ float
 244 01b8 FFF7FEFF 		bl	readFloatUsb
 245 01bc 0246     		mov	r2, r0	@ float
 246 01be 039B     		ldr	r3, [sp, #12]
 247 01c0 1A61     		str	r2, [r3, #16]	@ float
 248 01c2 039B     		ldr	r3, [sp, #12]
 249 01c4 074A     		ldr	r2, .L14+4	@ float
 250 01c6 DA60     		str	r2, [r3, #12]	@ float
 251 01c8 039B     		ldr	r3, [sp, #12]
 252 01ca 064A     		ldr	r2, .L14+4	@ float
 253 01cc 5A61     		str	r2, [r3, #20]	@ float
 254 01ce 039B     		ldr	r3, [sp, #12]
 255 01d0 044A     		ldr	r2, .L14+4	@ float
 256 01d2 9A61     		str	r2, [r3, #24]	@ float
 257 01d4 039B     		ldr	r3, [sp, #12]
 258 01d6 034A     		ldr	r2, .L14+4	@ float
 259 01d8 DA61     		str	r2, [r3, #28]	@ float
 260 01da 05B0     		add	sp, sp, #20
 261 01dc 00BD     		pop	{pc}
 262              	.L15:
 263 01de 00BF     		.align	2
 264              	.L14:
 265 01e0 A8000000 		.word	eepromConfig+168
 266 01e4 00000000 		.word	0
 268              		.section	.rodata
 269              		.align	2
 270              	.LC0:
 271 0000 2C2000   		.ascii	", \000"
 272 0003 00       		.align	2
 273              	.LC1:
 274 0004 0A00     		.ascii	"\012\000"
 275 0006 0000     		.align	2
 276              	.LC2:
 277 0008 74727565 		.ascii	"true\000"
 277      00
 278 000d 000000   		.align	2
 279              	.LC3:
 280 0010 66616C73 		.ascii	"false\000"
 280      6500
 281 0016 0000     		.align	2
 282              	.LC4:
 283 0018 526F6C6C 		.ascii	"Roll Rate PID:  \000"
 283      20526174 
 283      65205049 
 283      443A2020 
 283      00
 284 0029 000000   		.align	2
 285              	.LC5:
 286 002c 50697463 		.ascii	"Pitch Rate PID: \000"
 286      68205261 
 286      74652050 
 286      49443A20 
 286      00
 287 003d 000000   		.align	2
 288              	.LC6:
 289 0040 59617720 		.ascii	"Yaw Rate PID:   \000"
 289      52617465 
 289      20504944 
 289      3A202020 
 289      00
 290 0051 000000   		.align	2
 291              	.LC7:
 292 0054 526F6C6C 		.ascii	"Roll Attitude PID:  \000"
 292      20417474 
 292      69747564 
 292      65205049 
 292      443A2020 
 293 0069 000000   		.align	2
 294              	.LC8:
 295 006c 50697463 		.ascii	"Pitch Attitude PID: \000"
 295      68204174 
 295      74697475 
 295      64652050 
 295      49443A20 
 296 0081 000000   		.align	2
 297              	.LC9:
 298 0084 48656164 		.ascii	"Heading PID:        \000"
 298      696E6720 
 298      5049443A 
 298      20202020 
 298      20202020 
 299 0099 000000   		.align	2
 300              	.LC10:
 301 009c 41636365 		.ascii	"Accel Scale Factor:        \000"
 301      6C205363 
 301      616C6520 
 301      46616374 
 301      6F723A20 
 302              		.align	2
 303              	.LC11:
 304 00b8 41636365 		.ascii	"Accel Bias:                \000"
 304      6C204269 
 304      61733A20 
 304      20202020 
 304      20202020 
 305              		.align	2
 306              	.LC12:
 307 00d4 4779726F 		.ascii	"Gyro Temp Comp Slope:      \000"
 307      2054656D 
 307      7020436F 
 307      6D702053 
 307      6C6F7065 
 308              		.align	2
 309              	.LC13:
 310 00f0 4779726F 		.ascii	"Gyro Temp Comp Intercept:  \000"
 310      2054656D 
 310      7020436F 
 310      6D702049 
 310      6E746572 
 311              		.align	2
 312              	.LC14:
 313 010c 4D616720 		.ascii	"Mag Bias:                  \000"
 313      42696173 
 313      3A202020 
 313      20202020 
 313      20202020 
 314              		.align	2
 315              	.LC15:
 316 0128 41636365 		.ascii	"Accel Cutoff:              \000"
 316      6C204375 
 316      746F6666 
 316      3A202020 
 316      20202020 
 317              		.align	2
 318              	.LC16:
 319 0144 42657461 		.ascii	"Beta (Madgwick)            \000"
 319      20284D61 
 319      64677769 
 319      636B2920 
 319      20202020 
 320              		.align	2
 321              	.LC17:
 322 0160 4B704163 		.ascii	"KpAcc (MARG):              \000"
 322      6320284D 
 322      41524729 
 322      3A202020 
 322      20202020 
 323              		.align	2
 324              	.LC18:
 325 017c 4B694163 		.ascii	"KiAcc (MARG):              \000"
 325      6320284D 
 325      41524729 
 325      3A202020 
 325      20202020 
 326              		.align	2
 327              	.LC19:
 328 0198 4B704D61 		.ascii	"KpMag (MARG):              \000"
 328      6720284D 
 328      41524729 
 328      3A202020 
 328      20202020 
 329              		.align	2
 330              	.LC20:
 331 01b4 4B694D61 		.ascii	"KiMag (MARG):              \000"
 331      6720284D 
 331      41524729 
 331      3A202020 
 331      20202020 
 332              		.align	2
 333              	.LC21:
 334 01d0 41636365 		.ascii	"Accel Variance (CHR6DM):   \000"
 334      6C205661 
 334      7269616E 
 334      63652028 
 334      43485236 
 335              		.align	2
 336              	.LC22:
 337 01ec 4D616720 		.ascii	"Mag Variance (CHR6DM):     \000"
 337      56617269 
 337      616E6365 
 337      20284348 
 337      5236444D 
 338              		.align	2
 339              	.LC23:
 340 0208 50726F63 		.ascii	"Process Variance (CHR6DM): \000"
 340      65737320 
 340      56617269 
 340      616E6365 
 340      20284348 
 341              		.align	2
 342              	.LC24:
 343 0224 41636365 		.ascii	"Accel Ref Vector (CHR6DM): \000"
 343      6C205265 
 343      66205665 
 343      63746F72 
 343      20284348 
 344              		.align	2
 345              	.LC25:
 346 0240 4D616720 		.ascii	"Mag Ref Vector (CHR6DM):   \000"
 346      52656620 
 346      56656374 
 346      6F722028 
 346      43485236 
 347              		.align	2
 348              	.LC26:
 349 025c 0A526563 		.ascii	"\012Receiver PWM Input Type:        \000"
 349      65697665 
 349      72205057 
 349      4D20496E 
 349      70757420 
 350 027e 0000     		.align	2
 351              	.LC27:
 352 0280 53657269 		.ascii	"Serial\012\000"
 352      616C0A00 
 353              		.align	2
 354              	.LC28:
 355 0288 50617261 		.ascii	"Parallel\012\000"
 355      6C6C656C 
 355      0A00
 356 0292 0000     		.align	2
 357              	.LC29:
 358 0294 43757272 		.ascii	"Current RC Channel Assignment:  \000"
 358      656E7420 
 358      52432043 
 358      68616E6E 
 358      656C2041 
 359 02b5 000000   		.align	2
 360              	.LC30:
 361 02b8 436F6E74 		.ascii	"Controlling Attitude Estimator: \000"
 361      726F6C6C 
 361      696E6720 
 361      41747469 
 361      74756465 
 362 02d9 000000   		.align	2
 363              	.LC31:
 364 02dc 43485236 		.ascii	"CHR6DM\000"
 364      444D00
 365 02e3 00       		.align	2
 366              	.LC32:
 367 02e4 4D414447 		.ascii	"MADGWICK\000"
 367      5749434B 
 367      00
 368 02ed 000000   		.align	2
 369              	.LC33:
 370 02f0 4D415247 		.ascii	"MARG\000"
 370      00
 371 02f5 000000   		.align	2
 372              	.LC34:
 373 02f8 436F6E74 		.ascii	"Controlling Pressure Sensor:    \000"
 373      726F6C6C 
 373      696E6720 
 373      50726573 
 373      73757265 
 374 0319 000000   		.align	2
 375              	.LC35:
 376 031c 4D533536 		.ascii	"MS5611\000"
 376      313100
 377 0323 00       		.align	2
 378              	.LC36:
 379 0324 4D505841 		.ascii	"MPXA6115A\000"
 379      36313135 
 379      4100
 380 032e 0000     		.align	2
 381              	.LC37:
 382 0330 4D697865 		.ascii	"Mixer Configuration:            \000"
 382      7220436F 
 382      6E666967 
 382      75726174 
 382      696F6E3A 
 383 0351 000000   		.align	2
 384              	.LC38:
 385 0354 4D495845 		.ascii	"MIXERTYPE GIMBAL\012\000"
 385      52545950 
 385      45204749 
 385      4D42414C 
 385      0A00
 386 0366 0000     		.align	2
 387              	.LC39:
 388 0368 4D495845 		.ascii	"MIXERTYPE FLYING WING\012\000"
 388      52545950 
 388      4520464C 
 388      59494E47 
 388      2057494E 
 389 037f 00       		.align	2
 390              	.LC40:
 391 0380 4D495845 		.ascii	"MIXERTYPE BICOPTER\012\000"
 391      52545950 
 391      45204249 
 391      434F5054 
 391      45520A00 
 392              		.align	2
 393              	.LC41:
 394 0394 4D495845 		.ascii	"MIXERTYPE TRICOPTER\012\000"
 394      52545950 
 394      45205452 
 394      49434F50 
 394      5445520A 
 395 03a9 000000   		.align	2
 396              	.LC42:
 397 03ac 4D495845 		.ascii	"MIXERTYPE QUAD PLUS\012\000"
 397      52545950 
 397      45205155 
 397      41442050 
 397      4C55530A 
 398 03c1 000000   		.align	2
 399              	.LC43:
 400 03c4 4D495845 		.ascii	"MIXERTYPE QUAD X\012\000"
 400      52545950 
 400      45205155 
 400      41442058 
 400      0A00
 401 03d6 0000     		.align	2
 402              	.LC44:
 403 03d8 4D554C54 		.ascii	"MULTITYPE VTAIL NO COMP\012\000"
 403      49545950 
 403      45205654 
 403      41494C20 
 403      4E4F2043 
 404 03f1 000000   		.align	2
 405              	.LC45:
 406 03f4 4D554C54 		.ascii	"MULTITYPE VTAIL Y COMP\012\000"
 406      49545950 
 406      45205654 
 406      41494C20 
 406      5920434F 
 407              		.align	2
 408              	.LC46:
 409 040c 4D554C54 		.ascii	"MULTITYPE VTAIL RY COMP\012\000"
 409      49545950 
 409      45205654 
 409      41494C20 
 409      52592043 
 410 0425 000000   		.align	2
 411              	.LC47:
 412 0428 4D554C54 		.ascii	"MULTITYPE VTAIL PY COMP\012\000"
 412      49545950 
 412      45205654 
 412      41494C20 
 412      50592043 
 413 0441 000000   		.align	2
 414              	.LC48:
 415 0444 4D554C54 		.ascii	"MULTITYPE VTAIL RP COMP\012\000"
 415      49545950 
 415      45205654 
 415      41494C20 
 415      52502043 
 416 045d 000000   		.align	2
 417              	.LC49:
 418 0460 4D554C54 		.ascii	"MULTITYPE VTAIL RPY COMP\012\000"
 418      49545950 
 418      45205654 
 418      41494C20 
 418      52505920 
 419 047a 0000     		.align	2
 420              	.LC50:
 421 047c 4D495845 		.ascii	"MIXERTYPE Y4\012\000"
 421      52545950 
 421      45205934 
 421      0A00
 422 048a 0000     		.align	2
 423              	.LC51:
 424 048c 4D495845 		.ascii	"MIXERTYPE HEX PLUS\012\000"
 424      52545950 
 424      45204845 
 424      5820504C 
 424      55530A00 
 425              		.align	2
 426              	.LC52:
 427 04a0 4D495845 		.ascii	"MIXERTYPE HEX X\012\000"
 427      52545950 
 427      45204845 
 427      5820580A 
 427      00
 428 04b1 000000   		.align	2
 429              	.LC53:
 430 04b4 4D495845 		.ascii	"MIXERTYPE Y6\012\000"
 430      52545950 
 430      45205936 
 430      0A00
 431 04c2 0000     		.align	2
 432              	.LC54:
 433 04c4 4D495845 		.ascii	"MIXERTYPE FLAT OCTO PLUS\012\000"
 433      52545950 
 433      4520464C 
 433      4154204F 
 433      43544F20 
 434 04de 0000     		.align	2
 435              	.LC55:
 436 04e0 4D495845 		.ascii	"MIXERTYPE FLAT OCTO X\012\000"
 436      52545950 
 436      4520464C 
 436      4154204F 
 436      43544F20 
 437 04f7 00       		.align	2
 438              	.LC56:
 439 04f8 4D495845 		.ascii	"MIXERTYPE COAXIAL OCTO PLUS\012\000"
 439      52545950 
 439      4520434F 
 439      41584941 
 439      4C204F43 
 440 0515 000000   		.align	2
 441              	.LC57:
 442 0518 4D495845 		.ascii	"MIXERTYPE COAXIAL OCTO X\012\000"
 442      52545950 
 442      4520434F 
 442      41584941 
 442      4C204F43 
 443 0532 0000     		.align	2
 444              	.LC58:
 445 0534 4D495845 		.ascii	"MIXERTYPE FREE MIX\012\000"
 445      52545950 
 445      45204652 
 445      4545204D 
 445      49580A00 
 446              		.align	2
 447              	.LC59:
 448 0548 56205461 		.ascii	"V Tail Angle                   \000"
 448      696C2041 
 448      6E676C65 
 448      20202020 
 448      20202020 
 449              		.align	2
 450              	.LC60:
 451 0568 4E756D62 		.ascii	"Number of Motors:               \000"
 451      6572206F 
 451      66204D6F 
 451      746F7273 
 451      3A202020 
 452 0589 000000   		.align	2
 453              	.LC61:
 454 058c 45534320 		.ascii	"ESC PWM Rate:                   \000"
 454      50574D20 
 454      52617465 
 454      3A202020 
 454      20202020 
 455 05ad 000000   		.align	2
 456              	.LC62:
 457 05b0 53657276 		.ascii	"Servo PWM Rate:                 \000"
 457      6F205057 
 457      4D205261 
 457      74653A20 
 457      20202020 
 458 05d1 000000   		.align	2
 459              	.LC63:
 460 05d4 4D696420 		.ascii	"Mid Command:                    \000"
 460      436F6D6D 
 460      616E643A 
 460      20202020 
 460      20202020 
 461 05f5 000000   		.align	2
 462              	.LC64:
 463 05f8 4D696E20 		.ascii	"Min Check:                      \000"
 463      43686563 
 463      6B3A2020 
 463      20202020 
 463      20202020 
 464 0619 000000   		.align	2
 465              	.LC65:
 466 061c 4D617820 		.ascii	"Max Check:                      \000"
 466      43686563 
 466      6B3A2020 
 466      20202020 
 466      20202020 
 467 063d 000000   		.align	2
 468              	.LC66:
 469 0640 4D696E20 		.ascii	"Min Throttle:                   \000"
 469      5468726F 
 469      74746C65 
 469      3A202020 
 469      20202020 
 470 0661 000000   		.align	2
 471              	.LC67:
 472 0664 4D617820 		.ascii	"Max Thottle:                    \000"
 472      54686F74 
 472      746C653A 
 472      20202020 
 472      20202020 
 473 0685 000000   		.align	2
 474              	.LC68:
 475 0688 47696D62 		.ascii	"Gimbal Roll Servo Min:          \000"
 475      616C2052 
 475      6F6C6C20 
 475      53657276 
 475      6F204D69 
 476 06a9 000000   		.align	2
 477              	.LC69:
 478 06ac 47696D62 		.ascii	"Gimbal Roll Servo Mid:          \000"
 478      616C2052 
 478      6F6C6C20 
 478      53657276 
 478      6F204D69 
 479 06cd 000000   		.align	2
 480              	.LC70:
 481 06d0 47696D62 		.ascii	"Gimbal Roll Servo Max:          \000"
 481      616C2052 
 481      6F6C6C20 
 481      53657276 
 481      6F204D61 
 482 06f1 000000   		.align	2
 483              	.LC71:
 484 06f4 47696D62 		.ascii	"Gimbal Roll Servo Gain:         \000"
 484      616C2052 
 484      6F6C6C20 
 484      53657276 
 484      6F204761 
 485 0715 000000   		.align	2
 486              	.LC72:
 487 0718 47696D62 		.ascii	"Gimbal Pitch Servo Min:         \000"
 487      616C2050 
 487      69746368 
 487      20536572 
 487      766F204D 
 488 0739 000000   		.align	2
 489              	.LC73:
 490 073c 47696D62 		.ascii	"Gimbal Pitch Servo Mid:         \000"
 490      616C2050 
 490      69746368 
 490      20536572 
 490      766F204D 
 491 075d 000000   		.align	2
 492              	.LC74:
 493 0760 47696D62 		.ascii	"Gimbal Pitch Servo Max:         \000"
 493      616C2050 
 493      69746368 
 493      20536572 
 493      766F204D 
 494 0781 000000   		.align	2
 495              	.LC75:
 496 0784 47696D62 		.ascii	"Gimbal Pitch Servo Gain:        \000"
 496      616C2050 
 496      69746368 
 496      20536572 
 496      766F2047 
 497 07a5 000000   		.align	2
 498              	.LC76:
 499 07a8 4269436F 		.ascii	"BiCopter Left Servo Min:        \000"
 499      70746572 
 499      204C6566 
 499      74205365 
 499      72766F20 
 500 07c9 000000   		.align	2
 501              	.LC77:
 502 07cc 4269436F 		.ascii	"BiCopter Left Servo Mid:        \000"
 502      70746572 
 502      204C6566 
 502      74205365 
 502      72766F20 
 503 07ed 000000   		.align	2
 504              	.LC78:
 505 07f0 4269436F 		.ascii	"BiCopter Left Servo Max:        \000"
 505      70746572 
 505      204C6566 
 505      74205365 
 505      72766F20 
 506 0811 000000   		.align	2
 507              	.LC79:
 508 0814 4269436F 		.ascii	"BiCopter Right Servo Min:       \000"
 508      70746572 
 508      20526967 
 508      68742053 
 508      6572766F 
 509 0835 000000   		.align	2
 510              	.LC80:
 511 0838 4269436F 		.ascii	"BiCopter Right Servo Mid:       \000"
 511      70746572 
 511      20526967 
 511      68742053 
 511      6572766F 
 512 0859 000000   		.align	2
 513              	.LC81:
 514 085c 4269436F 		.ascii	"BiCopter Right Servo Max:       \000"
 514      70746572 
 514      20526967 
 514      68742053 
 514      6572766F 
 515 087d 000000   		.align	2
 516              	.LC82:
 517 0880 54726943 		.ascii	"TriCopter Yaw Servo Min:        \000"
 517      6F707465 
 517      72205961 
 517      77205365 
 517      72766F20 
 518 08a1 000000   		.align	2
 519              	.LC83:
 520 08a4 54726943 		.ascii	"TriCopter Yaw Servo Mid:        \000"
 520      6F707465 
 520      72205961 
 520      77205365 
 520      72766F20 
 521 08c5 000000   		.align	2
 522              	.LC84:
 523 08c8 54726943 		.ascii	"TriCopter Yaw Servo Max:        \000"
 523      6F707465 
 523      72205961 
 523      77205365 
 523      72766F20 
 524 08e9 000000   		.align	2
 525              	.LC85:
 526 08ec 526F6C6C 		.ascii	"Roll Direction Left:            \000"
 526      20446972 
 526      65637469 
 526      6F6E204C 
 526      6566743A 
 527 090d 000000   		.align	2
 528              	.LC86:
 529 0910 526F6C6C 		.ascii	"Roll Direction Right:           \000"
 529      20446972 
 529      65637469 
 529      6F6E2052 
 529      69676874 
 530 0931 000000   		.align	2
 531              	.LC87:
 532 0934 50697463 		.ascii	"Pitch Direction Left:           \000"
 532      68204469 
 532      72656374 
 532      696F6E20 
 532      4C656674 
 533 0955 000000   		.align	2
 534              	.LC88:
 535 0958 50697463 		.ascii	"Pitch Direction Right:          \000"
 535      68204469 
 535      72656374 
 535      696F6E20 
 535      52696768 
 536 0979 000000   		.align	2
 537              	.LC89:
 538 097c 57696E67 		.ascii	"Wing Left Minimum:              \000"
 538      204C6566 
 538      74204D69 
 538      6E696D75 
 538      6D3A2020 
 539 099d 000000   		.align	2
 540              	.LC90:
 541 09a0 57696E67 		.ascii	"Wing Left Maximum:              \000"
 541      204C6566 
 541      74204D61 
 541      78696D75 
 541      6D3A2020 
 542 09c1 000000   		.align	2
 543              	.LC91:
 544 09c4 57696E67 		.ascii	"Wing Right Minimum:             \000"
 544      20526967 
 544      6874204D 
 544      696E696D 
 544      756D3A20 
 545 09e5 000000   		.align	2
 546              	.LC92:
 547 09e8 57696E67 		.ascii	"Wing Right Maximum:             \000"
 547      20526967 
 547      6874204D 
 547      6178696D 
 547      756D3A20 
 548 0a09 000000   		.align	2
 549              	.LC93:
 550 0a0c 0A4E756D 		.ascii	"\012Number of Free Mixer Motors:  \000"
 550      62657220 
 550      6F662046 
 550      72656520 
 550      4D697865 
 551              		.align	2
 552              	.LC94:
 553 0a2c 0A0A00   		.ascii	"\012\012\000"
 554 0a2f 00       		.align	2
 555              	.LC95:
 556 0a30 20202020 		.ascii	"         Roll    Pitch   Yaw\012\000"
 556      20202020 
 556      20526F6C 
 556      6C202020 
 556      20506974 
 557 0a4e 0000     		.align	2
 558              	.LC96:
 559 0a50 4D6F746F 		.ascii	"Motor\000"
 559      7200
 560 0a56 0000     		.align	2
 561              	.LC97:
 562 0a58 202000   		.ascii	"  \000"
 563              		.global	__aeabi_f2d
 564              		.global	__aeabi_dmul
 565              		.global	__aeabi_d2f
 566 0a5b 00       		.align	2
 567              	.LC98:
 568 0a5c 0A526F6C 		.ascii	"\012Roll Rate PID Received....\012\000"
 568      6C205261 
 568      74652050 
 568      49442052 
 568      65636569 
 569 0a79 000000   		.align	2
 570              	.LC99:
 571 0a7c 0A506974 		.ascii	"\012Pitch Rate PID Received....\012\000"
 571      63682052 
 571      61746520 
 571      50494420 
 571      52656365 
 572 0a9a 0000     		.align	2
 573              	.LC100:
 574 0a9c 0A596177 		.ascii	"\012Yaw Rate PID Received....\012\000"
 574      20526174 
 574      65205049 
 574      44205265 
 574      63656976 
 575              		.align	2
 576              	.LC101:
 577 0ab8 0A526F6C 		.ascii	"\012Roll Attitude PID Received....\012\000"
 577      6C204174 
 577      74697475 
 577      64652050 
 577      49442052 
 578 0ad9 000000   		.align	2
 579              	.LC102:
 580 0adc 0A506974 		.ascii	"\012Pitch Attitude PID Received....\012\000"
 580      63682041 
 580      74746974 
 580      75646520 
 580      50494420 
 581 0afe 0000     		.align	2
 582              	.LC103:
 583 0b00 0A486561 		.ascii	"\012Heading PID Received....\012\000"
 583      64696E67 
 583      20504944 
 583      20526563 
 583      65697665 
 584 0b1b 00       		.align	2
 585              	.LC104:
 586 0b1c 0A526563 		.ascii	"\012Receiver PWM Input Type Received....\012\000"
 586      65697665 
 586      72205057 
 586      4D20496E 
 586      70757420 
 587 0b43 00       		.align	2
 588              	.LC105:
 589 0b44 0A524320 		.ascii	"\012RC Channel Order Received....\000"
 589      4368616E 
 589      6E656C20 
 589      4F726465 
 589      72205265 
 590 0b63 00       		.align	2
 591              	.LC106:
 592 0b64 0A436F6E 		.ascii	"\012Controlling Attitude Estimator Received....\012"
 592      74726F6C 
 592      6C696E67 
 592      20417474 
 592      69747564 
 593 0b91 00       		.ascii	"\000"
 594 0b92 0000     		.align	2
 595              	.LC107:
 596 0b94 0A436F6E 		.ascii	"\012Controlling Pressure Sensor Received....\012\000"
 596      74726F6C 
 596      6C696E67 
 596      20507265 
 596      73737572 
 597 0bbf 00       		.align	2
 598              	.LC108:
 599 0bc0 0A4D6978 		.ascii	"\012Mixer Configuration Received....\012\000"
 599      65722043 
 599      6F6E6669 
 599      67757261 
 599      74696F6E 
 600 0be3 00       		.align	2
 601              	.LC109:
 602 0be4 0A562054 		.ascii	"\012V Tail Angle Received....\012\000"
 602      61696C20 
 602      416E676C 
 602      65205265 
 602      63656976 
 603              		.align	2
 604              	.LC110:
 605 0c00 0A50574D 		.ascii	"\012PWM Update Rates Received....\012\000"
 605      20557064 
 605      61746520 
 605      52617465 
 605      73205265 
 606              		.align	2
 607              	.LC111:
 608 0c20 0A524320 		.ascii	"\012RC Control Points Received....\012\000"
 608      436F6E74 
 608      726F6C20 
 608      506F696E 
 608      74732052 
 609 0c41 000000   		.align	2
 610              	.LC112:
 611 0c44 0A47696D 		.ascii	"\012Gimbal Roll Servo Parameters Received....\012\000"
 611      62616C20 
 611      526F6C6C 
 611      20536572 
 611      766F2050 
 612              		.align	2
 613              	.LC113:
 614 0c70 0A47696D 		.ascii	"\012Gimbal Pitch Servo Parameters Received....\012\000"
 614      62616C20 
 614      50697463 
 614      68205365 
 614      72766F20 
 615 0c9d 000000   		.align	2
 616              	.LC114:
 617 0ca0 0A426943 		.ascii	"\012BiCopter Left Servo Parameters Received....\012"
 617      6F707465 
 617      72204C65 
 617      66742053 
 617      6572766F 
 618 0ccd 00       		.ascii	"\000"
 619 0cce 0000     		.align	2
 620              	.LC115:
 621 0cd0 0A426943 		.ascii	"\012BiCopter Right Servo Parameters Received....\012"
 621      6F707465 
 621      72205269 
 621      67687420 
 621      53657276 
 622 0cfe 00       		.ascii	"\000"
 623 0cff 00       		.align	2
 624              	.LC116:
 625 0d00 0A547269 		.ascii	"\012TriCopter Yaw Servo Parameters Received....\012"
 625      436F7074 
 625      65722059 
 625      61772053 
 625      6572766F 
 626 0d2d 00       		.ascii	"\000"
 627 0d2e 0000     		.align	2
 628              	.LC117:
 629 0d30 0A466C79 		.ascii	"\012Flying Wing Servo Directions Received....\012\000"
 629      696E6720 
 629      57696E67 
 629      20536572 
 629      766F2044 
 630              		.align	2
 631              	.LC118:
 632 0d5c 0A466C79 		.ascii	"\012Flying Wing Servo Limits Received....\012\000"
 632      696E6720 
 632      57696E67 
 632      20536572 
 632      766F204C 
 633              		.align	2
 634              	.LC119:
 635 0d84 0A467265 		.ascii	"\012Free Mix Motor Number Received....\012\000"
 635      65204D69 
 635      78204D6F 
 635      746F7220 
 635      4E756D62 
 636 0da9 000000   		.align	2
 637              	.LC120:
 638 0dac 0A467265 		.ascii	"\012Free Mix Value Received....\012\000"
 638      65204D69 
 638      78205661 
 638      6C756520 
 638      52656365 
 639 0dca 0000     		.align	2
 640              	.LC121:
 641 0dcc 0A416363 		.ascii	"\012Accel Cutoff Received....\012\000"
 641      656C2043 
 641      75746F66 
 641      66205265 
 641      63656976 
 642              		.align	2
 643              	.LC122:
 644 0de8 0A426574 		.ascii	"\012Beta Received....\012\000"
 644      61205265 
 644      63656976 
 644      65642E2E 
 644      2E2E0A00 
 645              		.align	2
 646              	.LC123:
 647 0dfc 0A6B7041 		.ascii	"\012kpAcc and kiAcc Received....\012\000"
 647      63632061 
 647      6E64206B 
 647      69416363 
 647      20526563 
 648 0e1b 00       		.align	2
 649              	.LC124:
 650 0e1c 0A6B704D 		.ascii	"\012kpMag and kiMaf Received....\012\000"
 650      61672061 
 650      6E64206B 
 650      694D6166 
 650      20526563 
 651 0e3b 00       		.align	2
 652              	.LC125:
 653 0e3c 0A416363 		.ascii	"\012Accel Variance Received....\012\000"
 653      656C2056 
 653      61726961 
 653      6E636520 
 653      52656365 
 654 0e5a 0000     		.align	2
 655              	.LC126:
 656 0e5c 0A4D6167 		.ascii	"\012Mag Variance Received....\012\000"
 656      20566172 
 656      69616E63 
 656      65205265 
 656      63656976 
 657              		.align	2
 658              	.LC127:
 659 0e78 0A205072 		.ascii	"\012 Process Variance  Received....\012\000"
 659      6F636573 
 659      73205661 
 659      7269616E 
 659      63652020 
 660 0e9a 0000     		.align	2
 661              	.LC128:
 662 0e9c 0A454550 		.ascii	"\012EEPROM Configuration Reset....\012\000"
 662      524F4D20 
 662      436F6E66 
 662      69677572 
 662      6174696F 
 663 0ebd 000000   		.align	2
 664              	.LC129:
 665 0ec0 0A577269 		.ascii	"\012Writing EEPROM Sensor Parameters....\012\000"
 665      74696E67 
 665      20454550 
 665      524F4D20 
 665      53656E73 
 666 0ee7 00       		.align	2
 667              	.LC130:
 668 0ee8 0A537973 		.ascii	"\012System Reseting....\012\000"
 668      74656D20 
 668      52657365 
 668      74696E67 
 668      2E2E2E2E 
 669 0efe 0000     		.align	2
 670              	.LC131:
 671 0f00 0A456E74 		.ascii	"\012Entering Bootloader....\000"
 671      6572696E 
 671      6720426F 
 671      6F746C6F 
 671      61646572 
 672 0f19 000000   		.align	2
 673              	.LC132:
 674 0f1c 27612720 		.ascii	"'a' Loop Delta Times                       'A' Set "
 674      4C6F6F70 
 674      2044656C 
 674      74612054 
 674      696D6573 
 675 0f4f 526F6C6C 		.ascii	"Roll Rate PID Data   AP;I;D;WindupGuard\012\000"
 675      20526174 
 675      65205049 
 675      44204461 
 675      74612020 
 676              		.align	2
 677              	.LC133:
 678 0f78 27622720 		.ascii	"'b' Loop Execution Times                   'B' Set "
 678      4C6F6F70 
 678      20457865 
 678      63757469 
 678      6F6E2054 
 679 0fab 50697463 		.ascii	"Pitch Rate PID Data  BP;I;D;WindupGuard\012\000"
 679      68205261 
 679      74652050 
 679      49442044 
 679      61746120 
 680              		.align	2
 681              	.LC134:
 682 0fd4 27632720 		.ascii	"'c' Accel Calibration                      'C' Set "
 682      41636365 
 682      6C204361 
 682      6C696272 
 682      6174696F 
 683 1007 59617720 		.ascii	"Yaw Rate PID Data    CP;I;D;WindupGuard\012\000"
 683      52617465 
 683      20504944 
 683      20446174 
 683      61202020 
 684              		.align	2
 685              	.LC135:
 686 1030 27642720 		.ascii	"'d' Gyro Temp Calibration                  'D' Set "
 686      4779726F 
 686      2054656D 
 686      70204361 
 686      6C696272 
 687 1063 526F6C6C 		.ascii	"Roll Att PID Data    DP;I;D;WindupGuard\012\000"
 687      20417474 
 687      20504944 
 687      20446174 
 687      61202020 
 688              		.align	2
 689              	.LC136:
 690 108c 27652720 		.ascii	"'e' Mag Calibration                        'E' Set "
 690      4D616720 
 690      43616C69 
 690      62726174 
 690      696F6E20 
 691 10bf 50697463 		.ascii	"Pitch Att PID Data   EP;I;D;WindupGuard\012\000"
 691      68204174 
 691      74205049 
 691      44204461 
 691      74612020 
 692              		.align	2
 693              	.LC137:
 694 10e8 27662720 		.ascii	"'f' Kalman Calibration                     'F' Set "
 694      4B616C6D 
 694      616E2043 
 694      616C6962 
 694      72617469 
 695 111b 48646720 		.ascii	"Hdg Hold PID Data    FP;I;D;WindupGuard\012\000"
 695      486F6C64 
 695      20504944 
 695      20446174 
 695      61202020 
 696              		.align	2
 697              	.LC138:
 698 1144 27672720 		.ascii	"'g' ESC Calibration                        'G' Set "
 698      45534320 
 698      43616C69 
 698      62726174 
 698      696F6E20 
 699 1177 416C7420 		.ascii	"Alt Hold PID Data\012\000"
 699      486F6C64 
 699      20504944 
 699      20446174 
 699      610A00
 700 118a 0000     		.align	2
 701              	.LC139:
 702 118c 27682720 		.ascii	"'h' 200 Hz Gyro Data                       'H' Set "
 702      32303020 
 702      487A2047 
 702      79726F20 
 702      44617461 
 703 11bf 52582049 		.ascii	"RX Input Type\012\000"
 703      6E707574 
 703      20547970 
 703      650A00
 704 11ce 0000     		.align	2
 705              	.LC140:
 706 11d0 27692720 		.ascii	"'i' 200 Hz Accel Data                      'I' Set "
 706      32303020 
 706      487A2041 
 706      6363656C 
 706      20446174 
 707 1203 52432043 		.ascii	"RC Control Order\012\000"
 707      6F6E7472 
 707      6F6C204F 
 707      72646572 
 707      0A00
 708 1215 000000   		.align	2
 709              	.LC141:
 710 1218 276A2720 		.ascii	"'j' 50 Hz Mag Data                         'J' Set "
 710      35302048 
 710      7A204D61 
 710      67204461 
 710      74612020 
 711 124b 436F6E74 		.ascii	"Controlling Attitude Estimator\012\000"
 711      726F6C6C 
 711      696E6720 
 711      41747469 
 711      74756465 
 712 126b 00       		.align	2
 713              	.LC142:
 714 126c 276B2720 		.ascii	"'k' 10 Hz Pressure Alt (MS5611, MPXA6115A) 'K' Set "
 714      31302048 
 714      7A205072 
 714      65737375 
 714      72652041 
 715 129f 436F6E74 		.ascii	"Controlling Pressure Sensor\012\000"
 715      726F6C6C 
 715      696E6720 
 715      50726573 
 715      73757265 
 716              		.align	2
 717              	.LC143:
 718 12bc 276C2720 		.ascii	"'l' Euler Angles (CHR, MDGWK, MARG)        'L' Set "
 718      45756C65 
 718      7220416E 
 718      676C6573 
 718      20284348 
 719 12ef 4D697865 		.ascii	"Mixer Configuration\012\000"
 719      7220436F 
 719      6E666967 
 719      75726174 
 719      696F6E0A 
 720              		.align	2
 721              	.LC144:
 722 1304 50726573 		.ascii	"Press space bar for more, or enter a command....\012"
 722      73207370 
 722      61636520 
 722      62617220 
 722      666F7220 
 723 1335 00       		.ascii	"\000"
 724 1336 0000     		.align	2
 725              	.LC145:
 726 1338 276D2720 		.ascii	"'m' Processed Receiver Commands            'M' Set "
 726      50726F63 
 726      65737365 
 726      64205265 
 726      63656976 
 727 136b 56205461 		.ascii	"V Tail Angle\012\000"
 727      696C2041 
 727      6E676C65 
 727      0A00
 728 1379 000000   		.align	2
 729              	.LC146:
 730 137c 276E2720 		.ascii	"'n' Command in Detent Discretes            'N' Set "
 730      436F6D6D 
 730      616E6420 
 730      696E2044 
 730      6574656E 
 731 13af 50574D20 		.ascii	"PWM Rates  NESC;Servo\012\000"
 731      52617465 
 731      7320204E 
 731      4553433B 
 731      53657276 
 732 13c6 0000     		.align	2
 733              	.LC147:
 734 13c8 276F2720 		.ascii	"'o' ESC PWM Outputs                        'O' Set "
 734      45534320 
 734      50574D20 
 734      4F757470 
 734      75747320 
 735 13fb 52432043 		.ascii	"RC Control Points\012\000"
 735      6F6E7472 
 735      6F6C2050 
 735      6F696E74 
 735      730A00
 736 140e 0000     		.align	2
 737              	.LC148:
 738 1410 27702720 		.ascii	"'p' Servo PWM Outputs                      'P' Set "
 738      53657276 
 738      6F205057 
 738      4D204F75 
 738      74707574 
 739 1443 47696D62 		.ascii	"Gimbal Roll Servo Parameters\012\000"
 739      616C2052 
 739      6F6C6C20 
 739      53657276 
 739      6F205061 
 740 1461 000000   		.align	2
 741              	.LC149:
 742 1464 27712720 		.ascii	"'q' Rate PIDs                              'Q' Set "
 742      52617465 
 742      20504944 
 742      73202020 
 742      20202020 
 743 1497 47696D62 		.ascii	"Gimbal Pitch Servo Parameters\012\000"
 743      616C2050 
 743      69746368 
 743      20536572 
 743      766F2050 
 744 14b6 0000     		.align	2
 745              	.LC150:
 746 14b8 27722720 		.ascii	"'r' Attitude PIDs                          'R' Set "
 746      41747469 
 746      74756465 
 746      20504944 
 746      73202020 
 747 14eb 4269436F 		.ascii	"BiCopter Left Servo Parameters\012\000"
 747      70746572 
 747      204C6566 
 747      74205365 
 747      72766F20 
 748 150b 00       		.align	2
 749              	.LC151:
 750 150c 27732720 		.ascii	"'s' Altitude PIDs (TBD)                    'S' Set "
 750      416C7469 
 750      74756465 
 750      20504944 
 750      73202854 
 751 153f 4269436F 		.ascii	"BiCopter Right Servo Paramters\012\000"
 751      70746572 
 751      20526967 
 751      68742053 
 751      6572766F 
 752 155f 00       		.align	2
 753              	.LC152:
 754 1560 27742720 		.ascii	"'t' Sensor Calibration Data                'T' Set "
 754      53656E73 
 754      6F722043 
 754      616C6962 
 754      72617469 
 755 1593 54726943 		.ascii	"TriCopter Servo Paramters\012\000"
 755      6F707465 
 755      72205365 
 755      72766F20 
 755      50617261 
 756 15ae 0000     		.align	2
 757              	.LC153:
 758 15b0 27752720 		.ascii	"'u' System Configuration Data              'U' Set "
 758      53797374 
 758      656D2043 
 758      6F6E6669 
 758      67757261 
 759 15e3 466C7969 		.ascii	"Flying Wing Servo Directions\012\000"
 759      6E672057 
 759      696E6720 
 759      53657276 
 759      6F204469 
 760 1601 000000   		.align	2
 761              	.LC154:
 762 1604 27762720 		.ascii	"'v' Free Mix Element Display               'V' Set "
 762      46726565 
 762      204D6978 
 762      20456C65 
 762      6D656E74 
 763 1637 466C7969 		.ascii	"Flying Wing Servo Limits\012\000"
 763      6E672057 
 763      696E6720 
 763      53657276 
 763      6F204C69 
 764 1651 000000   		.align	2
 765              	.LC155:
 766 1654 27772720 		.ascii	"'w' Raw Receiver Commands                  'W' Set "
 766      52617720 
 766      52656365 
 766      69766572 
 766      20436F6D 
 767 1687 4E756D62 		.ascii	"Number of FreeMix Motors\012\000"
 767      6572206F 
 767      66204672 
 767      65654D69 
 767      78204D6F 
 768 16a1 000000   		.align	2
 769              	.LC156:
 770 16a4 27782720 		.ascii	"'x' Terminate Serial Communication         'X' Set "
 770      5465726D 
 770      696E6174 
 770      65205365 
 770      7269616C 
 771 16d7 46726565 		.ascii	"FreeMix Matrix Element\012\000"
 771      4D697820 
 771      4D617472 
 771      69782045 
 771      6C656D65 
 772 16ef 00       		.align	2
 773              	.LC157:
 774 16f0 27792720 		.ascii	"'y' Not Used                               'Y' Set "
 774      4E6F7420 
 774      55736564 
 774      20202020 
 774      20202020 
 775 1723 41636365 		.ascii	"Accel Cutoff\012\000"
 775      6C204375 
 775      746F6666 
 775      0A00
 776 1731 000000   		.align	2
 777              	.LC158:
 778 1734 277A2720 		.ascii	"'z' Not Used                               'Z' Set "
 778      4E6F7420 
 778      55736564 
 778      20202020 
 778      20202020 
 779 1767 42657461 		.ascii	"Beta\012\000"
 779      0A00
 780 176d 000000   		.align	2
 781              	.LC159:
 782 1770 27312720 		.ascii	"'1' Toggle High Speed Accel Telem  On/Off  '!' Set "
 782      546F6767 
 782      6C652048 
 782      69676820 
 782      53706565 
 783 17a3 6B704163 		.ascii	"kpAcc/kiAcc\012\000"
 783      632F6B69 
 783      4163630A 
 783      00
 784              		.align	2
 785              	.LC160:
 786 17b0 27322720 		.ascii	"'2' Toggle High Speed Gyro Telem   On/Off  '@' Set "
 786      546F6767 
 786      6C652048 
 786      69676820 
 786      53706565 
 787 17e3 6B704D61 		.ascii	"kpMag/kiMag\012\000"
 787      672F6B69 
 787      4D61670A 
 787      00
 788              		.align	2
 789              	.LC161:
 790 17f0 27332720 		.ascii	"'3' Toggle High Speed P Loop Telem On/Off  '#' Set "
 790      546F6767 
 790      6C652048 
 790      69676820 
 790      53706565 
 791 1823 41636365 		.ascii	"Accel Variance\012\000"
 791      6C205661 
 791      7269616E 
 791      63650A00 
 792 1833 00       		.align	2
 793              	.LC162:
 794 1834 27342720 		.ascii	"'4' Toggle High Speed Q Loop Telem On/Off  '$' Set "
 794      546F6767 
 794      6C652048 
 794      69676820 
 794      53706565 
 795 1867 4D616720 		.ascii	"Mag Variance\012\000"
 795      56617269 
 795      616E6365 
 795      0A00
 796 1875 000000   		.align	2
 797              	.LC163:
 798 1878 27352720 		.ascii	"'5' Toggle High Speed R Loop Telem On/Off  '%' Set "
 798      546F6767 
 798      6C652048 
 798      69676820 
 798      53706565 
 799 18ab 50726F63 		.ascii	"Process Variance\012\000"
 799      65737320 
 799      56617269 
 799      616E6365 
 799      0A00
 800 18bd 000000   		.align	2
 801              	.LC164:
 802 18c0 27362720 		.ascii	"'6' Toggle High Speed Att Telem    On/Off  '^' Rese"
 802      546F6767 
 802      6C652048 
 802      69676820 
 802      53706565 
 803 18f3 74204545 		.ascii	"t EEPROM\012\000"
 803      50524F4D 
 803      0A00
 804 18fd 000000   		.align	2
 805              	.LC165:
 806 1900 27372720 		.ascii	"'7' Not Used                               '&' Writ"
 806      4E6F7420 
 806      55736564 
 806      20202020 
 806      20202020 
 807 1933 65204545 		.ascii	"e EEPROM\012\000"
 807      50524F4D 
 807      0A00
 808 193d 000000   		.align	2
 809              	.LC166:
 810 1940 27382720 		.ascii	"'8' Not Used                               '*' Rese"
 810      4E6F7420 
 810      55736564 
 810      20202020 
 810      20202020 
 811 1973 740A00   		.ascii	"t\012\000"
 812 1976 0000     		.align	2
 813              	.LC167:
 814 1978 27392720 		.ascii	"'9' Not Used                               '(' Rese"
 814      4E6F7420 
 814      55736564 
 814      20202020 
 814      20202020 
 815 19ab 7420616E 		.ascii	"t and Enter Bootloader\012\000"
 815      6420456E 
 815      74657220 
 815      426F6F74 
 815      6C6F6164 
 816 19c3 00       		.align	2
 817              	.LC168:
 818 19c4 27302720 		.ascii	"'0' Not Used                               ')' Not "
 818      4E6F7420 
 818      55736564 
 818      20202020 
 818      20202020 
 819 19f7 55736564 		.ascii	"Used\012\000"
 819      0A00
 820 19fd 000000   		.align	2
 821              	.LC169:
 822 1a00 20202020 		.ascii	"                                           '?' Comm"
 822      20202020 
 822      20202020 
 822      20202020 
 822      20202020 
 823 1a33 616E6420 		.ascii	"and Summary\012\000"
 823      53756D6D 
 823      6172790A 
 823      00
 824              		.text
 825              		.align	2
 826              		.global	serialCom
 827              		.thumb
 828              		.thumb_func
 830              	serialCom:
 831              		@ args = 0, pretend = 0, frame = 40
 832              		@ frame_needed = 0, uses_anonymous_args = 0
 833 01e8 30B5     		push	{r4, r5, lr}
 834 01ea 8BB0     		sub	sp, sp, #44
 835 01ec FFF7FEFF 		bl	usbAvailable
 836 01f0 0346     		mov	r3, r0
 837 01f2 002B     		cmp	r3, #0
 838 01f4 10D0     		beq	.L17
 839 01f6 40F20003 		movw	r3, #:lower16:validCommand
 840 01fa C0F20003 		movt	r3, #:upper16:validCommand
 841 01fe 1B78     		ldrb	r3, [r3, #0]
 842 0200 DBB2     		uxtb	r3, r3
 843 0202 002B     		cmp	r3, #0
 844 0204 08D1     		bne	.L17
 845 0206 FFF7FEFF 		bl	usbRead
 846 020a 0346     		mov	r3, r0
 847 020c DAB2     		uxtb	r2, r3
 848 020e 40F20003 		movw	r3, #:lower16:queryType
 849 0212 C0F20003 		movt	r3, #:upper16:queryType
 850 0216 1A70     		strb	r2, [r3, #0]
 851              	.L17:
 852 0218 40F20003 		movw	r3, #:lower16:queryType
 853 021c C0F20003 		movt	r3, #:upper16:queryType
 854 0220 1B78     		ldrb	r3, [r3, #0]
 855 0222 DBB2     		uxtb	r3, r3
 856 0224 A3F12103 		sub	r3, r3, #33
 857 0228 592B     		cmp	r3, #89
 858 022a 03F25A82 		bhi	.L16
 859 022e 01A0     		adr	r0, .L87
 860 0230 50F823F0 		ldr	pc, [r0, r3, lsl #2]
 861              		.align	2
 862              	.L87:
 863 0234 79320000 		.word	.L19+1
 864 0238 E3360000 		.word	.L16+1
 865 023c F1320000 		.word	.L20+1
 866 0240 1D330000 		.word	.L21+1
 867 0244 49330000 		.word	.L22+1
 868 0248 9B330000 		.word	.L23+1
 869 024c E3360000 		.word	.L16+1
 870 0250 DB330000 		.word	.L24+1
 871 0254 E3360000 		.word	.L16+1
 872 0258 BD330000 		.word	.L25+1
 873 025c E3360000 		.word	.L16+1
 874 0260 E3360000 		.word	.L16+1
 875 0264 E3360000 		.word	.L16+1
 876 0268 E3360000 		.word	.L16+1
 877 026c E3360000 		.word	.L16+1
 878 0270 E3360000 		.word	.L16+1
 879 0274 CD280000 		.word	.L26+1
 880 0278 0B290000 		.word	.L27+1
 881 027c 49290000 		.word	.L28+1
 882 0280 87290000 		.word	.L29+1
 883 0284 C5290000 		.word	.L30+1
 884 0288 032A0000 		.word	.L31+1
 885 028c E3360000 		.word	.L16+1
 886 0290 E3360000 		.word	.L16+1
 887 0294 E3360000 		.word	.L16+1
 888 0298 E3360000 		.word	.L16+1
 889 029c E3360000 		.word	.L16+1
 890 02a0 E3360000 		.word	.L16+1
 891 02a4 E3360000 		.word	.L16+1
 892 02a8 E3360000 		.word	.L16+1
 893 02ac F9330000 		.word	.L32+1
 894 02b0 B5320000 		.word	.L33+1
 895 02b4 412A0000 		.word	.L34+1
 896 02b8 752A0000 		.word	.L35+1
 897 02bc A92A0000 		.word	.L36+1
 898 02c0 DD2A0000 		.word	.L37+1
 899 02c4 112B0000 		.word	.L38+1
 900 02c8 452B0000 		.word	.L39+1
 901 02cc 792B0000 		.word	.L40+1
 902 02d0 992B0000 		.word	.L41+1
 903 02d4 E32B0000 		.word	.L42+1
 904 02d8 372C0000 		.word	.L43+1
 905 02dc 812C0000 		.word	.L44+1
 906 02e0 CB2C0000 		.word	.L45+1
 907 02e4 192D0000 		.word	.L46+1
 908 02e8 572D0000 		.word	.L47+1
 909 02ec E32D0000 		.word	.L48+1
 910 02f0 692E0000 		.word	.L49+1
 911 02f4 DD2E0000 		.word	.L50+1
 912 02f8 4F2F0000 		.word	.L51+1
 913 02fc AF2F0000 		.word	.L52+1
 914 0300 0F300000 		.word	.L53+1
 915 0304 6F300000 		.word	.L54+1
 916 0308 E1300000 		.word	.L55+1
 917 030c 53310000 		.word	.L56+1
 918 0310 9F310000 		.word	.L57+1
 919 0314 21320000 		.word	.L58+1
 920 0318 4D320000 		.word	.L59+1
 921 031c E3360000 		.word	.L16+1
 922 0320 E3360000 		.word	.L16+1
 923 0324 E3360000 		.word	.L16+1
 924 0328 75330000 		.word	.L60+1
 925 032c E3360000 		.word	.L16+1
 926 0330 E3360000 		.word	.L16+1
 927 0334 9D030000 		.word	.L61+1
 928 0338 0F050000 		.word	.L62+1
 929 033c 81060000 		.word	.L63+1
 930 0340 A5060000 		.word	.L64+1
 931 0344 C9060000 		.word	.L65+1
 932 0348 ED060000 		.word	.L66+1
 933 034c 11070000 		.word	.L67+1
 934 0350 31070000 		.word	.L68+1
 935 0354 07080000 		.word	.L69+1
 936 0358 91080000 		.word	.L70+1
 937 035c 1B090000 		.word	.L71+1
 938 0360 81090000 		.word	.L72+1
 939 0364 670B0000 		.word	.L73+1
 940 0368 F10B0000 		.word	.L74+1
 941 036c 9F0C0000 		.word	.L75+1
 942 0370 090E0000 		.word	.L76+1
 943 0374 9F0E0000 		.word	.L77+1
 944 0378 71110000 		.word	.L78+1
 945 037c 43140000 		.word	.L79+1
 946 0380 63140000 		.word	.L80+1
 947 0384 FF190000 		.word	.L81+1
 948 0388 8B260000 		.word	.L82+1
 949 038c 09280000 		.word	.L83+1
 950 0390 29280000 		.word	.L84+1
 951 0394 3B280000 		.word	.L85+1
 952 0398 4D280000 		.word	.L86+1
 953              	.L61:
 954 039c 40F20003 		movw	r3, #:lower16:deltaTime1000Hz
 955 03a0 C0F20003 		movt	r3, #:upper16:deltaTime1000Hz
 956 03a4 1B68     		ldr	r3, [r3, #0]
 957 03a6 1846     		mov	r0, r3
 958 03a8 04AB     		add	r3, sp, #16
 959 03aa 1946     		mov	r1, r3
 960 03ac 4FF00A02 		mov	r2, #10
 961 03b0 FFF7FEFF 		bl	itoa
 962 03b4 04AB     		add	r3, sp, #16
 963 03b6 1846     		mov	r0, r3
 964 03b8 FFF7FEFF 		bl	usbPrint
 965 03bc 40F20000 		movw	r0, #:lower16:.LC0
 966 03c0 C0F20000 		movt	r0, #:upper16:.LC0
 967 03c4 FFF7FEFF 		bl	usbPrint
 968 03c8 40F20003 		movw	r3, #:lower16:deltaTime500Hz
 969 03cc C0F20003 		movt	r3, #:upper16:deltaTime500Hz
 970 03d0 1B68     		ldr	r3, [r3, #0]
 971 03d2 1846     		mov	r0, r3
 972 03d4 04AB     		add	r3, sp, #16
 973 03d6 1946     		mov	r1, r3
 974 03d8 4FF00A02 		mov	r2, #10
 975 03dc FFF7FEFF 		bl	itoa
 976 03e0 04AB     		add	r3, sp, #16
 977 03e2 1846     		mov	r0, r3
 978 03e4 FFF7FEFF 		bl	usbPrint
 979 03e8 40F20000 		movw	r0, #:lower16:.LC0
 980 03ec C0F20000 		movt	r0, #:upper16:.LC0
 981 03f0 FFF7FEFF 		bl	usbPrint
 982 03f4 40F20003 		movw	r3, #:lower16:deltaTime200Hz
 983 03f8 C0F20003 		movt	r3, #:upper16:deltaTime200Hz
 984 03fc 1B68     		ldr	r3, [r3, #0]
 985 03fe 1846     		mov	r0, r3
 986 0400 04AB     		add	r3, sp, #16
 987 0402 1946     		mov	r1, r3
 988 0404 4FF00A02 		mov	r2, #10
 989 0408 FFF7FEFF 		bl	itoa
 990 040c 04AB     		add	r3, sp, #16
 991 040e 1846     		mov	r0, r3
 992 0410 FFF7FEFF 		bl	usbPrint
 993 0414 40F20000 		movw	r0, #:lower16:.LC0
 994 0418 C0F20000 		movt	r0, #:upper16:.LC0
 995 041c FFF7FEFF 		bl	usbPrint
 996 0420 40F20003 		movw	r3, #:lower16:deltaTime100Hz
 997 0424 C0F20003 		movt	r3, #:upper16:deltaTime100Hz
 998 0428 1B68     		ldr	r3, [r3, #0]
 999 042a 1846     		mov	r0, r3
 1000 042c 04AB     		add	r3, sp, #16
 1001 042e 1946     		mov	r1, r3
 1002 0430 4FF00A02 		mov	r2, #10
 1003 0434 FFF7FEFF 		bl	itoa
 1004 0438 04AB     		add	r3, sp, #16
 1005 043a 1846     		mov	r0, r3
 1006 043c FFF7FEFF 		bl	usbPrint
 1007 0440 40F20000 		movw	r0, #:lower16:.LC0
 1008 0444 C0F20000 		movt	r0, #:upper16:.LC0
 1009 0448 FFF7FEFF 		bl	usbPrint
 1010 044c 40F20003 		movw	r3, #:lower16:deltaTime50Hz
 1011 0450 C0F20003 		movt	r3, #:upper16:deltaTime50Hz
 1012 0454 1B68     		ldr	r3, [r3, #0]
 1013 0456 1846     		mov	r0, r3
 1014 0458 04AB     		add	r3, sp, #16
 1015 045a 1946     		mov	r1, r3
 1016 045c 4FF00A02 		mov	r2, #10
 1017 0460 FFF7FEFF 		bl	itoa
 1018 0464 04AB     		add	r3, sp, #16
 1019 0466 1846     		mov	r0, r3
 1020 0468 FFF7FEFF 		bl	usbPrint
 1021 046c 40F20000 		movw	r0, #:lower16:.LC0
 1022 0470 C0F20000 		movt	r0, #:upper16:.LC0
 1023 0474 FFF7FEFF 		bl	usbPrint
 1024 0478 40F20003 		movw	r3, #:lower16:deltaTime10Hz
 1025 047c C0F20003 		movt	r3, #:upper16:deltaTime10Hz
 1026 0480 1B68     		ldr	r3, [r3, #0]
 1027 0482 1846     		mov	r0, r3
 1028 0484 04AB     		add	r3, sp, #16
 1029 0486 1946     		mov	r1, r3
 1030 0488 4FF00A02 		mov	r2, #10
 1031 048c FFF7FEFF 		bl	itoa
 1032 0490 04AB     		add	r3, sp, #16
 1033 0492 1846     		mov	r0, r3
 1034 0494 FFF7FEFF 		bl	usbPrint
 1035 0498 40F20000 		movw	r0, #:lower16:.LC0
 1036 049c C0F20000 		movt	r0, #:upper16:.LC0
 1037 04a0 FFF7FEFF 		bl	usbPrint
 1038 04a4 40F20003 		movw	r3, #:lower16:deltaTime5Hz
 1039 04a8 C0F20003 		movt	r3, #:upper16:deltaTime5Hz
 1040 04ac 1B68     		ldr	r3, [r3, #0]
 1041 04ae 1846     		mov	r0, r3
 1042 04b0 04AB     		add	r3, sp, #16
 1043 04b2 1946     		mov	r1, r3
 1044 04b4 4FF00A02 		mov	r2, #10
 1045 04b8 FFF7FEFF 		bl	itoa
 1046 04bc 04AB     		add	r3, sp, #16
 1047 04be 1846     		mov	r0, r3
 1048 04c0 FFF7FEFF 		bl	usbPrint
 1049 04c4 40F20000 		movw	r0, #:lower16:.LC0
 1050 04c8 C0F20000 		movt	r0, #:upper16:.LC0
 1051 04cc FFF7FEFF 		bl	usbPrint
 1052 04d0 40F20003 		movw	r3, #:lower16:deltaTime1Hz
 1053 04d4 C0F20003 		movt	r3, #:upper16:deltaTime1Hz
 1054 04d8 1B68     		ldr	r3, [r3, #0]
 1055 04da 1846     		mov	r0, r3
 1056 04dc 04AB     		add	r3, sp, #16
 1057 04de 1946     		mov	r1, r3
 1058 04e0 4FF00A02 		mov	r2, #10
 1059 04e4 FFF7FEFF 		bl	itoa
 1060 04e8 04AB     		add	r3, sp, #16
 1061 04ea 1846     		mov	r0, r3
 1062 04ec FFF7FEFF 		bl	usbPrint
 1063 04f0 40F20000 		movw	r0, #:lower16:.LC1
 1064 04f4 C0F20000 		movt	r0, #:upper16:.LC1
 1065 04f8 FFF7FEFF 		bl	usbPrint
 1066 04fc 40F20003 		movw	r3, #:lower16:validCommand
 1067 0500 C0F20003 		movt	r3, #:upper16:validCommand
 1068 0504 4FF00002 		mov	r2, #0
 1069 0508 1A70     		strb	r2, [r3, #0]
 1070 050a 03F0EAB8 		b	.L16
 1071              	.L62:
 1072 050e 40F20003 		movw	r3, #:lower16:executionTime1000Hz
 1073 0512 C0F20003 		movt	r3, #:upper16:executionTime1000Hz
 1074 0516 1B68     		ldr	r3, [r3, #0]
 1075 0518 1846     		mov	r0, r3
 1076 051a 04AB     		add	r3, sp, #16
 1077 051c 1946     		mov	r1, r3
 1078 051e 4FF00A02 		mov	r2, #10
 1079 0522 FFF7FEFF 		bl	itoa
 1080 0526 04AB     		add	r3, sp, #16
 1081 0528 1846     		mov	r0, r3
 1082 052a FFF7FEFF 		bl	usbPrint
 1083 052e 40F20000 		movw	r0, #:lower16:.LC0
 1084 0532 C0F20000 		movt	r0, #:upper16:.LC0
 1085 0536 FFF7FEFF 		bl	usbPrint
 1086 053a 40F20003 		movw	r3, #:lower16:executionTime500Hz
 1087 053e C0F20003 		movt	r3, #:upper16:executionTime500Hz
 1088 0542 1B68     		ldr	r3, [r3, #0]
 1089 0544 1846     		mov	r0, r3
 1090 0546 04AB     		add	r3, sp, #16
 1091 0548 1946     		mov	r1, r3
 1092 054a 4FF00A02 		mov	r2, #10
 1093 054e FFF7FEFF 		bl	itoa
 1094 0552 04AB     		add	r3, sp, #16
 1095 0554 1846     		mov	r0, r3
 1096 0556 FFF7FEFF 		bl	usbPrint
 1097 055a 40F20000 		movw	r0, #:lower16:.LC0
 1098 055e C0F20000 		movt	r0, #:upper16:.LC0
 1099 0562 FFF7FEFF 		bl	usbPrint
 1100 0566 40F20003 		movw	r3, #:lower16:executionTime200Hz
 1101 056a C0F20003 		movt	r3, #:upper16:executionTime200Hz
 1102 056e 1B68     		ldr	r3, [r3, #0]
 1103 0570 1846     		mov	r0, r3
 1104 0572 04AB     		add	r3, sp, #16
 1105 0574 1946     		mov	r1, r3
 1106 0576 4FF00A02 		mov	r2, #10
 1107 057a FFF7FEFF 		bl	itoa
 1108 057e 04AB     		add	r3, sp, #16
 1109 0580 1846     		mov	r0, r3
 1110 0582 FFF7FEFF 		bl	usbPrint
 1111 0586 40F20000 		movw	r0, #:lower16:.LC0
 1112 058a C0F20000 		movt	r0, #:upper16:.LC0
 1113 058e FFF7FEFF 		bl	usbPrint
 1114 0592 40F20003 		movw	r3, #:lower16:executionTime100Hz
 1115 0596 C0F20003 		movt	r3, #:upper16:executionTime100Hz
 1116 059a 1B68     		ldr	r3, [r3, #0]
 1117 059c 1846     		mov	r0, r3
 1118 059e 04AB     		add	r3, sp, #16
 1119 05a0 1946     		mov	r1, r3
 1120 05a2 4FF00A02 		mov	r2, #10
 1121 05a6 FFF7FEFF 		bl	itoa
 1122 05aa 04AB     		add	r3, sp, #16
 1123 05ac 1846     		mov	r0, r3
 1124 05ae FFF7FEFF 		bl	usbPrint
 1125 05b2 40F20000 		movw	r0, #:lower16:.LC0
 1126 05b6 C0F20000 		movt	r0, #:upper16:.LC0
 1127 05ba FFF7FEFF 		bl	usbPrint
 1128 05be 40F20003 		movw	r3, #:lower16:executionTime50Hz
 1129 05c2 C0F20003 		movt	r3, #:upper16:executionTime50Hz
 1130 05c6 1B68     		ldr	r3, [r3, #0]
 1131 05c8 1846     		mov	r0, r3
 1132 05ca 04AB     		add	r3, sp, #16
 1133 05cc 1946     		mov	r1, r3
 1134 05ce 4FF00A02 		mov	r2, #10
 1135 05d2 FFF7FEFF 		bl	itoa
 1136 05d6 04AB     		add	r3, sp, #16
 1137 05d8 1846     		mov	r0, r3
 1138 05da FFF7FEFF 		bl	usbPrint
 1139 05de 40F20000 		movw	r0, #:lower16:.LC0
 1140 05e2 C0F20000 		movt	r0, #:upper16:.LC0
 1141 05e6 FFF7FEFF 		bl	usbPrint
 1142 05ea 40F20003 		movw	r3, #:lower16:executionTime10Hz
 1143 05ee C0F20003 		movt	r3, #:upper16:executionTime10Hz
 1144 05f2 1B68     		ldr	r3, [r3, #0]
 1145 05f4 1846     		mov	r0, r3
 1146 05f6 04AB     		add	r3, sp, #16
 1147 05f8 1946     		mov	r1, r3
 1148 05fa 4FF00A02 		mov	r2, #10
 1149 05fe FFF7FEFF 		bl	itoa
 1150 0602 04AB     		add	r3, sp, #16
 1151 0604 1846     		mov	r0, r3
 1152 0606 FFF7FEFF 		bl	usbPrint
 1153 060a 40F20000 		movw	r0, #:lower16:.LC0
 1154 060e C0F20000 		movt	r0, #:upper16:.LC0
 1155 0612 FFF7FEFF 		bl	usbPrint
 1156 0616 40F20003 		movw	r3, #:lower16:executionTime5Hz
 1157 061a C0F20003 		movt	r3, #:upper16:executionTime5Hz
 1158 061e 1B68     		ldr	r3, [r3, #0]
 1159 0620 1846     		mov	r0, r3
 1160 0622 04AB     		add	r3, sp, #16
 1161 0624 1946     		mov	r1, r3
 1162 0626 4FF00A02 		mov	r2, #10
 1163 062a FFF7FEFF 		bl	itoa
 1164 062e 04AB     		add	r3, sp, #16
 1165 0630 1846     		mov	r0, r3
 1166 0632 FFF7FEFF 		bl	usbPrint
 1167 0636 40F20000 		movw	r0, #:lower16:.LC0
 1168 063a C0F20000 		movt	r0, #:upper16:.LC0
 1169 063e FFF7FEFF 		bl	usbPrint
 1170 0642 40F20003 		movw	r3, #:lower16:executionTime1Hz
 1171 0646 C0F20003 		movt	r3, #:upper16:executionTime1Hz
 1172 064a 1B68     		ldr	r3, [r3, #0]
 1173 064c 1846     		mov	r0, r3
 1174 064e 04AB     		add	r3, sp, #16
 1175 0650 1946     		mov	r1, r3
 1176 0652 4FF00A02 		mov	r2, #10
 1177 0656 FFF7FEFF 		bl	itoa
 1178 065a 04AB     		add	r3, sp, #16
 1179 065c 1846     		mov	r0, r3
 1180 065e FFF7FEFF 		bl	usbPrint
 1181 0662 40F20000 		movw	r0, #:lower16:.LC1
 1182 0666 C0F20000 		movt	r0, #:upper16:.LC1
 1183 066a FFF7FEFF 		bl	usbPrint
 1184 066e 40F20003 		movw	r3, #:lower16:validCommand
 1185 0672 C0F20003 		movt	r3, #:upper16:validCommand
 1186 0676 4FF00002 		mov	r2, #0
 1187 067a 1A70     		strb	r2, [r3, #0]
 1188 067c 03F031B8 		b	.L16
 1189              	.L63:
 1190 0680 FFF7FEFF 		bl	accelCalibration
 1191 0684 40F20003 		movw	r3, #:lower16:queryType
 1192 0688 C0F20003 		movt	r3, #:upper16:queryType
 1193 068c 4FF07802 		mov	r2, #120
 1194 0690 1A70     		strb	r2, [r3, #0]
 1195 0692 40F20003 		movw	r3, #:lower16:validCommand
 1196 0696 C0F20003 		movt	r3, #:upper16:validCommand
 1197 069a 4FF00002 		mov	r2, #0
 1198 069e 1A70     		strb	r2, [r3, #0]
 1199 06a0 03F01FB8 		b	.L16
 1200              	.L64:
 1201 06a4 FFF7FEFF 		bl	gyroTempCalibration
 1202 06a8 40F20003 		movw	r3, #:lower16:queryType
 1203 06ac C0F20003 		movt	r3, #:upper16:queryType
 1204 06b0 4FF07802 		mov	r2, #120
 1205 06b4 1A70     		strb	r2, [r3, #0]
 1206 06b6 40F20003 		movw	r3, #:lower16:validCommand
 1207 06ba C0F20003 		movt	r3, #:upper16:validCommand
 1208 06be 4FF00002 		mov	r2, #0
 1209 06c2 1A70     		strb	r2, [r3, #0]
 1210 06c4 03F00DB8 		b	.L16
 1211              	.L65:
 1212 06c8 FFF7FEFF 		bl	magCalibration
 1213 06cc 40F20003 		movw	r3, #:lower16:queryType
 1214 06d0 C0F20003 		movt	r3, #:upper16:queryType
 1215 06d4 4FF07802 		mov	r2, #120
 1216 06d8 1A70     		strb	r2, [r3, #0]
 1217 06da 40F20003 		movw	r3, #:lower16:validCommand
 1218 06de C0F20003 		movt	r3, #:upper16:validCommand
 1219 06e2 4FF00002 		mov	r2, #0
 1220 06e6 1A70     		strb	r2, [r3, #0]
 1221 06e8 02F0FBBF 		b	.L16
 1222              	.L66:
 1223 06ec FFF7FEFF 		bl	ahrsCalibration
 1224 06f0 40F20003 		movw	r3, #:lower16:queryType
 1225 06f4 C0F20003 		movt	r3, #:upper16:queryType
 1226 06f8 4FF07802 		mov	r2, #120
 1227 06fc 1A70     		strb	r2, [r3, #0]
 1228 06fe 40F20003 		movw	r3, #:lower16:validCommand
 1229 0702 C0F20003 		movt	r3, #:upper16:validCommand
 1230 0706 4FF00002 		mov	r2, #0
 1231 070a 1A70     		strb	r2, [r3, #0]
 1232 070c 02F0E9BF 		b	.L16
 1233              	.L67:
 1234 0710 40F20003 		movw	r3, #:lower16:queryType
 1235 0714 C0F20003 		movt	r3, #:upper16:queryType
 1236 0718 4FF07802 		mov	r2, #120
 1237 071c 1A70     		strb	r2, [r3, #0]
 1238 071e 40F20003 		movw	r3, #:lower16:validCommand
 1239 0722 C0F20003 		movt	r3, #:upper16:validCommand
 1240 0726 4FF00002 		mov	r2, #0
 1241 072a 1A70     		strb	r2, [r3, #0]
 1242 072c 02F0D9BF 		b	.L16
 1243              	.L68:
 1244 0730 40F20003 		movw	r3, #:lower16:sensors
 1245 0734 C0F20003 		movt	r3, #:upper16:sensors
 1246 0738 93ED157A 		flds	s14, [r3, #84]
 1247 073c DFED8F7A 		flds	s15, .L154
 1248 0740 67EE277A 		fmuls	s15, s14, s15
 1249 0744 17EE900A 		fmrs	r0, s15
 1250 0748 04AB     		add	r3, sp, #16
 1251 074a 1946     		mov	r1, r3
 1252 074c FFF7FEFF 		bl	ftoa
 1253 0750 04AB     		add	r3, sp, #16
 1254 0752 1846     		mov	r0, r3
 1255 0754 FFF7FEFF 		bl	usbPrint
 1256 0758 40F20000 		movw	r0, #:lower16:.LC0
 1257 075c C0F20000 		movt	r0, #:upper16:.LC0
 1258 0760 FFF7FEFF 		bl	usbPrint
 1259 0764 40F20003 		movw	r3, #:lower16:sensors
 1260 0768 C0F20003 		movt	r3, #:upper16:sensors
 1261 076c 93ED167A 		flds	s14, [r3, #88]
 1262 0770 DFED827A 		flds	s15, .L154
 1263 0774 67EE277A 		fmuls	s15, s14, s15
 1264 0778 17EE900A 		fmrs	r0, s15
 1265 077c 04AB     		add	r3, sp, #16
 1266 077e 1946     		mov	r1, r3
 1267 0780 FFF7FEFF 		bl	ftoa
 1268 0784 04AB     		add	r3, sp, #16
 1269 0786 1846     		mov	r0, r3
 1270 0788 FFF7FEFF 		bl	usbPrint
 1271 078c 40F20000 		movw	r0, #:lower16:.LC0
 1272 0790 C0F20000 		movt	r0, #:upper16:.LC0
 1273 0794 FFF7FEFF 		bl	usbPrint
 1274 0798 40F20003 		movw	r3, #:lower16:sensors
 1275 079c C0F20003 		movt	r3, #:upper16:sensors
 1276 07a0 93ED177A 		flds	s14, [r3, #92]
 1277 07a4 DFED757A 		flds	s15, .L154
 1278 07a8 67EE277A 		fmuls	s15, s14, s15
 1279 07ac 17EE900A 		fmrs	r0, s15
 1280 07b0 04AB     		add	r3, sp, #16
 1281 07b2 1946     		mov	r1, r3
 1282 07b4 FFF7FEFF 		bl	ftoa
 1283 07b8 04AB     		add	r3, sp, #16
 1284 07ba 1846     		mov	r0, r3
 1285 07bc FFF7FEFF 		bl	usbPrint
 1286 07c0 40F20000 		movw	r0, #:lower16:.LC0
 1287 07c4 C0F20000 		movt	r0, #:upper16:.LC0
 1288 07c8 FFF7FEFF 		bl	usbPrint
 1289 07cc 40F20003 		movw	r3, #:lower16:gyroTemperature
 1290 07d0 C0F20003 		movt	r3, #:upper16:gyroTemperature
 1291 07d4 1B68     		ldr	r3, [r3, #0]	@ float
 1292 07d6 1846     		mov	r0, r3	@ float
 1293 07d8 04AB     		add	r3, sp, #16
 1294 07da 1946     		mov	r1, r3
 1295 07dc FFF7FEFF 		bl	ftoa
 1296 07e0 04AB     		add	r3, sp, #16
 1297 07e2 1846     		mov	r0, r3
 1298 07e4 FFF7FEFF 		bl	usbPrint
 1299 07e8 40F20000 		movw	r0, #:lower16:.LC1
 1300 07ec C0F20000 		movt	r0, #:upper16:.LC1
 1301 07f0 FFF7FEFF 		bl	usbPrint
 1302 07f4 40F20003 		movw	r3, #:lower16:validCommand
 1303 07f8 C0F20003 		movt	r3, #:upper16:validCommand
 1304 07fc 4FF00002 		mov	r2, #0
 1305 0800 1A70     		strb	r2, [r3, #0]
 1306 0802 02F06EBF 		b	.L16
 1307              	.L69:
 1308 0806 40F20003 		movw	r3, #:lower16:sensors
 1309 080a C0F20003 		movt	r3, #:upper16:sensors
 1310 080e 1B68     		ldr	r3, [r3, #0]	@ float
 1311 0810 1846     		mov	r0, r3	@ float
 1312 0812 04AB     		add	r3, sp, #16
 1313 0814 1946     		mov	r1, r3
 1314 0816 FFF7FEFF 		bl	ftoa
 1315 081a 04AB     		add	r3, sp, #16
 1316 081c 1846     		mov	r0, r3
 1317 081e FFF7FEFF 		bl	usbPrint
 1318 0822 40F20000 		movw	r0, #:lower16:.LC0
 1319 0826 C0F20000 		movt	r0, #:upper16:.LC0
 1320 082a FFF7FEFF 		bl	usbPrint
 1321 082e 40F20003 		movw	r3, #:lower16:sensors
 1322 0832 C0F20003 		movt	r3, #:upper16:sensors
 1323 0836 5B68     		ldr	r3, [r3, #4]	@ float
 1324 0838 1846     		mov	r0, r3	@ float
 1325 083a 04AB     		add	r3, sp, #16
 1326 083c 1946     		mov	r1, r3
 1327 083e FFF7FEFF 		bl	ftoa
 1328 0842 04AB     		add	r3, sp, #16
 1329 0844 1846     		mov	r0, r3
 1330 0846 FFF7FEFF 		bl	usbPrint
 1331 084a 40F20000 		movw	r0, #:lower16:.LC0
 1332 084e C0F20000 		movt	r0, #:upper16:.LC0
 1333 0852 FFF7FEFF 		bl	usbPrint
 1334 0856 40F20003 		movw	r3, #:lower16:sensors
 1335 085a C0F20003 		movt	r3, #:upper16:sensors
 1336 085e 9B68     		ldr	r3, [r3, #8]	@ float
 1337 0860 1846     		mov	r0, r3	@ float
 1338 0862 04AB     		add	r3, sp, #16
 1339 0864 1946     		mov	r1, r3
 1340 0866 FFF7FEFF 		bl	ftoa
 1341 086a 04AB     		add	r3, sp, #16
 1342 086c 1846     		mov	r0, r3
 1343 086e FFF7FEFF 		bl	usbPrint
 1344 0872 40F20000 		movw	r0, #:lower16:.LC1
 1345 0876 C0F20000 		movt	r0, #:upper16:.LC1
 1346 087a FFF7FEFF 		bl	usbPrint
 1347 087e 40F20003 		movw	r3, #:lower16:validCommand
 1348 0882 C0F20003 		movt	r3, #:upper16:validCommand
 1349 0886 4FF00002 		mov	r2, #0
 1350 088a 1A70     		strb	r2, [r3, #0]
 1351 088c 02F029BF 		b	.L16
 1352              	.L70:
 1353 0890 40F20003 		movw	r3, #:lower16:sensors
 1354 0894 C0F20003 		movt	r3, #:upper16:sensors
 1355 0898 1B6E     		ldr	r3, [r3, #96]	@ float
 1356 089a 1846     		mov	r0, r3	@ float
 1357 089c 04AB     		add	r3, sp, #16
 1358 089e 1946     		mov	r1, r3
 1359 08a0 FFF7FEFF 		bl	ftoa
 1360 08a4 04AB     		add	r3, sp, #16
 1361 08a6 1846     		mov	r0, r3
 1362 08a8 FFF7FEFF 		bl	usbPrint
 1363 08ac 40F20000 		movw	r0, #:lower16:.LC0
 1364 08b0 C0F20000 		movt	r0, #:upper16:.LC0
 1365 08b4 FFF7FEFF 		bl	usbPrint
 1366 08b8 40F20003 		movw	r3, #:lower16:sensors
 1367 08bc C0F20003 		movt	r3, #:upper16:sensors
 1368 08c0 5B6E     		ldr	r3, [r3, #100]	@ float
 1369 08c2 1846     		mov	r0, r3	@ float
 1370 08c4 04AB     		add	r3, sp, #16
 1371 08c6 1946     		mov	r1, r3
 1372 08c8 FFF7FEFF 		bl	ftoa
 1373 08cc 04AB     		add	r3, sp, #16
 1374 08ce 1846     		mov	r0, r3
 1375 08d0 FFF7FEFF 		bl	usbPrint
 1376 08d4 40F20000 		movw	r0, #:lower16:.LC0
 1377 08d8 C0F20000 		movt	r0, #:upper16:.LC0
 1378 08dc FFF7FEFF 		bl	usbPrint
 1379 08e0 40F20003 		movw	r3, #:lower16:sensors
 1380 08e4 C0F20003 		movt	r3, #:upper16:sensors
 1381 08e8 9B6E     		ldr	r3, [r3, #104]	@ float
 1382 08ea 1846     		mov	r0, r3	@ float
 1383 08ec 04AB     		add	r3, sp, #16
 1384 08ee 1946     		mov	r1, r3
 1385 08f0 FFF7FEFF 		bl	ftoa
 1386 08f4 04AB     		add	r3, sp, #16
 1387 08f6 1846     		mov	r0, r3
 1388 08f8 FFF7FEFF 		bl	usbPrint
 1389 08fc 40F20000 		movw	r0, #:lower16:.LC1
 1390 0900 C0F20000 		movt	r0, #:upper16:.LC1
 1391 0904 FFF7FEFF 		bl	usbPrint
 1392 0908 40F20003 		movw	r3, #:lower16:validCommand
 1393 090c C0F20003 		movt	r3, #:upper16:validCommand
 1394 0910 4FF00002 		mov	r2, #0
 1395 0914 1A70     		strb	r2, [r3, #0]
 1396 0916 02F0E4BE 		b	.L16
 1397              	.L71:
 1398 091a 40F20003 		movw	r3, #:lower16:sensors
 1399 091e C0F20003 		movt	r3, #:upper16:sensors
 1400 0922 DB6E     		ldr	r3, [r3, #108]	@ float
 1401 0924 1846     		mov	r0, r3	@ float
 1402 0926 04AB     		add	r3, sp, #16
 1403 0928 1946     		mov	r1, r3
 1404 092a FFF7FEFF 		bl	ftoa
 1405 092e 04AB     		add	r3, sp, #16
 1406 0930 1846     		mov	r0, r3
 1407 0932 FFF7FEFF 		bl	usbPrint
 1408 0936 40F20000 		movw	r0, #:lower16:.LC0
 1409 093a C0F20000 		movt	r0, #:upper16:.LC0
 1410 093e FFF7FEFF 		bl	usbPrint
 1411 0942 40F20003 		movw	r3, #:lower16:sensors
 1412 0946 C0F20003 		movt	r3, #:upper16:sensors
 1413 094a 1B6F     		ldr	r3, [r3, #112]	@ float
 1414 094c 1846     		mov	r0, r3	@ float
 1415 094e 04AB     		add	r3, sp, #16
 1416 0950 1946     		mov	r1, r3
 1417 0952 FFF7FEFF 		bl	ftoa
 1418 0956 04AB     		add	r3, sp, #16
 1419 0958 1846     		mov	r0, r3
 1420 095a FFF7FEFF 		bl	usbPrint
 1421 095e 40F20000 		movw	r0, #:lower16:.LC1
 1422 0962 C0F20000 		movt	r0, #:upper16:.LC1
 1423 0966 FFF7FEFF 		bl	usbPrint
 1424 096a 40F20003 		movw	r3, #:lower16:validCommand
 1425 096e C0F20003 		movt	r3, #:upper16:validCommand
 1426 0972 4FF00002 		mov	r2, #0
 1427 0976 1A70     		strb	r2, [r3, #0]
 1428 0978 02F0B3BE 		b	.L16
 1429              	.L155:
 1430              		.align	2
 1431              	.L154:
 1432 097c 33336542 		.word	1113928499
 1433              	.L72:
 1434 0980 40F20003 		movw	r3, #:lower16:sensors
 1435 0984 C0F20003 		movt	r3, #:upper16:sensors
 1436 0988 93ED067A 		flds	s14, [r3, #24]
 1437 098c 5FED057A 		flds	s15, .L154
 1438 0990 67EE277A 		fmuls	s15, s14, s15
 1439 0994 17EE900A 		fmrs	r0, s15
 1440 0998 04AB     		add	r3, sp, #16
 1441 099a 1946     		mov	r1, r3
 1442 099c FFF7FEFF 		bl	ftoa
 1443 09a0 04AB     		add	r3, sp, #16
 1444 09a2 1846     		mov	r0, r3
 1445 09a4 FFF7FEFF 		bl	usbPrint
 1446 09a8 40F20000 		movw	r0, #:lower16:.LC0
 1447 09ac C0F20000 		movt	r0, #:upper16:.LC0
 1448 09b0 FFF7FEFF 		bl	usbPrint
 1449 09b4 40F20003 		movw	r3, #:lower16:sensors
 1450 09b8 C0F20003 		movt	r3, #:upper16:sensors
 1451 09bc 93ED077A 		flds	s14, [r3, #28]
 1452 09c0 5FED127A 		flds	s15, .L154
 1453 09c4 67EE277A 		fmuls	s15, s14, s15
 1454 09c8 17EE900A 		fmrs	r0, s15
 1455 09cc 04AB     		add	r3, sp, #16
 1456 09ce 1946     		mov	r1, r3
 1457 09d0 FFF7FEFF 		bl	ftoa
 1458 09d4 04AB     		add	r3, sp, #16
 1459 09d6 1846     		mov	r0, r3
 1460 09d8 FFF7FEFF 		bl	usbPrint
 1461 09dc 40F20000 		movw	r0, #:lower16:.LC0
 1462 09e0 C0F20000 		movt	r0, #:upper16:.LC0
 1463 09e4 FFF7FEFF 		bl	usbPrint
 1464 09e8 40F20003 		movw	r3, #:lower16:sensors
 1465 09ec C0F20003 		movt	r3, #:upper16:sensors
 1466 09f0 93ED087A 		flds	s14, [r3, #32]
 1467 09f4 5FED1F7A 		flds	s15, .L154
 1468 09f8 67EE277A 		fmuls	s15, s14, s15
 1469 09fc 17EE900A 		fmrs	r0, s15
 1470 0a00 04AB     		add	r3, sp, #16
 1471 0a02 1946     		mov	r1, r3
 1472 0a04 FFF7FEFF 		bl	ftoa
 1473 0a08 04AB     		add	r3, sp, #16
 1474 0a0a 1846     		mov	r0, r3
 1475 0a0c FFF7FEFF 		bl	usbPrint
 1476 0a10 40F20000 		movw	r0, #:lower16:.LC0
 1477 0a14 C0F20000 		movt	r0, #:upper16:.LC0
 1478 0a18 FFF7FEFF 		bl	usbPrint
 1479 0a1c 40F20003 		movw	r3, #:lower16:sensors
 1480 0a20 C0F20003 		movt	r3, #:upper16:sensors
 1481 0a24 93ED097A 		flds	s14, [r3, #36]
 1482 0a28 5FED2C7A 		flds	s15, .L154
 1483 0a2c 67EE277A 		fmuls	s15, s14, s15
 1484 0a30 17EE900A 		fmrs	r0, s15
 1485 0a34 04AB     		add	r3, sp, #16
 1486 0a36 1946     		mov	r1, r3
 1487 0a38 FFF7FEFF 		bl	ftoa
 1488 0a3c 04AB     		add	r3, sp, #16
 1489 0a3e 1846     		mov	r0, r3
 1490 0a40 FFF7FEFF 		bl	usbPrint
 1491 0a44 40F20000 		movw	r0, #:lower16:.LC0
 1492 0a48 C0F20000 		movt	r0, #:upper16:.LC0
 1493 0a4c FFF7FEFF 		bl	usbPrint
 1494 0a50 40F20003 		movw	r3, #:lower16:sensors
 1495 0a54 C0F20003 		movt	r3, #:upper16:sensors
 1496 0a58 93ED0A7A 		flds	s14, [r3, #40]
 1497 0a5c 5FED397A 		flds	s15, .L154
 1498 0a60 67EE277A 		fmuls	s15, s14, s15
 1499 0a64 17EE900A 		fmrs	r0, s15
 1500 0a68 04AB     		add	r3, sp, #16
 1501 0a6a 1946     		mov	r1, r3
 1502 0a6c FFF7FEFF 		bl	ftoa
 1503 0a70 04AB     		add	r3, sp, #16
 1504 0a72 1846     		mov	r0, r3
 1505 0a74 FFF7FEFF 		bl	usbPrint
 1506 0a78 40F20000 		movw	r0, #:lower16:.LC0
 1507 0a7c C0F20000 		movt	r0, #:upper16:.LC0
 1508 0a80 FFF7FEFF 		bl	usbPrint
 1509 0a84 40F20003 		movw	r3, #:lower16:sensors
 1510 0a88 C0F20003 		movt	r3, #:upper16:sensors
 1511 0a8c 93ED0B7A 		flds	s14, [r3, #44]
 1512 0a90 5FED467A 		flds	s15, .L154
 1513 0a94 67EE277A 		fmuls	s15, s14, s15
 1514 0a98 17EE900A 		fmrs	r0, s15
 1515 0a9c 04AB     		add	r3, sp, #16
 1516 0a9e 1946     		mov	r1, r3
 1517 0aa0 FFF7FEFF 		bl	ftoa
 1518 0aa4 04AB     		add	r3, sp, #16
 1519 0aa6 1846     		mov	r0, r3
 1520 0aa8 FFF7FEFF 		bl	usbPrint
 1521 0aac 40F20000 		movw	r0, #:lower16:.LC0
 1522 0ab0 C0F20000 		movt	r0, #:upper16:.LC0
 1523 0ab4 FFF7FEFF 		bl	usbPrint
 1524 0ab8 40F20003 		movw	r3, #:lower16:sensors
 1525 0abc C0F20003 		movt	r3, #:upper16:sensors
 1526 0ac0 93ED0C7A 		flds	s14, [r3, #48]
 1527 0ac4 5FED537A 		flds	s15, .L154
 1528 0ac8 67EE277A 		fmuls	s15, s14, s15
 1529 0acc 17EE900A 		fmrs	r0, s15
 1530 0ad0 04AB     		add	r3, sp, #16
 1531 0ad2 1946     		mov	r1, r3
 1532 0ad4 FFF7FEFF 		bl	ftoa
 1533 0ad8 04AB     		add	r3, sp, #16
 1534 0ada 1846     		mov	r0, r3
 1535 0adc FFF7FEFF 		bl	usbPrint
 1536 0ae0 40F20000 		movw	r0, #:lower16:.LC0
 1537 0ae4 C0F20000 		movt	r0, #:upper16:.LC0
 1538 0ae8 FFF7FEFF 		bl	usbPrint
 1539 0aec 40F20003 		movw	r3, #:lower16:sensors
 1540 0af0 C0F20003 		movt	r3, #:upper16:sensors
 1541 0af4 93ED0D7A 		flds	s14, [r3, #52]
 1542 0af8 5FED607A 		flds	s15, .L154
 1543 0afc 67EE277A 		fmuls	s15, s14, s15
 1544 0b00 17EE900A 		fmrs	r0, s15
 1545 0b04 04AB     		add	r3, sp, #16
 1546 0b06 1946     		mov	r1, r3
 1547 0b08 FFF7FEFF 		bl	ftoa
 1548 0b0c 04AB     		add	r3, sp, #16
 1549 0b0e 1846     		mov	r0, r3
 1550 0b10 FFF7FEFF 		bl	usbPrint
 1551 0b14 40F20000 		movw	r0, #:lower16:.LC0
 1552 0b18 C0F20000 		movt	r0, #:upper16:.LC0
 1553 0b1c FFF7FEFF 		bl	usbPrint
 1554 0b20 40F20003 		movw	r3, #:lower16:sensors
 1555 0b24 C0F20003 		movt	r3, #:upper16:sensors
 1556 0b28 93ED0E7A 		flds	s14, [r3, #56]
 1557 0b2c 5FED6D7A 		flds	s15, .L154
 1558 0b30 67EE277A 		fmuls	s15, s14, s15
 1559 0b34 17EE900A 		fmrs	r0, s15
 1560 0b38 04AB     		add	r3, sp, #16
 1561 0b3a 1946     		mov	r1, r3
 1562 0b3c FFF7FEFF 		bl	ftoa
 1563 0b40 04AB     		add	r3, sp, #16
 1564 0b42 1846     		mov	r0, r3
 1565 0b44 FFF7FEFF 		bl	usbPrint
 1566 0b48 40F20000 		movw	r0, #:lower16:.LC1
 1567 0b4c C0F20000 		movt	r0, #:upper16:.LC1
 1568 0b50 FFF7FEFF 		bl	usbPrint
 1569 0b54 40F20003 		movw	r3, #:lower16:validCommand
 1570 0b58 C0F20003 		movt	r3, #:upper16:validCommand
 1571 0b5c 4FF00002 		mov	r2, #0
 1572 0b60 1A70     		strb	r2, [r3, #0]
 1573 0b62 02F0BEBD 		b	.L16
 1574              	.L73:
 1575 0b66 4FF00003 		mov	r3, #0
 1576 0b6a 8DF82730 		strb	r3, [sp, #39]
 1577 0b6e 1EE0     		b	.L88
 1578              	.L89:
 1579 0b70 9DF82720 		ldrb	r2, [sp, #39]	@ zero_extendqisi2
 1580 0b74 40F20003 		movw	r3, #:lower16:rxCommand
 1581 0b78 C0F20003 		movt	r3, #:upper16:rxCommand
 1582 0b7c 4FEA8202 		lsl	r2, r2, #2
 1583 0b80 9B18     		adds	r3, r3, r2
 1584 0b82 1B68     		ldr	r3, [r3, #0]	@ float
 1585 0b84 1846     		mov	r0, r3	@ float
 1586 0b86 04AB     		add	r3, sp, #16
 1587 0b88 1946     		mov	r1, r3
 1588 0b8a FFF7FEFF 		bl	ftoa
 1589 0b8e 04AB     		add	r3, sp, #16
 1590 0b90 1846     		mov	r0, r3
 1591 0b92 FFF7FEFF 		bl	usbPrint
 1592 0b96 40F20000 		movw	r0, #:lower16:.LC0
 1593 0b9a C0F20000 		movt	r0, #:upper16:.LC0
 1594 0b9e FFF7FEFF 		bl	usbPrint
 1595 0ba2 9DF82730 		ldrb	r3, [sp, #39]
 1596 0ba6 03F10103 		add	r3, r3, #1
 1597 0baa 8DF82730 		strb	r3, [sp, #39]
 1598              	.L88:
 1599 0bae 9DF82730 		ldrb	r3, [sp, #39]	@ zero_extendqisi2
 1600 0bb2 062B     		cmp	r3, #6
 1601 0bb4 DCD9     		bls	.L89
 1602 0bb6 40F20003 		movw	r3, #:lower16:rxCommand
 1603 0bba C0F20003 		movt	r3, #:upper16:rxCommand
 1604 0bbe DB69     		ldr	r3, [r3, #28]	@ float
 1605 0bc0 1846     		mov	r0, r3	@ float
 1606 0bc2 04AB     		add	r3, sp, #16
 1607 0bc4 1946     		mov	r1, r3
 1608 0bc6 FFF7FEFF 		bl	ftoa
 1609 0bca 04AB     		add	r3, sp, #16
 1610 0bcc 1846     		mov	r0, r3
 1611 0bce FFF7FEFF 		bl	usbPrint
 1612 0bd2 40F20000 		movw	r0, #:lower16:.LC1
 1613 0bd6 C0F20000 		movt	r0, #:upper16:.LC1
 1614 0bda FFF7FEFF 		bl	usbPrint
 1615 0bde 40F20003 		movw	r3, #:lower16:validCommand
 1616 0be2 C0F20003 		movt	r3, #:upper16:validCommand
 1617 0be6 4FF00002 		mov	r2, #0
 1618 0bea 1A70     		strb	r2, [r3, #0]
 1619 0bec 02F079BD 		b	.L16
 1620              	.L74:
 1621 0bf0 40F20003 		movw	r3, #:lower16:commandInDetent
 1622 0bf4 C0F20003 		movt	r3, #:upper16:commandInDetent
 1623 0bf8 1B78     		ldrb	r3, [r3, #0]	@ zero_extendqisi2
 1624 0bfa 012B     		cmp	r3, #1
 1625 0bfc 06D1     		bne	.L90
 1626 0bfe 40F20000 		movw	r0, #:lower16:.LC2
 1627 0c02 C0F20000 		movt	r0, #:upper16:.LC2
 1628 0c06 FFF7FEFF 		bl	usbPrint
 1629 0c0a 05E0     		b	.L91
 1630              	.L90:
 1631 0c0c 40F20000 		movw	r0, #:lower16:.LC3
 1632 0c10 C0F20000 		movt	r0, #:upper16:.LC3
 1633 0c14 FFF7FEFF 		bl	usbPrint
 1634              	.L91:
 1635 0c18 40F20000 		movw	r0, #:lower16:.LC0
 1636 0c1c C0F20000 		movt	r0, #:upper16:.LC0
 1637 0c20 FFF7FEFF 		bl	usbPrint
 1638 0c24 40F20003 		movw	r3, #:lower16:commandInDetent
 1639 0c28 C0F20003 		movt	r3, #:upper16:commandInDetent
 1640 0c2c 5B78     		ldrb	r3, [r3, #1]	@ zero_extendqisi2
 1641 0c2e 012B     		cmp	r3, #1
 1642 0c30 06D1     		bne	.L92
 1643 0c32 40F20000 		movw	r0, #:lower16:.LC2
 1644 0c36 C0F20000 		movt	r0, #:upper16:.LC2
 1645 0c3a FFF7FEFF 		bl	usbPrint
 1646 0c3e 05E0     		b	.L93
 1647              	.L92:
 1648 0c40 40F20000 		movw	r0, #:lower16:.LC3
 1649 0c44 C0F20000 		movt	r0, #:upper16:.LC3
 1650 0c48 FFF7FEFF 		bl	usbPrint
 1651              	.L93:
 1652 0c4c 40F20000 		movw	r0, #:lower16:.LC0
 1653 0c50 C0F20000 		movt	r0, #:upper16:.LC0
 1654 0c54 FFF7FEFF 		bl	usbPrint
 1655 0c58 40F20003 		movw	r3, #:lower16:commandInDetent
 1656 0c5c C0F20003 		movt	r3, #:upper16:commandInDetent
 1657 0c60 9B78     		ldrb	r3, [r3, #2]	@ zero_extendqisi2
 1658 0c62 012B     		cmp	r3, #1
 1659 0c64 06D1     		bne	.L94
 1660 0c66 40F20000 		movw	r0, #:lower16:.LC2
 1661 0c6a C0F20000 		movt	r0, #:upper16:.LC2
 1662 0c6e FFF7FEFF 		bl	usbPrint
 1663 0c72 05E0     		b	.L95
 1664              	.L94:
 1665 0c74 40F20000 		movw	r0, #:lower16:.LC3
 1666 0c78 C0F20000 		movt	r0, #:upper16:.LC3
 1667 0c7c FFF7FEFF 		bl	usbPrint
 1668              	.L95:
 1669 0c80 40F20000 		movw	r0, #:lower16:.LC1
 1670 0c84 C0F20000 		movt	r0, #:upper16:.LC1
 1671 0c88 FFF7FEFF 		bl	usbPrint
 1672 0c8c 40F20003 		movw	r3, #:lower16:validCommand
 1673 0c90 C0F20003 		movt	r3, #:upper16:validCommand
 1674 0c94 4FF00002 		mov	r2, #0
 1675 0c98 1A70     		strb	r2, [r3, #0]
 1676 0c9a 02F022BD 		b	.L16
 1677              	.L75:
 1678 0c9e 4FF48063 		mov	r3, #1024
 1679 0ca2 C4F20103 		movt	r3, 16385
 1680 0ca6 1B6C     		ldr	r3, [r3, #64]
 1681 0ca8 1846     		mov	r0, r3
 1682 0caa 04AB     		add	r3, sp, #16
 1683 0cac 1946     		mov	r1, r3
 1684 0cae 4FF00A02 		mov	r2, #10
 1685 0cb2 FFF7FEFF 		bl	itoa
 1686 0cb6 04AB     		add	r3, sp, #16
 1687 0cb8 1846     		mov	r0, r3
 1688 0cba FFF7FEFF 		bl	usbPrint
 1689 0cbe 40F20000 		movw	r0, #:lower16:.LC0
 1690 0cc2 C0F20000 		movt	r0, #:upper16:.LC0
 1691 0cc6 FFF7FEFF 		bl	usbPrint
 1692 0cca 4FF48063 		mov	r3, #1024
 1693 0cce C4F20103 		movt	r3, 16385
 1694 0cd2 DB6B     		ldr	r3, [r3, #60]
 1695 0cd4 1846     		mov	r0, r3
 1696 0cd6 04AB     		add	r3, sp, #16
 1697 0cd8 1946     		mov	r1, r3
 1698 0cda 4FF00A02 		mov	r2, #10
 1699 0cde FFF7FEFF 		bl	itoa
 1700 0ce2 04AB     		add	r3, sp, #16
 1701 0ce4 1846     		mov	r0, r3
 1702 0ce6 FFF7FEFF 		bl	usbPrint
 1703 0cea 40F20000 		movw	r0, #:lower16:.LC0
 1704 0cee C0F20000 		movt	r0, #:upper16:.LC0
 1705 0cf2 FFF7FEFF 		bl	usbPrint
 1706 0cf6 4FF48063 		mov	r3, #1024
 1707 0cfa C4F20103 		movt	r3, 16385
 1708 0cfe 9B6B     		ldr	r3, [r3, #56]
 1709 0d00 1846     		mov	r0, r3
 1710 0d02 04AB     		add	r3, sp, #16
 1711 0d04 1946     		mov	r1, r3
 1712 0d06 4FF00A02 		mov	r2, #10
 1713 0d0a FFF7FEFF 		bl	itoa
 1714 0d0e 04AB     		add	r3, sp, #16
 1715 0d10 1846     		mov	r0, r3
 1716 0d12 FFF7FEFF 		bl	usbPrint
 1717 0d16 40F20000 		movw	r0, #:lower16:.LC0
 1718 0d1a C0F20000 		movt	r0, #:upper16:.LC0
 1719 0d1e FFF7FEFF 		bl	usbPrint
 1720 0d22 4FF48063 		mov	r3, #1024
 1721 0d26 C4F20103 		movt	r3, 16385
 1722 0d2a 5B6B     		ldr	r3, [r3, #52]
 1723 0d2c 1846     		mov	r0, r3
 1724 0d2e 04AB     		add	r3, sp, #16
 1725 0d30 1946     		mov	r1, r3
 1726 0d32 4FF00A02 		mov	r2, #10
 1727 0d36 FFF7FEFF 		bl	itoa
 1728 0d3a 04AB     		add	r3, sp, #16
 1729 0d3c 1846     		mov	r0, r3
 1730 0d3e FFF7FEFF 		bl	usbPrint
 1731 0d42 40F20000 		movw	r0, #:lower16:.LC0
 1732 0d46 C0F20000 		movt	r0, #:upper16:.LC0
 1733 0d4a FFF7FEFF 		bl	usbPrint
 1734 0d4e 4FF08043 		mov	r3, #1073741824
 1735 0d52 9B6B     		ldr	r3, [r3, #56]
 1736 0d54 1846     		mov	r0, r3
 1737 0d56 04AB     		add	r3, sp, #16
 1738 0d58 1946     		mov	r1, r3
 1739 0d5a 4FF00A02 		mov	r2, #10
 1740 0d5e FFF7FEFF 		bl	itoa
 1741 0d62 04AB     		add	r3, sp, #16
 1742 0d64 1846     		mov	r0, r3
 1743 0d66 FFF7FEFF 		bl	usbPrint
 1744 0d6a 40F20000 		movw	r0, #:lower16:.LC0
 1745 0d6e C0F20000 		movt	r0, #:upper16:.LC0
 1746 0d72 FFF7FEFF 		bl	usbPrint
 1747 0d76 4FF48063 		mov	r3, #1024
 1748 0d7a C4F20003 		movt	r3, 16384
 1749 0d7e 5B6B     		ldr	r3, [r3, #52]
 1750 0d80 1846     		mov	r0, r3
 1751 0d82 04AB     		add	r3, sp, #16
 1752 0d84 1946     		mov	r1, r3
 1753 0d86 4FF00A02 		mov	r2, #10
 1754 0d8a FFF7FEFF 		bl	itoa
 1755 0d8e 04AB     		add	r3, sp, #16
 1756 0d90 1846     		mov	r0, r3
 1757 0d92 FFF7FEFF 		bl	usbPrint
 1758 0d96 40F20000 		movw	r0, #:lower16:.LC0
 1759 0d9a C0F20000 		movt	r0, #:upper16:.LC0
 1760 0d9e FFF7FEFF 		bl	usbPrint
 1761 0da2 4FF48063 		mov	r3, #1024
 1762 0da6 C4F20003 		movt	r3, 16384
 1763 0daa 9B6B     		ldr	r3, [r3, #56]
 1764 0dac 1846     		mov	r0, r3
 1765 0dae 04AB     		add	r3, sp, #16
 1766 0db0 1946     		mov	r1, r3
 1767 0db2 4FF00A02 		mov	r2, #10
 1768 0db6 FFF7FEFF 		bl	itoa
 1769 0dba 04AB     		add	r3, sp, #16
 1770 0dbc 1846     		mov	r0, r3
 1771 0dbe FFF7FEFF 		bl	usbPrint
 1772 0dc2 40F20000 		movw	r0, #:lower16:.LC0
 1773 0dc6 C0F20000 		movt	r0, #:upper16:.LC0
 1774 0dca FFF7FEFF 		bl	usbPrint
 1775 0dce 4FF08043 		mov	r3, #1073741824
 1776 0dd2 5B6B     		ldr	r3, [r3, #52]
 1777 0dd4 1846     		mov	r0, r3
 1778 0dd6 04AB     		add	r3, sp, #16
 1779 0dd8 1946     		mov	r1, r3
 1780 0dda 4FF00A02 		mov	r2, #10
 1781 0dde FFF7FEFF 		bl	itoa
 1782 0de2 04AB     		add	r3, sp, #16
 1783 0de4 1846     		mov	r0, r3
 1784 0de6 FFF7FEFF 		bl	usbPrint
 1785 0dea 40F20000 		movw	r0, #:lower16:.LC1
 1786 0dee C0F20000 		movt	r0, #:upper16:.LC1
 1787 0df2 FFF7FEFF 		bl	usbPrint
 1788 0df6 40F20003 		movw	r3, #:lower16:validCommand
 1789 0dfa C0F20003 		movt	r3, #:upper16:validCommand
 1790 0dfe 4FF00002 		mov	r2, #0
 1791 0e02 1A70     		strb	r2, [r3, #0]
 1792 0e04 02F06DBC 		b	.L16
 1793              	.L76:
 1794 0e08 4FF44063 		mov	r3, #3072
 1795 0e0c C4F20003 		movt	r3, 16384
 1796 0e10 DB6B     		ldr	r3, [r3, #60]
 1797 0e12 1846     		mov	r0, r3
 1798 0e14 04AB     		add	r3, sp, #16
 1799 0e16 1946     		mov	r1, r3
 1800 0e18 4FF00A02 		mov	r2, #10
 1801 0e1c FFF7FEFF 		bl	itoa
 1802 0e20 04AB     		add	r3, sp, #16
 1803 0e22 1846     		mov	r0, r3
 1804 0e24 FFF7FEFF 		bl	usbPrint
 1805 0e28 40F20000 		movw	r0, #:lower16:.LC0
 1806 0e2c C0F20000 		movt	r0, #:upper16:.LC0
 1807 0e30 FFF7FEFF 		bl	usbPrint
 1808 0e34 4FF44063 		mov	r3, #3072
 1809 0e38 C4F20003 		movt	r3, 16384
 1810 0e3c 9B6B     		ldr	r3, [r3, #56]
 1811 0e3e 1846     		mov	r0, r3
 1812 0e40 04AB     		add	r3, sp, #16
 1813 0e42 1946     		mov	r1, r3
 1814 0e44 4FF00A02 		mov	r2, #10
 1815 0e48 FFF7FEFF 		bl	itoa
 1816 0e4c 04AB     		add	r3, sp, #16
 1817 0e4e 1846     		mov	r0, r3
 1818 0e50 FFF7FEFF 		bl	usbPrint
 1819 0e54 40F20000 		movw	r0, #:lower16:.LC0
 1820 0e58 C0F20000 		movt	r0, #:upper16:.LC0
 1821 0e5c FFF7FEFF 		bl	usbPrint
 1822 0e60 4FF44063 		mov	r3, #3072
 1823 0e64 C4F20003 		movt	r3, 16384
 1824 0e68 5B6B     		ldr	r3, [r3, #52]
 1825 0e6a 1846     		mov	r0, r3
 1826 0e6c 04AB     		add	r3, sp, #16
 1827 0e6e 1946     		mov	r1, r3
 1828 0e70 4FF00A02 		mov	r2, #10
 1829 0e74 FFF7FEFF 		bl	itoa
 1830 0e78 04AB     		add	r3, sp, #16
 1831 0e7a 1846     		mov	r0, r3
 1832 0e7c FFF7FEFF 		bl	usbPrint
 1833 0e80 40F20000 		movw	r0, #:lower16:.LC1
 1834 0e84 C0F20000 		movt	r0, #:upper16:.LC1
 1835 0e88 FFF7FEFF 		bl	usbPrint
 1836 0e8c 40F20003 		movw	r3, #:lower16:validCommand
 1837 0e90 C0F20003 		movt	r3, #:upper16:validCommand
 1838 0e94 4FF00002 		mov	r2, #0
 1839 0e98 1A70     		strb	r2, [r3, #0]
 1840 0e9a 02F022BC 		b	.L16
 1841              	.L77:
 1842 0e9e 40F20000 		movw	r0, #:lower16:.LC1
 1843 0ea2 C0F20000 		movt	r0, #:upper16:.LC1
 1844 0ea6 FFF7FEFF 		bl	usbPrint
 1845 0eaa 40F20000 		movw	r0, #:lower16:.LC4
 1846 0eae C0F20000 		movt	r0, #:upper16:.LC4
 1847 0eb2 FFF7FEFF 		bl	usbPrint
 1848 0eb6 40F20003 		movw	r3, #:lower16:eepromConfig
 1849 0eba C0F20003 		movt	r3, #:upper16:eepromConfig
 1850 0ebe D3F8A830 		ldr	r3, [r3, #168]	@ float
 1851 0ec2 1846     		mov	r0, r3	@ float
 1852 0ec4 04AB     		add	r3, sp, #16
 1853 0ec6 1946     		mov	r1, r3
 1854 0ec8 FFF7FEFF 		bl	ftoa
 1855 0ecc 04AB     		add	r3, sp, #16
 1856 0ece 1846     		mov	r0, r3
 1857 0ed0 FFF7FEFF 		bl	usbPrint
 1858 0ed4 40F20000 		movw	r0, #:lower16:.LC0
 1859 0ed8 C0F20000 		movt	r0, #:upper16:.LC0
 1860 0edc FFF7FEFF 		bl	usbPrint
 1861 0ee0 40F20003 		movw	r3, #:lower16:eepromConfig
 1862 0ee4 C0F20003 		movt	r3, #:upper16:eepromConfig
 1863 0ee8 D3F8AC30 		ldr	r3, [r3, #172]	@ float
 1864 0eec 1846     		mov	r0, r3	@ float
 1865 0eee 04AB     		add	r3, sp, #16
 1866 0ef0 1946     		mov	r1, r3
 1867 0ef2 FFF7FEFF 		bl	ftoa
 1868 0ef6 04AB     		add	r3, sp, #16
 1869 0ef8 1846     		mov	r0, r3
 1870 0efa FFF7FEFF 		bl	usbPrint
 1871 0efe 40F20000 		movw	r0, #:lower16:.LC0
 1872 0f02 C0F20000 		movt	r0, #:upper16:.LC0
 1873 0f06 FFF7FEFF 		bl	usbPrint
 1874 0f0a 40F20003 		movw	r3, #:lower16:eepromConfig
 1875 0f0e C0F20003 		movt	r3, #:upper16:eepromConfig
 1876 0f12 D3F8B030 		ldr	r3, [r3, #176]	@ float
 1877 0f16 1846     		mov	r0, r3	@ float
 1878 0f18 04AB     		add	r3, sp, #16
 1879 0f1a 1946     		mov	r1, r3
 1880 0f1c FFF7FEFF 		bl	ftoa
 1881 0f20 04AB     		add	r3, sp, #16
 1882 0f22 1846     		mov	r0, r3
 1883 0f24 FFF7FEFF 		bl	usbPrint
 1884 0f28 40F20000 		movw	r0, #:lower16:.LC0
 1885 0f2c C0F20000 		movt	r0, #:upper16:.LC0
 1886 0f30 FFF7FEFF 		bl	usbPrint
 1887 0f34 40F20003 		movw	r3, #:lower16:eepromConfig
 1888 0f38 C0F20003 		movt	r3, #:upper16:eepromConfig
 1889 0f3c D3F8B830 		ldr	r3, [r3, #184]	@ float
 1890 0f40 1846     		mov	r0, r3	@ float
 1891 0f42 04AB     		add	r3, sp, #16
 1892 0f44 1946     		mov	r1, r3
 1893 0f46 FFF7FEFF 		bl	ftoa
 1894 0f4a 04AB     		add	r3, sp, #16
 1895 0f4c 1846     		mov	r0, r3
 1896 0f4e FFF7FEFF 		bl	usbPrint
 1897 0f52 40F20000 		movw	r0, #:lower16:.LC0
 1898 0f56 C0F20000 		movt	r0, #:upper16:.LC0
 1899 0f5a FFF7FEFF 		bl	usbPrint
 1900 0f5e 40F20003 		movw	r3, #:lower16:eepromConfig
 1901 0f62 C0F20003 		movt	r3, #:upper16:eepromConfig
 1902 0f66 93F8C830 		ldrb	r3, [r3, #200]	@ zero_extendqisi2
 1903 0f6a 1846     		mov	r0, r3
 1904 0f6c 04AB     		add	r3, sp, #16
 1905 0f6e 1946     		mov	r1, r3
 1906 0f70 4FF00A02 		mov	r2, #10
 1907 0f74 FFF7FEFF 		bl	itoa
 1908 0f78 04AB     		add	r3, sp, #16
 1909 0f7a 1846     		mov	r0, r3
 1910 0f7c FFF7FEFF 		bl	usbPrint
 1911 0f80 40F20000 		movw	r0, #:lower16:.LC1
 1912 0f84 C0F20000 		movt	r0, #:upper16:.LC1
 1913 0f88 FFF7FEFF 		bl	usbPrint
 1914 0f8c 40F20000 		movw	r0, #:lower16:.LC5
 1915 0f90 C0F20000 		movt	r0, #:upper16:.LC5
 1916 0f94 FFF7FEFF 		bl	usbPrint
 1917 0f98 40F20003 		movw	r3, #:lower16:eepromConfig
 1918 0f9c C0F20003 		movt	r3, #:upper16:eepromConfig
 1919 0fa0 D3F8CC30 		ldr	r3, [r3, #204]	@ float
 1920 0fa4 1846     		mov	r0, r3	@ float
 1921 0fa6 04AB     		add	r3, sp, #16
 1922 0fa8 1946     		mov	r1, r3
 1923 0faa FFF7FEFF 		bl	ftoa
 1924 0fae 04AB     		add	r3, sp, #16
 1925 0fb0 1846     		mov	r0, r3
 1926 0fb2 FFF7FEFF 		bl	usbPrint
 1927 0fb6 40F20000 		movw	r0, #:lower16:.LC0
 1928 0fba C0F20000 		movt	r0, #:upper16:.LC0
 1929 0fbe FFF7FEFF 		bl	usbPrint
 1930 0fc2 40F20003 		movw	r3, #:lower16:eepromConfig
 1931 0fc6 C0F20003 		movt	r3, #:upper16:eepromConfig
 1932 0fca D3F8D030 		ldr	r3, [r3, #208]	@ float
 1933 0fce 1846     		mov	r0, r3	@ float
 1934 0fd0 04AB     		add	r3, sp, #16
 1935 0fd2 1946     		mov	r1, r3
 1936 0fd4 FFF7FEFF 		bl	ftoa
 1937 0fd8 04AB     		add	r3, sp, #16
 1938 0fda 1846     		mov	r0, r3
 1939 0fdc FFF7FEFF 		bl	usbPrint
 1940 0fe0 40F20000 		movw	r0, #:lower16:.LC0
 1941 0fe4 C0F20000 		movt	r0, #:upper16:.LC0
 1942 0fe8 FFF7FEFF 		bl	usbPrint
 1943 0fec 40F20003 		movw	r3, #:lower16:eepromConfig
 1944 0ff0 C0F20003 		movt	r3, #:upper16:eepromConfig
 1945 0ff4 D3F8D430 		ldr	r3, [r3, #212]	@ float
 1946 0ff8 1846     		mov	r0, r3	@ float
 1947 0ffa 04AB     		add	r3, sp, #16
 1948 0ffc 1946     		mov	r1, r3
 1949 0ffe FFF7FEFF 		bl	ftoa
 1950 1002 04AB     		add	r3, sp, #16
 1951 1004 1846     		mov	r0, r3
 1952 1006 FFF7FEFF 		bl	usbPrint
 1953 100a 40F20000 		movw	r0, #:lower16:.LC0
 1954 100e C0F20000 		movt	r0, #:upper16:.LC0
 1955 1012 FFF7FEFF 		bl	usbPrint
 1956 1016 40F20003 		movw	r3, #:lower16:eepromConfig
 1957 101a C0F20003 		movt	r3, #:upper16:eepromConfig
 1958 101e D3F8DC30 		ldr	r3, [r3, #220]	@ float
 1959 1022 1846     		mov	r0, r3	@ float
 1960 1024 04AB     		add	r3, sp, #16
 1961 1026 1946     		mov	r1, r3
 1962 1028 FFF7FEFF 		bl	ftoa
 1963 102c 04AB     		add	r3, sp, #16
 1964 102e 1846     		mov	r0, r3
 1965 1030 FFF7FEFF 		bl	usbPrint
 1966 1034 40F20000 		movw	r0, #:lower16:.LC0
 1967 1038 C0F20000 		movt	r0, #:upper16:.LC0
 1968 103c FFF7FEFF 		bl	usbPrint
 1969 1040 40F20003 		movw	r3, #:lower16:eepromConfig
 1970 1044 C0F20003 		movt	r3, #:upper16:eepromConfig
 1971 1048 93F8EC30 		ldrb	r3, [r3, #236]	@ zero_extendqisi2
 1972 104c 1846     		mov	r0, r3
 1973 104e 04AB     		add	r3, sp, #16
 1974 1050 1946     		mov	r1, r3
 1975 1052 4FF00A02 		mov	r2, #10
 1976 1056 FFF7FEFF 		bl	itoa
 1977 105a 04AB     		add	r3, sp, #16
 1978 105c 1846     		mov	r0, r3
 1979 105e FFF7FEFF 		bl	usbPrint
 1980 1062 40F20000 		movw	r0, #:lower16:.LC1
 1981 1066 C0F20000 		movt	r0, #:upper16:.LC1
 1982 106a FFF7FEFF 		bl	usbPrint
 1983 106e 40F20000 		movw	r0, #:lower16:.LC6
 1984 1072 C0F20000 		movt	r0, #:upper16:.LC6
 1985 1076 FFF7FEFF 		bl	usbPrint
 1986 107a 40F20003 		movw	r3, #:lower16:eepromConfig
 1987 107e C0F20003 		movt	r3, #:upper16:eepromConfig
 1988 1082 D3F8F030 		ldr	r3, [r3, #240]	@ float
 1989 1086 1846     		mov	r0, r3	@ float
 1990 1088 04AB     		add	r3, sp, #16
 1991 108a 1946     		mov	r1, r3
 1992 108c FFF7FEFF 		bl	ftoa
 1993 1090 04AB     		add	r3, sp, #16
 1994 1092 1846     		mov	r0, r3
 1995 1094 FFF7FEFF 		bl	usbPrint
 1996 1098 40F20000 		movw	r0, #:lower16:.LC0
 1997 109c C0F20000 		movt	r0, #:upper16:.LC0
 1998 10a0 FFF7FEFF 		bl	usbPrint
 1999 10a4 40F20003 		movw	r3, #:lower16:eepromConfig
 2000 10a8 C0F20003 		movt	r3, #:upper16:eepromConfig
 2001 10ac D3F8F430 		ldr	r3, [r3, #244]	@ float
 2002 10b0 1846     		mov	r0, r3	@ float
 2003 10b2 04AB     		add	r3, sp, #16
 2004 10b4 1946     		mov	r1, r3
 2005 10b6 FFF7FEFF 		bl	ftoa
 2006 10ba 04AB     		add	r3, sp, #16
 2007 10bc 1846     		mov	r0, r3
 2008 10be FFF7FEFF 		bl	usbPrint
 2009 10c2 40F20000 		movw	r0, #:lower16:.LC0
 2010 10c6 C0F20000 		movt	r0, #:upper16:.LC0
 2011 10ca FFF7FEFF 		bl	usbPrint
 2012 10ce 40F20003 		movw	r3, #:lower16:eepromConfig
 2013 10d2 C0F20003 		movt	r3, #:upper16:eepromConfig
 2014 10d6 D3F8F830 		ldr	r3, [r3, #248]	@ float
 2015 10da 1846     		mov	r0, r3	@ float
 2016 10dc 04AB     		add	r3, sp, #16
 2017 10de 1946     		mov	r1, r3
 2018 10e0 FFF7FEFF 		bl	ftoa
 2019 10e4 04AB     		add	r3, sp, #16
 2020 10e6 1846     		mov	r0, r3
 2021 10e8 FFF7FEFF 		bl	usbPrint
 2022 10ec 40F20000 		movw	r0, #:lower16:.LC0
 2023 10f0 C0F20000 		movt	r0, #:upper16:.LC0
 2024 10f4 FFF7FEFF 		bl	usbPrint
 2025 10f8 40F20003 		movw	r3, #:lower16:eepromConfig
 2026 10fc C0F20003 		movt	r3, #:upper16:eepromConfig
 2027 1100 D3F80031 		ldr	r3, [r3, #256]	@ float
 2028 1104 1846     		mov	r0, r3	@ float
 2029 1106 04AB     		add	r3, sp, #16
 2030 1108 1946     		mov	r1, r3
 2031 110a FFF7FEFF 		bl	ftoa
 2032 110e 04AB     		add	r3, sp, #16
 2033 1110 1846     		mov	r0, r3
 2034 1112 FFF7FEFF 		bl	usbPrint
 2035 1116 40F20000 		movw	r0, #:lower16:.LC0
 2036 111a C0F20000 		movt	r0, #:upper16:.LC0
 2037 111e FFF7FEFF 		bl	usbPrint
 2038 1122 40F20003 		movw	r3, #:lower16:eepromConfig
 2039 1126 C0F20003 		movt	r3, #:upper16:eepromConfig
 2040 112a 93F81031 		ldrb	r3, [r3, #272]	@ zero_extendqisi2
 2041 112e 1846     		mov	r0, r3
 2042 1130 04AB     		add	r3, sp, #16
 2043 1132 1946     		mov	r1, r3
 2044 1134 4FF00A02 		mov	r2, #10
 2045 1138 FFF7FEFF 		bl	itoa
 2046 113c 04AB     		add	r3, sp, #16
 2047 113e 1846     		mov	r0, r3
 2048 1140 FFF7FEFF 		bl	usbPrint
 2049 1144 40F20000 		movw	r0, #:lower16:.LC1
 2050 1148 C0F20000 		movt	r0, #:upper16:.LC1
 2051 114c FFF7FEFF 		bl	usbPrint
 2052 1150 40F20003 		movw	r3, #:lower16:queryType
 2053 1154 C0F20003 		movt	r3, #:upper16:queryType
 2054 1158 4FF07802 		mov	r2, #120
 2055 115c 1A70     		strb	r2, [r3, #0]
 2056 115e 40F20003 		movw	r3, #:lower16:validCommand
 2057 1162 C0F20003 		movt	r3, #:upper16:validCommand
 2058 1166 4FF00002 		mov	r2, #0
 2059 116a 1A70     		strb	r2, [r3, #0]
 2060 116c 02F0B9BA 		b	.L16
 2061              	.L78:
 2062 1170 40F20000 		movw	r0, #:lower16:.LC1
 2063 1174 C0F20000 		movt	r0, #:upper16:.LC1
 2064 1178 FFF7FEFF 		bl	usbPrint
 2065 117c 40F20000 		movw	r0, #:lower16:.LC7
 2066 1180 C0F20000 		movt	r0, #:upper16:.LC7
 2067 1184 FFF7FEFF 		bl	usbPrint
 2068 1188 40F20003 		movw	r3, #:lower16:eepromConfig
 2069 118c C0F20003 		movt	r3, #:upper16:eepromConfig
 2070 1190 D3F81431 		ldr	r3, [r3, #276]	@ float
 2071 1194 1846     		mov	r0, r3	@ float
 2072 1196 04AB     		add	r3, sp, #16
 2073 1198 1946     		mov	r1, r3
 2074 119a FFF7FEFF 		bl	ftoa
 2075 119e 04AB     		add	r3, sp, #16
 2076 11a0 1846     		mov	r0, r3
 2077 11a2 FFF7FEFF 		bl	usbPrint
 2078 11a6 40F20000 		movw	r0, #:lower16:.LC0
 2079 11aa C0F20000 		movt	r0, #:upper16:.LC0
 2080 11ae FFF7FEFF 		bl	usbPrint
 2081 11b2 40F20003 		movw	r3, #:lower16:eepromConfig
 2082 11b6 C0F20003 		movt	r3, #:upper16:eepromConfig
 2083 11ba D3F81831 		ldr	r3, [r3, #280]	@ float
 2084 11be 1846     		mov	r0, r3	@ float
 2085 11c0 04AB     		add	r3, sp, #16
 2086 11c2 1946     		mov	r1, r3
 2087 11c4 FFF7FEFF 		bl	ftoa
 2088 11c8 04AB     		add	r3, sp, #16
 2089 11ca 1846     		mov	r0, r3
 2090 11cc FFF7FEFF 		bl	usbPrint
 2091 11d0 40F20000 		movw	r0, #:lower16:.LC0
 2092 11d4 C0F20000 		movt	r0, #:upper16:.LC0
 2093 11d8 FFF7FEFF 		bl	usbPrint
 2094 11dc 40F20003 		movw	r3, #:lower16:eepromConfig
 2095 11e0 C0F20003 		movt	r3, #:upper16:eepromConfig
 2096 11e4 D3F81C31 		ldr	r3, [r3, #284]	@ float
 2097 11e8 1846     		mov	r0, r3	@ float
 2098 11ea 04AB     		add	r3, sp, #16
 2099 11ec 1946     		mov	r1, r3
 2100 11ee FFF7FEFF 		bl	ftoa
 2101 11f2 04AB     		add	r3, sp, #16
 2102 11f4 1846     		mov	r0, r3
 2103 11f6 FFF7FEFF 		bl	usbPrint
 2104 11fa 40F20000 		movw	r0, #:lower16:.LC0
 2105 11fe C0F20000 		movt	r0, #:upper16:.LC0
 2106 1202 FFF7FEFF 		bl	usbPrint
 2107 1206 40F20003 		movw	r3, #:lower16:eepromConfig
 2108 120a C0F20003 		movt	r3, #:upper16:eepromConfig
 2109 120e D3F82431 		ldr	r3, [r3, #292]	@ float
 2110 1212 1846     		mov	r0, r3	@ float
 2111 1214 04AB     		add	r3, sp, #16
 2112 1216 1946     		mov	r1, r3
 2113 1218 FFF7FEFF 		bl	ftoa
 2114 121c 04AB     		add	r3, sp, #16
 2115 121e 1846     		mov	r0, r3
 2116 1220 FFF7FEFF 		bl	usbPrint
 2117 1224 40F20000 		movw	r0, #:lower16:.LC0
 2118 1228 C0F20000 		movt	r0, #:upper16:.LC0
 2119 122c FFF7FEFF 		bl	usbPrint
 2120 1230 40F20003 		movw	r3, #:lower16:eepromConfig
 2121 1234 C0F20003 		movt	r3, #:upper16:eepromConfig
 2122 1238 93F83431 		ldrb	r3, [r3, #308]	@ zero_extendqisi2
 2123 123c 1846     		mov	r0, r3
 2124 123e 04AB     		add	r3, sp, #16
 2125 1240 1946     		mov	r1, r3
 2126 1242 4FF00A02 		mov	r2, #10
 2127 1246 FFF7FEFF 		bl	itoa
 2128 124a 04AB     		add	r3, sp, #16
 2129 124c 1846     		mov	r0, r3
 2130 124e FFF7FEFF 		bl	usbPrint
 2131 1252 40F20000 		movw	r0, #:lower16:.LC1
 2132 1256 C0F20000 		movt	r0, #:upper16:.LC1
 2133 125a FFF7FEFF 		bl	usbPrint
 2134 125e 40F20000 		movw	r0, #:lower16:.LC8
 2135 1262 C0F20000 		movt	r0, #:upper16:.LC8
 2136 1266 FFF7FEFF 		bl	usbPrint
 2137 126a 40F20003 		movw	r3, #:lower16:eepromConfig
 2138 126e C0F20003 		movt	r3, #:upper16:eepromConfig
 2139 1272 D3F83831 		ldr	r3, [r3, #312]	@ float
 2140 1276 1846     		mov	r0, r3	@ float
 2141 1278 04AB     		add	r3, sp, #16
 2142 127a 1946     		mov	r1, r3
 2143 127c FFF7FEFF 		bl	ftoa
 2144 1280 04AB     		add	r3, sp, #16
 2145 1282 1846     		mov	r0, r3
 2146 1284 FFF7FEFF 		bl	usbPrint
 2147 1288 40F20000 		movw	r0, #:lower16:.LC0
 2148 128c C0F20000 		movt	r0, #:upper16:.LC0
 2149 1290 FFF7FEFF 		bl	usbPrint
 2150 1294 40F20003 		movw	r3, #:lower16:eepromConfig
 2151 1298 C0F20003 		movt	r3, #:upper16:eepromConfig
 2152 129c D3F83C31 		ldr	r3, [r3, #316]	@ float
 2153 12a0 1846     		mov	r0, r3	@ float
 2154 12a2 04AB     		add	r3, sp, #16
 2155 12a4 1946     		mov	r1, r3
 2156 12a6 FFF7FEFF 		bl	ftoa
 2157 12aa 04AB     		add	r3, sp, #16
 2158 12ac 1846     		mov	r0, r3
 2159 12ae FFF7FEFF 		bl	usbPrint
 2160 12b2 40F20000 		movw	r0, #:lower16:.LC0
 2161 12b6 C0F20000 		movt	r0, #:upper16:.LC0
 2162 12ba FFF7FEFF 		bl	usbPrint
 2163 12be 40F20003 		movw	r3, #:lower16:eepromConfig
 2164 12c2 C0F20003 		movt	r3, #:upper16:eepromConfig
 2165 12c6 D3F84031 		ldr	r3, [r3, #320]	@ float
 2166 12ca 1846     		mov	r0, r3	@ float
 2167 12cc 04AB     		add	r3, sp, #16
 2168 12ce 1946     		mov	r1, r3
 2169 12d0 FFF7FEFF 		bl	ftoa
 2170 12d4 04AB     		add	r3, sp, #16
 2171 12d6 1846     		mov	r0, r3
 2172 12d8 FFF7FEFF 		bl	usbPrint
 2173 12dc 40F20000 		movw	r0, #:lower16:.LC0
 2174 12e0 C0F20000 		movt	r0, #:upper16:.LC0
 2175 12e4 FFF7FEFF 		bl	usbPrint
 2176 12e8 40F20003 		movw	r3, #:lower16:eepromConfig
 2177 12ec C0F20003 		movt	r3, #:upper16:eepromConfig
 2178 12f0 D3F84831 		ldr	r3, [r3, #328]	@ float
 2179 12f4 1846     		mov	r0, r3	@ float
 2180 12f6 04AB     		add	r3, sp, #16
 2181 12f8 1946     		mov	r1, r3
 2182 12fa FFF7FEFF 		bl	ftoa
 2183 12fe 04AB     		add	r3, sp, #16
 2184 1300 1846     		mov	r0, r3
 2185 1302 FFF7FEFF 		bl	usbPrint
 2186 1306 40F20000 		movw	r0, #:lower16:.LC0
 2187 130a C0F20000 		movt	r0, #:upper16:.LC0
 2188 130e FFF7FEFF 		bl	usbPrint
 2189 1312 40F20003 		movw	r3, #:lower16:eepromConfig
 2190 1316 C0F20003 		movt	r3, #:upper16:eepromConfig
 2191 131a 93F85831 		ldrb	r3, [r3, #344]	@ zero_extendqisi2
 2192 131e 1846     		mov	r0, r3
 2193 1320 04AB     		add	r3, sp, #16
 2194 1322 1946     		mov	r1, r3
 2195 1324 4FF00A02 		mov	r2, #10
 2196 1328 FFF7FEFF 		bl	itoa
 2197 132c 04AB     		add	r3, sp, #16
 2198 132e 1846     		mov	r0, r3
 2199 1330 FFF7FEFF 		bl	usbPrint
 2200 1334 40F20000 		movw	r0, #:lower16:.LC1
 2201 1338 C0F20000 		movt	r0, #:upper16:.LC1
 2202 133c FFF7FEFF 		bl	usbPrint
 2203 1340 40F20000 		movw	r0, #:lower16:.LC9
 2204 1344 C0F20000 		movt	r0, #:upper16:.LC9
 2205 1348 FFF7FEFF 		bl	usbPrint
 2206 134c 40F20003 		movw	r3, #:lower16:eepromConfig
 2207 1350 C0F20003 		movt	r3, #:upper16:eepromConfig
 2208 1354 D3F85C31 		ldr	r3, [r3, #348]	@ float
 2209 1358 1846     		mov	r0, r3	@ float
 2210 135a 04AB     		add	r3, sp, #16
 2211 135c 1946     		mov	r1, r3
 2212 135e FFF7FEFF 		bl	ftoa
 2213 1362 04AB     		add	r3, sp, #16
 2214 1364 1846     		mov	r0, r3
 2215 1366 FFF7FEFF 		bl	usbPrint
 2216 136a 40F20000 		movw	r0, #:lower16:.LC0
 2217 136e C0F20000 		movt	r0, #:upper16:.LC0
 2218 1372 FFF7FEFF 		bl	usbPrint
 2219 1376 40F20003 		movw	r3, #:lower16:eepromConfig
 2220 137a C0F20003 		movt	r3, #:upper16:eepromConfig
 2221 137e D3F86031 		ldr	r3, [r3, #352]	@ float
 2222 1382 1846     		mov	r0, r3	@ float
 2223 1384 04AB     		add	r3, sp, #16
 2224 1386 1946     		mov	r1, r3
 2225 1388 FFF7FEFF 		bl	ftoa
 2226 138c 04AB     		add	r3, sp, #16
 2227 138e 1846     		mov	r0, r3
 2228 1390 FFF7FEFF 		bl	usbPrint
 2229 1394 40F20000 		movw	r0, #:lower16:.LC0
 2230 1398 C0F20000 		movt	r0, #:upper16:.LC0
 2231 139c FFF7FEFF 		bl	usbPrint
 2232 13a0 40F20003 		movw	r3, #:lower16:eepromConfig
 2233 13a4 C0F20003 		movt	r3, #:upper16:eepromConfig
 2234 13a8 D3F86431 		ldr	r3, [r3, #356]	@ float
 2235 13ac 1846     		mov	r0, r3	@ float
 2236 13ae 04AB     		add	r3, sp, #16
 2237 13b0 1946     		mov	r1, r3
 2238 13b2 FFF7FEFF 		bl	ftoa
 2239 13b6 04AB     		add	r3, sp, #16
 2240 13b8 1846     		mov	r0, r3
 2241 13ba FFF7FEFF 		bl	usbPrint
 2242 13be 40F20000 		movw	r0, #:lower16:.LC0
 2243 13c2 C0F20000 		movt	r0, #:upper16:.LC0
 2244 13c6 FFF7FEFF 		bl	usbPrint
 2245 13ca 40F20003 		movw	r3, #:lower16:eepromConfig
 2246 13ce C0F20003 		movt	r3, #:upper16:eepromConfig
 2247 13d2 D3F86C31 		ldr	r3, [r3, #364]	@ float
 2248 13d6 1846     		mov	r0, r3	@ float
 2249 13d8 04AB     		add	r3, sp, #16
 2250 13da 1946     		mov	r1, r3
 2251 13dc FFF7FEFF 		bl	ftoa
 2252 13e0 04AB     		add	r3, sp, #16
 2253 13e2 1846     		mov	r0, r3
 2254 13e4 FFF7FEFF 		bl	usbPrint
 2255 13e8 40F20000 		movw	r0, #:lower16:.LC0
 2256 13ec C0F20000 		movt	r0, #:upper16:.LC0
 2257 13f0 FFF7FEFF 		bl	usbPrint
 2258 13f4 40F20003 		movw	r3, #:lower16:eepromConfig
 2259 13f8 C0F20003 		movt	r3, #:upper16:eepromConfig
 2260 13fc 93F87C31 		ldrb	r3, [r3, #380]	@ zero_extendqisi2
 2261 1400 1846     		mov	r0, r3
 2262 1402 04AB     		add	r3, sp, #16
 2263 1404 1946     		mov	r1, r3
 2264 1406 4FF00A02 		mov	r2, #10
 2265 140a FFF7FEFF 		bl	itoa
 2266 140e 04AB     		add	r3, sp, #16
 2267 1410 1846     		mov	r0, r3
 2268 1412 FFF7FEFF 		bl	usbPrint
 2269 1416 40F20000 		movw	r0, #:lower16:.LC1
 2270 141a C0F20000 		movt	r0, #:upper16:.LC1
 2271 141e FFF7FEFF 		bl	usbPrint
 2272 1422 40F20003 		movw	r3, #:lower16:queryType
 2273 1426 C0F20003 		movt	r3, #:upper16:queryType
 2274 142a 4FF07802 		mov	r2, #120
 2275 142e 1A70     		strb	r2, [r3, #0]
 2276 1430 40F20003 		movw	r3, #:lower16:validCommand
 2277 1434 C0F20003 		movt	r3, #:upper16:validCommand
 2278 1438 4FF00002 		mov	r2, #0
 2279 143c 1A70     		strb	r2, [r3, #0]
 2280 143e 02F050B9 		b	.L16
 2281              	.L79:
 2282 1442 40F20003 		movw	r3, #:lower16:queryType
 2283 1446 C0F20003 		movt	r3, #:upper16:queryType
 2284 144a 4FF07802 		mov	r2, #120
 2285 144e 1A70     		strb	r2, [r3, #0]
 2286 1450 40F20003 		movw	r3, #:lower16:validCommand
 2287 1454 C0F20003 		movt	r3, #:upper16:validCommand
 2288 1458 4FF00002 		mov	r2, #0
 2289 145c 1A70     		strb	r2, [r3, #0]
 2290 145e 02F040B9 		b	.L16
 2291              	.L80:
 2292 1462 40F20000 		movw	r0, #:lower16:.LC1
 2293 1466 C0F20000 		movt	r0, #:upper16:.LC1
 2294 146a FFF7FEFF 		bl	usbPrint
 2295 146e 40F20000 		movw	r0, #:lower16:.LC10
 2296 1472 C0F20000 		movt	r0, #:upper16:.LC10
 2297 1476 FFF7FEFF 		bl	usbPrint
 2298 147a 40F20003 		movw	r3, #:lower16:eepromConfig
 2299 147e C0F20003 		movt	r3, #:upper16:eepromConfig
 2300 1482 1B69     		ldr	r3, [r3, #16]	@ float
 2301 1484 1846     		mov	r0, r3	@ float
 2302 1486 04AB     		add	r3, sp, #16
 2303 1488 1946     		mov	r1, r3
 2304 148a FFF7FEFF 		bl	ftoa
 2305 148e 04AB     		add	r3, sp, #16
 2306 1490 1846     		mov	r0, r3
 2307 1492 FFF7FEFF 		bl	usbPrint
 2308 1496 40F20000 		movw	r0, #:lower16:.LC0
 2309 149a C0F20000 		movt	r0, #:upper16:.LC0
 2310 149e FFF7FEFF 		bl	usbPrint
 2311 14a2 40F20003 		movw	r3, #:lower16:eepromConfig
 2312 14a6 C0F20003 		movt	r3, #:upper16:eepromConfig
 2313 14aa 5B69     		ldr	r3, [r3, #20]	@ float
 2314 14ac 1846     		mov	r0, r3	@ float
 2315 14ae 04AB     		add	r3, sp, #16
 2316 14b0 1946     		mov	r1, r3
 2317 14b2 FFF7FEFF 		bl	ftoa
 2318 14b6 04AB     		add	r3, sp, #16
 2319 14b8 1846     		mov	r0, r3
 2320 14ba FFF7FEFF 		bl	usbPrint
 2321 14be 40F20000 		movw	r0, #:lower16:.LC0
 2322 14c2 C0F20000 		movt	r0, #:upper16:.LC0
 2323 14c6 FFF7FEFF 		bl	usbPrint
 2324 14ca 40F20003 		movw	r3, #:lower16:eepromConfig
 2325 14ce C0F20003 		movt	r3, #:upper16:eepromConfig
 2326 14d2 9B69     		ldr	r3, [r3, #24]	@ float
 2327 14d4 1846     		mov	r0, r3	@ float
 2328 14d6 04AB     		add	r3, sp, #16
 2329 14d8 1946     		mov	r1, r3
 2330 14da FFF7FEFF 		bl	ftoa
 2331 14de 04AB     		add	r3, sp, #16
 2332 14e0 1846     		mov	r0, r3
 2333 14e2 FFF7FEFF 		bl	usbPrint
 2334 14e6 40F20000 		movw	r0, #:lower16:.LC1
 2335 14ea C0F20000 		movt	r0, #:upper16:.LC1
 2336 14ee FFF7FEFF 		bl	usbPrint
 2337 14f2 40F20000 		movw	r0, #:lower16:.LC11
 2338 14f6 C0F20000 		movt	r0, #:upper16:.LC11
 2339 14fa FFF7FEFF 		bl	usbPrint
 2340 14fe 40F20003 		movw	r3, #:lower16:eepromConfig
 2341 1502 C0F20003 		movt	r3, #:upper16:eepromConfig
 2342 1506 5B68     		ldr	r3, [r3, #4]	@ float
 2343 1508 1846     		mov	r0, r3	@ float
 2344 150a 04AB     		add	r3, sp, #16
 2345 150c 1946     		mov	r1, r3
 2346 150e FFF7FEFF 		bl	ftoa
 2347 1512 04AB     		add	r3, sp, #16
 2348 1514 1846     		mov	r0, r3
 2349 1516 FFF7FEFF 		bl	usbPrint
 2350 151a 40F20000 		movw	r0, #:lower16:.LC0
 2351 151e C0F20000 		movt	r0, #:upper16:.LC0
 2352 1522 FFF7FEFF 		bl	usbPrint
 2353 1526 40F20003 		movw	r3, #:lower16:eepromConfig
 2354 152a C0F20003 		movt	r3, #:upper16:eepromConfig
 2355 152e 9B68     		ldr	r3, [r3, #8]	@ float
 2356 1530 1846     		mov	r0, r3	@ float
 2357 1532 04AB     		add	r3, sp, #16
 2358 1534 1946     		mov	r1, r3
 2359 1536 FFF7FEFF 		bl	ftoa
 2360 153a 04AB     		add	r3, sp, #16
 2361 153c 1846     		mov	r0, r3
 2362 153e FFF7FEFF 		bl	usbPrint
 2363 1542 40F20000 		movw	r0, #:lower16:.LC0
 2364 1546 C0F20000 		movt	r0, #:upper16:.LC0
 2365 154a FFF7FEFF 		bl	usbPrint
 2366 154e 40F20003 		movw	r3, #:lower16:eepromConfig
 2367 1552 C0F20003 		movt	r3, #:upper16:eepromConfig
 2368 1556 DB68     		ldr	r3, [r3, #12]	@ float
 2369 1558 1846     		mov	r0, r3	@ float
 2370 155a 04AB     		add	r3, sp, #16
 2371 155c 1946     		mov	r1, r3
 2372 155e FFF7FEFF 		bl	ftoa
 2373 1562 04AB     		add	r3, sp, #16
 2374 1564 1846     		mov	r0, r3
 2375 1566 FFF7FEFF 		bl	usbPrint
 2376 156a 40F20000 		movw	r0, #:lower16:.LC1
 2377 156e C0F20000 		movt	r0, #:upper16:.LC1
 2378 1572 FFF7FEFF 		bl	usbPrint
 2379 1576 40F20000 		movw	r0, #:lower16:.LC12
 2380 157a C0F20000 		movt	r0, #:upper16:.LC12
 2381 157e FFF7FEFF 		bl	usbPrint
 2382 1582 40F20003 		movw	r3, #:lower16:eepromConfig
 2383 1586 C0F20003 		movt	r3, #:upper16:eepromConfig
 2384 158a DB69     		ldr	r3, [r3, #28]	@ float
 2385 158c 1846     		mov	r0, r3	@ float
 2386 158e 04AB     		add	r3, sp, #16
 2387 1590 1946     		mov	r1, r3
 2388 1592 FFF7FEFF 		bl	ftoa
 2389 1596 04AB     		add	r3, sp, #16
 2390 1598 1846     		mov	r0, r3
 2391 159a FFF7FEFF 		bl	usbPrint
 2392 159e 40F20000 		movw	r0, #:lower16:.LC0
 2393 15a2 C0F20000 		movt	r0, #:upper16:.LC0
 2394 15a6 FFF7FEFF 		bl	usbPrint
 2395 15aa 40F20003 		movw	r3, #:lower16:eepromConfig
 2396 15ae C0F20003 		movt	r3, #:upper16:eepromConfig
 2397 15b2 1B6A     		ldr	r3, [r3, #32]	@ float
 2398 15b4 1846     		mov	r0, r3	@ float
 2399 15b6 04AB     		add	r3, sp, #16
 2400 15b8 1946     		mov	r1, r3
 2401 15ba FFF7FEFF 		bl	ftoa
 2402 15be 04AB     		add	r3, sp, #16
 2403 15c0 1846     		mov	r0, r3
 2404 15c2 FFF7FEFF 		bl	usbPrint
 2405 15c6 40F20000 		movw	r0, #:lower16:.LC0
 2406 15ca C0F20000 		movt	r0, #:upper16:.LC0
 2407 15ce FFF7FEFF 		bl	usbPrint
 2408 15d2 40F20003 		movw	r3, #:lower16:eepromConfig
 2409 15d6 C0F20003 		movt	r3, #:upper16:eepromConfig
 2410 15da 5B6A     		ldr	r3, [r3, #36]	@ float
 2411 15dc 1846     		mov	r0, r3	@ float
 2412 15de 04AB     		add	r3, sp, #16
 2413 15e0 1946     		mov	r1, r3
 2414 15e2 FFF7FEFF 		bl	ftoa
 2415 15e6 04AB     		add	r3, sp, #16
 2416 15e8 1846     		mov	r0, r3
 2417 15ea FFF7FEFF 		bl	usbPrint
 2418 15ee 40F20000 		movw	r0, #:lower16:.LC1
 2419 15f2 C0F20000 		movt	r0, #:upper16:.LC1
 2420 15f6 FFF7FEFF 		bl	usbPrint
 2421 15fa 40F20000 		movw	r0, #:lower16:.LC13
 2422 15fe C0F20000 		movt	r0, #:upper16:.LC13
 2423 1602 FFF7FEFF 		bl	usbPrint
 2424 1606 40F20003 		movw	r3, #:lower16:eepromConfig
 2425 160a C0F20003 		movt	r3, #:upper16:eepromConfig
 2426 160e 9B6A     		ldr	r3, [r3, #40]	@ float
 2427 1610 1846     		mov	r0, r3	@ float
 2428 1612 04AB     		add	r3, sp, #16
 2429 1614 1946     		mov	r1, r3
 2430 1616 FFF7FEFF 		bl	ftoa
 2431 161a 04AB     		add	r3, sp, #16
 2432 161c 1846     		mov	r0, r3
 2433 161e FFF7FEFF 		bl	usbPrint
 2434 1622 40F20000 		movw	r0, #:lower16:.LC0
 2435 1626 C0F20000 		movt	r0, #:upper16:.LC0
 2436 162a FFF7FEFF 		bl	usbPrint
 2437 162e 40F20003 		movw	r3, #:lower16:eepromConfig
 2438 1632 C0F20003 		movt	r3, #:upper16:eepromConfig
 2439 1636 DB6A     		ldr	r3, [r3, #44]	@ float
 2440 1638 1846     		mov	r0, r3	@ float
 2441 163a 04AB     		add	r3, sp, #16
 2442 163c 1946     		mov	r1, r3
 2443 163e FFF7FEFF 		bl	ftoa
 2444 1642 04AB     		add	r3, sp, #16
 2445 1644 1846     		mov	r0, r3
 2446 1646 FFF7FEFF 		bl	usbPrint
 2447 164a 40F20000 		movw	r0, #:lower16:.LC0
 2448 164e C0F20000 		movt	r0, #:upper16:.LC0
 2449 1652 FFF7FEFF 		bl	usbPrint
 2450 1656 40F20003 		movw	r3, #:lower16:eepromConfig
 2451 165a C0F20003 		movt	r3, #:upper16:eepromConfig
 2452 165e 1B6B     		ldr	r3, [r3, #48]	@ float
 2453 1660 1846     		mov	r0, r3	@ float
 2454 1662 04AB     		add	r3, sp, #16
 2455 1664 1946     		mov	r1, r3
 2456 1666 FFF7FEFF 		bl	ftoa
 2457 166a 04AB     		add	r3, sp, #16
 2458 166c 1846     		mov	r0, r3
 2459 166e FFF7FEFF 		bl	usbPrint
 2460 1672 40F20000 		movw	r0, #:lower16:.LC1
 2461 1676 C0F20000 		movt	r0, #:upper16:.LC1
 2462 167a FFF7FEFF 		bl	usbPrint
 2463 167e 40F20000 		movw	r0, #:lower16:.LC14
 2464 1682 C0F20000 		movt	r0, #:upper16:.LC14
 2465 1686 FFF7FEFF 		bl	usbPrint
 2466 168a 40F20003 		movw	r3, #:lower16:eepromConfig
 2467 168e C0F20003 		movt	r3, #:upper16:eepromConfig
 2468 1692 5B6B     		ldr	r3, [r3, #52]	@ float
 2469 1694 1846     		mov	r0, r3	@ float
 2470 1696 04AB     		add	r3, sp, #16
 2471 1698 1946     		mov	r1, r3
 2472 169a FFF7FEFF 		bl	ftoa
 2473 169e 04AB     		add	r3, sp, #16
 2474 16a0 1846     		mov	r0, r3
 2475 16a2 FFF7FEFF 		bl	usbPrint
 2476 16a6 40F20000 		movw	r0, #:lower16:.LC0
 2477 16aa C0F20000 		movt	r0, #:upper16:.LC0
 2478 16ae FFF7FEFF 		bl	usbPrint
 2479 16b2 40F20003 		movw	r3, #:lower16:eepromConfig
 2480 16b6 C0F20003 		movt	r3, #:upper16:eepromConfig
 2481 16ba 9B6B     		ldr	r3, [r3, #56]	@ float
 2482 16bc 1846     		mov	r0, r3	@ float
 2483 16be 04AB     		add	r3, sp, #16
 2484 16c0 1946     		mov	r1, r3
 2485 16c2 FFF7FEFF 		bl	ftoa
 2486 16c6 04AB     		add	r3, sp, #16
 2487 16c8 1846     		mov	r0, r3
 2488 16ca FFF7FEFF 		bl	usbPrint
 2489 16ce 40F20000 		movw	r0, #:lower16:.LC0
 2490 16d2 C0F20000 		movt	r0, #:upper16:.LC0
 2491 16d6 FFF7FEFF 		bl	usbPrint
 2492 16da 40F20003 		movw	r3, #:lower16:eepromConfig
 2493 16de C0F20003 		movt	r3, #:upper16:eepromConfig
 2494 16e2 DB6B     		ldr	r3, [r3, #60]	@ float
 2495 16e4 1846     		mov	r0, r3	@ float
 2496 16e6 04AB     		add	r3, sp, #16
 2497 16e8 1946     		mov	r1, r3
 2498 16ea FFF7FEFF 		bl	ftoa
 2499 16ee 04AB     		add	r3, sp, #16
 2500 16f0 1846     		mov	r0, r3
 2501 16f2 FFF7FEFF 		bl	usbPrint
 2502 16f6 40F20000 		movw	r0, #:lower16:.LC1
 2503 16fa C0F20000 		movt	r0, #:upper16:.LC1
 2504 16fe FFF7FEFF 		bl	usbPrint
 2505 1702 40F20000 		movw	r0, #:lower16:.LC15
 2506 1706 C0F20000 		movt	r0, #:upper16:.LC15
 2507 170a FFF7FEFF 		bl	usbPrint
 2508 170e 40F20003 		movw	r3, #:lower16:eepromConfig
 2509 1712 C0F20003 		movt	r3, #:upper16:eepromConfig
 2510 1716 1B6C     		ldr	r3, [r3, #64]	@ float
 2511 1718 1846     		mov	r0, r3	@ float
 2512 171a 04AB     		add	r3, sp, #16
 2513 171c 1946     		mov	r1, r3
 2514 171e FFF7FEFF 		bl	ftoa
 2515 1722 04AB     		add	r3, sp, #16
 2516 1724 1846     		mov	r0, r3
 2517 1726 FFF7FEFF 		bl	usbPrint
 2518 172a 40F20000 		movw	r0, #:lower16:.LC1
 2519 172e C0F20000 		movt	r0, #:upper16:.LC1
 2520 1732 FFF7FEFF 		bl	usbPrint
 2521 1736 40F20000 		movw	r0, #:lower16:.LC16
 2522 173a C0F20000 		movt	r0, #:upper16:.LC16
 2523 173e FFF7FEFF 		bl	usbPrint
 2524 1742 40F20003 		movw	r3, #:lower16:eepromConfig
 2525 1746 C0F20003 		movt	r3, #:upper16:eepromConfig
 2526 174a 9B6C     		ldr	r3, [r3, #72]	@ float
 2527 174c 1846     		mov	r0, r3	@ float
 2528 174e 04AB     		add	r3, sp, #16
 2529 1750 1946     		mov	r1, r3
 2530 1752 FFF7FEFF 		bl	ftoa
 2531 1756 04AB     		add	r3, sp, #16
 2532 1758 1846     		mov	r0, r3
 2533 175a FFF7FEFF 		bl	usbPrint
 2534 175e 40F20000 		movw	r0, #:lower16:.LC1
 2535 1762 C0F20000 		movt	r0, #:upper16:.LC1
 2536 1766 FFF7FEFF 		bl	usbPrint
 2537 176a 40F20000 		movw	r0, #:lower16:.LC17
 2538 176e C0F20000 		movt	r0, #:upper16:.LC17
 2539 1772 FFF7FEFF 		bl	usbPrint
 2540 1776 40F20003 		movw	r3, #:lower16:eepromConfig
 2541 177a C0F20003 		movt	r3, #:upper16:eepromConfig
 2542 177e DB6C     		ldr	r3, [r3, #76]	@ float
 2543 1780 1846     		mov	r0, r3	@ float
 2544 1782 04AB     		add	r3, sp, #16
 2545 1784 1946     		mov	r1, r3
 2546 1786 FFF7FEFF 		bl	ftoa
 2547 178a 04AB     		add	r3, sp, #16
 2548 178c 1846     		mov	r0, r3
 2549 178e FFF7FEFF 		bl	usbPrint
 2550 1792 40F20000 		movw	r0, #:lower16:.LC1
 2551 1796 C0F20000 		movt	r0, #:upper16:.LC1
 2552 179a FFF7FEFF 		bl	usbPrint
 2553 179e 40F20000 		movw	r0, #:lower16:.LC18
 2554 17a2 C0F20000 		movt	r0, #:upper16:.LC18
 2555 17a6 FFF7FEFF 		bl	usbPrint
 2556 17aa 40F20003 		movw	r3, #:lower16:eepromConfig
 2557 17ae C0F20003 		movt	r3, #:upper16:eepromConfig
 2558 17b2 1B6D     		ldr	r3, [r3, #80]	@ float
 2559 17b4 1846     		mov	r0, r3	@ float
 2560 17b6 04AB     		add	r3, sp, #16
 2561 17b8 1946     		mov	r1, r3
 2562 17ba FFF7FEFF 		bl	ftoa
 2563 17be 04AB     		add	r3, sp, #16
 2564 17c0 1846     		mov	r0, r3
 2565 17c2 FFF7FEFF 		bl	usbPrint
 2566 17c6 40F20000 		movw	r0, #:lower16:.LC1
 2567 17ca C0F20000 		movt	r0, #:upper16:.LC1
 2568 17ce FFF7FEFF 		bl	usbPrint
 2569 17d2 40F20000 		movw	r0, #:lower16:.LC19
 2570 17d6 C0F20000 		movt	r0, #:upper16:.LC19
 2571 17da FFF7FEFF 		bl	usbPrint
 2572 17de 40F20003 		movw	r3, #:lower16:eepromConfig
 2573 17e2 C0F20003 		movt	r3, #:upper16:eepromConfig
 2574 17e6 5B6D     		ldr	r3, [r3, #84]	@ float
 2575 17e8 1846     		mov	r0, r3	@ float
 2576 17ea 04AB     		add	r3, sp, #16
 2577 17ec 1946     		mov	r1, r3
 2578 17ee FFF7FEFF 		bl	ftoa
 2579 17f2 04AB     		add	r3, sp, #16
 2580 17f4 1846     		mov	r0, r3
 2581 17f6 FFF7FEFF 		bl	usbPrint
 2582 17fa 40F20000 		movw	r0, #:lower16:.LC1
 2583 17fe C0F20000 		movt	r0, #:upper16:.LC1
 2584 1802 FFF7FEFF 		bl	usbPrint
 2585 1806 40F20000 		movw	r0, #:lower16:.LC20
 2586 180a C0F20000 		movt	r0, #:upper16:.LC20
 2587 180e FFF7FEFF 		bl	usbPrint
 2588 1812 40F20003 		movw	r3, #:lower16:eepromConfig
 2589 1816 C0F20003 		movt	r3, #:upper16:eepromConfig
 2590 181a 9B6D     		ldr	r3, [r3, #88]	@ float
 2591 181c 1846     		mov	r0, r3	@ float
 2592 181e 04AB     		add	r3, sp, #16
 2593 1820 1946     		mov	r1, r3
 2594 1822 FFF7FEFF 		bl	ftoa
 2595 1826 04AB     		add	r3, sp, #16
 2596 1828 1846     		mov	r0, r3
 2597 182a FFF7FEFF 		bl	usbPrint
 2598 182e 40F20000 		movw	r0, #:lower16:.LC1
 2599 1832 C0F20000 		movt	r0, #:upper16:.LC1
 2600 1836 FFF7FEFF 		bl	usbPrint
 2601 183a 40F20000 		movw	r0, #:lower16:.LC21
 2602 183e C0F20000 		movt	r0, #:upper16:.LC21
 2603 1842 FFF7FEFF 		bl	usbPrint
 2604 1846 40F20003 		movw	r3, #:lower16:eepromConfig
 2605 184a C0F20003 		movt	r3, #:upper16:eepromConfig
 2606 184e DB6D     		ldr	r3, [r3, #92]	@ float
 2607 1850 1846     		mov	r0, r3	@ float
 2608 1852 04AB     		add	r3, sp, #16
 2609 1854 1946     		mov	r1, r3
 2610 1856 FFF7FEFF 		bl	ftoa
 2611 185a 04AB     		add	r3, sp, #16
 2612 185c 1846     		mov	r0, r3
 2613 185e FFF7FEFF 		bl	usbPrint
 2614 1862 40F20000 		movw	r0, #:lower16:.LC1
 2615 1866 C0F20000 		movt	r0, #:upper16:.LC1
 2616 186a FFF7FEFF 		bl	usbPrint
 2617 186e 40F20000 		movw	r0, #:lower16:.LC22
 2618 1872 C0F20000 		movt	r0, #:upper16:.LC22
 2619 1876 FFF7FEFF 		bl	usbPrint
 2620 187a 40F20003 		movw	r3, #:lower16:eepromConfig
 2621 187e C0F20003 		movt	r3, #:upper16:eepromConfig
 2622 1882 1B6E     		ldr	r3, [r3, #96]	@ float
 2623 1884 1846     		mov	r0, r3	@ float
 2624 1886 04AB     		add	r3, sp, #16
 2625 1888 1946     		mov	r1, r3
 2626 188a FFF7FEFF 		bl	ftoa
 2627 188e 04AB     		add	r3, sp, #16
 2628 1890 1846     		mov	r0, r3
 2629 1892 FFF7FEFF 		bl	usbPrint
 2630 1896 40F20000 		movw	r0, #:lower16:.LC1
 2631 189a C0F20000 		movt	r0, #:upper16:.LC1
 2632 189e FFF7FEFF 		bl	usbPrint
 2633 18a2 40F20000 		movw	r0, #:lower16:.LC23
 2634 18a6 C0F20000 		movt	r0, #:upper16:.LC23
 2635 18aa FFF7FEFF 		bl	usbPrint
 2636 18ae 40F20003 		movw	r3, #:lower16:eepromConfig
 2637 18b2 C0F20003 		movt	r3, #:upper16:eepromConfig
 2638 18b6 5B6E     		ldr	r3, [r3, #100]	@ float
 2639 18b8 1846     		mov	r0, r3	@ float
 2640 18ba 04AB     		add	r3, sp, #16
 2641 18bc 1946     		mov	r1, r3
 2642 18be FFF7FEFF 		bl	ftoa
 2643 18c2 04AB     		add	r3, sp, #16
 2644 18c4 1846     		mov	r0, r3
 2645 18c6 FFF7FEFF 		bl	usbPrint
 2646 18ca 40F20000 		movw	r0, #:lower16:.LC1
 2647 18ce C0F20000 		movt	r0, #:upper16:.LC1
 2648 18d2 FFF7FEFF 		bl	usbPrint
 2649 18d6 40F20000 		movw	r0, #:lower16:.LC24
 2650 18da C0F20000 		movt	r0, #:upper16:.LC24
 2651 18de FFF7FEFF 		bl	usbPrint
 2652 18e2 40F20003 		movw	r3, #:lower16:eepromConfig
 2653 18e6 C0F20003 		movt	r3, #:upper16:eepromConfig
 2654 18ea 9B6E     		ldr	r3, [r3, #104]	@ float
 2655 18ec 1846     		mov	r0, r3	@ float
 2656 18ee 04AB     		add	r3, sp, #16
 2657 18f0 1946     		mov	r1, r3
 2658 18f2 FFF7FEFF 		bl	ftoa
 2659 18f6 04AB     		add	r3, sp, #16
 2660 18f8 1846     		mov	r0, r3
 2661 18fa FFF7FEFF 		bl	usbPrint
 2662 18fe 40F20000 		movw	r0, #:lower16:.LC0
 2663 1902 C0F20000 		movt	r0, #:upper16:.LC0
 2664 1906 FFF7FEFF 		bl	usbPrint
 2665 190a 40F20003 		movw	r3, #:lower16:eepromConfig
 2666 190e C0F20003 		movt	r3, #:upper16:eepromConfig
 2667 1912 DB6E     		ldr	r3, [r3, #108]	@ float
 2668 1914 1846     		mov	r0, r3	@ float
 2669 1916 04AB     		add	r3, sp, #16
 2670 1918 1946     		mov	r1, r3
 2671 191a FFF7FEFF 		bl	ftoa
 2672 191e 04AB     		add	r3, sp, #16
 2673 1920 1846     		mov	r0, r3
 2674 1922 FFF7FEFF 		bl	usbPrint
 2675 1926 40F20000 		movw	r0, #:lower16:.LC0
 2676 192a C0F20000 		movt	r0, #:upper16:.LC0
 2677 192e FFF7FEFF 		bl	usbPrint
 2678 1932 40F20003 		movw	r3, #:lower16:eepromConfig
 2679 1936 C0F20003 		movt	r3, #:upper16:eepromConfig
 2680 193a 1B6F     		ldr	r3, [r3, #112]	@ float
 2681 193c 1846     		mov	r0, r3	@ float
 2682 193e 04AB     		add	r3, sp, #16
 2683 1940 1946     		mov	r1, r3
 2684 1942 FFF7FEFF 		bl	ftoa
 2685 1946 04AB     		add	r3, sp, #16
 2686 1948 1846     		mov	r0, r3
 2687 194a FFF7FEFF 		bl	usbPrint
 2688 194e 40F20000 		movw	r0, #:lower16:.LC1
 2689 1952 C0F20000 		movt	r0, #:upper16:.LC1
 2690 1956 FFF7FEFF 		bl	usbPrint
 2691 195a 40F20000 		movw	r0, #:lower16:.LC25
 2692 195e C0F20000 		movt	r0, #:upper16:.LC25
 2693 1962 FFF7FEFF 		bl	usbPrint
 2694 1966 40F20003 		movw	r3, #:lower16:eepromConfig
 2695 196a C0F20003 		movt	r3, #:upper16:eepromConfig
 2696 196e 5B6F     		ldr	r3, [r3, #116]	@ float
 2697 1970 1846     		mov	r0, r3	@ float
 2698 1972 04AB     		add	r3, sp, #16
 2699 1974 1946     		mov	r1, r3
 2700 1976 FFF7FEFF 		bl	ftoa
 2701 197a 04AB     		add	r3, sp, #16
 2702 197c 1846     		mov	r0, r3
 2703 197e FFF7FEFF 		bl	usbPrint
 2704 1982 40F20000 		movw	r0, #:lower16:.LC0
 2705 1986 C0F20000 		movt	r0, #:upper16:.LC0
 2706 198a FFF7FEFF 		bl	usbPrint
 2707 198e 40F20003 		movw	r3, #:lower16:eepromConfig
 2708 1992 C0F20003 		movt	r3, #:upper16:eepromConfig
 2709 1996 9B6F     		ldr	r3, [r3, #120]	@ float
 2710 1998 1846     		mov	r0, r3	@ float
 2711 199a 04AB     		add	r3, sp, #16
 2712 199c 1946     		mov	r1, r3
 2713 199e FFF7FEFF 		bl	ftoa
 2714 19a2 04AB     		add	r3, sp, #16
 2715 19a4 1846     		mov	r0, r3
 2716 19a6 FFF7FEFF 		bl	usbPrint
 2717 19aa 40F20000 		movw	r0, #:lower16:.LC0
 2718 19ae C0F20000 		movt	r0, #:upper16:.LC0
 2719 19b2 FFF7FEFF 		bl	usbPrint
 2720 19b6 40F20003 		movw	r3, #:lower16:eepromConfig
 2721 19ba C0F20003 		movt	r3, #:upper16:eepromConfig
 2722 19be DB6F     		ldr	r3, [r3, #124]	@ float
 2723 19c0 1846     		mov	r0, r3	@ float
 2724 19c2 04AB     		add	r3, sp, #16
 2725 19c4 1946     		mov	r1, r3
 2726 19c6 FFF7FEFF 		bl	ftoa
 2727 19ca 04AB     		add	r3, sp, #16
 2728 19cc 1846     		mov	r0, r3
 2729 19ce FFF7FEFF 		bl	usbPrint
 2730 19d2 40F20000 		movw	r0, #:lower16:.LC1
 2731 19d6 C0F20000 		movt	r0, #:upper16:.LC1
 2732 19da FFF7FEFF 		bl	usbPrint
 2733 19de 40F20003 		movw	r3, #:lower16:queryType
 2734 19e2 C0F20003 		movt	r3, #:upper16:queryType
 2735 19e6 4FF07802 		mov	r2, #120
 2736 19ea 1A70     		strb	r2, [r3, #0]
 2737 19ec 40F20003 		movw	r3, #:lower16:validCommand
 2738 19f0 C0F20003 		movt	r3, #:upper16:validCommand
 2739 19f4 4FF00002 		mov	r2, #0
 2740 19f8 1A70     		strb	r2, [r3, #0]
 2741 19fa 01F072BE 		b	.L16
 2742              	.L81:
 2743 19fe 40F20000 		movw	r0, #:lower16:.LC26
 2744 1a02 C0F20000 		movt	r0, #:upper16:.LC26
 2745 1a06 FFF7FEFF 		bl	usbPrint
 2746 1a0a 40F20003 		movw	r3, #:lower16:eepromConfig
 2747 1a0e C0F20003 		movt	r3, #:upper16:eepromConfig
 2748 1a12 93F88030 		ldrb	r3, [r3, #128]	@ zero_extendqisi2
 2749 1a16 002B     		cmp	r3, #0
 2750 1a18 06D0     		beq	.L96
 2751 1a1a 40F20000 		movw	r0, #:lower16:.LC27
 2752 1a1e C0F20000 		movt	r0, #:upper16:.LC27
 2753 1a22 FFF7FEFF 		bl	usbPrint
 2754 1a26 05E0     		b	.L97
 2755              	.L96:
 2756 1a28 40F20000 		movw	r0, #:lower16:.LC28
 2757 1a2c C0F20000 		movt	r0, #:upper16:.LC28
 2758 1a30 FFF7FEFF 		bl	usbPrint
 2759              	.L97:
 2760 1a34 40F20000 		movw	r0, #:lower16:.LC29
 2761 1a38 C0F20000 		movt	r0, #:upper16:.LC29
 2762 1a3c FFF7FEFF 		bl	usbPrint
 2763 1a40 4FF00003 		mov	r3, #0
 2764 1a44 8DF82730 		strb	r3, [sp, #39]
 2765 1a48 1AE0     		b	.L98
 2766              	.L99:
 2767 1a4a 9DF82720 		ldrb	r2, [sp, #39]	@ zero_extendqisi2
 2768 1a4e 40F20003 		movw	r3, #:lower16:eepromConfig
 2769 1a52 C0F20003 		movt	r3, #:upper16:eepromConfig
 2770 1a56 9B18     		adds	r3, r3, r2
 2771 1a58 93F88130 		ldrb	r3, [r3, #129]	@ zero_extendqisi2
 2772 1a5c 1946     		mov	r1, r3
 2773 1a5e 9DF82720 		ldrb	r2, [sp, #39]	@ zero_extendqisi2
 2774 1a62 40F20003 		movw	r3, #:lower16:rcChannelLetters
 2775 1a66 C0F20003 		movt	r3, #:upper16:rcChannelLetters
 2776 1a6a 9A5C     		ldrb	r2, [r3, r2]	@ zero_extendqisi2
 2777 1a6c 0AA8     		add	r0, sp, #40
 2778 1a6e 4318     		adds	r3, r0, r1
 2779 1a70 03F8242C 		strb	r2, [r3, #-36]
 2780 1a74 9DF82730 		ldrb	r3, [sp, #39]
 2781 1a78 03F10103 		add	r3, r3, #1
 2782 1a7c 8DF82730 		strb	r3, [sp, #39]
 2783              	.L98:
 2784 1a80 9DF82730 		ldrb	r3, [sp, #39]	@ zero_extendqisi2
 2785 1a84 072B     		cmp	r3, #7
 2786 1a86 E0D9     		bls	.L99
 2787 1a88 9DF82730 		ldrb	r3, [sp, #39]	@ zero_extendqisi2
 2788 1a8c 0AAA     		add	r2, sp, #40
 2789 1a8e D318     		adds	r3, r2, r3
 2790 1a90 4FF00002 		mov	r2, #0
 2791 1a94 03F8242C 		strb	r2, [r3, #-36]
 2792 1a98 01AB     		add	r3, sp, #4
 2793 1a9a 1846     		mov	r0, r3
 2794 1a9c FFF7FEFF 		bl	usbPrint
 2795 1aa0 40F20000 		movw	r0, #:lower16:.LC1
 2796 1aa4 C0F20000 		movt	r0, #:upper16:.LC1
 2797 1aa8 FFF7FEFF 		bl	usbPrint
 2798 1aac 40F20000 		movw	r0, #:lower16:.LC30
 2799 1ab0 C0F20000 		movt	r0, #:upper16:.LC30
 2800 1ab4 FFF7FEFF 		bl	usbPrint
 2801 1ab8 40F20003 		movw	r3, #:lower16:eepromConfig
 2802 1abc C0F20003 		movt	r3, #:upper16:eepromConfig
 2803 1ac0 93F84430 		ldrb	r3, [r3, #68]	@ zero_extendqisi2
 2804 1ac4 022B     		cmp	r3, #2
 2805 1ac6 10D0     		beq	.L102
 2806 1ac8 032B     		cmp	r3, #3
 2807 1aca 1BD0     		beq	.L103
 2808 1acc 012B     		cmp	r3, #1
 2809 1ace 26D1     		bne	.L100
 2810              	.L101:
 2811 1ad0 40F20000 		movw	r0, #:lower16:.LC31
 2812 1ad4 C0F20000 		movt	r0, #:upper16:.LC31
 2813 1ad8 FFF7FEFF 		bl	usbPrint
 2814 1adc 40F20000 		movw	r0, #:lower16:.LC1
 2815 1ae0 C0F20000 		movt	r0, #:upper16:.LC1
 2816 1ae4 FFF7FEFF 		bl	usbPrint
 2817 1ae8 19E0     		b	.L100
 2818              	.L102:
 2819 1aea 40F20000 		movw	r0, #:lower16:.LC32
 2820 1aee C0F20000 		movt	r0, #:upper16:.LC32
 2821 1af2 FFF7FEFF 		bl	usbPrint
 2822 1af6 40F20000 		movw	r0, #:lower16:.LC1
 2823 1afa C0F20000 		movt	r0, #:upper16:.LC1
 2824 1afe FFF7FEFF 		bl	usbPrint
 2825 1b02 0CE0     		b	.L100
 2826              	.L103:
 2827 1b04 40F20000 		movw	r0, #:lower16:.LC33
 2828 1b08 C0F20000 		movt	r0, #:upper16:.LC33
 2829 1b0c FFF7FEFF 		bl	usbPrint
 2830 1b10 40F20000 		movw	r0, #:lower16:.LC1
 2831 1b14 C0F20000 		movt	r0, #:upper16:.LC1
 2832 1b18 FFF7FEFF 		bl	usbPrint
 2833 1b1c 00BF     		nop
 2834              	.L100:
 2835 1b1e 40F20000 		movw	r0, #:lower16:.LC34
 2836 1b22 C0F20000 		movt	r0, #:upper16:.LC34
 2837 1b26 FFF7FEFF 		bl	usbPrint
 2838 1b2a 40F20003 		movw	r3, #:lower16:eepromConfig
 2839 1b2e C0F20003 		movt	r3, #:upper16:eepromConfig
 2840 1b32 93F84530 		ldrb	r3, [r3, #69]	@ zero_extendqisi2
 2841 1b36 012B     		cmp	r3, #1
 2842 1b38 02D0     		beq	.L105
 2843 1b3a 022B     		cmp	r3, #2
 2844 1b3c 0DD0     		beq	.L106
 2845 1b3e 19E0     		b	.L104
 2846              	.L105:
 2847 1b40 40F20000 		movw	r0, #:lower16:.LC35
 2848 1b44 C0F20000 		movt	r0, #:upper16:.LC35
 2849 1b48 FFF7FEFF 		bl	usbPrint
 2850 1b4c 40F20000 		movw	r0, #:lower16:.LC1
 2851 1b50 C0F20000 		movt	r0, #:upper16:.LC1
 2852 1b54 FFF7FEFF 		bl	usbPrint
 2853 1b58 0CE0     		b	.L104
 2854              	.L106:
 2855 1b5a 40F20000 		movw	r0, #:lower16:.LC36
 2856 1b5e C0F20000 		movt	r0, #:upper16:.LC36
 2857 1b62 FFF7FEFF 		bl	usbPrint
 2858 1b66 40F20000 		movw	r0, #:lower16:.LC1
 2859 1b6a C0F20000 		movt	r0, #:upper16:.LC1
 2860 1b6e FFF7FEFF 		bl	usbPrint
 2861 1b72 00BF     		nop
 2862              	.L104:
 2863 1b74 40F20000 		movw	r0, #:lower16:.LC37
 2864 1b78 C0F20000 		movt	r0, #:upper16:.LC37
 2865 1b7c FFF7FEFF 		bl	usbPrint
 2866 1b80 40F20003 		movw	r3, #:lower16:eepromConfig
 2867 1b84 C0F20003 		movt	r3, #:upper16:eepromConfig
 2868 1b88 93F88E30 		ldrb	r3, [r3, #142]	@ zero_extendqisi2
 2869 1b8c 03F1FF33 		add	r3, r3, #-1
 2870 1b90 142B     		cmp	r3, #20
 2871 1b92 00F2C080 		bhi	.L107
 2872 1b96 01A0     		adr	r0, .L129
 2873 1b98 50F823F0 		ldr	pc, [r0, r3, lsl #2]
 2874              		.align	2
 2875              	.L129:
 2876 1b9c F11B0000 		.word	.L108+1
 2877 1ba0 FF1B0000 		.word	.L109+1
 2878 1ba4 0D1C0000 		.word	.L110+1
 2879 1ba8 1B1C0000 		.word	.L111+1
 2880 1bac 291C0000 		.word	.L112+1
 2881 1bb0 371C0000 		.word	.L113+1
 2882 1bb4 451C0000 		.word	.L114+1
 2883 1bb8 531C0000 		.word	.L115+1
 2884 1bbc 611C0000 		.word	.L116+1
 2885 1bc0 6F1C0000 		.word	.L117+1
 2886 1bc4 7D1C0000 		.word	.L118+1
 2887 1bc8 8B1C0000 		.word	.L119+1
 2888 1bcc 991C0000 		.word	.L120+1
 2889 1bd0 A71C0000 		.word	.L121+1
 2890 1bd4 B51C0000 		.word	.L122+1
 2891 1bd8 C31C0000 		.word	.L123+1
 2892 1bdc D11C0000 		.word	.L124+1
 2893 1be0 DF1C0000 		.word	.L125+1
 2894 1be4 ED1C0000 		.word	.L126+1
 2895 1be8 FB1C0000 		.word	.L127+1
 2896 1bec 091D0000 		.word	.L128+1
 2897              	.L108:
 2898 1bf0 40F20000 		movw	r0, #:lower16:.LC38
 2899 1bf4 C0F20000 		movt	r0, #:upper16:.LC38
 2900 1bf8 FFF7FEFF 		bl	usbPrint
 2901 1bfc 8BE0     		b	.L107
 2902              	.L109:
 2903 1bfe 40F20000 		movw	r0, #:lower16:.LC39
 2904 1c02 C0F20000 		movt	r0, #:upper16:.LC39
 2905 1c06 FFF7FEFF 		bl	usbPrint
 2906 1c0a 84E0     		b	.L107
 2907              	.L110:
 2908 1c0c 40F20000 		movw	r0, #:lower16:.LC40
 2909 1c10 C0F20000 		movt	r0, #:upper16:.LC40
 2910 1c14 FFF7FEFF 		bl	usbPrint
 2911 1c18 7DE0     		b	.L107
 2912              	.L111:
 2913 1c1a 40F20000 		movw	r0, #:lower16:.LC41
 2914 1c1e C0F20000 		movt	r0, #:upper16:.LC41
 2915 1c22 FFF7FEFF 		bl	usbPrint
 2916 1c26 76E0     		b	.L107
 2917              	.L112:
 2918 1c28 40F20000 		movw	r0, #:lower16:.LC42
 2919 1c2c C0F20000 		movt	r0, #:upper16:.LC42
 2920 1c30 FFF7FEFF 		bl	usbPrint
 2921 1c34 6FE0     		b	.L107
 2922              	.L113:
 2923 1c36 40F20000 		movw	r0, #:lower16:.LC43
 2924 1c3a C0F20000 		movt	r0, #:upper16:.LC43
 2925 1c3e FFF7FEFF 		bl	usbPrint
 2926 1c42 68E0     		b	.L107
 2927              	.L114:
 2928 1c44 40F20000 		movw	r0, #:lower16:.LC44
 2929 1c48 C0F20000 		movt	r0, #:upper16:.LC44
 2930 1c4c FFF7FEFF 		bl	usbPrint
 2931 1c50 61E0     		b	.L107
 2932              	.L115:
 2933 1c52 40F20000 		movw	r0, #:lower16:.LC45
 2934 1c56 C0F20000 		movt	r0, #:upper16:.LC45
 2935 1c5a FFF7FEFF 		bl	usbPrint
 2936 1c5e 5AE0     		b	.L107
 2937              	.L116:
 2938 1c60 40F20000 		movw	r0, #:lower16:.LC46
 2939 1c64 C0F20000 		movt	r0, #:upper16:.LC46
 2940 1c68 FFF7FEFF 		bl	usbPrint
 2941 1c6c 53E0     		b	.L107
 2942              	.L117:
 2943 1c6e 40F20000 		movw	r0, #:lower16:.LC47
 2944 1c72 C0F20000 		movt	r0, #:upper16:.LC47
 2945 1c76 FFF7FEFF 		bl	usbPrint
 2946 1c7a 4CE0     		b	.L107
 2947              	.L118:
 2948 1c7c 40F20000 		movw	r0, #:lower16:.LC48
 2949 1c80 C0F20000 		movt	r0, #:upper16:.LC48
 2950 1c84 FFF7FEFF 		bl	usbPrint
 2951 1c88 45E0     		b	.L107
 2952              	.L119:
 2953 1c8a 40F20000 		movw	r0, #:lower16:.LC49
 2954 1c8e C0F20000 		movt	r0, #:upper16:.LC49
 2955 1c92 FFF7FEFF 		bl	usbPrint
 2956 1c96 3EE0     		b	.L107
 2957              	.L120:
 2958 1c98 40F20000 		movw	r0, #:lower16:.LC50
 2959 1c9c C0F20000 		movt	r0, #:upper16:.LC50
 2960 1ca0 FFF7FEFF 		bl	usbPrint
 2961 1ca4 37E0     		b	.L107
 2962              	.L121:
 2963 1ca6 40F20000 		movw	r0, #:lower16:.LC51
 2964 1caa C0F20000 		movt	r0, #:upper16:.LC51
 2965 1cae FFF7FEFF 		bl	usbPrint
 2966 1cb2 30E0     		b	.L107
 2967              	.L122:
 2968 1cb4 40F20000 		movw	r0, #:lower16:.LC52
 2969 1cb8 C0F20000 		movt	r0, #:upper16:.LC52
 2970 1cbc FFF7FEFF 		bl	usbPrint
 2971 1cc0 29E0     		b	.L107
 2972              	.L123:
 2973 1cc2 40F20000 		movw	r0, #:lower16:.LC53
 2974 1cc6 C0F20000 		movt	r0, #:upper16:.LC53
 2975 1cca FFF7FEFF 		bl	usbPrint
 2976 1cce 22E0     		b	.L107
 2977              	.L124:
 2978 1cd0 40F20000 		movw	r0, #:lower16:.LC54
 2979 1cd4 C0F20000 		movt	r0, #:upper16:.LC54
 2980 1cd8 FFF7FEFF 		bl	usbPrint
 2981 1cdc 1BE0     		b	.L107
 2982              	.L125:
 2983 1cde 40F20000 		movw	r0, #:lower16:.LC55
 2984 1ce2 C0F20000 		movt	r0, #:upper16:.LC55
 2985 1ce6 FFF7FEFF 		bl	usbPrint
 2986 1cea 14E0     		b	.L107
 2987              	.L126:
 2988 1cec 40F20000 		movw	r0, #:lower16:.LC56
 2989 1cf0 C0F20000 		movt	r0, #:upper16:.LC56
 2990 1cf4 FFF7FEFF 		bl	usbPrint
 2991 1cf8 0DE0     		b	.L107
 2992              	.L127:
 2993 1cfa 40F20000 		movw	r0, #:lower16:.LC57
 2994 1cfe C0F20000 		movt	r0, #:upper16:.LC57
 2995 1d02 FFF7FEFF 		bl	usbPrint
 2996 1d06 06E0     		b	.L107
 2997              	.L128:
 2998 1d08 40F20000 		movw	r0, #:lower16:.LC58
 2999 1d0c C0F20000 		movt	r0, #:upper16:.LC58
 3000 1d10 FFF7FEFF 		bl	usbPrint
 3001 1d14 00BF     		nop
 3002              	.L107:
 3003 1d16 40F20003 		movw	r3, #:lower16:eepromConfig
 3004 1d1a C0F20003 		movt	r3, #:upper16:eepromConfig
 3005 1d1e 93F88E30 		ldrb	r3, [r3, #142]	@ zero_extendqisi2
 3006 1d22 082B     		cmp	r3, #8
 3007 1d24 1FD0     		beq	.L130
 3008 1d26 40F20003 		movw	r3, #:lower16:eepromConfig
 3009 1d2a C0F20003 		movt	r3, #:upper16:eepromConfig
 3010 1d2e 93F88E30 		ldrb	r3, [r3, #142]	@ zero_extendqisi2
 3011 1d32 092B     		cmp	r3, #9
 3012 1d34 17D0     		beq	.L130
 3013 1d36 40F20003 		movw	r3, #:lower16:eepromConfig
 3014 1d3a C0F20003 		movt	r3, #:upper16:eepromConfig
 3015 1d3e 93F88E30 		ldrb	r3, [r3, #142]	@ zero_extendqisi2
 3016 1d42 0A2B     		cmp	r3, #10
 3017 1d44 0FD0     		beq	.L130
 3018 1d46 40F20003 		movw	r3, #:lower16:eepromConfig
 3019 1d4a C0F20003 		movt	r3, #:upper16:eepromConfig
 3020 1d4e 93F88E30 		ldrb	r3, [r3, #142]	@ zero_extendqisi2
 3021 1d52 0B2B     		cmp	r3, #11
 3022 1d54 07D0     		beq	.L130
 3023 1d56 40F20003 		movw	r3, #:lower16:eepromConfig
 3024 1d5a C0F20003 		movt	r3, #:upper16:eepromConfig
 3025 1d5e 93F88E30 		ldrb	r3, [r3, #142]	@ zero_extendqisi2
 3026 1d62 0C2B     		cmp	r3, #12
 3027 1d64 1AD1     		bne	.L131
 3028              	.L130:
 3029 1d66 40F20000 		movw	r0, #:lower16:.LC59
 3030 1d6a C0F20000 		movt	r0, #:upper16:.LC59
 3031 1d6e FFF7FEFF 		bl	usbPrint
 3032 1d72 40F20003 		movw	r3, #:lower16:eepromConfig
 3033 1d76 C0F20003 		movt	r3, #:upper16:eepromConfig
 3034 1d7a D3F8E431 		ldr	r3, [r3, #484]	@ float
 3035 1d7e 1846     		mov	r0, r3	@ float
 3036 1d80 04AB     		add	r3, sp, #16
 3037 1d82 1946     		mov	r1, r3
 3038 1d84 FFF7FEFF 		bl	ftoa
 3039 1d88 04AB     		add	r3, sp, #16
 3040 1d8a 1846     		mov	r0, r3
 3041 1d8c FFF7FEFF 		bl	usbPrint
 3042 1d90 40F20000 		movw	r0, #:lower16:.LC1
 3043 1d94 C0F20000 		movt	r0, #:upper16:.LC1
 3044 1d98 FFF7FEFF 		bl	usbPrint
 3045              	.L131:
 3046 1d9c 40F20000 		movw	r0, #:lower16:.LC60
 3047 1da0 C0F20000 		movt	r0, #:upper16:.LC60
 3048 1da4 FFF7FEFF 		bl	usbPrint
 3049 1da8 40F20003 		movw	r3, #:lower16:numberMotor
 3050 1dac C0F20003 		movt	r3, #:upper16:numberMotor
 3051 1db0 1B78     		ldrb	r3, [r3, #0]	@ zero_extendqisi2
 3052 1db2 1846     		mov	r0, r3
 3053 1db4 04AB     		add	r3, sp, #16
 3054 1db6 1946     		mov	r1, r3
 3055 1db8 4FF00A02 		mov	r2, #10
 3056 1dbc FFF7FEFF 		bl	itoa
 3057 1dc0 04AB     		add	r3, sp, #16
 3058 1dc2 1846     		mov	r0, r3
 3059 1dc4 FFF7FEFF 		bl	usbPrint
 3060 1dc8 40F20000 		movw	r0, #:lower16:.LC1
 3061 1dcc C0F20000 		movt	r0, #:upper16:.LC1
 3062 1dd0 FFF7FEFF 		bl	usbPrint
 3063 1dd4 40F20000 		movw	r0, #:lower16:.LC61
 3064 1dd8 C0F20000 		movt	r0, #:upper16:.LC61
 3065 1ddc FFF7FEFF 		bl	usbPrint
 3066 1de0 40F20003 		movw	r3, #:lower16:eepromConfig
 3067 1de4 C0F20003 		movt	r3, #:upper16:eepromConfig
 3068 1de8 B3F88A30 		ldrh	r3, [r3, #138]
 3069 1dec 1846     		mov	r0, r3
 3070 1dee 04AB     		add	r3, sp, #16
 3071 1df0 1946     		mov	r1, r3
 3072 1df2 4FF00A02 		mov	r2, #10
 3073 1df6 FFF7FEFF 		bl	itoa
 3074 1dfa 04AB     		add	r3, sp, #16
 3075 1dfc 1846     		mov	r0, r3
 3076 1dfe FFF7FEFF 		bl	usbPrint
 3077 1e02 40F20000 		movw	r0, #:lower16:.LC1
 3078 1e06 C0F20000 		movt	r0, #:upper16:.LC1
 3079 1e0a FFF7FEFF 		bl	usbPrint
 3080 1e0e 40F20000 		movw	r0, #:lower16:.LC62
 3081 1e12 C0F20000 		movt	r0, #:upper16:.LC62
 3082 1e16 FFF7FEFF 		bl	usbPrint
 3083 1e1a 40F20003 		movw	r3, #:lower16:eepromConfig
 3084 1e1e C0F20003 		movt	r3, #:upper16:eepromConfig
 3085 1e22 B3F88C30 		ldrh	r3, [r3, #140]
 3086 1e26 1846     		mov	r0, r3
 3087 1e28 04AB     		add	r3, sp, #16
 3088 1e2a 1946     		mov	r1, r3
 3089 1e2c 4FF00A02 		mov	r2, #10
 3090 1e30 FFF7FEFF 		bl	itoa
 3091 1e34 04AB     		add	r3, sp, #16
 3092 1e36 1846     		mov	r0, r3
 3093 1e38 FFF7FEFF 		bl	usbPrint
 3094 1e3c 40F20000 		movw	r0, #:lower16:.LC1
 3095 1e40 C0F20000 		movt	r0, #:upper16:.LC1
 3096 1e44 FFF7FEFF 		bl	usbPrint
 3097 1e48 40F20000 		movw	r0, #:lower16:.LC63
 3098 1e4c C0F20000 		movt	r0, #:upper16:.LC63
 3099 1e50 FFF7FEFF 		bl	usbPrint
 3100 1e54 40F20003 		movw	r3, #:lower16:eepromConfig
 3101 1e58 C0F20003 		movt	r3, #:upper16:eepromConfig
 3102 1e5c D3ED257A 		flds	s15, [r3, #148]
 3103 1e60 FCEEE77A 		ftouizs	s15, s15
 3104 1e64 17EE903A 		fmrs	r3, s15	@ int
 3105 1e68 9BB2     		uxth	r3, r3
 3106 1e6a 1846     		mov	r0, r3
 3107 1e6c 04AB     		add	r3, sp, #16
 3108 1e6e 1946     		mov	r1, r3
 3109 1e70 4FF00A02 		mov	r2, #10
 3110 1e74 FFF7FEFF 		bl	itoa
 3111 1e78 04AB     		add	r3, sp, #16
 3112 1e7a 1846     		mov	r0, r3
 3113 1e7c FFF7FEFF 		bl	usbPrint
 3114 1e80 40F20000 		movw	r0, #:lower16:.LC1
 3115 1e84 C0F20000 		movt	r0, #:upper16:.LC1
 3116 1e88 FFF7FEFF 		bl	usbPrint
 3117 1e8c 40F20000 		movw	r0, #:lower16:.LC64
 3118 1e90 C0F20000 		movt	r0, #:upper16:.LC64
 3119 1e94 FFF7FEFF 		bl	usbPrint
 3120 1e98 40F20003 		movw	r3, #:lower16:eepromConfig
 3121 1e9c C0F20003 		movt	r3, #:upper16:eepromConfig
 3122 1ea0 D3ED267A 		flds	s15, [r3, #152]
 3123 1ea4 FCEEE77A 		ftouizs	s15, s15
 3124 1ea8 17EE903A 		fmrs	r3, s15	@ int
 3125 1eac 9BB2     		uxth	r3, r3
 3126 1eae 1846     		mov	r0, r3
 3127 1eb0 04AB     		add	r3, sp, #16
 3128 1eb2 1946     		mov	r1, r3
 3129 1eb4 4FF00A02 		mov	r2, #10
 3130 1eb8 FFF7FEFF 		bl	itoa
 3131 1ebc 04AB     		add	r3, sp, #16
 3132 1ebe 1846     		mov	r0, r3
 3133 1ec0 FFF7FEFF 		bl	usbPrint
 3134 1ec4 40F20000 		movw	r0, #:lower16:.LC1
 3135 1ec8 C0F20000 		movt	r0, #:upper16:.LC1
 3136 1ecc FFF7FEFF 		bl	usbPrint
 3137 1ed0 40F20000 		movw	r0, #:lower16:.LC65
 3138 1ed4 C0F20000 		movt	r0, #:upper16:.LC65
 3139 1ed8 FFF7FEFF 		bl	usbPrint
 3140 1edc 40F20003 		movw	r3, #:lower16:eepromConfig
 3141 1ee0 C0F20003 		movt	r3, #:upper16:eepromConfig
 3142 1ee4 D3ED277A 		flds	s15, [r3, #156]
 3143 1ee8 FCEEE77A 		ftouizs	s15, s15
 3144 1eec 17EE903A 		fmrs	r3, s15	@ int
 3145 1ef0 9BB2     		uxth	r3, r3
 3146 1ef2 1846     		mov	r0, r3
 3147 1ef4 04AB     		add	r3, sp, #16
 3148 1ef6 1946     		mov	r1, r3
 3149 1ef8 4FF00A02 		mov	r2, #10
 3150 1efc FFF7FEFF 		bl	itoa
 3151 1f00 04AB     		add	r3, sp, #16
 3152 1f02 1846     		mov	r0, r3
 3153 1f04 FFF7FEFF 		bl	usbPrint
 3154 1f08 40F20000 		movw	r0, #:lower16:.LC1
 3155 1f0c C0F20000 		movt	r0, #:upper16:.LC1
 3156 1f10 FFF7FEFF 		bl	usbPrint
 3157 1f14 40F20000 		movw	r0, #:lower16:.LC66
 3158 1f18 C0F20000 		movt	r0, #:upper16:.LC66
 3159 1f1c FFF7FEFF 		bl	usbPrint
 3160 1f20 40F20003 		movw	r3, #:lower16:eepromConfig
 3161 1f24 C0F20003 		movt	r3, #:upper16:eepromConfig
 3162 1f28 D3ED287A 		flds	s15, [r3, #160]
 3163 1f2c FCEEE77A 		ftouizs	s15, s15
 3164 1f30 17EE903A 		fmrs	r3, s15	@ int
 3165 1f34 9BB2     		uxth	r3, r3
 3166 1f36 1846     		mov	r0, r3
 3167 1f38 04AB     		add	r3, sp, #16
 3168 1f3a 1946     		mov	r1, r3
 3169 1f3c 4FF00A02 		mov	r2, #10
 3170 1f40 FFF7FEFF 		bl	itoa
 3171 1f44 04AB     		add	r3, sp, #16
 3172 1f46 1846     		mov	r0, r3
 3173 1f48 FFF7FEFF 		bl	usbPrint
 3174 1f4c 40F20000 		movw	r0, #:lower16:.LC1
 3175 1f50 C0F20000 		movt	r0, #:upper16:.LC1
 3176 1f54 FFF7FEFF 		bl	usbPrint
 3177 1f58 40F20000 		movw	r0, #:lower16:.LC67
 3178 1f5c C0F20000 		movt	r0, #:upper16:.LC67
 3179 1f60 FFF7FEFF 		bl	usbPrint
 3180 1f64 40F20003 		movw	r3, #:lower16:eepromConfig
 3181 1f68 C0F20003 		movt	r3, #:upper16:eepromConfig
 3182 1f6c D3ED297A 		flds	s15, [r3, #164]
 3183 1f70 FCEEE77A 		ftouizs	s15, s15
 3184 1f74 17EE903A 		fmrs	r3, s15	@ int
 3185 1f78 9BB2     		uxth	r3, r3
 3186 1f7a 1846     		mov	r0, r3
 3187 1f7c 04AB     		add	r3, sp, #16
 3188 1f7e 1946     		mov	r1, r3
 3189 1f80 4FF00A02 		mov	r2, #10
 3190 1f84 FFF7FEFF 		bl	itoa
 3191 1f88 04AB     		add	r3, sp, #16
 3192 1f8a 1846     		mov	r0, r3
 3193 1f8c FFF7FEFF 		bl	usbPrint
 3194 1f90 40F20000 		movw	r0, #:lower16:.LC1
 3195 1f94 C0F20000 		movt	r0, #:upper16:.LC1
 3196 1f98 FFF7FEFF 		bl	usbPrint
 3197 1f9c 40F20003 		movw	r3, #:lower16:eepromConfig
 3198 1fa0 C0F20003 		movt	r3, #:upper16:eepromConfig
 3199 1fa4 93F88E30 		ldrb	r3, [r3, #142]	@ zero_extendqisi2
 3200 1fa8 012B     		cmp	r3, #1
 3201 1faa 40F00281 		bne	.L132
 3202 1fae 40F20000 		movw	r0, #:lower16:.LC68
 3203 1fb2 C0F20000 		movt	r0, #:upper16:.LC68
 3204 1fb6 FFF7FEFF 		bl	usbPrint
 3205 1fba 40F20003 		movw	r3, #:lower16:eepromConfig
 3206 1fbe C0F20003 		movt	r3, #:upper16:eepromConfig
 3207 1fc2 D3ED607A 		flds	s15, [r3, #384]
 3208 1fc6 FCEEE77A 		ftouizs	s15, s15
 3209 1fca 17EE903A 		fmrs	r3, s15	@ int
 3210 1fce 9BB2     		uxth	r3, r3
 3211 1fd0 1846     		mov	r0, r3
 3212 1fd2 04AB     		add	r3, sp, #16
 3213 1fd4 1946     		mov	r1, r3
 3214 1fd6 4FF00A02 		mov	r2, #10
 3215 1fda FFF7FEFF 		bl	itoa
 3216 1fde 04AB     		add	r3, sp, #16
 3217 1fe0 1846     		mov	r0, r3
 3218 1fe2 FFF7FEFF 		bl	usbPrint
 3219 1fe6 40F20000 		movw	r0, #:lower16:.LC1
 3220 1fea C0F20000 		movt	r0, #:upper16:.LC1
 3221 1fee FFF7FEFF 		bl	usbPrint
 3222 1ff2 40F20000 		movw	r0, #:lower16:.LC69
 3223 1ff6 C0F20000 		movt	r0, #:upper16:.LC69
 3224 1ffa FFF7FEFF 		bl	usbPrint
 3225 1ffe 40F20003 		movw	r3, #:lower16:eepromConfig
 3226 2002 C0F20003 		movt	r3, #:upper16:eepromConfig
 3227 2006 D3ED617A 		flds	s15, [r3, #388]
 3228 200a FCEEE77A 		ftouizs	s15, s15
 3229 200e 17EE903A 		fmrs	r3, s15	@ int
 3230 2012 9BB2     		uxth	r3, r3
 3231 2014 1846     		mov	r0, r3
 3232 2016 04AB     		add	r3, sp, #16
 3233 2018 1946     		mov	r1, r3
 3234 201a 4FF00A02 		mov	r2, #10
 3235 201e FFF7FEFF 		bl	itoa
 3236 2022 04AB     		add	r3, sp, #16
 3237 2024 1846     		mov	r0, r3
 3238 2026 FFF7FEFF 		bl	usbPrint
 3239 202a 40F20000 		movw	r0, #:lower16:.LC1
 3240 202e C0F20000 		movt	r0, #:upper16:.LC1
 3241 2032 FFF7FEFF 		bl	usbPrint
 3242 2036 40F20000 		movw	r0, #:lower16:.LC70
 3243 203a C0F20000 		movt	r0, #:upper16:.LC70
 3244 203e FFF7FEFF 		bl	usbPrint
 3245 2042 40F20003 		movw	r3, #:lower16:eepromConfig
 3246 2046 C0F20003 		movt	r3, #:upper16:eepromConfig
 3247 204a D3ED627A 		flds	s15, [r3, #392]
 3248 204e FCEEE77A 		ftouizs	s15, s15
 3249 2052 17EE903A 		fmrs	r3, s15	@ int
 3250 2056 9BB2     		uxth	r3, r3
 3251 2058 1846     		mov	r0, r3
 3252 205a 04AB     		add	r3, sp, #16
 3253 205c 1946     		mov	r1, r3
 3254 205e 4FF00A02 		mov	r2, #10
 3255 2062 FFF7FEFF 		bl	itoa
 3256 2066 04AB     		add	r3, sp, #16
 3257 2068 1846     		mov	r0, r3
 3258 206a FFF7FEFF 		bl	usbPrint
 3259 206e 40F20000 		movw	r0, #:lower16:.LC1
 3260 2072 C0F20000 		movt	r0, #:upper16:.LC1
 3261 2076 FFF7FEFF 		bl	usbPrint
 3262 207a 40F20000 		movw	r0, #:lower16:.LC71
 3263 207e C0F20000 		movt	r0, #:upper16:.LC71
 3264 2082 FFF7FEFF 		bl	usbPrint
 3265 2086 40F20003 		movw	r3, #:lower16:eepromConfig
 3266 208a C0F20003 		movt	r3, #:upper16:eepromConfig
 3267 208e D3F88C31 		ldr	r3, [r3, #396]	@ float
 3268 2092 1846     		mov	r0, r3	@ float
 3269 2094 04AB     		add	r3, sp, #16
 3270 2096 1946     		mov	r1, r3
 3271 2098 FFF7FEFF 		bl	ftoa
 3272 209c 04AB     		add	r3, sp, #16
 3273 209e 1846     		mov	r0, r3
 3274 20a0 FFF7FEFF 		bl	usbPrint
 3275 20a4 40F20000 		movw	r0, #:lower16:.LC1
 3276 20a8 C0F20000 		movt	r0, #:upper16:.LC1
 3277 20ac FFF7FEFF 		bl	usbPrint
 3278 20b0 40F20000 		movw	r0, #:lower16:.LC72
 3279 20b4 C0F20000 		movt	r0, #:upper16:.LC72
 3280 20b8 FFF7FEFF 		bl	usbPrint
 3281 20bc 40F20003 		movw	r3, #:lower16:eepromConfig
 3282 20c0 C0F20003 		movt	r3, #:upper16:eepromConfig
 3283 20c4 D3ED647A 		flds	s15, [r3, #400]
 3284 20c8 FCEEE77A 		ftouizs	s15, s15
 3285 20cc 17EE903A 		fmrs	r3, s15	@ int
 3286 20d0 9BB2     		uxth	r3, r3
 3287 20d2 1846     		mov	r0, r3
 3288 20d4 04AB     		add	r3, sp, #16
 3289 20d6 1946     		mov	r1, r3
 3290 20d8 4FF00A02 		mov	r2, #10
 3291 20dc FFF7FEFF 		bl	itoa
 3292 20e0 04AB     		add	r3, sp, #16
 3293 20e2 1846     		mov	r0, r3
 3294 20e4 FFF7FEFF 		bl	usbPrint
 3295 20e8 40F20000 		movw	r0, #:lower16:.LC1
 3296 20ec C0F20000 		movt	r0, #:upper16:.LC1
 3297 20f0 FFF7FEFF 		bl	usbPrint
 3298 20f4 40F20000 		movw	r0, #:lower16:.LC73
 3299 20f8 C0F20000 		movt	r0, #:upper16:.LC73
 3300 20fc FFF7FEFF 		bl	usbPrint
 3301 2100 40F20003 		movw	r3, #:lower16:eepromConfig
 3302 2104 C0F20003 		movt	r3, #:upper16:eepromConfig
 3303 2108 D3ED657A 		flds	s15, [r3, #404]
 3304 210c FCEEE77A 		ftouizs	s15, s15
 3305 2110 17EE903A 		fmrs	r3, s15	@ int
 3306 2114 9BB2     		uxth	r3, r3
 3307 2116 1846     		mov	r0, r3
 3308 2118 04AB     		add	r3, sp, #16
 3309 211a 1946     		mov	r1, r3
 3310 211c 4FF00A02 		mov	r2, #10
 3311 2120 FFF7FEFF 		bl	itoa
 3312 2124 04AB     		add	r3, sp, #16
 3313 2126 1846     		mov	r0, r3
 3314 2128 FFF7FEFF 		bl	usbPrint
 3315 212c 40F20000 		movw	r0, #:lower16:.LC1
 3316 2130 C0F20000 		movt	r0, #:upper16:.LC1
 3317 2134 FFF7FEFF 		bl	usbPrint
 3318 2138 40F20000 		movw	r0, #:lower16:.LC74
 3319 213c C0F20000 		movt	r0, #:upper16:.LC74
 3320 2140 FFF7FEFF 		bl	usbPrint
 3321 2144 40F20003 		movw	r3, #:lower16:eepromConfig
 3322 2148 C0F20003 		movt	r3, #:upper16:eepromConfig
 3323 214c D3ED667A 		flds	s15, [r3, #408]
 3324 2150 FCEEE77A 		ftouizs	s15, s15
 3325 2154 17EE903A 		fmrs	r3, s15	@ int
 3326 2158 9BB2     		uxth	r3, r3
 3327 215a 1846     		mov	r0, r3
 3328 215c 04AB     		add	r3, sp, #16
 3329 215e 1946     		mov	r1, r3
 3330 2160 4FF00A02 		mov	r2, #10
 3331 2164 FFF7FEFF 		bl	itoa
 3332 2168 04AB     		add	r3, sp, #16
 3333 216a 1846     		mov	r0, r3
 3334 216c FFF7FEFF 		bl	usbPrint
 3335 2170 40F20000 		movw	r0, #:lower16:.LC1
 3336 2174 C0F20000 		movt	r0, #:upper16:.LC1
 3337 2178 FFF7FEFF 		bl	usbPrint
 3338 217c 40F20000 		movw	r0, #:lower16:.LC75
 3339 2180 C0F20000 		movt	r0, #:upper16:.LC75
 3340 2184 FFF7FEFF 		bl	usbPrint
 3341 2188 40F20003 		movw	r3, #:lower16:eepromConfig
 3342 218c C0F20003 		movt	r3, #:upper16:eepromConfig
 3343 2190 D3F89C31 		ldr	r3, [r3, #412]	@ float
 3344 2194 1846     		mov	r0, r3	@ float
 3345 2196 04AB     		add	r3, sp, #16
 3346 2198 1946     		mov	r1, r3
 3347 219a FFF7FEFF 		bl	ftoa
 3348 219e 04AB     		add	r3, sp, #16
 3349 21a0 1846     		mov	r0, r3
 3350 21a2 FFF7FEFF 		bl	usbPrint
 3351 21a6 40F20000 		movw	r0, #:lower16:.LC1
 3352 21aa C0F20000 		movt	r0, #:upper16:.LC1
 3353 21ae FFF7FEFF 		bl	usbPrint
 3354              	.L132:
 3355 21b2 40F20003 		movw	r3, #:lower16:eepromConfig
 3356 21b6 C0F20003 		movt	r3, #:upper16:eepromConfig
 3357 21ba 93F88E30 		ldrb	r3, [r3, #142]	@ zero_extendqisi2
 3358 21be 032B     		cmp	r3, #3
 3359 21c0 40F0CC80 		bne	.L133
 3360 21c4 40F20000 		movw	r0, #:lower16:.LC76
 3361 21c8 C0F20000 		movt	r0, #:upper16:.LC76
 3362 21cc FFF7FEFF 		bl	usbPrint
 3363 21d0 40F20003 		movw	r3, #:lower16:eepromConfig
 3364 21d4 C0F20003 		movt	r3, #:upper16:eepromConfig
 3365 21d8 D3ED707A 		flds	s15, [r3, #448]
 3366 21dc FCEEE77A 		ftouizs	s15, s15
 3367 21e0 17EE903A 		fmrs	r3, s15	@ int
 3368 21e4 9BB2     		uxth	r3, r3
 3369 21e6 1846     		mov	r0, r3
 3370 21e8 04AB     		add	r3, sp, #16
 3371 21ea 1946     		mov	r1, r3
 3372 21ec 4FF00A02 		mov	r2, #10
 3373 21f0 FFF7FEFF 		bl	itoa
 3374 21f4 04AB     		add	r3, sp, #16
 3375 21f6 1846     		mov	r0, r3
 3376 21f8 FFF7FEFF 		bl	usbPrint
 3377 21fc 40F20000 		movw	r0, #:lower16:.LC1
 3378 2200 C0F20000 		movt	r0, #:upper16:.LC1
 3379 2204 FFF7FEFF 		bl	usbPrint
 3380 2208 40F20000 		movw	r0, #:lower16:.LC77
 3381 220c C0F20000 		movt	r0, #:upper16:.LC77
 3382 2210 FFF7FEFF 		bl	usbPrint
 3383 2214 40F20003 		movw	r3, #:lower16:eepromConfig
 3384 2218 C0F20003 		movt	r3, #:upper16:eepromConfig
 3385 221c D3ED717A 		flds	s15, [r3, #452]
 3386 2220 FCEEE77A 		ftouizs	s15, s15
 3387 2224 17EE903A 		fmrs	r3, s15	@ int
 3388 2228 9BB2     		uxth	r3, r3
 3389 222a 1846     		mov	r0, r3
 3390 222c 04AB     		add	r3, sp, #16
 3391 222e 1946     		mov	r1, r3
 3392 2230 4FF00A02 		mov	r2, #10
 3393 2234 FFF7FEFF 		bl	itoa
 3394 2238 04AB     		add	r3, sp, #16
 3395 223a 1846     		mov	r0, r3
 3396 223c FFF7FEFF 		bl	usbPrint
 3397 2240 40F20000 		movw	r0, #:lower16:.LC1
 3398 2244 C0F20000 		movt	r0, #:upper16:.LC1
 3399 2248 FFF7FEFF 		bl	usbPrint
 3400 224c 40F20000 		movw	r0, #:lower16:.LC78
 3401 2250 C0F20000 		movt	r0, #:upper16:.LC78
 3402 2254 FFF7FEFF 		bl	usbPrint
 3403 2258 40F20003 		movw	r3, #:lower16:eepromConfig
 3404 225c C0F20003 		movt	r3, #:upper16:eepromConfig
 3405 2260 D3ED727A 		flds	s15, [r3, #456]
 3406 2264 FCEEE77A 		ftouizs	s15, s15
 3407 2268 17EE903A 		fmrs	r3, s15	@ int
 3408 226c 9BB2     		uxth	r3, r3
 3409 226e 1846     		mov	r0, r3
 3410 2270 04AB     		add	r3, sp, #16
 3411 2272 1946     		mov	r1, r3
 3412 2274 4FF00A02 		mov	r2, #10
 3413 2278 FFF7FEFF 		bl	itoa
 3414 227c 04AB     		add	r3, sp, #16
 3415 227e 1846     		mov	r0, r3
 3416 2280 FFF7FEFF 		bl	usbPrint
 3417 2284 40F20000 		movw	r0, #:lower16:.LC1
 3418 2288 C0F20000 		movt	r0, #:upper16:.LC1
 3419 228c FFF7FEFF 		bl	usbPrint
 3420 2290 40F20000 		movw	r0, #:lower16:.LC79
 3421 2294 C0F20000 		movt	r0, #:upper16:.LC79
 3422 2298 FFF7FEFF 		bl	usbPrint
 3423 229c 40F20003 		movw	r3, #:lower16:eepromConfig
 3424 22a0 C0F20003 		movt	r3, #:upper16:eepromConfig
 3425 22a4 D3ED737A 		flds	s15, [r3, #460]
 3426 22a8 FCEEE77A 		ftouizs	s15, s15
 3427 22ac 17EE903A 		fmrs	r3, s15	@ int
 3428 22b0 9BB2     		uxth	r3, r3
 3429 22b2 1846     		mov	r0, r3
 3430 22b4 04AB     		add	r3, sp, #16
 3431 22b6 1946     		mov	r1, r3
 3432 22b8 4FF00A02 		mov	r2, #10
 3433 22bc FFF7FEFF 		bl	itoa
 3434 22c0 04AB     		add	r3, sp, #16
 3435 22c2 1846     		mov	r0, r3
 3436 22c4 FFF7FEFF 		bl	usbPrint
 3437 22c8 40F20000 		movw	r0, #:lower16:.LC1
 3438 22cc C0F20000 		movt	r0, #:upper16:.LC1
 3439 22d0 FFF7FEFF 		bl	usbPrint
 3440 22d4 40F20000 		movw	r0, #:lower16:.LC80
 3441 22d8 C0F20000 		movt	r0, #:upper16:.LC80
 3442 22dc FFF7FEFF 		bl	usbPrint
 3443 22e0 40F20003 		movw	r3, #:lower16:eepromConfig
 3444 22e4 C0F20003 		movt	r3, #:upper16:eepromConfig
 3445 22e8 D3ED747A 		flds	s15, [r3, #464]
 3446 22ec FCEEE77A 		ftouizs	s15, s15
 3447 22f0 17EE903A 		fmrs	r3, s15	@ int
 3448 22f4 9BB2     		uxth	r3, r3
 3449 22f6 1846     		mov	r0, r3
 3450 22f8 04AB     		add	r3, sp, #16
 3451 22fa 1946     		mov	r1, r3
 3452 22fc 4FF00A02 		mov	r2, #10
 3453 2300 FFF7FEFF 		bl	itoa
 3454 2304 04AB     		add	r3, sp, #16
 3455 2306 1846     		mov	r0, r3
 3456 2308 FFF7FEFF 		bl	usbPrint
 3457 230c 40F20000 		movw	r0, #:lower16:.LC1
 3458 2310 C0F20000 		movt	r0, #:upper16:.LC1
 3459 2314 FFF7FEFF 		bl	usbPrint
 3460 2318 40F20000 		movw	r0, #:lower16:.LC81
 3461 231c C0F20000 		movt	r0, #:upper16:.LC81
 3462 2320 FFF7FEFF 		bl	usbPrint
 3463 2324 40F20003 		movw	r3, #:lower16:eepromConfig
 3464 2328 C0F20003 		movt	r3, #:upper16:eepromConfig
 3465 232c D3ED757A 		flds	s15, [r3, #468]
 3466 2330 FCEEE77A 		ftouizs	s15, s15
 3467 2334 17EE903A 		fmrs	r3, s15	@ int
 3468 2338 9BB2     		uxth	r3, r3
 3469 233a 1846     		mov	r0, r3
 3470 233c 04AB     		add	r3, sp, #16
 3471 233e 1946     		mov	r1, r3
 3472 2340 4FF00A02 		mov	r2, #10
 3473 2344 FFF7FEFF 		bl	itoa
 3474 2348 04AB     		add	r3, sp, #16
 3475 234a 1846     		mov	r0, r3
 3476 234c FFF7FEFF 		bl	usbPrint
 3477 2350 40F20000 		movw	r0, #:lower16:.LC1
 3478 2354 C0F20000 		movt	r0, #:upper16:.LC1
 3479 2358 FFF7FEFF 		bl	usbPrint
 3480              	.L133:
 3481 235c 40F20003 		movw	r3, #:lower16:eepromConfig
 3482 2360 C0F20003 		movt	r3, #:upper16:eepromConfig
 3483 2364 93F88E30 		ldrb	r3, [r3, #142]	@ zero_extendqisi2
 3484 2368 042B     		cmp	r3, #4
 3485 236a 65D1     		bne	.L134
 3486 236c 40F20000 		movw	r0, #:lower16:.LC82
 3487 2370 C0F20000 		movt	r0, #:upper16:.LC82
 3488 2374 FFF7FEFF 		bl	usbPrint
 3489 2378 40F20003 		movw	r3, #:lower16:eepromConfig
 3490 237c C0F20003 		movt	r3, #:upper16:eepromConfig
 3491 2380 D3ED767A 		flds	s15, [r3, #472]
 3492 2384 FCEEE77A 		ftouizs	s15, s15
 3493 2388 17EE903A 		fmrs	r3, s15	@ int
 3494 238c 9BB2     		uxth	r3, r3
 3495 238e 1846     		mov	r0, r3
 3496 2390 04AB     		add	r3, sp, #16
 3497 2392 1946     		mov	r1, r3
 3498 2394 4FF00A02 		mov	r2, #10
 3499 2398 FFF7FEFF 		bl	itoa
 3500 239c 04AB     		add	r3, sp, #16
 3501 239e 1846     		mov	r0, r3
 3502 23a0 FFF7FEFF 		bl	usbPrint
 3503 23a4 40F20000 		movw	r0, #:lower16:.LC1
 3504 23a8 C0F20000 		movt	r0, #:upper16:.LC1
 3505 23ac FFF7FEFF 		bl	usbPrint
 3506 23b0 40F20000 		movw	r0, #:lower16:.LC83
 3507 23b4 C0F20000 		movt	r0, #:upper16:.LC83
 3508 23b8 FFF7FEFF 		bl	usbPrint
 3509 23bc 40F20003 		movw	r3, #:lower16:eepromConfig
 3510 23c0 C0F20003 		movt	r3, #:upper16:eepromConfig
 3511 23c4 D3ED777A 		flds	s15, [r3, #476]
 3512 23c8 FCEEE77A 		ftouizs	s15, s15
 3513 23cc 17EE903A 		fmrs	r3, s15	@ int
 3514 23d0 9BB2     		uxth	r3, r3
 3515 23d2 1846     		mov	r0, r3
 3516 23d4 04AB     		add	r3, sp, #16
 3517 23d6 1946     		mov	r1, r3
 3518 23d8 4FF00A02 		mov	r2, #10
 3519 23dc FFF7FEFF 		bl	itoa
 3520 23e0 04AB     		add	r3, sp, #16
 3521 23e2 1846     		mov	r0, r3
 3522 23e4 FFF7FEFF 		bl	usbPrint
 3523 23e8 40F20000 		movw	r0, #:lower16:.LC1
 3524 23ec C0F20000 		movt	r0, #:upper16:.LC1
 3525 23f0 FFF7FEFF 		bl	usbPrint
 3526 23f4 40F20000 		movw	r0, #:lower16:.LC84
 3527 23f8 C0F20000 		movt	r0, #:upper16:.LC84
 3528 23fc FFF7FEFF 		bl	usbPrint
 3529 2400 40F20003 		movw	r3, #:lower16:eepromConfig
 3530 2404 C0F20003 		movt	r3, #:upper16:eepromConfig
 3531 2408 D3ED787A 		flds	s15, [r3, #480]
 3532 240c FCEEE77A 		ftouizs	s15, s15
 3533 2410 17EE903A 		fmrs	r3, s15	@ int
 3534 2414 9BB2     		uxth	r3, r3
 3535 2416 1846     		mov	r0, r3
 3536 2418 04AB     		add	r3, sp, #16
 3537 241a 1946     		mov	r1, r3
 3538 241c 4FF00A02 		mov	r2, #10
 3539 2420 FFF7FEFF 		bl	itoa
 3540 2424 04AB     		add	r3, sp, #16
 3541 2426 1846     		mov	r0, r3
 3542 2428 FFF7FEFF 		bl	usbPrint
 3543 242c 40F20000 		movw	r0, #:lower16:.LC1
 3544 2430 C0F20000 		movt	r0, #:upper16:.LC1
 3545 2434 FFF7FEFF 		bl	usbPrint
 3546              	.L134:
 3547 2438 40F20003 		movw	r3, #:lower16:eepromConfig
 3548 243c C0F20003 		movt	r3, #:upper16:eepromConfig
 3549 2440 93F88E30 		ldrb	r3, [r3, #142]	@ zero_extendqisi2
 3550 2444 022B     		cmp	r3, #2
 3551 2446 40F01081 		bne	.L135
 3552 244a 40F20000 		movw	r0, #:lower16:.LC85
 3553 244e C0F20000 		movt	r0, #:upper16:.LC85
 3554 2452 FFF7FEFF 		bl	usbPrint
 3555 2456 40F20003 		movw	r3, #:lower16:eepromConfig
 3556 245a C0F20003 		movt	r3, #:upper16:eepromConfig
 3557 245e D3ED687A 		flds	s15, [r3, #416]
 3558 2462 FCEEE77A 		ftouizs	s15, s15
 3559 2466 17EE903A 		fmrs	r3, s15	@ int
 3560 246a 9BB2     		uxth	r3, r3
 3561 246c 1846     		mov	r0, r3
 3562 246e 04AB     		add	r3, sp, #16
 3563 2470 1946     		mov	r1, r3
 3564 2472 4FF00A02 		mov	r2, #10
 3565 2476 FFF7FEFF 		bl	itoa
 3566 247a 04AB     		add	r3, sp, #16
 3567 247c 1846     		mov	r0, r3
 3568 247e FFF7FEFF 		bl	usbPrint
 3569 2482 40F20000 		movw	r0, #:lower16:.LC1
 3570 2486 C0F20000 		movt	r0, #:upper16:.LC1
 3571 248a FFF7FEFF 		bl	usbPrint
 3572 248e 40F20000 		movw	r0, #:lower16:.LC86
 3573 2492 C0F20000 		movt	r0, #:upper16:.LC86
 3574 2496 FFF7FEFF 		bl	usbPrint
 3575 249a 40F20003 		movw	r3, #:lower16:eepromConfig
 3576 249e C0F20003 		movt	r3, #:upper16:eepromConfig
 3577 24a2 D3ED697A 		flds	s15, [r3, #420]
 3578 24a6 FCEEE77A 		ftouizs	s15, s15
 3579 24aa 17EE903A 		fmrs	r3, s15	@ int
 3580 24ae 9BB2     		uxth	r3, r3
 3581 24b0 1846     		mov	r0, r3
 3582 24b2 04AB     		add	r3, sp, #16
 3583 24b4 1946     		mov	r1, r3
 3584 24b6 4FF00A02 		mov	r2, #10
 3585 24ba FFF7FEFF 		bl	itoa
 3586 24be 04AB     		add	r3, sp, #16
 3587 24c0 1846     		mov	r0, r3
 3588 24c2 FFF7FEFF 		bl	usbPrint
 3589 24c6 40F20000 		movw	r0, #:lower16:.LC1
 3590 24ca C0F20000 		movt	r0, #:upper16:.LC1
 3591 24ce FFF7FEFF 		bl	usbPrint
 3592 24d2 40F20000 		movw	r0, #:lower16:.LC87
 3593 24d6 C0F20000 		movt	r0, #:upper16:.LC87
 3594 24da FFF7FEFF 		bl	usbPrint
 3595 24de 40F20003 		movw	r3, #:lower16:eepromConfig
 3596 24e2 C0F20003 		movt	r3, #:upper16:eepromConfig
 3597 24e6 D3ED6A7A 		flds	s15, [r3, #424]
 3598 24ea FCEEE77A 		ftouizs	s15, s15
 3599 24ee 17EE903A 		fmrs	r3, s15	@ int
 3600 24f2 9BB2     		uxth	r3, r3
 3601 24f4 1846     		mov	r0, r3
 3602 24f6 04AB     		add	r3, sp, #16
 3603 24f8 1946     		mov	r1, r3
 3604 24fa 4FF00A02 		mov	r2, #10
 3605 24fe FFF7FEFF 		bl	itoa
 3606 2502 04AB     		add	r3, sp, #16
 3607 2504 1846     		mov	r0, r3
 3608 2506 FFF7FEFF 		bl	usbPrint
 3609 250a 40F20000 		movw	r0, #:lower16:.LC1
 3610 250e C0F20000 		movt	r0, #:upper16:.LC1
 3611 2512 FFF7FEFF 		bl	usbPrint
 3612 2516 40F20000 		movw	r0, #:lower16:.LC88
 3613 251a C0F20000 		movt	r0, #:upper16:.LC88
 3614 251e FFF7FEFF 		bl	usbPrint
 3615 2522 40F20003 		movw	r3, #:lower16:eepromConfig
 3616 2526 C0F20003 		movt	r3, #:upper16:eepromConfig
 3617 252a D3ED6B7A 		flds	s15, [r3, #428]
 3618 252e FCEEE77A 		ftouizs	s15, s15
 3619 2532 17EE903A 		fmrs	r3, s15	@ int
 3620 2536 9BB2     		uxth	r3, r3
 3621 2538 1846     		mov	r0, r3
 3622 253a 04AB     		add	r3, sp, #16
 3623 253c 1946     		mov	r1, r3
 3624 253e 4FF00A02 		mov	r2, #10
 3625 2542 FFF7FEFF 		bl	itoa
 3626 2546 04AB     		add	r3, sp, #16
 3627 2548 1846     		mov	r0, r3
 3628 254a FFF7FEFF 		bl	usbPrint
 3629 254e 40F20000 		movw	r0, #:lower16:.LC1
 3630 2552 C0F20000 		movt	r0, #:upper16:.LC1
 3631 2556 FFF7FEFF 		bl	usbPrint
 3632 255a 40F20000 		movw	r0, #:lower16:.LC89
 3633 255e C0F20000 		movt	r0, #:upper16:.LC89
 3634 2562 FFF7FEFF 		bl	usbPrint
 3635 2566 40F20003 		movw	r3, #:lower16:eepromConfig
 3636 256a C0F20003 		movt	r3, #:upper16:eepromConfig
 3637 256e D3ED6C7A 		flds	s15, [r3, #432]
 3638 2572 FCEEE77A 		ftouizs	s15, s15
 3639 2576 17EE903A 		fmrs	r3, s15	@ int
 3640 257a 9BB2     		uxth	r3, r3
 3641 257c 1846     		mov	r0, r3
 3642 257e 04AB     		add	r3, sp, #16
 3643 2580 1946     		mov	r1, r3
 3644 2582 4FF00A02 		mov	r2, #10
 3645 2586 FFF7FEFF 		bl	itoa
 3646 258a 04AB     		add	r3, sp, #16
 3647 258c 1846     		mov	r0, r3
 3648 258e FFF7FEFF 		bl	usbPrint
 3649 2592 40F20000 		movw	r0, #:lower16:.LC1
 3650 2596 C0F20000 		movt	r0, #:upper16:.LC1
 3651 259a FFF7FEFF 		bl	usbPrint
 3652 259e 40F20000 		movw	r0, #:lower16:.LC90
 3653 25a2 C0F20000 		movt	r0, #:upper16:.LC90
 3654 25a6 FFF7FEFF 		bl	usbPrint
 3655 25aa 40F20003 		movw	r3, #:lower16:eepromConfig
 3656 25ae C0F20003 		movt	r3, #:upper16:eepromConfig
 3657 25b2 D3ED6D7A 		flds	s15, [r3, #436]
 3658 25b6 FCEEE77A 		ftouizs	s15, s15
 3659 25ba 17EE903A 		fmrs	r3, s15	@ int
 3660 25be 9BB2     		uxth	r3, r3
 3661 25c0 1846     		mov	r0, r3
 3662 25c2 04AB     		add	r3, sp, #16
 3663 25c4 1946     		mov	r1, r3
 3664 25c6 4FF00A02 		mov	r2, #10
 3665 25ca FFF7FEFF 		bl	itoa
 3666 25ce 04AB     		add	r3, sp, #16
 3667 25d0 1846     		mov	r0, r3
 3668 25d2 FFF7FEFF 		bl	usbPrint
 3669 25d6 40F20000 		movw	r0, #:lower16:.LC1
 3670 25da C0F20000 		movt	r0, #:upper16:.LC1
 3671 25de FFF7FEFF 		bl	usbPrint
 3672 25e2 40F20000 		movw	r0, #:lower16:.LC91
 3673 25e6 C0F20000 		movt	r0, #:upper16:.LC91
 3674 25ea FFF7FEFF 		bl	usbPrint
 3675 25ee 40F20003 		movw	r3, #:lower16:eepromConfig
 3676 25f2 C0F20003 		movt	r3, #:upper16:eepromConfig
 3677 25f6 D3ED6E7A 		flds	s15, [r3, #440]
 3678 25fa FCEEE77A 		ftouizs	s15, s15
 3679 25fe 17EE903A 		fmrs	r3, s15	@ int
 3680 2602 9BB2     		uxth	r3, r3
 3681 2604 1846     		mov	r0, r3
 3682 2606 04AB     		add	r3, sp, #16
 3683 2608 1946     		mov	r1, r3
 3684 260a 4FF00A02 		mov	r2, #10
 3685 260e FFF7FEFF 		bl	itoa
 3686 2612 04AB     		add	r3, sp, #16
 3687 2614 1846     		mov	r0, r3
 3688 2616 FFF7FEFF 		bl	usbPrint
 3689 261a 40F20000 		movw	r0, #:lower16:.LC1
 3690 261e C0F20000 		movt	r0, #:upper16:.LC1
 3691 2622 FFF7FEFF 		bl	usbPrint
 3692 2626 40F20000 		movw	r0, #:lower16:.LC92
 3693 262a C0F20000 		movt	r0, #:upper16:.LC92
 3694 262e FFF7FEFF 		bl	usbPrint
 3695 2632 40F20003 		movw	r3, #:lower16:eepromConfig
 3696 2636 C0F20003 		movt	r3, #:upper16:eepromConfig
 3697 263a D3ED6F7A 		flds	s15, [r3, #444]
 3698 263e FCEEE77A 		ftouizs	s15, s15
 3699 2642 17EE903A 		fmrs	r3, s15	@ int
 3700 2646 9BB2     		uxth	r3, r3
 3701 2648 1846     		mov	r0, r3
 3702 264a 04AB     		add	r3, sp, #16
 3703 264c 1946     		mov	r1, r3
 3704 264e 4FF00A02 		mov	r2, #10
 3705 2652 FFF7FEFF 		bl	itoa
 3706 2656 04AB     		add	r3, sp, #16
 3707 2658 1846     		mov	r0, r3
 3708 265a FFF7FEFF 		bl	usbPrint
 3709 265e 40F20000 		movw	r0, #:lower16:.LC1
 3710 2662 C0F20000 		movt	r0, #:upper16:.LC1
 3711 2666 FFF7FEFF 		bl	usbPrint
 3712              	.L135:
 3713 266a 40F20003 		movw	r3, #:lower16:queryType
 3714 266e C0F20003 		movt	r3, #:upper16:queryType
 3715 2672 4FF07802 		mov	r2, #120
 3716 2676 1A70     		strb	r2, [r3, #0]
 3717 2678 40F20003 		movw	r3, #:lower16:validCommand
 3718 267c C0F20003 		movt	r3, #:upper16:validCommand
 3719 2680 4FF00002 		mov	r2, #0
 3720 2684 1A70     		strb	r2, [r3, #0]
 3721 2686 01F02CB8 		b	.L16
 3722              	.L82:
 3723 268a 40F20000 		movw	r0, #:lower16:.LC93
 3724 268e C0F20000 		movt	r0, #:upper16:.LC93
 3725 2692 FFF7FEFF 		bl	usbPrint
 3726 2696 40F20003 		movw	r3, #:lower16:eepromConfig
 3727 269a C0F20003 		movt	r3, #:upper16:eepromConfig
 3728 269e 93F8E831 		ldrb	r3, [r3, #488]	@ zero_extendqisi2
 3729 26a2 1846     		mov	r0, r3
 3730 26a4 04AB     		add	r3, sp, #16
 3731 26a6 1946     		mov	r1, r3
 3732 26a8 4FF00A02 		mov	r2, #10
 3733 26ac FFF7FEFF 		bl	itoa
 3734 26b0 04AB     		add	r3, sp, #16
 3735 26b2 1846     		mov	r0, r3
 3736 26b4 FFF7FEFF 		bl	usbPrint
 3737 26b8 40F20000 		movw	r0, #:lower16:.LC94
 3738 26bc C0F20000 		movt	r0, #:upper16:.LC94
 3739 26c0 FFF7FEFF 		bl	usbPrint
 3740 26c4 40F20000 		movw	r0, #:lower16:.LC95
 3741 26c8 C0F20000 		movt	r0, #:upper16:.LC95
 3742 26cc FFF7FEFF 		bl	usbPrint
 3743 26d0 4FF00003 		mov	r3, #0
 3744 26d4 8DF82730 		strb	r3, [sp, #39]
 3745 26d8 7BE0     		b	.L136
 3746              	.L137:
 3747 26da 40F20000 		movw	r0, #:lower16:.LC96
 3748 26de C0F20000 		movt	r0, #:upper16:.LC96
 3749 26e2 FFF7FEFF 		bl	usbPrint
 3750 26e6 9DF82730 		ldrb	r3, [sp, #39]	@ zero_extendqisi2
 3751 26ea 1846     		mov	r0, r3
 3752 26ec 04AB     		add	r3, sp, #16
 3753 26ee 1946     		mov	r1, r3
 3754 26f0 4FF00A02 		mov	r2, #10
 3755 26f4 FFF7FEFF 		bl	itoa
 3756 26f8 04AB     		add	r3, sp, #16
 3757 26fa 1846     		mov	r0, r3
 3758 26fc FFF7FEFF 		bl	usbPrint
 3759 2700 40F20000 		movw	r0, #:lower16:.LC97
 3760 2704 C0F20000 		movt	r0, #:upper16:.LC97
 3761 2708 FFF7FEFF 		bl	usbPrint
 3762 270c 9DF82710 		ldrb	r1, [sp, #39]	@ zero_extendqisi2
 3763 2710 40F20002 		movw	r2, #:lower16:eepromConfig
 3764 2714 C0F20002 		movt	r2, #:upper16:eepromConfig
 3765 2718 0B46     		mov	r3, r1
 3766 271a 4FEA4303 		lsl	r3, r3, #1
 3767 271e 5B18     		adds	r3, r3, r1
 3768 2720 4FEA8303 		lsl	r3, r3, #2
 3769 2724 D318     		adds	r3, r2, r3
 3770 2726 03F5F673 		add	r3, r3, #492
 3771 272a 1B68     		ldr	r3, [r3, #0]	@ float
 3772 272c 1846     		mov	r0, r3	@ float
 3773 272e 04AB     		add	r3, sp, #16
 3774 2730 1946     		mov	r1, r3
 3775 2732 FFF7FEFF 		bl	ftoa
 3776 2736 04AB     		add	r3, sp, #16
 3777 2738 1846     		mov	r0, r3
 3778 273a FFF7FEFF 		bl	usbPrint
 3779 273e 40F20000 		movw	r0, #:lower16:.LC97
 3780 2742 C0F20000 		movt	r0, #:upper16:.LC97
 3781 2746 FFF7FEFF 		bl	usbPrint
 3782 274a 9DF82710 		ldrb	r1, [sp, #39]	@ zero_extendqisi2
 3783 274e 40F20002 		movw	r2, #:lower16:eepromConfig
 3784 2752 C0F20002 		movt	r2, #:upper16:eepromConfig
 3785 2756 0B46     		mov	r3, r1
 3786 2758 4FEA4303 		lsl	r3, r3, #1
 3787 275c 5B18     		adds	r3, r3, r1
 3788 275e 4FEA8303 		lsl	r3, r3, #2
 3789 2762 D318     		adds	r3, r2, r3
 3790 2764 03F5F873 		add	r3, r3, #496
 3791 2768 1B68     		ldr	r3, [r3, #0]	@ float
 3792 276a 1846     		mov	r0, r3	@ float
 3793 276c 04AB     		add	r3, sp, #16
 3794 276e 1946     		mov	r1, r3
 3795 2770 FFF7FEFF 		bl	ftoa
 3796 2774 04AB     		add	r3, sp, #16
 3797 2776 1846     		mov	r0, r3
 3798 2778 FFF7FEFF 		bl	usbPrint
 3799 277c 40F20000 		movw	r0, #:lower16:.LC97
 3800 2780 C0F20000 		movt	r0, #:upper16:.LC97
 3801 2784 FFF7FEFF 		bl	usbPrint
 3802 2788 9DF82710 		ldrb	r1, [sp, #39]	@ zero_extendqisi2
 3803 278c 40F20002 		movw	r2, #:lower16:eepromConfig
 3804 2790 C0F20002 		movt	r2, #:upper16:eepromConfig
 3805 2794 0B46     		mov	r3, r1
 3806 2796 4FEA4303 		lsl	r3, r3, #1
 3807 279a 5B18     		adds	r3, r3, r1
 3808 279c 4FEA8303 		lsl	r3, r3, #2
 3809 27a0 D318     		adds	r3, r2, r3
 3810 27a2 03F5FA73 		add	r3, r3, #500
 3811 27a6 1B68     		ldr	r3, [r3, #0]	@ float
 3812 27a8 1846     		mov	r0, r3	@ float
 3813 27aa 04AB     		add	r3, sp, #16
 3814 27ac 1946     		mov	r1, r3
 3815 27ae FFF7FEFF 		bl	ftoa
 3816 27b2 04AB     		add	r3, sp, #16
 3817 27b4 1846     		mov	r0, r3
 3818 27b6 FFF7FEFF 		bl	usbPrint
 3819 27ba 40F20000 		movw	r0, #:lower16:.LC1
 3820 27be C0F20000 		movt	r0, #:upper16:.LC1
 3821 27c2 FFF7FEFF 		bl	usbPrint
 3822 27c6 9DF82730 		ldrb	r3, [sp, #39]
 3823 27ca 03F10103 		add	r3, r3, #1
 3824 27ce 8DF82730 		strb	r3, [sp, #39]
 3825              	.L136:
 3826 27d2 40F20003 		movw	r3, #:lower16:eepromConfig
 3827 27d6 C0F20003 		movt	r3, #:upper16:eepromConfig
 3828 27da 93F8E831 		ldrb	r3, [r3, #488]	@ zero_extendqisi2
 3829 27de 9DF82720 		ldrb	r2, [sp, #39]	@ zero_extendqisi2
 3830 27e2 9A42     		cmp	r2, r3
 3831 27e4 FFF479AF 		bcc	.L137
 3832 27e8 40F20003 		movw	r3, #:lower16:queryType
 3833 27ec C0F20003 		movt	r3, #:upper16:queryType
 3834 27f0 4FF07802 		mov	r2, #120
 3835 27f4 1A70     		strb	r2, [r3, #0]
 3836 27f6 40F20003 		movw	r3, #:lower16:validCommand
 3837 27fa C0F20003 		movt	r3, #:upper16:validCommand
 3838 27fe 4FF00002 		mov	r2, #0
 3839 2802 1A70     		strb	r2, [r3, #0]
 3840 2804 00F06DBF 		b	.L16
 3841              	.L83:
 3842 2808 40F20003 		movw	r3, #:lower16:queryType
 3843 280c C0F20003 		movt	r3, #:upper16:queryType
 3844 2810 4FF07802 		mov	r2, #120
 3845 2814 1A70     		strb	r2, [r3, #0]
 3846 2816 40F20003 		movw	r3, #:lower16:validCommand
 3847 281a C0F20003 		movt	r3, #:upper16:validCommand
 3848 281e 4FF00002 		mov	r2, #0
 3849 2822 1A70     		strb	r2, [r3, #0]
 3850 2824 00F05DBF 		b	.L16
 3851              	.L84:
 3852 2828 40F20003 		movw	r3, #:lower16:validCommand
 3853 282c C0F20003 		movt	r3, #:upper16:validCommand
 3854 2830 4FF00002 		mov	r2, #0
 3855 2834 1A70     		strb	r2, [r3, #0]
 3856 2836 00F054BF 		b	.L16
 3857              	.L85:
 3858 283a 40F20003 		movw	r3, #:lower16:queryType
 3859 283e C0F20003 		movt	r3, #:upper16:queryType
 3860 2842 4FF07802 		mov	r2, #120
 3861 2846 1A70     		strb	r2, [r3, #0]
 3862 2848 00F04BBF 		b	.L16
 3863              	.L86:
 3864 284c 40F20003 		movw	r3, #:lower16:sensors
 3865 2850 C0F20003 		movt	r3, #:upper16:sensors
 3866 2854 D3ED197A 		flds	s15, [r3, #100]
 3867 2858 F1EE677A 		fnegs	s15, s15
 3868 285c 17EE903A 		fmrs	r3, s15
 3869 2860 1846     		mov	r0, r3	@ float
 3870 2862 FFF7FEFF 		bl	__aeabi_f2d
 3871 2866 0446     		mov	r4, r0
 3872 2868 0D46     		mov	r5, r1
 3873 286a 40F20003 		movw	r3, #:lower16:sensors
 3874 286e C0F20003 		movt	r3, #:upper16:sensors
 3875 2872 1B6E     		ldr	r3, [r3, #96]	@ float
 3876 2874 1846     		mov	r0, r3	@ float
 3877 2876 FFF7FEFF 		bl	__aeabi_f2d
 3878 287a 0246     		mov	r2, r0
 3879 287c 0B46     		mov	r3, r1
 3880 287e 2046     		mov	r0, r4
 3881 2880 2946     		mov	r1, r5
 3882 2882 FFF7FEFF 		bl	atan2
 3883 2886 0246     		mov	r2, r0
 3884 2888 0B46     		mov	r3, r1
 3885 288a 1046     		mov	r0, r2
 3886 288c 1946     		mov	r1, r3
 3887 288e 0FF67843 		adr	r3, .L156
 3888 2892 D3E90023 		ldrd	r2, [r3]
 3889 2896 FFF7FEFF 		bl	__aeabi_dmul
 3890 289a 0246     		mov	r2, r0
 3891 289c 0B46     		mov	r3, r1
 3892 289e 1046     		mov	r0, r2
 3893 28a0 1946     		mov	r1, r3
 3894 28a2 FFF7FEFF 		bl	__aeabi_d2f
 3895 28a6 0346     		mov	r3, r0	@ float
 3896 28a8 0893     		str	r3, [sp, #32]	@ float
 3897 28aa 0898     		ldr	r0, [sp, #32]	@ float
 3898 28ac 04AB     		add	r3, sp, #16
 3899 28ae 1946     		mov	r1, r3
 3900 28b0 FFF7FEFF 		bl	ftoa
 3901 28b4 04AB     		add	r3, sp, #16
 3902 28b6 1846     		mov	r0, r3
 3903 28b8 FFF7FEFF 		bl	usbPrint
 3904 28bc 40F20000 		movw	r0, #:lower16:.LC1
 3905 28c0 C0F20000 		movt	r0, #:upper16:.LC1
 3906 28c4 FFF7FEFF 		bl	usbPrint
 3907 28c8 00F00BBF 		b	.L16
 3908              	.L26:
 3909 28cc 40F20003 		movw	r3, #:lower16:highSpeedAccelTelemEnabled
 3910 28d0 C0F20003 		movt	r3, #:upper16:highSpeedAccelTelemEnabled
 3911 28d4 1B78     		ldrb	r3, [r3, #0]	@ zero_extendqisi2
 3912 28d6 002B     		cmp	r3, #0
 3913 28d8 07D1     		bne	.L138
 3914 28da 40F20003 		movw	r3, #:lower16:highSpeedAccelTelemEnabled
 3915 28de C0F20003 		movt	r3, #:upper16:highSpeedAccelTelemEnabled
 3916 28e2 4FF00102 		mov	r2, #1
 3917 28e6 1A70     		strb	r2, [r3, #0]
 3918 28e8 06E0     		b	.L139
 3919              	.L138:
 3920 28ea 40F20003 		movw	r3, #:lower16:highSpeedAccelTelemEnabled
 3921 28ee C0F20003 		movt	r3, #:upper16:highSpeedAccelTelemEnabled
 3922 28f2 4FF00002 		mov	r2, #0
 3923 28f6 1A70     		strb	r2, [r3, #0]
 3924              	.L139:
 3925 28f8 40F20003 		movw	r3, #:lower16:queryType
 3926 28fc C0F20003 		movt	r3, #:upper16:queryType
 3927 2900 4FF07802 		mov	r2, #120
 3928 2904 1A70     		strb	r2, [r3, #0]
 3929 2906 00F0ECBE 		b	.L16
 3930              	.L27:
 3931 290a 40F20003 		movw	r3, #:lower16:highSpeedGyroTelemEnabled
 3932 290e C0F20003 		movt	r3, #:upper16:highSpeedGyroTelemEnabled
 3933 2912 1B78     		ldrb	r3, [r3, #0]	@ zero_extendqisi2
 3934 2914 002B     		cmp	r3, #0
 3935 2916 07D1     		bne	.L140
 3936 2918 40F20003 		movw	r3, #:lower16:highSpeedGyroTelemEnabled
 3937 291c C0F20003 		movt	r3, #:upper16:highSpeedGyroTelemEnabled
 3938 2920 4FF00102 		mov	r2, #1
 3939 2924 1A70     		strb	r2, [r3, #0]
 3940 2926 06E0     		b	.L141
 3941              	.L140:
 3942 2928 40F20003 		movw	r3, #:lower16:highSpeedGyroTelemEnabled
 3943 292c C0F20003 		movt	r3, #:upper16:highSpeedGyroTelemEnabled
 3944 2930 4FF00002 		mov	r2, #0
 3945 2934 1A70     		strb	r2, [r3, #0]
 3946              	.L141:
 3947 2936 40F20003 		movw	r3, #:lower16:queryType
 3948 293a C0F20003 		movt	r3, #:upper16:queryType
 3949 293e 4FF07802 		mov	r2, #120
 3950 2942 1A70     		strb	r2, [r3, #0]
 3951 2944 00F0CDBE 		b	.L16
 3952              	.L28:
 3953 2948 40F20003 		movw	r3, #:lower16:highSpeedRollRateTelemEnabled
 3954 294c C0F20003 		movt	r3, #:upper16:highSpeedRollRateTelemEnabled
 3955 2950 1B78     		ldrb	r3, [r3, #0]	@ zero_extendqisi2
 3956 2952 002B     		cmp	r3, #0
 3957 2954 07D1     		bne	.L142
 3958 2956 40F20003 		movw	r3, #:lower16:highSpeedRollRateTelemEnabled
 3959 295a C0F20003 		movt	r3, #:upper16:highSpeedRollRateTelemEnabled
 3960 295e 4FF00102 		mov	r2, #1
 3961 2962 1A70     		strb	r2, [r3, #0]
 3962 2964 06E0     		b	.L143
 3963              	.L142:
 3964 2966 40F20003 		movw	r3, #:lower16:highSpeedRollRateTelemEnabled
 3965 296a C0F20003 		movt	r3, #:upper16:highSpeedRollRateTelemEnabled
 3966 296e 4FF00002 		mov	r2, #0
 3967 2972 1A70     		strb	r2, [r3, #0]
 3968              	.L143:
 3969 2974 40F20003 		movw	r3, #:lower16:queryType
 3970 2978 C0F20003 		movt	r3, #:upper16:queryType
 3971 297c 4FF07802 		mov	r2, #120
 3972 2980 1A70     		strb	r2, [r3, #0]
 3973 2982 00F0AEBE 		b	.L16
 3974              	.L29:
 3975 2986 40F20003 		movw	r3, #:lower16:highSpeedPitchRateTelemEnabled
 3976 298a C0F20003 		movt	r3, #:upper16:highSpeedPitchRateTelemEnabled
 3977 298e 1B78     		ldrb	r3, [r3, #0]	@ zero_extendqisi2
 3978 2990 002B     		cmp	r3, #0
 3979 2992 07D1     		bne	.L144
 3980 2994 40F20003 		movw	r3, #:lower16:highSpeedPitchRateTelemEnabled
 3981 2998 C0F20003 		movt	r3, #:upper16:highSpeedPitchRateTelemEnabled
 3982 299c 4FF00102 		mov	r2, #1
 3983 29a0 1A70     		strb	r2, [r3, #0]
 3984 29a2 06E0     		b	.L145
 3985              	.L144:
 3986 29a4 40F20003 		movw	r3, #:lower16:highSpeedPitchRateTelemEnabled
 3987 29a8 C0F20003 		movt	r3, #:upper16:highSpeedPitchRateTelemEnabled
 3988 29ac 4FF00002 		mov	r2, #0
 3989 29b0 1A70     		strb	r2, [r3, #0]
 3990              	.L145:
 3991 29b2 40F20003 		movw	r3, #:lower16:queryType
 3992 29b6 C0F20003 		movt	r3, #:upper16:queryType
 3993 29ba 4FF07802 		mov	r2, #120
 3994 29be 1A70     		strb	r2, [r3, #0]
 3995 29c0 00F08FBE 		b	.L16
 3996              	.L30:
 3997 29c4 40F20003 		movw	r3, #:lower16:highSpeedYawRateTelemEnabled
 3998 29c8 C0F20003 		movt	r3, #:upper16:highSpeedYawRateTelemEnabled
 3999 29cc 1B78     		ldrb	r3, [r3, #0]	@ zero_extendqisi2
 4000 29ce 002B     		cmp	r3, #0
 4001 29d0 07D1     		bne	.L146
 4002 29d2 40F20003 		movw	r3, #:lower16:highSpeedYawRateTelemEnabled
 4003 29d6 C0F20003 		movt	r3, #:upper16:highSpeedYawRateTelemEnabled
 4004 29da 4FF00102 		mov	r2, #1
 4005 29de 1A70     		strb	r2, [r3, #0]
 4006 29e0 06E0     		b	.L147
 4007              	.L146:
 4008 29e2 40F20003 		movw	r3, #:lower16:highSpeedYawRateTelemEnabled
 4009 29e6 C0F20003 		movt	r3, #:upper16:highSpeedYawRateTelemEnabled
 4010 29ea 4FF00002 		mov	r2, #0
 4011 29ee 1A70     		strb	r2, [r3, #0]
 4012              	.L147:
 4013 29f0 40F20003 		movw	r3, #:lower16:queryType
 4014 29f4 C0F20003 		movt	r3, #:upper16:queryType
 4015 29f8 4FF07802 		mov	r2, #120
 4016 29fc 1A70     		strb	r2, [r3, #0]
 4017 29fe 00F070BE 		b	.L16
 4018              	.L31:
 4019 2a02 40F20003 		movw	r3, #:lower16:highSpeedAttitudeTelemEnabled
 4020 2a06 C0F20003 		movt	r3, #:upper16:highSpeedAttitudeTelemEnabled
 4021 2a0a 1B78     		ldrb	r3, [r3, #0]	@ zero_extendqisi2
 4022 2a0c 002B     		cmp	r3, #0
 4023 2a0e 07D1     		bne	.L148
 4024 2a10 40F20003 		movw	r3, #:lower16:highSpeedAttitudeTelemEnabled
 4025 2a14 C0F20003 		movt	r3, #:upper16:highSpeedAttitudeTelemEnabled
 4026 2a18 4FF00102 		mov	r2, #1
 4027 2a1c 1A70     		strb	r2, [r3, #0]
 4028 2a1e 06E0     		b	.L149
 4029              	.L148:
 4030 2a20 40F20003 		movw	r3, #:lower16:highSpeedAttitudeTelemEnabled
 4031 2a24 C0F20003 		movt	r3, #:upper16:highSpeedAttitudeTelemEnabled
 4032 2a28 4FF00002 		mov	r2, #0
 4033 2a2c 1A70     		strb	r2, [r3, #0]
 4034              	.L149:
 4035 2a2e 40F20003 		movw	r3, #:lower16:queryType
 4036 2a32 C0F20003 		movt	r3, #:upper16:queryType
 4037 2a36 4FF07802 		mov	r2, #120
 4038 2a3a 1A70     		strb	r2, [r3, #0]
 4039 2a3c 00F051BE 		b	.L16
 4040              	.L34:
 4041 2a40 4FF00000 		mov	r0, #0
 4042 2a44 FFF7FEFF 		bl	readUsbPID
 4043 2a48 40F20000 		movw	r0, #:lower16:.LC98
 4044 2a4c C0F20000 		movt	r0, #:upper16:.LC98
 4045 2a50 FFF7FEFF 		bl	usbPrint
 4046 2a54 40F20003 		movw	r3, #:lower16:queryType
 4047 2a58 C0F20003 		movt	r3, #:upper16:queryType
 4048 2a5c 4FF07102 		mov	r2, #113
 4049 2a60 1A70     		strb	r2, [r3, #0]
 4050 2a62 40F20003 		movw	r3, #:lower16:validCommand
 4051 2a66 C0F20003 		movt	r3, #:upper16:validCommand
 4052 2a6a 4FF00002 		mov	r2, #0
 4053 2a6e 1A70     		strb	r2, [r3, #0]
 4054 2a70 00F037BE 		b	.L16
 4055              	.L35:
 4056 2a74 4FF00100 		mov	r0, #1
 4057 2a78 FFF7FEFF 		bl	readUsbPID
 4058 2a7c 40F20000 		movw	r0, #:lower16:.LC99
 4059 2a80 C0F20000 		movt	r0, #:upper16:.LC99
 4060 2a84 FFF7FEFF 		bl	usbPrint
 4061 2a88 40F20003 		movw	r3, #:lower16:queryType
 4062 2a8c C0F20003 		movt	r3, #:upper16:queryType
 4063 2a90 4FF07102 		mov	r2, #113
 4064 2a94 1A70     		strb	r2, [r3, #0]
 4065 2a96 40F20003 		movw	r3, #:lower16:validCommand
 4066 2a9a C0F20003 		movt	r3, #:upper16:validCommand
 4067 2a9e 4FF00002 		mov	r2, #0
 4068 2aa2 1A70     		strb	r2, [r3, #0]
 4069 2aa4 00F01DBE 		b	.L16
 4070              	.L36:
 4071 2aa8 4FF00200 		mov	r0, #2
 4072 2aac FFF7FEFF 		bl	readUsbPID
 4073 2ab0 40F20000 		movw	r0, #:lower16:.LC100
 4074 2ab4 C0F20000 		movt	r0, #:upper16:.LC100
 4075 2ab8 FFF7FEFF 		bl	usbPrint
 4076 2abc 40F20003 		movw	r3, #:lower16:queryType
 4077 2ac0 C0F20003 		movt	r3, #:upper16:queryType
 4078 2ac4 4FF07102 		mov	r2, #113
 4079 2ac8 1A70     		strb	r2, [r3, #0]
 4080 2aca 40F20003 		movw	r3, #:lower16:validCommand
 4081 2ace C0F20003 		movt	r3, #:upper16:validCommand
 4082 2ad2 4FF00002 		mov	r2, #0
 4083 2ad6 1A70     		strb	r2, [r3, #0]
 4084 2ad8 00F003BE 		b	.L16
 4085              	.L37:
 4086 2adc 4FF00300 		mov	r0, #3
 4087 2ae0 FFF7FEFF 		bl	readUsbPID
 4088 2ae4 40F20000 		movw	r0, #:lower16:.LC101
 4089 2ae8 C0F20000 		movt	r0, #:upper16:.LC101
 4090 2aec FFF7FEFF 		bl	usbPrint
 4091 2af0 40F20003 		movw	r3, #:lower16:queryType
 4092 2af4 C0F20003 		movt	r3, #:upper16:queryType
 4093 2af8 4FF07202 		mov	r2, #114
 4094 2afc 1A70     		strb	r2, [r3, #0]
 4095 2afe 40F20003 		movw	r3, #:lower16:validCommand
 4096 2b02 C0F20003 		movt	r3, #:upper16:validCommand
 4097 2b06 4FF00002 		mov	r2, #0
 4098 2b0a 1A70     		strb	r2, [r3, #0]
 4099 2b0c 00F0E9BD 		b	.L16
 4100              	.L38:
 4101 2b10 4FF00400 		mov	r0, #4
 4102 2b14 FFF7FEFF 		bl	readUsbPID
 4103 2b18 40F20000 		movw	r0, #:lower16:.LC102
 4104 2b1c C0F20000 		movt	r0, #:upper16:.LC102
 4105 2b20 FFF7FEFF 		bl	usbPrint
 4106 2b24 40F20003 		movw	r3, #:lower16:queryType
 4107 2b28 C0F20003 		movt	r3, #:upper16:queryType
 4108 2b2c 4FF07202 		mov	r2, #114
 4109 2b30 1A70     		strb	r2, [r3, #0]
 4110 2b32 40F20003 		movw	r3, #:lower16:validCommand
 4111 2b36 C0F20003 		movt	r3, #:upper16:validCommand
 4112 2b3a 4FF00002 		mov	r2, #0
 4113 2b3e 1A70     		strb	r2, [r3, #0]
 4114 2b40 00F0CFBD 		b	.L16
 4115              	.L39:
 4116 2b44 4FF00500 		mov	r0, #5
 4117 2b48 FFF7FEFF 		bl	readUsbPID
 4118 2b4c 40F20000 		movw	r0, #:lower16:.LC103
 4119 2b50 C0F20000 		movt	r0, #:upper16:.LC103
 4120 2b54 FFF7FEFF 		bl	usbPrint
 4121 2b58 40F20003 		movw	r3, #:lower16:queryType
 4122 2b5c C0F20003 		movt	r3, #:upper16:queryType
 4123 2b60 4FF07202 		mov	r2, #114
 4124 2b64 1A70     		strb	r2, [r3, #0]
 4125 2b66 40F20003 		movw	r3, #:lower16:validCommand
 4126 2b6a C0F20003 		movt	r3, #:upper16:validCommand
 4127 2b6e 4FF00002 		mov	r2, #0
 4128 2b72 1A70     		strb	r2, [r3, #0]
 4129 2b74 00F0B5BD 		b	.L16
 4130              	.L40:
 4131 2b78 40F20003 		movw	r3, #:lower16:queryType
 4132 2b7c C0F20003 		movt	r3, #:upper16:queryType
 4133 2b80 4FF07802 		mov	r2, #120
 4134 2b84 1A70     		strb	r2, [r3, #0]
 4135 2b86 40F20003 		movw	r3, #:lower16:validCommand
 4136 2b8a C0F20003 		movt	r3, #:upper16:validCommand
 4137 2b8e 4FF00002 		mov	r2, #0
 4138 2b92 1A70     		strb	r2, [r3, #0]
 4139 2b94 00F0A5BD 		b	.L16
 4140              	.L41:
 4141 2b98 FFF7FEFF 		bl	readFloatUsb
 4142 2b9c 07EE900A 		fmsr	s15, r0
 4143 2ba0 FCEEE77A 		ftouizs	s15, s15
 4144 2ba4 17EE903A 		fmrs	r3, s15	@ int
 4145 2ba8 DAB2     		uxtb	r2, r3
 4146 2baa 40F20003 		movw	r3, #:lower16:eepromConfig
 4147 2bae C0F20003 		movt	r3, #:upper16:eepromConfig
 4148 2bb2 83F88020 		strb	r2, [r3, #128]
 4149 2bb6 40F20000 		movw	r0, #:lower16:.LC104
 4150 2bba C0F20000 		movt	r0, #:upper16:.LC104
 4151 2bbe FFF7FEFF 		bl	usbPrint
 4152 2bc2 40F20003 		movw	r3, #:lower16:queryType
 4153 2bc6 C0F20003 		movt	r3, #:upper16:queryType
 4154 2bca 4FF07502 		mov	r2, #117
 4155 2bce 1A70     		strb	r2, [r3, #0]
 4156 2bd0 40F20003 		movw	r3, #:lower16:validCommand
 4157 2bd4 C0F20003 		movt	r3, #:upper16:validCommand
 4158 2bd8 4FF00002 		mov	r2, #0
 4159 2bdc 1A70     		strb	r2, [r3, #0]
 4160 2bde 00F080BD 		b	.L16
 4161              	.L42:
 4162 2be2 01AB     		add	r3, sp, #4
 4163 2be4 1846     		mov	r0, r3
 4164 2be6 4FF00801 		mov	r1, #8
 4165 2bea FFF7FEFF 		bl	readStringUsb
 4166 2bee 40F20000 		movw	r0, #:lower16:.LC105
 4167 2bf2 C0F20000 		movt	r0, #:upper16:.LC105
 4168 2bf6 FFF7FEFF 		bl	usbPrint
 4169 2bfa 01AB     		add	r3, sp, #4
 4170 2bfc 1846     		mov	r0, r3
 4171 2bfe FFF7FEFF 		bl	usbPrint
 4172 2c02 40F20000 		movw	r0, #:lower16:.LC1
 4173 2c06 C0F20000 		movt	r0, #:upper16:.LC1
 4174 2c0a FFF7FEFF 		bl	usbPrint
 4175 2c0e 01AB     		add	r3, sp, #4
 4176 2c10 1846     		mov	r0, r3
 4177 2c12 FFF7FEFF 		bl	parseRcChannels
 4178 2c16 40F20003 		movw	r3, #:lower16:queryType
 4179 2c1a C0F20003 		movt	r3, #:upper16:queryType
 4180 2c1e 4FF07502 		mov	r2, #117
 4181 2c22 1A70     		strb	r2, [r3, #0]
 4182 2c24 40F20003 		movw	r3, #:lower16:validCommand
 4183 2c28 C0F20003 		movt	r3, #:upper16:validCommand
 4184 2c2c 4FF00002 		mov	r2, #0
 4185 2c30 1A70     		strb	r2, [r3, #0]
 4186 2c32 00F056BD 		b	.L16
 4187              	.L43:
 4188 2c36 FFF7FEFF 		bl	readFloatUsb
 4189 2c3a 07EE900A 		fmsr	s15, r0
 4190 2c3e FCEEE77A 		ftouizs	s15, s15
 4191 2c42 17EE903A 		fmrs	r3, s15	@ int
 4192 2c46 DAB2     		uxtb	r2, r3
 4193 2c48 40F20003 		movw	r3, #:lower16:eepromConfig
 4194 2c4c C0F20003 		movt	r3, #:upper16:eepromConfig
 4195 2c50 83F84420 		strb	r2, [r3, #68]
 4196 2c54 40F20000 		movw	r0, #:lower16:.LC106
 4197 2c58 C0F20000 		movt	r0, #:upper16:.LC106
 4198 2c5c FFF7FEFF 		bl	usbPrint
 4199 2c60 40F20003 		movw	r3, #:lower16:queryType
 4200 2c64 C0F20003 		movt	r3, #:upper16:queryType
 4201 2c68 4FF07502 		mov	r2, #117
 4202 2c6c 1A70     		strb	r2, [r3, #0]
 4203 2c6e 40F20003 		movw	r3, #:lower16:validCommand
 4204 2c72 C0F20003 		movt	r3, #:upper16:validCommand
 4205 2c76 4FF00002 		mov	r2, #0
 4206 2c7a 1A70     		strb	r2, [r3, #0]
 4207 2c7c 00F031BD 		b	.L16
 4208              	.L44:
 4209 2c80 FFF7FEFF 		bl	readFloatUsb
 4210 2c84 07EE900A 		fmsr	s15, r0
 4211 2c88 FCEEE77A 		ftouizs	s15, s15
 4212 2c8c 17EE903A 		fmrs	r3, s15	@ int
 4213 2c90 DAB2     		uxtb	r2, r3
 4214 2c92 40F20003 		movw	r3, #:lower16:eepromConfig
 4215 2c96 C0F20003 		movt	r3, #:upper16:eepromConfig
 4216 2c9a 83F84520 		strb	r2, [r3, #69]
 4217 2c9e 40F20000 		movw	r0, #:lower16:.LC107
 4218 2ca2 C0F20000 		movt	r0, #:upper16:.LC107
 4219 2ca6 FFF7FEFF 		bl	usbPrint
 4220 2caa 40F20003 		movw	r3, #:lower16:queryType
 4221 2cae C0F20003 		movt	r3, #:upper16:queryType
 4222 2cb2 4FF07502 		mov	r2, #117
 4223 2cb6 1A70     		strb	r2, [r3, #0]
 4224 2cb8 40F20003 		movw	r3, #:lower16:validCommand
 4225 2cbc C0F20003 		movt	r3, #:upper16:validCommand
 4226 2cc0 4FF00002 		mov	r2, #0
 4227 2cc4 1A70     		strb	r2, [r3, #0]
 4228 2cc6 00F00CBD 		b	.L16
 4229              	.L45:
 4230 2cca FFF7FEFF 		bl	readFloatUsb
 4231 2cce 07EE900A 		fmsr	s15, r0
 4232 2cd2 FCEEE77A 		ftouizs	s15, s15
 4233 2cd6 17EE903A 		fmrs	r3, s15	@ int
 4234 2cda DAB2     		uxtb	r2, r3
 4235 2cdc 40F20003 		movw	r3, #:lower16:eepromConfig
 4236 2ce0 C0F20003 		movt	r3, #:upper16:eepromConfig
 4237 2ce4 83F88E20 		strb	r2, [r3, #142]
 4238 2ce8 40F20000 		movw	r0, #:lower16:.LC108
 4239 2cec C0F20000 		movt	r0, #:upper16:.LC108
 4240 2cf0 FFF7FEFF 		bl	usbPrint
 4241 2cf4 FFF7FEFF 		bl	initMixer
 4242 2cf8 40F20003 		movw	r3, #:lower16:queryType
 4243 2cfc C0F20003 		movt	r3, #:upper16:queryType
 4244 2d00 4FF07502 		mov	r2, #117
 4245 2d04 1A70     		strb	r2, [r3, #0]
 4246 2d06 40F20003 		movw	r3, #:lower16:validCommand
 4247 2d0a C0F20003 		movt	r3, #:upper16:validCommand
 4248 2d0e 4FF00002 		mov	r2, #0
 4249 2d12 1A70     		strb	r2, [r3, #0]
 4250 2d14 00F0E5BC 		b	.L16
 4251              	.L46:
 4252 2d18 FFF7FEFF 		bl	readFloatUsb
 4253 2d1c 0246     		mov	r2, r0	@ float
 4254 2d1e 40F20003 		movw	r3, #:lower16:eepromConfig
 4255 2d22 C0F20003 		movt	r3, #:upper16:eepromConfig
 4256 2d26 C3F8E421 		str	r2, [r3, #484]	@ float
 4257 2d2a 40F20000 		movw	r0, #:lower16:.LC109
 4258 2d2e C0F20000 		movt	r0, #:upper16:.LC109
 4259 2d32 FFF7FEFF 		bl	usbPrint
 4260 2d36 40F20003 		movw	r3, #:lower16:queryType
 4261 2d3a C0F20003 		movt	r3, #:upper16:queryType
 4262 2d3e 4FF07502 		mov	r2, #117
 4263 2d42 1A70     		strb	r2, [r3, #0]
 4264 2d44 40F20003 		movw	r3, #:lower16:validCommand
 4265 2d48 C0F20003 		movt	r3, #:upper16:validCommand
 4266 2d4c 4FF00002 		mov	r2, #0
 4267 2d50 1A70     		strb	r2, [r3, #0]
 4268 2d52 00F0C6BC 		b	.L16
 4269              	.L47:
 4270 2d56 FFF7FEFF 		bl	readFloatUsb
 4271 2d5a 07EE900A 		fmsr	s15, r0
 4272 2d5e FCEEE77A 		ftouizs	s15, s15
 4273 2d62 17EE903A 		fmrs	r3, s15	@ int
 4274 2d66 9AB2     		uxth	r2, r3
 4275 2d68 40F20003 		movw	r3, #:lower16:eepromConfig
 4276 2d6c C0F20003 		movt	r3, #:upper16:eepromConfig
 4277 2d70 A3F88A20 		strh	r2, [r3, #138]	@ movhi
 4278 2d74 FFF7FEFF 		bl	readFloatUsb
 4279 2d78 07EE900A 		fmsr	s15, r0
 4280 2d7c FCEEE77A 		ftouizs	s15, s15
 4281 2d80 17EE903A 		fmrs	r3, s15	@ int
 4282 2d84 9AB2     		uxth	r2, r3
 4283 2d86 40F20003 		movw	r3, #:lower16:eepromConfig
 4284 2d8a C0F20003 		movt	r3, #:upper16:eepromConfig
 4285 2d8e A3F88C20 		strh	r2, [r3, #140]	@ movhi
 4286 2d92 40F20000 		movw	r0, #:lower16:.LC110
 4287 2d96 C0F20000 		movt	r0, #:upper16:.LC110
 4288 2d9a FFF7FEFF 		bl	usbPrint
 4289 2d9e 40F20003 		movw	r3, #:lower16:eepromConfig
 4290 2da2 C0F20003 		movt	r3, #:upper16:eepromConfig
 4291 2da6 B3F88A30 		ldrh	r3, [r3, #138]
 4292 2daa 1846     		mov	r0, r3
 4293 2dac FFF7FEFF 		bl	pwmEscInit
 4294 2db0 40F20003 		movw	r3, #:lower16:eepromConfig
 4295 2db4 C0F20003 		movt	r3, #:upper16:eepromConfig
 4296 2db8 B3F88C30 		ldrh	r3, [r3, #140]
 4297 2dbc 1846     		mov	r0, r3
 4298 2dbe FFF7FEFF 		bl	pwmServoInit
 4299 2dc2 40F20003 		movw	r3, #:lower16:queryType
 4300 2dc6 C0F20003 		movt	r3, #:upper16:queryType
 4301 2dca 4FF07502 		mov	r2, #117
 4302 2dce 1A70     		strb	r2, [r3, #0]
 4303 2dd0 40F20003 		movw	r3, #:lower16:validCommand
 4304 2dd4 C0F20003 		movt	r3, #:upper16:validCommand
 4305 2dd8 4FF00002 		mov	r2, #0
 4306 2ddc 1A70     		strb	r2, [r3, #0]
 4307 2dde 00F080BC 		b	.L16
 4308              	.L48:
 4309 2de2 FFF7FEFF 		bl	readFloatUsb
 4310 2de6 0246     		mov	r2, r0	@ float
 4311 2de8 40F20003 		movw	r3, #:lower16:eepromConfig
 4312 2dec C0F20003 		movt	r3, #:upper16:eepromConfig
 4313 2df0 C3F89420 		str	r2, [r3, #148]	@ float
 4314 2df4 FFF7FEFF 		bl	readFloatUsb
 4315 2df8 0246     		mov	r2, r0	@ float
 4316 2dfa 40F20003 		movw	r3, #:lower16:eepromConfig
 4317 2dfe C0F20003 		movt	r3, #:upper16:eepromConfig
 4318 2e02 C3F89820 		str	r2, [r3, #152]	@ float
 4319 2e06 FFF7FEFF 		bl	readFloatUsb
 4320 2e0a 0246     		mov	r2, r0	@ float
 4321 2e0c 40F20003 		movw	r3, #:lower16:eepromConfig
 4322 2e10 C0F20003 		movt	r3, #:upper16:eepromConfig
 4323 2e14 C3F89C20 		str	r2, [r3, #156]	@ float
 4324 2e18 FFF7FEFF 		bl	readFloatUsb
 4325 2e1c 0246     		mov	r2, r0	@ float
 4326 2e1e 40F20003 		movw	r3, #:lower16:eepromConfig
 4327 2e22 C0F20003 		movt	r3, #:upper16:eepromConfig
 4328 2e26 C3F8A020 		str	r2, [r3, #160]	@ float
 4329 2e2a FFF7FEFF 		bl	readFloatUsb
 4330 2e2e 0246     		mov	r2, r0	@ float
 4331 2e30 40F20003 		movw	r3, #:lower16:eepromConfig
 4332 2e34 C0F20003 		movt	r3, #:upper16:eepromConfig
 4333 2e38 C3F8A420 		str	r2, [r3, #164]	@ float
 4334 2e3c 40F20000 		movw	r0, #:lower16:.LC111
 4335 2e40 C0F20000 		movt	r0, #:upper16:.LC111
 4336 2e44 FFF7FEFF 		bl	usbPrint
 4337 2e48 40F20003 		movw	r3, #:lower16:queryType
 4338 2e4c C0F20003 		movt	r3, #:upper16:queryType
 4339 2e50 4FF07502 		mov	r2, #117
 4340 2e54 1A70     		strb	r2, [r3, #0]
 4341 2e56 40F20003 		movw	r3, #:lower16:validCommand
 4342 2e5a C0F20003 		movt	r3, #:upper16:validCommand
 4343 2e5e 4FF00002 		mov	r2, #0
 4344 2e62 1A70     		strb	r2, [r3, #0]
 4345 2e64 00F03DBC 		b	.L16
 4346              	.L49:
 4347 2e68 FFF7FEFF 		bl	readFloatUsb
 4348 2e6c 0246     		mov	r2, r0	@ float
 4349 2e6e 40F20003 		movw	r3, #:lower16:eepromConfig
 4350 2e72 C0F20003 		movt	r3, #:upper16:eepromConfig
 4351 2e76 C3F88021 		str	r2, [r3, #384]	@ float
 4352 2e7a FFF7FEFF 		bl	readFloatUsb
 4353 2e7e 0246     		mov	r2, r0	@ float
 4354 2e80 40F20003 		movw	r3, #:lower16:eepromConfig
 4355 2e84 C0F20003 		movt	r3, #:upper16:eepromConfig
 4356 2e88 C3F88421 		str	r2, [r3, #388]	@ float
 4357 2e8c FFF7FEFF 		bl	readFloatUsb
 4358 2e90 0246     		mov	r2, r0	@ float
 4359 2e92 40F20003 		movw	r3, #:lower16:eepromConfig
 4360 2e96 C0F20003 		movt	r3, #:upper16:eepromConfig
 4361 2e9a C3F88821 		str	r2, [r3, #392]	@ float
 4362 2e9e FFF7FEFF 		bl	readFloatUsb
 4363 2ea2 0246     		mov	r2, r0	@ float
 4364 2ea4 40F20003 		movw	r3, #:lower16:eepromConfig
 4365 2ea8 C0F20003 		movt	r3, #:upper16:eepromConfig
 4366 2eac C3F88C21 		str	r2, [r3, #396]	@ float
 4367 2eb0 40F20000 		movw	r0, #:lower16:.LC112
 4368 2eb4 C0F20000 		movt	r0, #:upper16:.LC112
 4369 2eb8 FFF7FEFF 		bl	usbPrint
 4370 2ebc 40F20003 		movw	r3, #:lower16:queryType
 4371 2ec0 C0F20003 		movt	r3, #:upper16:queryType
 4372 2ec4 4FF07502 		mov	r2, #117
 4373 2ec8 1A70     		strb	r2, [r3, #0]
 4374 2eca 40F20003 		movw	r3, #:lower16:validCommand
 4375 2ece C0F20003 		movt	r3, #:upper16:validCommand
 4376 2ed2 4FF00002 		mov	r2, #0
 4377 2ed6 1A70     		strb	r2, [r3, #0]
 4378 2ed8 00F003BC 		b	.L16
 4379              	.L50:
 4380 2edc FFF7FEFF 		bl	readFloatUsb
 4381 2ee0 0246     		mov	r2, r0	@ float
 4382 2ee2 40F20003 		movw	r3, #:lower16:eepromConfig
 4383 2ee6 C0F20003 		movt	r3, #:upper16:eepromConfig
 4384 2eea C3F89021 		str	r2, [r3, #400]	@ float
 4385 2eee FFF7FEFF 		bl	readFloatUsb
 4386 2ef2 0246     		mov	r2, r0	@ float
 4387 2ef4 40F20003 		movw	r3, #:lower16:eepromConfig
 4388 2ef8 C0F20003 		movt	r3, #:upper16:eepromConfig
 4389 2efc C3F89421 		str	r2, [r3, #404]	@ float
 4390 2f00 FFF7FEFF 		bl	readFloatUsb
 4391 2f04 0246     		mov	r2, r0	@ float
 4392 2f06 40F20003 		movw	r3, #:lower16:eepromConfig
 4393 2f0a C0F20003 		movt	r3, #:upper16:eepromConfig
 4394 2f0e C3F89821 		str	r2, [r3, #408]	@ float
 4395 2f12 FFF7FEFF 		bl	readFloatUsb
 4396 2f16 0246     		mov	r2, r0	@ float
 4397 2f18 40F20003 		movw	r3, #:lower16:eepromConfig
 4398 2f1c C0F20003 		movt	r3, #:upper16:eepromConfig
 4399 2f20 C3F89C21 		str	r2, [r3, #412]	@ float
 4400 2f24 40F20000 		movw	r0, #:lower16:.LC113
 4401 2f28 C0F20000 		movt	r0, #:upper16:.LC113
 4402 2f2c FFF7FEFF 		bl	usbPrint
 4403 2f30 40F20003 		movw	r3, #:lower16:queryType
 4404 2f34 C0F20003 		movt	r3, #:upper16:queryType
 4405 2f38 4FF07502 		mov	r2, #117
 4406 2f3c 1A70     		strb	r2, [r3, #0]
 4407 2f3e 40F20003 		movw	r3, #:lower16:validCommand
 4408 2f42 C0F20003 		movt	r3, #:upper16:validCommand
 4409 2f46 4FF00002 		mov	r2, #0
 4410 2f4a 1A70     		strb	r2, [r3, #0]
 4411 2f4c C9E3     		b	.L16
 4412              	.L51:
 4413 2f4e FFF7FEFF 		bl	readFloatUsb
 4414 2f52 0246     		mov	r2, r0	@ float
 4415 2f54 40F20003 		movw	r3, #:lower16:eepromConfig
 4416 2f58 C0F20003 		movt	r3, #:upper16:eepromConfig
 4417 2f5c C3F8C021 		str	r2, [r3, #448]	@ float
 4418 2f60 FFF7FEFF 		bl	readFloatUsb
 4419 2f64 0246     		mov	r2, r0	@ float
 4420 2f66 40F20003 		movw	r3, #:lower16:eepromConfig
 4421 2f6a C0F20003 		movt	r3, #:upper16:eepromConfig
 4422 2f6e C3F8C421 		str	r2, [r3, #452]	@ float
 4423 2f72 FFF7FEFF 		bl	readFloatUsb
 4424 2f76 0246     		mov	r2, r0	@ float
 4425 2f78 40F20003 		movw	r3, #:lower16:eepromConfig
 4426 2f7c C0F20003 		movt	r3, #:upper16:eepromConfig
 4427 2f80 C3F8C821 		str	r2, [r3, #456]	@ float
 4428 2f84 40F20000 		movw	r0, #:lower16:.LC114
 4429 2f88 C0F20000 		movt	r0, #:upper16:.LC114
 4430 2f8c FFF7FEFF 		bl	usbPrint
 4431 2f90 40F20003 		movw	r3, #:lower16:queryType
 4432 2f94 C0F20003 		movt	r3, #:upper16:queryType
 4433 2f98 4FF07502 		mov	r2, #117
 4434 2f9c 1A70     		strb	r2, [r3, #0]
 4435 2f9e 40F20003 		movw	r3, #:lower16:validCommand
 4436 2fa2 C0F20003 		movt	r3, #:upper16:validCommand
 4437 2fa6 4FF00002 		mov	r2, #0
 4438 2faa 1A70     		strb	r2, [r3, #0]
 4439 2fac 99E3     		b	.L16
 4440              	.L52:
 4441 2fae FFF7FEFF 		bl	readFloatUsb
 4442 2fb2 0246     		mov	r2, r0	@ float
 4443 2fb4 40F20003 		movw	r3, #:lower16:eepromConfig
 4444 2fb8 C0F20003 		movt	r3, #:upper16:eepromConfig
 4445 2fbc C3F8CC21 		str	r2, [r3, #460]	@ float
 4446 2fc0 FFF7FEFF 		bl	readFloatUsb
 4447 2fc4 0246     		mov	r2, r0	@ float
 4448 2fc6 40F20003 		movw	r3, #:lower16:eepromConfig
 4449 2fca C0F20003 		movt	r3, #:upper16:eepromConfig
 4450 2fce C3F8D021 		str	r2, [r3, #464]	@ float
 4451 2fd2 FFF7FEFF 		bl	readFloatUsb
 4452 2fd6 0246     		mov	r2, r0	@ float
 4453 2fd8 40F20003 		movw	r3, #:lower16:eepromConfig
 4454 2fdc C0F20003 		movt	r3, #:upper16:eepromConfig
 4455 2fe0 C3F8D421 		str	r2, [r3, #468]	@ float
 4456 2fe4 40F20000 		movw	r0, #:lower16:.LC115
 4457 2fe8 C0F20000 		movt	r0, #:upper16:.LC115
 4458 2fec FFF7FEFF 		bl	usbPrint
 4459 2ff0 40F20003 		movw	r3, #:lower16:queryType
 4460 2ff4 C0F20003 		movt	r3, #:upper16:queryType
 4461 2ff8 4FF07502 		mov	r2, #117
 4462 2ffc 1A70     		strb	r2, [r3, #0]
 4463 2ffe 40F20003 		movw	r3, #:lower16:validCommand
 4464 3002 C0F20003 		movt	r3, #:upper16:validCommand
 4465 3006 4FF00002 		mov	r2, #0
 4466 300a 1A70     		strb	r2, [r3, #0]
 4467 300c 69E3     		b	.L16
 4468              	.L53:
 4469 300e FFF7FEFF 		bl	readFloatUsb
 4470 3012 0246     		mov	r2, r0	@ float
 4471 3014 40F20003 		movw	r3, #:lower16:eepromConfig
 4472 3018 C0F20003 		movt	r3, #:upper16:eepromConfig
 4473 301c C3F8D821 		str	r2, [r3, #472]	@ float
 4474 3020 FFF7FEFF 		bl	readFloatUsb
 4475 3024 0246     		mov	r2, r0	@ float
 4476 3026 40F20003 		movw	r3, #:lower16:eepromConfig
 4477 302a C0F20003 		movt	r3, #:upper16:eepromConfig
 4478 302e C3F8DC21 		str	r2, [r3, #476]	@ float
 4479 3032 FFF7FEFF 		bl	readFloatUsb
 4480 3036 0246     		mov	r2, r0	@ float
 4481 3038 40F20003 		movw	r3, #:lower16:eepromConfig
 4482 303c C0F20003 		movt	r3, #:upper16:eepromConfig
 4483 3040 C3F8E021 		str	r2, [r3, #480]	@ float
 4484 3044 40F20000 		movw	r0, #:lower16:.LC116
 4485 3048 C0F20000 		movt	r0, #:upper16:.LC116
 4486 304c FFF7FEFF 		bl	usbPrint
 4487 3050 40F20003 		movw	r3, #:lower16:queryType
 4488 3054 C0F20003 		movt	r3, #:upper16:queryType
 4489 3058 4FF07502 		mov	r2, #117
 4490 305c 1A70     		strb	r2, [r3, #0]
 4491 305e 40F20003 		movw	r3, #:lower16:validCommand
 4492 3062 C0F20003 		movt	r3, #:upper16:validCommand
 4493 3066 4FF00002 		mov	r2, #0
 4494 306a 1A70     		strb	r2, [r3, #0]
 4495 306c 39E3     		b	.L16
 4496              	.L54:
 4497 306e FFF7FEFF 		bl	readFloatUsb
 4498 3072 0246     		mov	r2, r0	@ float
 4499 3074 40F20003 		movw	r3, #:lower16:eepromConfig
 4500 3078 C0F20003 		movt	r3, #:upper16:eepromConfig
 4501 307c C3F8A021 		str	r2, [r3, #416]	@ float
 4502 3080 FFF7FEFF 		bl	readFloatUsb
 4503 3084 0246     		mov	r2, r0	@ float
 4504 3086 40F20003 		movw	r3, #:lower16:eepromConfig
 4505 308a C0F20003 		movt	r3, #:upper16:eepromConfig
 4506 308e C3F8A421 		str	r2, [r3, #420]	@ float
 4507 3092 FFF7FEFF 		bl	readFloatUsb
 4508 3096 0246     		mov	r2, r0	@ float
 4509 3098 40F20003 		movw	r3, #:lower16:eepromConfig
 4510 309c C0F20003 		movt	r3, #:upper16:eepromConfig
 4511 30a0 C3F8A821 		str	r2, [r3, #424]	@ float
 4512 30a4 FFF7FEFF 		bl	readFloatUsb
 4513 30a8 0246     		mov	r2, r0	@ float
 4514 30aa 40F20003 		movw	r3, #:lower16:eepromConfig
 4515 30ae C0F20003 		movt	r3, #:upper16:eepromConfig
 4516 30b2 C3F8AC21 		str	r2, [r3, #428]	@ float
 4517 30b6 40F20000 		movw	r0, #:lower16:.LC117
 4518 30ba C0F20000 		movt	r0, #:upper16:.LC117
 4519 30be FFF7FEFF 		bl	usbPrint
 4520 30c2 40F20003 		movw	r3, #:lower16:queryType
 4521 30c6 C0F20003 		movt	r3, #:upper16:queryType
 4522 30ca 4FF07502 		mov	r2, #117
 4523 30ce 1A70     		strb	r2, [r3, #0]
 4524 30d0 40F20003 		movw	r3, #:lower16:validCommand
 4525 30d4 C0F20003 		movt	r3, #:upper16:validCommand
 4526 30d8 4FF00002 		mov	r2, #0
 4527 30dc 1A70     		strb	r2, [r3, #0]
 4528 30de 00E3     		b	.L16
 4529              	.L55:
 4530 30e0 FFF7FEFF 		bl	readFloatUsb
 4531 30e4 0246     		mov	r2, r0	@ float
 4532 30e6 40F20003 		movw	r3, #:lower16:eepromConfig
 4533 30ea C0F20003 		movt	r3, #:upper16:eepromConfig
 4534 30ee C3F8B021 		str	r2, [r3, #432]	@ float
 4535 30f2 FFF7FEFF 		bl	readFloatUsb
 4536 30f6 0246     		mov	r2, r0	@ float
 4537 30f8 40F20003 		movw	r3, #:lower16:eepromConfig
 4538 30fc C0F20003 		movt	r3, #:upper16:eepromConfig
 4539 3100 C3F8B421 		str	r2, [r3, #436]	@ float
 4540 3104 FFF7FEFF 		bl	readFloatUsb
 4541 3108 0246     		mov	r2, r0	@ float
 4542 310a 40F20003 		movw	r3, #:lower16:eepromConfig
 4543 310e C0F20003 		movt	r3, #:upper16:eepromConfig
 4544 3112 C3F8B821 		str	r2, [r3, #440]	@ float
 4545 3116 FFF7FEFF 		bl	readFloatUsb
 4546 311a 0246     		mov	r2, r0	@ float
 4547 311c 40F20003 		movw	r3, #:lower16:eepromConfig
 4548 3120 C0F20003 		movt	r3, #:upper16:eepromConfig
 4549 3124 C3F8BC21 		str	r2, [r3, #444]	@ float
 4550 3128 40F20000 		movw	r0, #:lower16:.LC118
 4551 312c C0F20000 		movt	r0, #:upper16:.LC118
 4552 3130 FFF7FEFF 		bl	usbPrint
 4553 3134 40F20003 		movw	r3, #:lower16:queryType
 4554 3138 C0F20003 		movt	r3, #:upper16:queryType
 4555 313c 4FF07502 		mov	r2, #117
 4556 3140 1A70     		strb	r2, [r3, #0]
 4557 3142 40F20003 		movw	r3, #:lower16:validCommand
 4558 3146 C0F20003 		movt	r3, #:upper16:validCommand
 4559 314a 4FF00002 		mov	r2, #0
 4560 314e 1A70     		strb	r2, [r3, #0]
 4561 3150 C7E2     		b	.L16
 4562              	.L56:
 4563 3152 FFF7FEFF 		bl	readFloatUsb
 4564 3156 07EE900A 		fmsr	s15, r0
 4565 315a FCEEE77A 		ftouizs	s15, s15
 4566 315e 17EE903A 		fmrs	r3, s15	@ int
 4567 3162 DAB2     		uxtb	r2, r3
 4568 3164 40F20003 		movw	r3, #:lower16:eepromConfig
 4569 3168 C0F20003 		movt	r3, #:upper16:eepromConfig
 4570 316c 83F8E821 		strb	r2, [r3, #488]
 4571 3170 40F20000 		movw	r0, #:lower16:.LC119
 4572 3174 C0F20000 		movt	r0, #:upper16:.LC119
 4573 3178 FFF7FEFF 		bl	usbPrint
 4574 317c FFF7FEFF 		bl	initMixer
 4575 3180 40F20003 		movw	r3, #:lower16:queryType
 4576 3184 C0F20003 		movt	r3, #:upper16:queryType
 4577 3188 4FF07602 		mov	r2, #118
 4578 318c 1A70     		strb	r2, [r3, #0]
 4579 318e 40F20003 		movw	r3, #:lower16:validCommand
 4580 3192 C0F20003 		movt	r3, #:upper16:validCommand
 4581 3196 4FF00002 		mov	r2, #0
 4582 319a 1A70     		strb	r2, [r3, #0]
 4583 319c A1E2     		b	.L16
 4584              	.L57:
 4585 319e FFF7FEFF 		bl	readFloatUsb
 4586 31a2 07EE900A 		fmsr	s15, r0
 4587 31a6 FCEEE77A 		ftouizs	s15, s15
 4588 31aa 17EE903A 		fmrs	r3, s15	@ int
 4589 31ae 8DF81F30 		strb	r3, [sp, #31]
 4590 31b2 FFF7FEFF 		bl	readFloatUsb
 4591 31b6 07EE900A 		fmsr	s15, r0
 4592 31ba FCEEE77A 		ftouizs	s15, s15
 4593 31be 17EE903A 		fmrs	r3, s15	@ int
 4594 31c2 8DF81E30 		strb	r3, [sp, #30]
 4595 31c6 9DF81F40 		ldrb	r4, [sp, #31]	@ zero_extendqisi2
 4596 31ca 9DF81E50 		ldrb	r5, [sp, #30]	@ zero_extendqisi2
 4597 31ce FFF7FEFF 		bl	readFloatUsb
 4598 31d2 0146     		mov	r1, r0	@ float
 4599 31d4 40F20002 		movw	r2, #:lower16:eepromConfig
 4600 31d8 C0F20002 		movt	r2, #:upper16:eepromConfig
 4601 31dc 2346     		mov	r3, r4
 4602 31de 4FEA4303 		lsl	r3, r3, #1
 4603 31e2 1B19     		adds	r3, r3, r4
 4604 31e4 5B19     		adds	r3, r3, r5
 4605 31e6 03F17A03 		add	r3, r3, #122
 4606 31ea 4FEA8303 		lsl	r3, r3, #2
 4607 31ee D318     		adds	r3, r2, r3
 4608 31f0 03F10403 		add	r3, r3, #4
 4609 31f4 1960     		str	r1, [r3, #0]	@ float
 4610 31f6 40F20000 		movw	r0, #:lower16:.LC120
 4611 31fa C0F20000 		movt	r0, #:upper16:.LC120
 4612 31fe FFF7FEFF 		bl	usbPrint
 4613 3202 40F20003 		movw	r3, #:lower16:queryType
 4614 3206 C0F20003 		movt	r3, #:upper16:queryType
 4615 320a 4FF07602 		mov	r2, #118
 4616 320e 1A70     		strb	r2, [r3, #0]
 4617 3210 40F20003 		movw	r3, #:lower16:validCommand
 4618 3214 C0F20003 		movt	r3, #:upper16:validCommand
 4619 3218 4FF00002 		mov	r2, #0
 4620 321c 1A70     		strb	r2, [r3, #0]
 4621 321e 60E2     		b	.L16
 4622              	.L58:
 4623 3220 FFF7FEFF 		bl	readFloatUsb
 4624 3224 0246     		mov	r2, r0	@ float
 4625 3226 40F20003 		movw	r3, #:lower16:eepromConfig
 4626 322a C0F20003 		movt	r3, #:upper16:eepromConfig
 4627 322e 1A64     		str	r2, [r3, #64]	@ float
 4628 3230 40F20000 		movw	r0, #:lower16:.LC121
 4629 3234 C0F20000 		movt	r0, #:upper16:.LC121
 4630 3238 FFF7FEFF 		bl	usbPrint
 4631 323c 40F20003 		movw	r3, #:lower16:queryType
 4632 3240 C0F20003 		movt	r3, #:upper16:queryType
 4633 3244 4FF07402 		mov	r2, #116
 4634 3248 1A70     		strb	r2, [r3, #0]
 4635 324a 4AE2     		b	.L16
 4636              	.L59:
 4637 324c FFF7FEFF 		bl	readFloatUsb
 4638 3250 0246     		mov	r2, r0	@ float
 4639 3252 40F20003 		movw	r3, #:lower16:eepromConfig
 4640 3256 C0F20003 		movt	r3, #:upper16:eepromConfig
 4641 325a 9A64     		str	r2, [r3, #72]	@ float
 4642 325c 40F20000 		movw	r0, #:lower16:.LC122
 4643 3260 C0F20000 		movt	r0, #:upper16:.LC122
 4644 3264 FFF7FEFF 		bl	usbPrint
 4645 3268 40F20003 		movw	r3, #:lower16:queryType
 4646 326c C0F20003 		movt	r3, #:upper16:queryType
 4647 3270 4FF07402 		mov	r2, #116
 4648 3274 1A70     		strb	r2, [r3, #0]
 4649 3276 34E2     		b	.L16
 4650              	.L19:
 4651 3278 FFF7FEFF 		bl	readFloatUsb
 4652 327c 0246     		mov	r2, r0	@ float
 4653 327e 40F20003 		movw	r3, #:lower16:eepromConfig
 4654 3282 C0F20003 		movt	r3, #:upper16:eepromConfig
 4655 3286 DA64     		str	r2, [r3, #76]	@ float
 4656 3288 FFF7FEFF 		bl	readFloatUsb
 4657 328c 0246     		mov	r2, r0	@ float
 4658 328e 40F20003 		movw	r3, #:lower16:eepromConfig
 4659 3292 C0F20003 		movt	r3, #:upper16:eepromConfig
 4660 3296 1A65     		str	r2, [r3, #80]	@ float
 4661 3298 40F20000 		movw	r0, #:lower16:.LC123
 4662 329c C0F20000 		movt	r0, #:upper16:.LC123
 4663 32a0 FFF7FEFF 		bl	usbPrint
 4664 32a4 40F20003 		movw	r3, #:lower16:queryType
 4665 32a8 C0F20003 		movt	r3, #:upper16:queryType
 4666 32ac 4FF07402 		mov	r2, #116
 4667 32b0 1A70     		strb	r2, [r3, #0]
 4668 32b2 16E2     		b	.L16
 4669              	.L33:
 4670 32b4 FFF7FEFF 		bl	readFloatUsb
 4671 32b8 0246     		mov	r2, r0	@ float
 4672 32ba 40F20003 		movw	r3, #:lower16:eepromConfig
 4673 32be C0F20003 		movt	r3, #:upper16:eepromConfig
 4674 32c2 5A65     		str	r2, [r3, #84]	@ float
 4675 32c4 FFF7FEFF 		bl	readFloatUsb
 4676 32c8 0246     		mov	r2, r0	@ float
 4677 32ca 40F20003 		movw	r3, #:lower16:eepromConfig
 4678 32ce C0F20003 		movt	r3, #:upper16:eepromConfig
 4679 32d2 9A65     		str	r2, [r3, #88]	@ float
 4680 32d4 40F20000 		movw	r0, #:lower16:.LC124
 4681 32d8 C0F20000 		movt	r0, #:upper16:.LC124
 4682 32dc FFF7FEFF 		bl	usbPrint
 4683 32e0 40F20003 		movw	r3, #:lower16:queryType
 4684 32e4 C0F20003 		movt	r3, #:upper16:queryType
 4685 32e8 4FF07402 		mov	r2, #116
 4686 32ec 1A70     		strb	r2, [r3, #0]
 4687 32ee F8E1     		b	.L16
 4688              	.L20:
 4689 32f0 FFF7FEFF 		bl	readFloatUsb
 4690 32f4 0246     		mov	r2, r0	@ float
 4691 32f6 40F20003 		movw	r3, #:lower16:eepromConfig
 4692 32fa C0F20003 		movt	r3, #:upper16:eepromConfig
 4693 32fe DA65     		str	r2, [r3, #92]	@ float
 4694 3300 40F20000 		movw	r0, #:lower16:.LC125
 4695 3304 C0F20000 		movt	r0, #:upper16:.LC125
 4696 3308 FFF7FEFF 		bl	usbPrint
 4697 330c 40F20003 		movw	r3, #:lower16:queryType
 4698 3310 C0F20003 		movt	r3, #:upper16:queryType
 4699 3314 4FF07402 		mov	r2, #116
 4700 3318 1A70     		strb	r2, [r3, #0]
 4701 331a E2E1     		b	.L16
 4702              	.L21:
 4703 331c FFF7FEFF 		bl	readFloatUsb
 4704 3320 0246     		mov	r2, r0	@ float
 4705 3322 40F20003 		movw	r3, #:lower16:eepromConfig
 4706 3326 C0F20003 		movt	r3, #:upper16:eepromConfig
 4707 332a 1A66     		str	r2, [r3, #96]	@ float
 4708 332c 40F20000 		movw	r0, #:lower16:.LC126
 4709 3330 C0F20000 		movt	r0, #:upper16:.LC126
 4710 3334 FFF7FEFF 		bl	usbPrint
 4711 3338 40F20003 		movw	r3, #:lower16:queryType
 4712 333c C0F20003 		movt	r3, #:upper16:queryType
 4713 3340 4FF07402 		mov	r2, #116
 4714 3344 1A70     		strb	r2, [r3, #0]
 4715 3346 CCE1     		b	.L16
 4716              	.L22:
 4717 3348 FFF7FEFF 		bl	readFloatUsb
 4718 334c 0246     		mov	r2, r0	@ float
 4719 334e 40F20003 		movw	r3, #:lower16:eepromConfig
 4720 3352 C0F20003 		movt	r3, #:upper16:eepromConfig
 4721 3356 5A66     		str	r2, [r3, #100]	@ float
 4722 3358 40F20000 		movw	r0, #:lower16:.LC127
 4723 335c C0F20000 		movt	r0, #:upper16:.LC127
 4724 3360 FFF7FEFF 		bl	usbPrint
 4725 3364 40F20003 		movw	r3, #:lower16:queryType
 4726 3368 C0F20003 		movt	r3, #:upper16:queryType
 4727 336c 4FF07402 		mov	r2, #116
 4728 3370 1A70     		strb	r2, [r3, #0]
 4729 3372 B6E1     		b	.L16
 4730              	.L60:
 4731 3374 40F20000 		movw	r0, #:lower16:.LC128
 4732 3378 C0F20000 		movt	r0, #:upper16:.LC128
 4733 337c FFF7FEFF 		bl	usbPrint
 4734 3380 4FF01900 		mov	r0, #25
 4735 3384 FFF7FEFF 		bl	delay
 4736 3388 4FF00100 		mov	r0, #1
 4737 338c FFF7FEFF 		bl	checkFirstTime
 4738 3390 4FF00000 		mov	r0, #0
 4739 3394 FFF7FEFF 		bl	systemReset
 4740 3398 A3E1     		b	.L16
 4741              	.L23:
 4742 339a 40F20000 		movw	r0, #:lower16:.LC129
 4743 339e C0F20000 		movt	r0, #:upper16:.LC129
 4744 33a2 FFF7FEFF 		bl	usbPrint
 4745 33a6 4FF01900 		mov	r0, #25
 4746 33aa FFF7FEFF 		bl	delay
 4747 33ae FFF7FEFF 		bl	writeEEPROM
 4748 33b2 4FF00000 		mov	r0, #0
 4749 33b6 FFF7FEFF 		bl	systemReset
 4750 33ba 92E1     		b	.L16
 4751              	.L25:
 4752 33bc 40F20000 		movw	r0, #:lower16:.LC130
 4753 33c0 C0F20000 		movt	r0, #:upper16:.LC130
 4754 33c4 FFF7FEFF 		bl	usbPrint
 4755 33c8 4FF06400 		mov	r0, #100
 4756 33cc FFF7FEFF 		bl	delay
 4757 33d0 4FF00000 		mov	r0, #0
 4758 33d4 FFF7FEFF 		bl	systemReset
 4759 33d8 83E1     		b	.L16
 4760              	.L24:
 4761 33da 40F20000 		movw	r0, #:lower16:.LC131
 4762 33de C0F20000 		movt	r0, #:upper16:.LC131
 4763 33e2 FFF7FEFF 		bl	usbPrint
 4764 33e6 4FF06400 		mov	r0, #100
 4765 33ea FFF7FEFF 		bl	delay
 4766 33ee 4FF00100 		mov	r0, #1
 4767 33f2 FFF7FEFF 		bl	systemReset
 4768 33f6 74E1     		b	.L16
 4769              	.L32:
 4770 33f8 40F20003 		movw	r3, #:lower16:cliBusy
 4771 33fc C0F20003 		movt	r3, #:upper16:cliBusy
 4772 3400 4FF00102 		mov	r2, #1
 4773 3404 1A70     		strb	r2, [r3, #0]
 4774 3406 40F20000 		movw	r0, #:lower16:.LC1
 4775 340a C0F20000 		movt	r0, #:upper16:.LC1
 4776 340e FFF7FEFF 		bl	usbPrint
 4777 3412 40F20000 		movw	r0, #:lower16:.LC132
 4778 3416 C0F20000 		movt	r0, #:upper16:.LC132
 4779 341a FFF7FEFF 		bl	usbPrint
 4780 341e 40F20000 		movw	r0, #:lower16:.LC133
 4781 3422 C0F20000 		movt	r0, #:upper16:.LC133
 4782 3426 FFF7FEFF 		bl	usbPrint
 4783 342a 40F20000 		movw	r0, #:lower16:.LC134
 4784 342e C0F20000 		movt	r0, #:upper16:.LC134
 4785 3432 FFF7FEFF 		bl	usbPrint
 4786 3436 40F20000 		movw	r0, #:lower16:.LC135
 4787 343a C0F20000 		movt	r0, #:upper16:.LC135
 4788 343e FFF7FEFF 		bl	usbPrint
 4789 3442 40F20000 		movw	r0, #:lower16:.LC136
 4790 3446 C0F20000 		movt	r0, #:upper16:.LC136
 4791 344a FFF7FEFF 		bl	usbPrint
 4792 344e 40F20000 		movw	r0, #:lower16:.LC137
 4793 3452 C0F20000 		movt	r0, #:upper16:.LC137
 4794 3456 FFF7FEFF 		bl	usbPrint
 4795 345a 40F20000 		movw	r0, #:lower16:.LC138
 4796 345e C0F20000 		movt	r0, #:upper16:.LC138
 4797 3462 FFF7FEFF 		bl	usbPrint
 4798 3466 40F20000 		movw	r0, #:lower16:.LC139
 4799 346a C0F20000 		movt	r0, #:upper16:.LC139
 4800 346e FFF7FEFF 		bl	usbPrint
 4801 3472 40F20000 		movw	r0, #:lower16:.LC140
 4802 3476 C0F20000 		movt	r0, #:upper16:.LC140
 4803 347a FFF7FEFF 		bl	usbPrint
 4804 347e 40F20000 		movw	r0, #:lower16:.LC141
 4805 3482 C0F20000 		movt	r0, #:upper16:.LC141
 4806 3486 FFF7FEFF 		bl	usbPrint
 4807 348a 40F20000 		movw	r0, #:lower16:.LC142
 4808 348e C0F20000 		movt	r0, #:upper16:.LC142
 4809 3492 FFF7FEFF 		bl	usbPrint
 4810 3496 40F20000 		movw	r0, #:lower16:.LC143
 4811 349a C0F20000 		movt	r0, #:upper16:.LC143
 4812 349e FFF7FEFF 		bl	usbPrint
 4813 34a2 40F20000 		movw	r0, #:lower16:.LC1
 4814 34a6 C0F20000 		movt	r0, #:upper16:.LC1
 4815 34aa FFF7FEFF 		bl	usbPrint
 4816 34ae 40F20000 		movw	r0, #:lower16:.LC144
 4817 34b2 C0F20000 		movt	r0, #:upper16:.LC144
 4818 34b6 FFF7FEFF 		bl	usbPrint
 4819 34ba 00BF     		nop
 4820              	.L150:
 4821 34bc FFF7FEFF 		bl	usbAvailable
 4822 34c0 0346     		mov	r3, r0
 4823 34c2 002B     		cmp	r3, #0
 4824 34c4 FAD0     		beq	.L150
 4825 34c6 FFF7FEFF 		bl	usbRead
 4826 34ca 0346     		mov	r3, r0
 4827 34cc DAB2     		uxtb	r2, r3
 4828 34ce 40F20003 		movw	r3, #:lower16:queryType
 4829 34d2 C0F20003 		movt	r3, #:upper16:queryType
 4830 34d6 1A70     		strb	r2, [r3, #0]
 4831 34d8 40F20003 		movw	r3, #:lower16:queryType
 4832 34dc C0F20003 		movt	r3, #:upper16:queryType
 4833 34e0 1B78     		ldrb	r3, [r3, #0]
 4834 34e2 DBB2     		uxtb	r3, r3
 4835 34e4 202B     		cmp	r3, #32
 4836 34e6 13D0     		beq	.L151
 4837 34e8 40F20003 		movw	r3, #:lower16:validCommand
 4838 34ec C0F20003 		movt	r3, #:upper16:validCommand
 4839 34f0 4FF00102 		mov	r2, #1
 4840 34f4 1A70     		strb	r2, [r3, #0]
 4841 34f6 40F20003 		movw	r3, #:lower16:cliBusy
 4842 34fa C0F20003 		movt	r3, #:upper16:cliBusy
 4843 34fe 4FF00002 		mov	r2, #0
 4844 3502 1A70     		strb	r2, [r3, #0]
 4845 3504 EDE0     		b	.L16
 4846              	.L157:
 4847 3506 00BF     		.align	3
 4848              	.L156:
 4849 3508 00000060 		.word	1610612736
 4850 350c 66A64C40 		.word	1078765158
 4851              	.L151:
 4852 3510 40F20000 		movw	r0, #:lower16:.LC1
 4853 3514 C0F20000 		movt	r0, #:upper16:.LC1
 4854 3518 FFF7FEFF 		bl	usbPrint
 4855 351c 40F20000 		movw	r0, #:lower16:.LC145
 4856 3520 C0F20000 		movt	r0, #:upper16:.LC145
 4857 3524 FFF7FEFF 		bl	usbPrint
 4858 3528 40F20000 		movw	r0, #:lower16:.LC146
 4859 352c C0F20000 		movt	r0, #:upper16:.LC146
 4860 3530 FFF7FEFF 		bl	usbPrint
 4861 3534 40F20000 		movw	r0, #:lower16:.LC147
 4862 3538 C0F20000 		movt	r0, #:upper16:.LC147
 4863 353c FFF7FEFF 		bl	usbPrint
 4864 3540 40F20000 		movw	r0, #:lower16:.LC148
 4865 3544 C0F20000 		movt	r0, #:upper16:.LC148
 4866 3548 FFF7FEFF 		bl	usbPrint
 4867 354c 40F20000 		movw	r0, #:lower16:.LC149
 4868 3550 C0F20000 		movt	r0, #:upper16:.LC149
 4869 3554 FFF7FEFF 		bl	usbPrint
 4870 3558 40F20000 		movw	r0, #:lower16:.LC150
 4871 355c C0F20000 		movt	r0, #:upper16:.LC150
 4872 3560 FFF7FEFF 		bl	usbPrint
 4873 3564 40F20000 		movw	r0, #:lower16:.LC151
 4874 3568 C0F20000 		movt	r0, #:upper16:.LC151
 4875 356c FFF7FEFF 		bl	usbPrint
 4876 3570 40F20000 		movw	r0, #:lower16:.LC152
 4877 3574 C0F20000 		movt	r0, #:upper16:.LC152
 4878 3578 FFF7FEFF 		bl	usbPrint
 4879 357c 40F20000 		movw	r0, #:lower16:.LC153
 4880 3580 C0F20000 		movt	r0, #:upper16:.LC153
 4881 3584 FFF7FEFF 		bl	usbPrint
 4882 3588 40F20000 		movw	r0, #:lower16:.LC154
 4883 358c C0F20000 		movt	r0, #:upper16:.LC154
 4884 3590 FFF7FEFF 		bl	usbPrint
 4885 3594 40F20000 		movw	r0, #:lower16:.LC155
 4886 3598 C0F20000 		movt	r0, #:upper16:.LC155
 4887 359c FFF7FEFF 		bl	usbPrint
 4888 35a0 40F20000 		movw	r0, #:lower16:.LC156
 4889 35a4 C0F20000 		movt	r0, #:upper16:.LC156
 4890 35a8 FFF7FEFF 		bl	usbPrint
 4891 35ac 40F20000 		movw	r0, #:lower16:.LC1
 4892 35b0 C0F20000 		movt	r0, #:upper16:.LC1
 4893 35b4 FFF7FEFF 		bl	usbPrint
 4894 35b8 40F20000 		movw	r0, #:lower16:.LC144
 4895 35bc C0F20000 		movt	r0, #:upper16:.LC144
 4896 35c0 FFF7FEFF 		bl	usbPrint
 4897 35c4 00BF     		nop
 4898              	.L152:
 4899 35c6 FFF7FEFF 		bl	usbAvailable
 4900 35ca 0346     		mov	r3, r0
 4901 35cc 002B     		cmp	r3, #0
 4902 35ce FAD0     		beq	.L152
 4903 35d0 FFF7FEFF 		bl	usbRead
 4904 35d4 0346     		mov	r3, r0
 4905 35d6 DAB2     		uxtb	r2, r3
 4906 35d8 40F20003 		movw	r3, #:lower16:queryType
 4907 35dc C0F20003 		movt	r3, #:upper16:queryType
 4908 35e0 1A70     		strb	r2, [r3, #0]
 4909 35e2 40F20003 		movw	r3, #:lower16:queryType
 4910 35e6 C0F20003 		movt	r3, #:upper16:queryType
 4911 35ea 1B78     		ldrb	r3, [r3, #0]
 4912 35ec DBB2     		uxtb	r3, r3
 4913 35ee 202B     		cmp	r3, #32
 4914 35f0 0ED0     		beq	.L153
 4915 35f2 40F20003 		movw	r3, #:lower16:validCommand
 4916 35f6 C0F20003 		movt	r3, #:upper16:validCommand
 4917 35fa 4FF00102 		mov	r2, #1
 4918 35fe 1A70     		strb	r2, [r3, #0]
 4919 3600 40F20003 		movw	r3, #:lower16:cliBusy
 4920 3604 C0F20003 		movt	r3, #:upper16:cliBusy
 4921 3608 4FF00002 		mov	r2, #0
 4922 360c 1A70     		strb	r2, [r3, #0]
 4923 360e 68E0     		b	.L16
 4924              	.L153:
 4925 3610 40F20000 		movw	r0, #:lower16:.LC1
 4926 3614 C0F20000 		movt	r0, #:upper16:.LC1
 4927 3618 FFF7FEFF 		bl	usbPrint
 4928 361c 40F20000 		movw	r0, #:lower16:.LC157
 4929 3620 C0F20000 		movt	r0, #:upper16:.LC157
 4930 3624 FFF7FEFF 		bl	usbPrint
 4931 3628 40F20000 		movw	r0, #:lower16:.LC158
 4932 362c C0F20000 		movt	r0, #:upper16:.LC158
 4933 3630 FFF7FEFF 		bl	usbPrint
 4934 3634 40F20000 		movw	r0, #:lower16:.LC159
 4935 3638 C0F20000 		movt	r0, #:upper16:.LC159
 4936 363c FFF7FEFF 		bl	usbPrint
 4937 3640 40F20000 		movw	r0, #:lower16:.LC160
 4938 3644 C0F20000 		movt	r0, #:upper16:.LC160
 4939 3648 FFF7FEFF 		bl	usbPrint
 4940 364c 40F20000 		movw	r0, #:lower16:.LC161
 4941 3650 C0F20000 		movt	r0, #:upper16:.LC161
 4942 3654 FFF7FEFF 		bl	usbPrint
 4943 3658 40F20000 		movw	r0, #:lower16:.LC162
 4944 365c C0F20000 		movt	r0, #:upper16:.LC162
 4945 3660 FFF7FEFF 		bl	usbPrint
 4946 3664 40F20000 		movw	r0, #:lower16:.LC163
 4947 3668 C0F20000 		movt	r0, #:upper16:.LC163
 4948 366c FFF7FEFF 		bl	usbPrint
 4949 3670 40F20000 		movw	r0, #:lower16:.LC164
 4950 3674 C0F20000 		movt	r0, #:upper16:.LC164
 4951 3678 FFF7FEFF 		bl	usbPrint
 4952 367c 40F20000 		movw	r0, #:lower16:.LC165
 4953 3680 C0F20000 		movt	r0, #:upper16:.LC165
 4954 3684 FFF7FEFF 		bl	usbPrint
 4955 3688 40F20000 		movw	r0, #:lower16:.LC166
 4956 368c C0F20000 		movt	r0, #:upper16:.LC166
 4957 3690 FFF7FEFF 		bl	usbPrint
 4958 3694 40F20000 		movw	r0, #:lower16:.LC167
 4959 3698 C0F20000 		movt	r0, #:upper16:.LC167
 4960 369c FFF7FEFF 		bl	usbPrint
 4961 36a0 40F20000 		movw	r0, #:lower16:.LC168
 4962 36a4 C0F20000 		movt	r0, #:upper16:.LC168
 4963 36a8 FFF7FEFF 		bl	usbPrint
 4964 36ac 40F20000 		movw	r0, #:lower16:.LC169
 4965 36b0 C0F20000 		movt	r0, #:upper16:.LC169
 4966 36b4 FFF7FEFF 		bl	usbPrint
 4967 36b8 40F20000 		movw	r0, #:lower16:.LC1
 4968 36bc C0F20000 		movt	r0, #:upper16:.LC1
 4969 36c0 FFF7FEFF 		bl	usbPrint
 4970 36c4 40F20003 		movw	r3, #:lower16:queryType
 4971 36c8 C0F20003 		movt	r3, #:upper16:queryType
 4972 36cc 4FF07802 		mov	r2, #120
 4973 36d0 1A70     		strb	r2, [r3, #0]
 4974 36d2 40F20003 		movw	r3, #:lower16:cliBusy
 4975 36d6 C0F20003 		movt	r3, #:upper16:cliBusy
 4976 36da 4FF00002 		mov	r2, #0
 4977 36de 1A70     		strb	r2, [r3, #0]
 4978 36e0 00BF     		nop
 4979              	.L16:
 4980 36e2 0BB0     		add	sp, sp, #44
 4981 36e4 30BD     		pop	{r4, r5, pc}
 4983 36e6 00BF     		.ident	"GCC: (Sourcery CodeBench Lite 2012.03-56) 4.6.3"