   1              		.syntax unified
   2              		.cpu cortex-m4
   3              		.eabi_attribute 27, 3
   4              		.fpu fpv4-sp-d16
   5              		.eabi_attribute 20, 1
   6              		.eabi_attribute 21, 1
   7              		.eabi_attribute 23, 3
   8              		.eabi_attribute 24, 1
   9              		.eabi_attribute 25, 1
  10              		.eabi_attribute 26, 1
  11              		.eabi_attribute 30, 6
  12              		.eabi_attribute 34, 1
  13              		.eabi_attribute 18, 4
  14              		.thumb
  15              		.file	"utilities.c"
  16              		.comm	mtk19ProcessDataState,1,1
  17              		.comm	nmeaProcessDataState,1,1
  18              		.comm	ubloxProcessDataState,1,1
  19              		.text
  20              		.align	2
  21              		.global	constrain
  22              		.thumb
  23              		.thumb_func
  25              	constrain:
  26              		@ args = 0, pretend = 0, frame = 16
  27              		@ frame_needed = 0, uses_anonymous_args = 0
  28              		@ link register save eliminated.
  29 0000 84B0     		sub	sp, sp, #16
  30 0002 0390     		str	r0, [sp, #12]	@ float
  31 0004 0291     		str	r1, [sp, #8]	@ float
  32 0006 0192     		str	r2, [sp, #4]	@ float
  33 0008 9DED037A 		flds	s14, [sp, #12]
  34 000c DDED027A 		flds	s15, [sp, #8]
  35 0010 B4EEE77A 		fcmpes	s14, s15
  36 0014 F1EE10FA 		fmstat
  37 0018 54BF     		ite	pl
  38 001a 0023     		movpl	r3, #0
  39 001c 0123     		movmi	r3, #1
  40 001e DBB2     		uxtb	r3, r3
  41 0020 002B     		cmp	r3, #0
  42 0022 01D0     		beq	.L2
  43 0024 029B     		ldr	r3, [sp, #8]	@ float
  44 0026 10E0     		b	.L3
  45              	.L2:
  46 0028 9DED037A 		flds	s14, [sp, #12]
  47 002c DDED017A 		flds	s15, [sp, #4]
  48 0030 B4EEE77A 		fcmpes	s14, s15
  49 0034 F1EE10FA 		fmstat
  50 0038 D4BF     		ite	le
  51 003a 0023     		movle	r3, #0
  52 003c 0123     		movgt	r3, #1
  53 003e DBB2     		uxtb	r3, r3
  54 0040 002B     		cmp	r3, #0
  55 0042 01D0     		beq	.L4
  56 0044 019B     		ldr	r3, [sp, #4]	@ float
  57 0046 00E0     		b	.L3
  58              	.L4:
  59 0048 039B     		ldr	r3, [sp, #12]	@ float
  60              	.L3:
  61 004a 1846     		mov	r0, r3	@ float
  62 004c 04B0     		add	sp, sp, #16
  63 004e 7047     		bx	lr
  65              		.section	.rodata
  66              		.align	2
  67              	.LC0:
  68 0000 30313233 		.ascii	"0123456789ABCDEFGHIJKLMNOPQRSTUVWXYZ\000"
  68      34353637 
  68      38394142 
  68      43444546 
  68      4748494A 
  69              		.text
  70              		.align	2
  71              		.thumb
  72              		.thumb_func
  74              	i2a:
  75              		@ args = 0, pretend = 0, frame = 16
  76              		@ frame_needed = 0, uses_anonymous_args = 0
  77 0050 00B5     		push	{lr}
  78 0052 85B0     		sub	sp, sp, #20
  79 0054 0390     		str	r0, [sp, #12]
  80 0056 0291     		str	r1, [sp, #8]
  81 0058 0192     		str	r2, [sp, #4]
  82 005a 039A     		ldr	r2, [sp, #12]
  83 005c 019B     		ldr	r3, [sp, #4]
  84 005e B2FBF3F3 		udiv	r3, r2, r3
  85 0062 002B     		cmp	r3, #0
  86 0064 09D0     		beq	.L6
  87 0066 039A     		ldr	r2, [sp, #12]
  88 0068 019B     		ldr	r3, [sp, #4]
  89 006a B2FBF3F3 		udiv	r3, r2, r3
  90 006e 1846     		mov	r0, r3
  91 0070 0299     		ldr	r1, [sp, #8]
  92 0072 019A     		ldr	r2, [sp, #4]
  93 0074 FFF7ECFF 		bl	i2a
  94 0078 0290     		str	r0, [sp, #8]
  95              	.L6:
  96 007a 039B     		ldr	r3, [sp, #12]
  97 007c 019A     		ldr	r2, [sp, #4]
  98 007e B3FBF2F2 		udiv	r2, r3, r2
  99 0082 0199     		ldr	r1, [sp, #4]
 100 0084 01FB02F2 		mul	r2, r1, r2
 101 0088 9A1A     		subs	r2, r3, r2
 102 008a 40F20003 		movw	r3, #:lower16:.LC0
 103 008e C0F20003 		movt	r3, #:upper16:.LC0
 104 0092 9A5C     		ldrb	r2, [r3, r2]	@ zero_extendqisi2
 105 0094 029B     		ldr	r3, [sp, #8]
 106 0096 1A70     		strb	r2, [r3, #0]
 107 0098 029B     		ldr	r3, [sp, #8]
 108 009a 03F10103 		add	r3, r3, #1
 109 009e 1846     		mov	r0, r3
 110 00a0 05B0     		add	sp, sp, #20
 111 00a2 00BD     		pop	{pc}
 113              		.align	2
 114              		.global	itoa
 115              		.thumb
 116              		.thumb_func
 118              	itoa:
 119              		@ args = 0, pretend = 0, frame = 16
 120              		@ frame_needed = 0, uses_anonymous_args = 0
 121 00a4 00B5     		push	{lr}
 122 00a6 85B0     		sub	sp, sp, #20
 123 00a8 0390     		str	r0, [sp, #12]
 124 00aa 0291     		str	r1, [sp, #8]
 125 00ac 0192     		str	r2, [sp, #4]
 126 00ae 019B     		ldr	r3, [sp, #4]
 127 00b0 012B     		cmp	r3, #1
 128 00b2 02DD     		ble	.L8
 129 00b4 019B     		ldr	r3, [sp, #4]
 130 00b6 242B     		cmp	r3, #36
 131 00b8 02DD     		ble	.L9
 132              	.L8:
 133 00ba 4FF00A03 		mov	r3, #10
 134 00be 0193     		str	r3, [sp, #4]
 135              	.L9:
 136 00c0 039B     		ldr	r3, [sp, #12]
 137 00c2 002B     		cmp	r3, #0
 138 00c4 14DA     		bge	.L10
 139 00c6 029B     		ldr	r3, [sp, #8]
 140 00c8 4FF02D02 		mov	r2, #45
 141 00cc 1A70     		strb	r2, [r3, #0]
 142 00ce 039B     		ldr	r3, [sp, #12]
 143 00d0 C3F10001 		rsb	r1, r3, #0
 144 00d4 029B     		ldr	r3, [sp, #8]
 145 00d6 03F10102 		add	r2, r3, #1
 146 00da 019B     		ldr	r3, [sp, #4]
 147 00dc 0846     		mov	r0, r1
 148 00de 1146     		mov	r1, r2
 149 00e0 1A46     		mov	r2, r3
 150 00e2 FFF7B5FF 		bl	i2a
 151 00e6 0346     		mov	r3, r0
 152 00e8 4FF00002 		mov	r2, #0
 153 00ec 1A70     		strb	r2, [r3, #0]
 154 00ee 0AE0     		b	.L11
 155              	.L10:
 156 00f0 039A     		ldr	r2, [sp, #12]
 157 00f2 019B     		ldr	r3, [sp, #4]
 158 00f4 1046     		mov	r0, r2
 159 00f6 0299     		ldr	r1, [sp, #8]
 160 00f8 1A46     		mov	r2, r3
 161 00fa FFF7A9FF 		bl	i2a
 162 00fe 0346     		mov	r3, r0
 163 0100 4FF00002 		mov	r2, #0
 164 0104 1A70     		strb	r2, [r3, #0]
 165              	.L11:
 166 0106 029B     		ldr	r3, [sp, #8]
 167 0108 1846     		mov	r0, r3
 168 010a 05B0     		add	sp, sp, #20
 169 010c 00BD     		pop	{pc}
 171              		.section	.rodata
 172 0025 000000   		.align	2
 173              	.LC1:
 174 0028 2E00     		.ascii	".\000"
 175 002a 0000     		.text
 176 010e 00BF     		.align	2
 177              		.global	ftoa
 178              		.thumb
 179              		.thumb_func
 181              	ftoa:
 182              		@ args = 0, pretend = 0, frame = 48
 183              		@ frame_needed = 0, uses_anonymous_args = 0
 184 0110 00B5     		push	{lr}
 185 0112 8DB0     		sub	sp, sp, #52
 186 0114 0190     		str	r0, [sp, #4]	@ float
 187 0116 0091     		str	r1, [sp, #0]
 188 0118 03AB     		add	r3, sp, #12
 189 011a 4FF00002 		mov	r2, #0
 190 011e 1A60     		str	r2, [r3, #0]
 191 0120 03F10403 		add	r3, r3, #4
 192 0124 4FF00002 		mov	r2, #0
 193 0128 1A60     		str	r2, [r3, #0]
 194 012a 03F10403 		add	r3, r3, #4
 195 012e 4FF00002 		mov	r2, #0
 196 0132 1A60     		str	r2, [r3, #0]
 197 0134 03F10403 		add	r3, r3, #4
 198 0138 40F20003 		movw	r3, #:lower16:.LC1
 199 013c C0F20003 		movt	r3, #:upper16:.LC1
 200 0140 0B93     		str	r3, [sp, #44]
 201 0142 DDED017A 		flds	s15, [sp, #4]
 202 0146 F5EEC07A 		fcmpezs	s15
 203 014a F1EE10FA 		fmstat
 204 014e D4BF     		ite	le
 205 0150 0023     		movle	r3, #0
 206 0152 0123     		movgt	r3, #1
 207 0154 DBB2     		uxtb	r3, r3
 208 0156 002B     		cmp	r3, #0
 209 0158 08D0     		beq	.L13
 210 015a 9DED017A 		flds	s14, [sp, #4]
 211 015e DFED517A 		flds	s15, .L21
 212 0162 77EE277A 		fadds	s15, s14, s15
 213 0166 CDED017A 		fsts	s15, [sp, #4]
 214 016a 07E0     		b	.L14
 215              	.L13:
 216 016c 9DED017A 		flds	s14, [sp, #4]
 217 0170 DFED4C7A 		flds	s15, .L21
 218 0174 77EE677A 		fsubs	s15, s14, s15
 219 0178 CDED017A 		fsts	s15, [sp, #4]
 220              	.L14:
 221 017c 9DED017A 		flds	s14, [sp, #4]
 222 0180 DFED497A 		flds	s15, .L21+4
 223 0184 67EE277A 		fmuls	s15, s14, s15
 224 0188 FDEEE77A 		ftosizs	s15, s15
 225 018c 17EE903A 		fmrs	r3, s15	@ int
 226 0190 0A93     		str	r3, [sp, #40]
 227 0192 0A9B     		ldr	r3, [sp, #40]
 228 0194 002B     		cmp	r3, #0
 229 0196 B8BF     		it	lt
 230 0198 5B42     		rsblt	r3, r3, #0
 231 019a 1846     		mov	r0, r3
 232 019c 06AB     		add	r3, sp, #24
 233 019e 1946     		mov	r1, r3
 234 01a0 4FF00A02 		mov	r2, #10
 235 01a4 FFF7FEFF 		bl	itoa
 236 01a8 0A9B     		ldr	r3, [sp, #40]
 237 01aa 002B     		cmp	r3, #0
 238 01ac 04DB     		blt	.L15
 239 01ae 4FF02003 		mov	r3, #32
 240 01b2 8DF80C30 		strb	r3, [sp, #12]
 241 01b6 03E0     		b	.L16
 242              	.L15:
 243 01b8 4FF02D03 		mov	r3, #45
 244 01bc 8DF80C30 		strb	r3, [sp, #12]
 245              	.L16:
 246 01c0 06AB     		add	r3, sp, #24
 247 01c2 1846     		mov	r0, r3
 248 01c4 FFF7FEFF 		bl	strlen
 249 01c8 0346     		mov	r3, r0
 250 01ca 012B     		cmp	r3, #1
 251 01cc 12D1     		bne	.L17
 252 01ce 4FF03003 		mov	r3, #48
 253 01d2 8DF80D30 		strb	r3, [sp, #13]
 254 01d6 4FF03003 		mov	r3, #48
 255 01da 8DF80E30 		strb	r3, [sp, #14]
 256 01de 4FF03003 		mov	r3, #48
 257 01e2 8DF80F30 		strb	r3, [sp, #15]
 258 01e6 03AB     		add	r3, sp, #12
 259 01e8 1846     		mov	r0, r3
 260 01ea 06AB     		add	r3, sp, #24
 261 01ec 1946     		mov	r1, r3
 262 01ee FFF7FEFF 		bl	strcat
 263 01f2 2DE0     		b	.L18
 264              	.L17:
 265 01f4 06AB     		add	r3, sp, #24
 266 01f6 1846     		mov	r0, r3
 267 01f8 FFF7FEFF 		bl	strlen
 268 01fc 0346     		mov	r3, r0
 269 01fe 022B     		cmp	r3, #2
 270 0200 0ED1     		bne	.L19
 271 0202 4FF03003 		mov	r3, #48
 272 0206 8DF80D30 		strb	r3, [sp, #13]
 273 020a 4FF03003 		mov	r3, #48
 274 020e 8DF80E30 		strb	r3, [sp, #14]
 275 0212 03AB     		add	r3, sp, #12
 276 0214 1846     		mov	r0, r3
 277 0216 06AB     		add	r3, sp, #24
 278 0218 1946     		mov	r1, r3
 279 021a FFF7FEFF 		bl	strcat
 280 021e 17E0     		b	.L18
 281              	.L19:
 282 0220 06AB     		add	r3, sp, #24
 283 0222 1846     		mov	r0, r3
 284 0224 FFF7FEFF 		bl	strlen
 285 0228 0346     		mov	r3, r0
 286 022a 032B     		cmp	r3, #3
 287 022c 0AD1     		bne	.L20
 288 022e 4FF03003 		mov	r3, #48
 289 0232 8DF80D30 		strb	r3, [sp, #13]
 290 0236 03AB     		add	r3, sp, #12
 291 0238 1846     		mov	r0, r3
 292 023a 06AB     		add	r3, sp, #24
 293 023c 1946     		mov	r1, r3
 294 023e FFF7FEFF 		bl	strcat
 295 0242 05E0     		b	.L18
 296              	.L20:
 297 0244 03AB     		add	r3, sp, #12
 298 0246 1846     		mov	r0, r3
 299 0248 06AB     		add	r3, sp, #24
 300 024a 1946     		mov	r1, r3
 301 024c FFF7FEFF 		bl	strcat
 302              	.L18:
 303 0250 03AB     		add	r3, sp, #12
 304 0252 1846     		mov	r0, r3
 305 0254 FFF7FEFF 		bl	strlen
 306 0258 0346     		mov	r3, r0
 307 025a DBB2     		uxtb	r3, r3
 308 025c A3F10303 		sub	r3, r3, #3
 309 0260 8DF82730 		strb	r3, [sp, #39]
 310 0264 9DF82730 		ldrb	r3, [sp, #39]	@ zero_extendqisi2
 311 0268 0098     		ldr	r0, [sp, #0]
 312 026a 03AA     		add	r2, sp, #12
 313 026c 1146     		mov	r1, r2
 314 026e 1A46     		mov	r2, r3
 315 0270 FFF7FEFF 		bl	strncpy
 316 0274 9DF82730 		ldrb	r3, [sp, #39]	@ zero_extendqisi2
 317 0278 009A     		ldr	r2, [sp, #0]
 318 027a D318     		adds	r3, r2, r3
 319 027c 4FF00002 		mov	r2, #0
 320 0280 1A70     		strb	r2, [r3, #0]
 321 0282 0098     		ldr	r0, [sp, #0]
 322 0284 0B99     		ldr	r1, [sp, #44]
 323 0286 FFF7FEFF 		bl	strcat
 324 028a 9DF82730 		ldrb	r3, [sp, #39]	@ zero_extendqisi2
 325 028e 03AA     		add	r2, sp, #12
 326 0290 D318     		adds	r3, r2, r3
 327 0292 0098     		ldr	r0, [sp, #0]
 328 0294 1946     		mov	r1, r3
 329 0296 FFF7FEFF 		bl	strcat
 330 029a 009B     		ldr	r3, [sp, #0]
 331 029c 1846     		mov	r0, r3
 332 029e 0DB0     		add	sp, sp, #52
 333 02a0 00BD     		pop	{pc}
 334              	.L22:
 335 02a2 00BF     		.align	2
 336              	.L21:
 337 02a4 6F12033A 		.word	973279855
 338 02a8 00007A44 		.word	1148846080
 340              		.align	2
 341              		.global	_sbrk
 342              		.thumb
 343              		.thumb_func
 345              	_sbrk:
 346              		@ args = 0, pretend = 0, frame = 16
 347              		@ frame_needed = 0, uses_anonymous_args = 0
 348 02ac 10B5     		push	{r4, lr}
 349 02ae 84B0     		sub	sp, sp, #16
 350 02b0 0190     		str	r0, [sp, #4]
 351 02b2 40F20003 		movw	r3, #:lower16:heap_end.10971
 352 02b6 C0F20003 		movt	r3, #:upper16:heap_end.10971
 353 02ba 1B68     		ldr	r3, [r3, #0]
 354 02bc 002B     		cmp	r3, #0
 355 02be 08D1     		bne	.L24
 356 02c0 40F20003 		movw	r3, #:lower16:heap_end.10971
 357 02c4 C0F20003 		movt	r3, #:upper16:heap_end.10971
 358 02c8 40F20002 		movw	r2, #:lower16:_ebss
 359 02cc C0F20002 		movt	r2, #:upper16:_ebss
 360 02d0 1A60     		str	r2, [r3, #0]
 361              	.L24:
 362 02d2 40F20003 		movw	r3, #:lower16:heap_end.10971
 363 02d6 C0F20003 		movt	r3, #:upper16:heap_end.10971
 364 02da 1B68     		ldr	r3, [r3, #0]
 365 02dc 0393     		str	r3, [sp, #12]
 366              	@ 434 "C:\Users\John Ihlein\Desktop\STM32workspace\aq32Plus\Libraries\CMSIS\Include/core_cmFunc.h" 
 367 02de EFF30884 		MRS r4, msp
 368              	
 369              	@ 0 "" 2
 370              		.thumb
 371 02e2 2346     		mov	r3, r4
 372 02e4 0293     		str	r3, [sp, #8]
 373 02e6 40F20003 		movw	r3, #:lower16:heap_end.10971
 374 02ea C0F20003 		movt	r3, #:upper16:heap_end.10971
 375 02ee 1A68     		ldr	r2, [r3, #0]
 376 02f0 019B     		ldr	r3, [sp, #4]
 377 02f2 D218     		adds	r2, r2, r3
 378 02f4 029B     		ldr	r3, [sp, #8]
 379 02f6 9A42     		cmp	r2, r3
 380 02f8 08D9     		bls	.L25
 381 02fa FFF7FEFF 		bl	__errno
 382 02fe 0346     		mov	r3, r0
 383 0300 4FF00C02 		mov	r2, #12
 384 0304 1A60     		str	r2, [r3, #0]
 385 0306 4FF0FF33 		mov	r3, #-1
 386 030a 0CE0     		b	.L26
 387              	.L25:
 388 030c 40F20003 		movw	r3, #:lower16:heap_end.10971
 389 0310 C0F20003 		movt	r3, #:upper16:heap_end.10971
 390 0314 1A68     		ldr	r2, [r3, #0]
 391 0316 019B     		ldr	r3, [sp, #4]
 392 0318 D218     		adds	r2, r2, r3
 393 031a 40F20003 		movw	r3, #:lower16:heap_end.10971
 394 031e C0F20003 		movt	r3, #:upper16:heap_end.10971
 395 0322 1A60     		str	r2, [r3, #0]
 396 0324 039B     		ldr	r3, [sp, #12]
 397              	.L26:
 398 0326 1846     		mov	r0, r3
 399 0328 04B0     		add	sp, sp, #16
 400 032a 10BD     		pop	{r4, pc}
 402              		.global	__aeabi_f2d
 403              		.global	__aeabi_d2f
 404              		.align	2
 405              		.global	sphereFit
 406              		.thumb
 407              		.thumb_func
 409              	sphereFit:
 410              		@ args = 12, pretend = 0, frame = 288
 411              		@ frame_needed = 0, uses_anonymous_args = 0
 412 032c F0B5     		push	{r4, r5, r6, r7, lr}
 413 032e C9B0     		sub	sp, sp, #292
 414 0330 03AC     		add	r4, sp, #12
 415 0332 2060     		str	r0, [r4, #0]
 416 0334 01A8     		add	r0, sp, #4
 417 0336 0360     		str	r3, [r0, #0]	@ float
 418 0338 0DF10A03 		add	r3, sp, #10
 419 033c 1980     		strh	r1, [r3, #0]	@ movhi
 420 033e 02AB     		add	r3, sp, #8
 421 0340 1A80     		strh	r2, [r3, #0]	@ movhi
 422 0342 4FF00003 		mov	r3, #0
 423 0346 8DF81F31 		strb	r3, [sp, #287]
 424 034a 84E0     		b	.L28
 425              	.L29:
 426 034c 9DF81F61 		ldrb	r6, [sp, #287]	@ zero_extendqisi2
 427 0350 9DF81F21 		ldrb	r2, [sp, #287]	@ zero_extendqisi2
 428 0354 9DF81F11 		ldrb	r1, [sp, #287]	@ zero_extendqisi2
 429 0358 9DF81F01 		ldrb	r0, [sp, #287]	@ zero_extendqisi2
 430 035c 9DF81F41 		ldrb	r4, [sp, #287]	@ zero_extendqisi2
 431 0360 9DF81F51 		ldrb	r5, [sp, #287]	@ zero_extendqisi2
 432 0364 9DF81F31 		ldrb	r3, [sp, #287]	@ zero_extendqisi2
 433 0368 4FEA8307 		lsl	r7, r3, #2
 434 036c 0DF5907C 		add	ip, sp, #288
 435 0370 6744     		add	r7, ip, r7
 436 0372 A7F1D407 		sub	r7, r7, #212
 437 0376 DFF86CEC 		ldr	lr, .L49	@ float
 438 037a C7F800E0 		str	lr, [r7, #0]	@ float
 439 037e 4FEA8303 		lsl	r3, r3, #2
 440 0382 0DF5907C 		add	ip, sp, #288
 441 0386 6344     		add	r3, ip, r3
 442 0388 A3F1D403 		sub	r3, r3, #212
 443 038c 1F68     		ldr	r7, [r3, #0]	@ float
 444 038e 4FEA8503 		lsl	r3, r5, #2
 445 0392 0DF5907C 		add	ip, sp, #288
 446 0396 6344     		add	r3, ip, r3
 447 0398 43F8C87C 		str	r7, [r3, #-200]	@ float
 448 039c 4FEA8503 		lsl	r3, r5, #2
 449 03a0 0DF5907C 		add	ip, sp, #288
 450 03a4 6344     		add	r3, ip, r3
 451 03a6 53F8C85C 		ldr	r5, [r3, #-200]	@ float
 452 03aa 4FEA8403 		lsl	r3, r4, #2
 453 03ae 0DF5907C 		add	ip, sp, #288
 454 03b2 6344     		add	r3, ip, r3
 455 03b4 A3F1BC03 		sub	r3, r3, #188
 456 03b8 1D60     		str	r5, [r3, #0]	@ float
 457 03ba 4FEA8403 		lsl	r3, r4, #2
 458 03be 0DF5907C 		add	ip, sp, #288
 459 03c2 6344     		add	r3, ip, r3
 460 03c4 A3F1BC03 		sub	r3, r3, #188
 461 03c8 1C68     		ldr	r4, [r3, #0]	@ float
 462 03ca 4FEA8003 		lsl	r3, r0, #2
 463 03ce 0DF5907C 		add	ip, sp, #288
 464 03d2 6344     		add	r3, ip, r3
 465 03d4 43F8984C 		str	r4, [r3, #-152]	@ float
 466 03d8 4FEA8003 		lsl	r3, r0, #2
 467 03dc 48A8     		add	r0, sp, #288
 468 03de C318     		adds	r3, r0, r3
 469 03e0 53F8980C 		ldr	r0, [r3, #-152]	@ float
 470 03e4 4FEA8103 		lsl	r3, r1, #2
 471 03e8 0DF5907C 		add	ip, sp, #288
 472 03ec 6344     		add	r3, ip, r3
 473 03ee A3F18C03 		sub	r3, r3, #140
 474 03f2 1860     		str	r0, [r3, #0]	@ float
 475 03f4 4FEA8103 		lsl	r3, r1, #2
 476 03f8 48A8     		add	r0, sp, #288
 477 03fa C318     		adds	r3, r0, r3
 478 03fc A3F18C03 		sub	r3, r3, #140
 479 0400 1968     		ldr	r1, [r3, #0]	@ float
 480 0402 4FEA8203 		lsl	r3, r2, #2
 481 0406 0DF5907C 		add	ip, sp, #288
 482 040a 6344     		add	r3, ip, r3
 483 040c 43F8801C 		str	r1, [r3, #-128]	@ float
 484 0410 4FEA8203 		lsl	r3, r2, #2
 485 0414 48A8     		add	r0, sp, #288
 486 0416 C318     		adds	r3, r0, r3
 487 0418 53F8802C 		ldr	r2, [r3, #-128]	@ float
 488 041c 4FEA8603 		lsl	r3, r6, #2
 489 0420 48A9     		add	r1, sp, #288
 490 0422 CB18     		adds	r3, r1, r3
 491 0424 A3F17403 		sub	r3, r3, #116
 492 0428 1A60     		str	r2, [r3, #0]	@ float
 493 042a 9DF81F11 		ldrb	r1, [sp, #287]	@ zero_extendqisi2
 494 042e 4E9B     		ldr	r3, [sp, #312]
 495 0430 03F10603 		add	r3, r3, #6
 496 0434 9DF81F21 		ldrb	r2, [sp, #287]	@ zero_extendqisi2
 497 0438 4FF00000 		mov	r0, #0
 498 043c 23F81200 		strh	r0, [r3, r2, lsl #1]	@ movhi
 499 0440 33F81220 		ldrh	r2, [r3, r2, lsl #1]
 500 0444 4E9B     		ldr	r3, [sp, #312]
 501 0446 23F81120 		strh	r2, [r3, r1, lsl #1]	@ movhi
 502 044a 9DF81F31 		ldrb	r3, [sp, #287]
 503 044e 03F10103 		add	r3, r3, #1
 504 0452 8DF81F31 		strb	r3, [sp, #287]
 505              	.L28:
 506 0456 9DF81F31 		ldrb	r3, [sp, #287]	@ zero_extendqisi2
 507 045a 022B     		cmp	r3, #2
 508 045c 7FF676AF 		bls	.L29
 509 0460 DFF8803B 		ldr	r3, .L49	@ float
 510 0464 4393     		str	r3, [sp, #268]	@ float
 511 0466 439B     		ldr	r3, [sp, #268]	@ float
 512 0468 4493     		str	r3, [sp, #272]	@ float
 513 046a 449B     		ldr	r3, [sp, #272]	@ float
 514 046c 4593     		str	r3, [sp, #276]	@ float
 515 046e 4FF00003 		mov	r3, #0
 516 0472 ADF81C31 		strh	r3, [sp, #284]	@ movhi
 517 0476 DBE1     		b	.L30
 518              	.L35:
 519 0478 4FF00003 		mov	r3, #0
 520 047c 8DF81F31 		strb	r3, [sp, #287]
 521 0480 D5E0     		b	.L31
 522              	.L34:
 523 0482 9DF81F11 		ldrb	r1, [sp, #287]	@ zero_extendqisi2
 524 0486 BDF81C21 		ldrh	r2, [sp, #284]
 525 048a 1346     		mov	r3, r2
 526 048c 4FEA4303 		lsl	r3, r3, #1
 527 0490 9B18     		adds	r3, r3, r2
 528 0492 4FEA8303 		lsl	r3, r3, #2
 529 0496 03AA     		add	r2, sp, #12
 530 0498 1268     		ldr	r2, [r2, #0]
 531 049a D218     		adds	r2, r2, r3
 532 049c 9DF81F31 		ldrb	r3, [sp, #287]	@ zero_extendqisi2
 533 04a0 4FEA8303 		lsl	r3, r3, #2
 534 04a4 D318     		adds	r3, r2, r3
 535 04a6 93ED007A 		flds	s14, [r3, #0]
 536 04aa BDF81C21 		ldrh	r2, [sp, #284]
 537 04ae 1346     		mov	r3, r2
 538 04b0 4FEA4303 		lsl	r3, r3, #1
 539 04b4 9B18     		adds	r3, r3, r2
 540 04b6 4FEA8303 		lsl	r3, r3, #2
 541 04ba 03AA     		add	r2, sp, #12
 542 04bc 1268     		ldr	r2, [r2, #0]
 543 04be D218     		adds	r2, r2, r3
 544 04c0 9DF81F31 		ldrb	r3, [sp, #287]	@ zero_extendqisi2
 545 04c4 4FEA8303 		lsl	r3, r3, #2
 546 04c8 D318     		adds	r3, r2, r3
 547 04ca D3ED007A 		flds	s15, [r3, #0]
 548 04ce 67EE277A 		fmuls	s15, s14, s15
 549 04d2 4FEA8103 		lsl	r3, r1, #2
 550 04d6 04AA     		add	r2, sp, #16
 551 04d8 D318     		adds	r3, r2, r3
 552 04da C3ED007A 		fsts	s15, [r3, #0]
 553 04de 9DF81F11 		ldrb	r1, [sp, #287]	@ zero_extendqisi2
 554 04e2 9DF81F31 		ldrb	r3, [sp, #287]	@ zero_extendqisi2
 555 04e6 4FEA8303 		lsl	r3, r3, #2
 556 04ea 48AA     		add	r2, sp, #288
 557 04ec D318     		adds	r3, r2, r3
 558 04ee A3F17403 		sub	r3, r3, #116
 559 04f2 93ED007A 		flds	s14, [r3, #0]
 560 04f6 BDF81C21 		ldrh	r2, [sp, #284]
 561 04fa 1346     		mov	r3, r2
 562 04fc 4FEA4303 		lsl	r3, r3, #1
 563 0500 9B18     		adds	r3, r3, r2
 564 0502 4FEA8303 		lsl	r3, r3, #2
 565 0506 03AA     		add	r2, sp, #12
 566 0508 1268     		ldr	r2, [r2, #0]
 567 050a D218     		adds	r2, r2, r3
 568 050c 9DF81F31 		ldrb	r3, [sp, #287]	@ zero_extendqisi2
 569 0510 4FEA8303 		lsl	r3, r3, #2
 570 0514 D318     		adds	r3, r2, r3
 571 0516 D3ED007A 		flds	s15, [r3, #0]
 572 051a 77EE277A 		fadds	s15, s14, s15
 573 051e 4FEA8103 		lsl	r3, r1, #2
 574 0522 0DF5907C 		add	ip, sp, #288
 575 0526 6344     		add	r3, ip, r3
 576 0528 A3F17403 		sub	r3, r3, #116
 577 052c C3ED007A 		fsts	s15, [r3, #0]
 578 0530 9DF81F21 		ldrb	r2, [sp, #287]	@ zero_extendqisi2
 579 0534 9DF81F31 		ldrb	r3, [sp, #287]	@ zero_extendqisi2
 580 0538 4FEA8303 		lsl	r3, r3, #2
 581 053c 48A8     		add	r0, sp, #288
 582 053e C318     		adds	r3, r0, r3
 583 0540 13ED207A 		flds	s14, [r3, #-128]
 584 0544 9DF81F31 		ldrb	r3, [sp, #287]	@ zero_extendqisi2
 585 0548 4FEA8303 		lsl	r3, r3, #2
 586 054c 04A9     		add	r1, sp, #16
 587 054e CB18     		adds	r3, r1, r3
 588 0550 D3ED007A 		flds	s15, [r3, #0]
 589 0554 77EE277A 		fadds	s15, s14, s15
 590 0558 4FEA8203 		lsl	r3, r2, #2
 591 055c 48A9     		add	r1, sp, #288
 592 055e CB18     		adds	r3, r1, r3
 593 0560 43ED207A 		fsts	s15, [r3, #-128]
 594 0564 9DF81F11 		ldrb	r1, [sp, #287]	@ zero_extendqisi2
 595 0568 9DF81F31 		ldrb	r3, [sp, #287]	@ zero_extendqisi2
 596 056c 4FEA8303 		lsl	r3, r3, #2
 597 0570 48AA     		add	r2, sp, #288
 598 0572 D318     		adds	r3, r2, r3
 599 0574 A3F18C03 		sub	r3, r3, #140
 600 0578 93ED007A 		flds	s14, [r3, #0]
 601 057c 9DF81F31 		ldrb	r3, [sp, #287]	@ zero_extendqisi2
 602 0580 4FEA8303 		lsl	r3, r3, #2
 603 0584 04AA     		add	r2, sp, #16
 604 0586 D318     		adds	r3, r2, r3
 605 0588 D3ED006A 		flds	s13, [r3, #0]
 606 058c BDF81C21 		ldrh	r2, [sp, #284]
 607 0590 1346     		mov	r3, r2
 608 0592 4FEA4303 		lsl	r3, r3, #1
 609 0596 9B18     		adds	r3, r3, r2
 610 0598 4FEA8303 		lsl	r3, r3, #2
 611 059c 03AA     		add	r2, sp, #12
 612 059e 1268     		ldr	r2, [r2, #0]
 613 05a0 D218     		adds	r2, r2, r3
 614 05a2 9DF81F31 		ldrb	r3, [sp, #287]	@ zero_extendqisi2
 615 05a6 4FEA8303 		lsl	r3, r3, #2
 616 05aa D318     		adds	r3, r2, r3
 617 05ac D3ED007A 		flds	s15, [r3, #0]
 618 05b0 66EEA77A 		fmuls	s15, s13, s15
 619 05b4 77EE277A 		fadds	s15, s14, s15
 620 05b8 4FEA8103 		lsl	r3, r1, #2
 621 05bc 0DF5907C 		add	ip, sp, #288
 622 05c0 6344     		add	r3, ip, r3
 623 05c2 A3F18C03 		sub	r3, r3, #140
 624 05c6 C3ED007A 		fsts	s15, [r3, #0]
 625 05ca BDF81C21 		ldrh	r2, [sp, #284]
 626 05ce 1346     		mov	r3, r2
 627 05d0 4FEA4303 		lsl	r3, r3, #1
 628 05d4 9B18     		adds	r3, r3, r2
 629 05d6 4FEA8303 		lsl	r3, r3, #2
 630 05da 03AA     		add	r2, sp, #12
 631 05dc 1268     		ldr	r2, [r2, #0]
 632 05de D218     		adds	r2, r2, r3
 633 05e0 9DF81F31 		ldrb	r3, [sp, #287]	@ zero_extendqisi2
 634 05e4 4FEA8303 		lsl	r3, r3, #2
 635 05e8 D318     		adds	r3, r2, r3
 636 05ea D3ED007A 		flds	s15, [r3, #0]
 637 05ee F5EEC07A 		fcmpezs	s15
 638 05f2 F1EE10FA 		fmstat
 639 05f6 D4BF     		ite	le
 640 05f8 0023     		movle	r3, #0
 641 05fa 0123     		movgt	r3, #1
 642 05fc DBB2     		uxtb	r3, r3
 643 05fe 002B     		cmp	r3, #0
 644 0600 02D0     		beq	.L32
 645 0602 4FF00603 		mov	r3, #6
 646 0606 01E0     		b	.L33
 647              	.L32:
 648 0608 4FF00003 		mov	r3, #0
 649              	.L33:
 650 060c 4E9A     		ldr	r2, [sp, #312]
 651 060e D318     		adds	r3, r2, r3
 652 0610 9DF81F21 		ldrb	r2, [sp, #287]	@ zero_extendqisi2
 653 0614 33F81210 		ldrh	r1, [r3, r2, lsl #1]
 654 0618 01F10101 		add	r1, r1, #1
 655 061c 89B2     		uxth	r1, r1
 656 061e 23F81210 		strh	r1, [r3, r2, lsl #1]	@ movhi
 657 0622 9DF81F31 		ldrb	r3, [sp, #287]
 658 0626 03F10103 		add	r3, r3, #1
 659 062a 8DF81F31 		strb	r3, [sp, #287]
 660              	.L31:
 661 062e 9DF81F31 		ldrb	r3, [sp, #287]	@ zero_extendqisi2
 662 0632 022B     		cmp	r3, #2
 663 0634 7FF625AF 		bls	.L34
 664 0638 BDF81C21 		ldrh	r2, [sp, #284]
 665 063c 1346     		mov	r3, r2
 666 063e 4FEA4303 		lsl	r3, r3, #1
 667 0642 9B18     		adds	r3, r3, r2
 668 0644 4FEA8303 		lsl	r3, r3, #2
 669 0648 03AA     		add	r2, sp, #12
 670 064a 1268     		ldr	r2, [r2, #0]
 671 064c D318     		adds	r3, r2, r3
 672 064e 93ED007A 		flds	s14, [r3, #0]
 673 0652 BDF81C21 		ldrh	r2, [sp, #284]
 674 0656 1346     		mov	r3, r2
 675 0658 4FEA4303 		lsl	r3, r3, #1
 676 065c 9B18     		adds	r3, r3, r2
 677 065e 4FEA8303 		lsl	r3, r3, #2
 678 0662 03AA     		add	r2, sp, #12
 679 0664 1268     		ldr	r2, [r2, #0]
 680 0666 D318     		adds	r3, r2, r3
 681 0668 D3ED017A 		flds	s15, [r3, #4]
 682 066c 67EE277A 		fmuls	s15, s14, s15
 683 0670 9DED457A 		flds	s14, [sp, #276]
 684 0674 77EE277A 		fadds	s15, s14, s15
 685 0678 CDED457A 		fsts	s15, [sp, #276]
 686 067c BDF81C21 		ldrh	r2, [sp, #284]
 687 0680 1346     		mov	r3, r2
 688 0682 4FEA4303 		lsl	r3, r3, #1
 689 0686 9B18     		adds	r3, r3, r2
 690 0688 4FEA8303 		lsl	r3, r3, #2
 691 068c 03AA     		add	r2, sp, #12
 692 068e 1268     		ldr	r2, [r2, #0]
 693 0690 D318     		adds	r3, r2, r3
 694 0692 93ED007A 		flds	s14, [r3, #0]
 695 0696 BDF81C21 		ldrh	r2, [sp, #284]
 696 069a 1346     		mov	r3, r2
 697 069c 4FEA4303 		lsl	r3, r3, #1
 698 06a0 9B18     		adds	r3, r3, r2
 699 06a2 4FEA8303 		lsl	r3, r3, #2
 700 06a6 03AA     		add	r2, sp, #12
 701 06a8 1268     		ldr	r2, [r2, #0]
 702 06aa D318     		adds	r3, r2, r3
 703 06ac D3ED027A 		flds	s15, [r3, #8]
 704 06b0 67EE277A 		fmuls	s15, s14, s15
 705 06b4 9DED447A 		flds	s14, [sp, #272]
 706 06b8 77EE277A 		fadds	s15, s14, s15
 707 06bc CDED447A 		fsts	s15, [sp, #272]
 708 06c0 BDF81C21 		ldrh	r2, [sp, #284]
 709 06c4 1346     		mov	r3, r2
 710 06c6 4FEA4303 		lsl	r3, r3, #1
 711 06ca 9B18     		adds	r3, r3, r2
 712 06cc 4FEA8303 		lsl	r3, r3, #2
 713 06d0 03AA     		add	r2, sp, #12
 714 06d2 1268     		ldr	r2, [r2, #0]
 715 06d4 D318     		adds	r3, r2, r3
 716 06d6 93ED017A 		flds	s14, [r3, #4]
 717 06da BDF81C21 		ldrh	r2, [sp, #284]
 718 06de 1346     		mov	r3, r2
 719 06e0 4FEA4303 		lsl	r3, r3, #1
 720 06e4 9B18     		adds	r3, r3, r2
 721 06e6 4FEA8303 		lsl	r3, r3, #2
 722 06ea 03AA     		add	r2, sp, #12
 723 06ec 1268     		ldr	r2, [r2, #0]
 724 06ee D318     		adds	r3, r2, r3
 725 06f0 D3ED027A 		flds	s15, [r3, #8]
 726 06f4 67EE277A 		fmuls	s15, s14, s15
 727 06f8 9DED437A 		flds	s14, [sp, #268]
 728 06fc 77EE277A 		fadds	s15, s14, s15
 729 0700 CDED437A 		fsts	s15, [sp, #268]
 730 0704 9DED1A7A 		flds	s14, [sp, #104]
 731 0708 04AB     		add	r3, sp, #16
 732 070a D3ED006A 		flds	s13, [r3, #0]
 733 070e BDF81C21 		ldrh	r2, [sp, #284]
 734 0712 1346     		mov	r3, r2
 735 0714 4FEA4303 		lsl	r3, r3, #1
 736 0718 9B18     		adds	r3, r3, r2
 737 071a 4FEA8303 		lsl	r3, r3, #2
 738 071e 03AA     		add	r2, sp, #12
 739 0720 1268     		ldr	r2, [r2, #0]
 740 0722 D318     		adds	r3, r2, r3
 741 0724 D3ED017A 		flds	s15, [r3, #4]
 742 0728 66EEA77A 		fmuls	s15, s13, s15
 743 072c 77EE277A 		fadds	s15, s14, s15
 744 0730 CDED1A7A 		fsts	s15, [sp, #104]
 745 0734 9DED1B7A 		flds	s14, [sp, #108]
 746 0738 04AB     		add	r3, sp, #16
 747 073a D3ED006A 		flds	s13, [r3, #0]
 748 073e BDF81C21 		ldrh	r2, [sp, #284]
 749 0742 1346     		mov	r3, r2
 750 0744 4FEA4303 		lsl	r3, r3, #1
 751 0748 9B18     		adds	r3, r3, r2
 752 074a 4FEA8303 		lsl	r3, r3, #2
 753 074e 03AA     		add	r2, sp, #12
 754 0750 1268     		ldr	r2, [r2, #0]
 755 0752 D318     		adds	r3, r2, r3
 756 0754 D3ED027A 		flds	s15, [r3, #8]
 757 0758 66EEA77A 		fmuls	s15, s13, s15
 758 075c 77EE277A 		fadds	s15, s14, s15
 759 0760 CDED1B7A 		fsts	s15, [sp, #108]
 760 0764 9DED167A 		flds	s14, [sp, #88]
 761 0768 04AB     		add	r3, sp, #16
 762 076a D3ED016A 		flds	s13, [r3, #4]
 763 076e BDF81C21 		ldrh	r2, [sp, #284]
 764 0772 1346     		mov	r3, r2
 765 0774 4FEA4303 		lsl	r3, r3, #1
 766 0778 9B18     		adds	r3, r3, r2
 767 077a 4FEA8303 		lsl	r3, r3, #2
 768 077e 03AA     		add	r2, sp, #12
 769 0780 1268     		ldr	r2, [r2, #0]
 770 0782 D318     		adds	r3, r2, r3
 771 0784 D3ED007A 		flds	s15, [r3, #0]
 772 0788 66EEA77A 		fmuls	s15, s13, s15
 773 078c 77EE277A 		fadds	s15, s14, s15
 774 0790 CDED167A 		fsts	s15, [sp, #88]
 775 0794 9DED187A 		flds	s14, [sp, #96]
 776 0798 04AB     		add	r3, sp, #16
 777 079a D3ED016A 		flds	s13, [r3, #4]
 778 079e BDF81C21 		ldrh	r2, [sp, #284]
 779 07a2 1346     		mov	r3, r2
 780 07a4 4FEA4303 		lsl	r3, r3, #1
 781 07a8 9B18     		adds	r3, r3, r2
 782 07aa 4FEA8303 		lsl	r3, r3, #2
 783 07ae 03AA     		add	r2, sp, #12
 784 07b0 1268     		ldr	r2, [r2, #0]
 785 07b2 D318     		adds	r3, r2, r3
 786 07b4 D3ED027A 		flds	s15, [r3, #8]
 787 07b8 66EEA77A 		fmuls	s15, s13, s15
 788 07bc 77EE277A 		fadds	s15, s14, s15
 789 07c0 CDED187A 		fsts	s15, [sp, #96]
 790 07c4 9DED137A 		flds	s14, [sp, #76]
 791 07c8 04AB     		add	r3, sp, #16
 792 07ca D3ED026A 		flds	s13, [r3, #8]
 793 07ce BDF81C21 		ldrh	r2, [sp, #284]
 794 07d2 1346     		mov	r3, r2
 795 07d4 4FEA4303 		lsl	r3, r3, #1
 796 07d8 9B18     		adds	r3, r3, r2
 797 07da 4FEA8303 		lsl	r3, r3, #2
 798 07de 03AA     		add	r2, sp, #12
 799 07e0 1268     		ldr	r2, [r2, #0]
 800 07e2 D318     		adds	r3, r2, r3
 801 07e4 D3ED007A 		flds	s15, [r3, #0]
 802 07e8 66EEA77A 		fmuls	s15, s13, s15
 803 07ec 77EE277A 		fadds	s15, s14, s15
 804 07f0 CDED137A 		fsts	s15, [sp, #76]
 805 07f4 9DED147A 		flds	s14, [sp, #80]
 806 07f8 04AB     		add	r3, sp, #16
 807 07fa D3ED026A 		flds	s13, [r3, #8]
 808 07fe BDF81C21 		ldrh	r2, [sp, #284]
 809 0802 1346     		mov	r3, r2
 810 0804 4FEA4303 		lsl	r3, r3, #1
 811 0808 9B18     		adds	r3, r3, r2
 812 080a 4FEA8303 		lsl	r3, r3, #2
 813 080e 03AA     		add	r2, sp, #12
 814 0810 1268     		ldr	r2, [r2, #0]
 815 0812 D318     		adds	r3, r2, r3
 816 0814 D3ED017A 		flds	s15, [r3, #4]
 817 0818 66EEA77A 		fmuls	s15, s13, s15
 818 081c 77EE277A 		fadds	s15, s14, s15
 819 0820 CDED147A 		fsts	s15, [sp, #80]
 820 0824 BDF81C31 		ldrh	r3, [sp, #284]	@ movhi
 821 0828 03F10103 		add	r3, r3, #1
 822 082c ADF81C31 		strh	r3, [sp, #284]	@ movhi
 823              	.L30:
 824 0830 BDF81C21 		ldrh	r2, [sp, #284]
 825 0834 0DF10A03 		add	r3, sp, #10
 826 0838 1B88     		ldrh	r3, [r3, #0]
 827 083a 9A42     		cmp	r2, r3
 828 083c FFF41CAE 		bcc	.L35
 829 0840 0DF10A03 		add	r3, sp, #10
 830 0844 1B88     		ldrh	r3, [r3, #0]
 831 0846 07EE103A 		fmsr	s14, r3	@ int
 832 084a F8EE477A 		fuitos	s15, s14
 833 084e B7EE007A 		fconsts	s14, #112
 834 0852 C7EE277A 		fdivs	s15, s14, s15
 835 0856 CDED3F7A 		fsts	s15, [sp, #252]
 836 085a 4FF00003 		mov	r3, #0
 837 085e 8DF81F31 		strb	r3, [sp, #287]
 838 0862 48E0     		b	.L36
 839              	.L37:
 840 0864 9DF81F31 		ldrb	r3, [sp, #287]	@ zero_extendqisi2
 841 0868 9DF81F21 		ldrb	r2, [sp, #287]	@ zero_extendqisi2
 842 086c 4FEA8202 		lsl	r2, r2, #2
 843 0870 48A8     		add	r0, sp, #288
 844 0872 8218     		adds	r2, r0, r2
 845 0874 A2F17402 		sub	r2, r2, #116
 846 0878 92ED007A 		flds	s14, [r2, #0]
 847 087c DDED3F7A 		flds	s15, [sp, #252]
 848 0880 67EE277A 		fmuls	s15, s14, s15
 849 0884 4FEA8303 		lsl	r3, r3, #2
 850 0888 48A9     		add	r1, sp, #288
 851 088a CB18     		adds	r3, r1, r3
 852 088c 43ED267A 		fsts	s15, [r3, #-152]
 853 0890 9DF81F21 		ldrb	r2, [sp, #287]	@ zero_extendqisi2
 854 0894 9DF81F31 		ldrb	r3, [sp, #287]	@ zero_extendqisi2
 855 0898 4FEA8303 		lsl	r3, r3, #2
 856 089c 0DF5907C 		add	ip, sp, #288
 857 08a0 6344     		add	r3, ip, r3
 858 08a2 13ED207A 		flds	s14, [r3, #-128]
 859 08a6 DDED3F7A 		flds	s15, [sp, #252]
 860 08aa 67EE277A 		fmuls	s15, s14, s15
 861 08ae 4FEA8203 		lsl	r3, r2, #2
 862 08b2 48A8     		add	r0, sp, #288
 863 08b4 C318     		adds	r3, r0, r3
 864 08b6 A3F1A403 		sub	r3, r3, #164
 865 08ba C3ED007A 		fsts	s15, [r3, #0]
 866 08be 9DF81F31 		ldrb	r3, [sp, #287]	@ zero_extendqisi2
 867 08c2 9DF81F21 		ldrb	r2, [sp, #287]	@ zero_extendqisi2
 868 08c6 4FEA8202 		lsl	r2, r2, #2
 869 08ca 48A9     		add	r1, sp, #288
 870 08cc 8A18     		adds	r2, r1, r2
 871 08ce A2F18C02 		sub	r2, r2, #140
 872 08d2 92ED007A 		flds	s14, [r2, #0]
 873 08d6 DDED3F7A 		flds	s15, [sp, #252]
 874 08da 67EE277A 		fmuls	s15, s14, s15
 875 08de 4FEA8303 		lsl	r3, r3, #2
 876 08e2 48AA     		add	r2, sp, #288
 877 08e4 D318     		adds	r3, r2, r3
 878 08e6 43ED2C7A 		fsts	s15, [r3, #-176]
 879 08ea 9DF81F31 		ldrb	r3, [sp, #287]
 880 08ee 03F10103 		add	r3, r3, #1
 881 08f2 8DF81F31 		strb	r3, [sp, #287]
 882              	.L36:
 883 08f6 9DF81F31 		ldrb	r3, [sp, #287]	@ zero_extendqisi2
 884 08fa 022B     		cmp	r3, #2
 885 08fc B2D9     		bls	.L37
 886 08fe 9DED457A 		flds	s14, [sp, #276]
 887 0902 DDED3F7A 		flds	s15, [sp, #252]
 888 0906 67EE277A 		fmuls	s15, s14, s15
 889 090a CDED3E7A 		fsts	s15, [sp, #248]
 890 090e 9DED447A 		flds	s14, [sp, #272]
 891 0912 DDED3F7A 		flds	s15, [sp, #252]
 892 0916 67EE277A 		fmuls	s15, s14, s15
 893 091a CDED3D7A 		fsts	s15, [sp, #244]
 894 091e 9DED437A 		flds	s14, [sp, #268]
 895 0922 DDED3F7A 		flds	s15, [sp, #252]
 896 0926 67EE277A 		fmuls	s15, s14, s15
 897 092a CDED3C7A 		fsts	s15, [sp, #240]
 898 092e 9DED1A7A 		flds	s14, [sp, #104]
 899 0932 DDED3F7A 		flds	s15, [sp, #252]
 900 0936 67EE277A 		fmuls	s15, s14, s15
 901 093a CDED3B7A 		fsts	s15, [sp, #236]
 902 093e 9DED1B7A 		flds	s14, [sp, #108]
 903 0942 DDED3F7A 		flds	s15, [sp, #252]
 904 0946 67EE277A 		fmuls	s15, s14, s15
 905 094a CDED3A7A 		fsts	s15, [sp, #232]
 906 094e 9DED167A 		flds	s14, [sp, #88]
 907 0952 DDED3F7A 		flds	s15, [sp, #252]
 908 0956 67EE277A 		fmuls	s15, s14, s15
 909 095a CDED397A 		fsts	s15, [sp, #228]
 910 095e 9DED187A 		flds	s14, [sp, #96]
 911 0962 DDED3F7A 		flds	s15, [sp, #252]
 912 0966 67EE277A 		fmuls	s15, s14, s15
 913 096a CDED387A 		fsts	s15, [sp, #224]
 914 096e 9DED137A 		flds	s14, [sp, #76]
 915 0972 DDED3F7A 		flds	s15, [sp, #252]
 916 0976 67EE277A 		fmuls	s15, s14, s15
 917 097a CDED377A 		fsts	s15, [sp, #220]
 918 097e 9DED147A 		flds	s14, [sp, #80]
 919 0982 DDED3F7A 		flds	s15, [sp, #252]
 920 0986 67EE277A 		fmuls	s15, s14, s15
 921 098a CDED367A 		fsts	s15, [sp, #216]
 922 098e 9DED1F7A 		flds	s14, [sp, #124]
 923 0992 DDED207A 		flds	s15, [sp, #128]
 924 0996 37EE277A 		fadds	s14, s14, s15
 925 099a DDED217A 		flds	s15, [sp, #132]
 926 099e 77EE277A 		fadds	s15, s14, s15
 927 09a2 CDED357A 		fsts	s15, [sp, #212]
 928 09a6 9DED357A 		flds	s14, [sp, #212]
 929 09aa F6EE007A 		fconsts	s15, #96
 930 09ae 67EE277A 		fmuls	s15, s14, s15
 931 09b2 CDED347A 		fsts	s15, [sp, #208]
 932 09b6 9DED1C7A 		flds	s14, [sp, #112]
 933 09ba DDED397A 		flds	s15, [sp, #228]
 934 09be 37EE277A 		fadds	s14, s14, s15
 935 09c2 DDED377A 		flds	s15, [sp, #220]
 936 09c6 37EE277A 		fadds	s14, s14, s15
 937 09ca FAEE007A 		fconsts	s15, #160
 938 09ce 67EE277A 		fmuls	s15, s14, s15
 939 09d2 CDED337A 		fsts	s15, [sp, #204]
 940 09d6 9DED1D7A 		flds	s14, [sp, #116]
 941 09da DDED3B7A 		flds	s15, [sp, #236]
 942 09de 37EE277A 		fadds	s14, s14, s15
 943 09e2 DDED367A 		flds	s15, [sp, #216]
 944 09e6 37EE277A 		fadds	s14, s14, s15
 945 09ea FAEE007A 		fconsts	s15, #160
 946 09ee 67EE277A 		fmuls	s15, s14, s15
 947 09f2 CDED327A 		fsts	s15, [sp, #200]
 948 09f6 9DED3A7A 		flds	s14, [sp, #232]
 949 09fa DDED387A 		flds	s15, [sp, #224]
 950 09fe 37EE277A 		fadds	s14, s14, s15
 951 0a02 DDED1E7A 		flds	s15, [sp, #120]
 952 0a06 37EE277A 		fadds	s14, s14, s15
 953 0a0a FAEE007A 		fconsts	s15, #160
 954 0a0e 67EE277A 		fmuls	s15, s14, s15
 955 0a12 CDED317A 		fsts	s15, [sp, #196]
 956 0a16 4FF00003 		mov	r3, #0
 957 0a1a 8DF81F31 		strb	r3, [sp, #287]
 958 0a1e 33E0     		b	.L38
 959              	.L39:
 960 0a20 9DF81F11 		ldrb	r1, [sp, #287]	@ zero_extendqisi2
 961 0a24 9DF81F31 		ldrb	r3, [sp, #287]	@ zero_extendqisi2
 962 0a28 4FEA8303 		lsl	r3, r3, #2
 963 0a2c 0DF5907C 		add	ip, sp, #288
 964 0a30 6344     		add	r3, ip, r3
 965 0a32 53F8982C 		ldr	r2, [r3, #-152]	@ float
 966 0a36 4FEA8103 		lsl	r3, r1, #2
 967 0a3a 48A8     		add	r0, sp, #288
 968 0a3c C318     		adds	r3, r0, r3
 969 0a3e 43F8E02C 		str	r2, [r3, #-224]	@ float
 970 0a42 9DF81F21 		ldrb	r2, [sp, #287]	@ zero_extendqisi2
 971 0a46 9DF81F31 		ldrb	r3, [sp, #287]	@ zero_extendqisi2
 972 0a4a 4FEA8303 		lsl	r3, r3, #2
 973 0a4e 48A9     		add	r1, sp, #288
 974 0a50 CB18     		adds	r3, r1, r3
 975 0a52 13ED387A 		flds	s14, [r3, #-224]
 976 0a56 9DF81F31 		ldrb	r3, [sp, #287]	@ zero_extendqisi2
 977 0a5a 4FEA8303 		lsl	r3, r3, #2
 978 0a5e 0DF5907C 		add	ip, sp, #288
 979 0a62 6344     		add	r3, ip, r3
 980 0a64 53ED387A 		flds	s15, [r3, #-224]
 981 0a68 67EE277A 		fmuls	s15, s14, s15
 982 0a6c 4FEA8203 		lsl	r3, r2, #2
 983 0a70 48A8     		add	r0, sp, #288
 984 0a72 C318     		adds	r3, r0, r3
 985 0a74 A3F1EC03 		sub	r3, r3, #236
 986 0a78 C3ED007A 		fsts	s15, [r3, #0]
 987 0a7c 9DF81F31 		ldrb	r3, [sp, #287]
 988 0a80 03F10103 		add	r3, r3, #1
 989 0a84 8DF81F31 		strb	r3, [sp, #287]
 990              	.L38:
 991 0a88 9DF81F31 		ldrb	r3, [sp, #287]	@ zero_extendqisi2
 992 0a8c 022B     		cmp	r3, #2
 993 0a8e C7D9     		bls	.L39
 994 0a90 9DED0D7A 		flds	s14, [sp, #52]
 995 0a94 DDED0E7A 		flds	s15, [sp, #56]
 996 0a98 37EE277A 		fadds	s14, s14, s15
 997 0a9c DDED0F7A 		flds	s15, [sp, #60]
 998 0aa0 77EE277A 		fadds	s15, s14, s15
 999 0aa4 CDED307A 		fsts	s15, [sp, #192]
 1000 0aa8 9DED107A 		flds	s14, [sp, #64]
 1001 0aac DDED107A 		flds	s15, [sp, #64]
 1002 0ab0 27EE277A 		fmuls	s14, s14, s15
 1003 0ab4 DDED116A 		flds	s13, [sp, #68]
 1004 0ab8 DDED117A 		flds	s15, [sp, #68]
 1005 0abc 66EEA77A 		fmuls	s15, s13, s15
 1006 0ac0 37EE277A 		fadds	s14, s14, s15
 1007 0ac4 DDED126A 		flds	s13, [sp, #72]
 1008 0ac8 DDED127A 		flds	s15, [sp, #72]
 1009 0acc 66EEA77A 		fmuls	s15, s13, s15
 1010 0ad0 37EE277A 		fadds	s14, s14, s15
 1011 0ad4 F8EE007A 		fconsts	s15, #128
 1012 0ad8 67EE277A 		fmuls	s15, s14, s15
 1013 0adc CDED2F7A 		fsts	s15, [sp, #188]
 1014 0ae0 9DED357A 		flds	s14, [sp, #212]
 1015 0ae4 DDED2F7A 		flds	s15, [sp, #188]
 1016 0ae8 37EE277A 		fadds	s14, s14, s15
 1017 0aec DDED307A 		flds	s15, [sp, #192]
 1018 0af0 77EE277A 		fadds	s15, s14, s15
 1019 0af4 CDED2E7A 		fsts	s15, [sp, #184]
 1020 0af8 9DED307A 		flds	s14, [sp, #192]
 1021 0afc DDED2E7A 		flds	s15, [sp, #184]
 1022 0b00 37EE677A 		fsubs	s14, s14, s15
 1023 0b04 F6EE007A 		fconsts	s15, #96
 1024 0b08 67EE277A 		fmuls	s15, s14, s15
 1025 0b0c CDED427A 		fsts	s15, [sp, #264]
 1026 0b10 9DED347A 		flds	s14, [sp, #208]
 1027 0b14 DDED427A 		flds	s15, [sp, #264]
 1028 0b18 77EE277A 		fadds	s15, s14, s15
 1029 0b1c CDED417A 		fsts	s15, [sp, #260]
 1030 0b20 9DED307A 		flds	s14, [sp, #192]
 1031 0b24 DDED2E7A 		flds	s15, [sp, #184]
 1032 0b28 37EE677A 		fsubs	s14, s14, s15
 1033 0b2c DDED2F7A 		flds	s15, [sp, #188]
 1034 0b30 37EE277A 		fadds	s14, s14, s15
 1035 0b34 DDED357A 		flds	s15, [sp, #212]
 1036 0b38 37EE277A 		fadds	s14, s14, s15
 1037 0b3c F2EE007A 		fconsts	s15, #32
 1038 0b40 67EE277A 		fmuls	s15, s14, s15
 1039 0b44 CDED407A 		fsts	s15, [sp, #256]
 1040 0b48 4FF00003 		mov	r3, #0
 1041 0b4c ADF81A31 		strh	r3, [sp, #282]	@ movhi
 1042              	.L45:
 1043 0b50 4FF00003 		mov	r3, #0
 1044 0b54 8DF81F31 		strb	r3, [sp, #287]
 1045 0b58 57E0     		b	.L40
 1046              	.L42:
 1047 0b5a 9DF81F21 		ldrb	r2, [sp, #287]	@ zero_extendqisi2
 1048 0b5e 9DF81F31 		ldrb	r3, [sp, #287]	@ zero_extendqisi2
 1049 0b62 4FEA8303 		lsl	r3, r3, #2
 1050 0b66 48A9     		add	r1, sp, #288
 1051 0b68 CB18     		adds	r3, r1, r3
 1052 0b6a A3F1EC03 		sub	r3, r3, #236
 1053 0b6e 93ED007A 		flds	s14, [r3, #0]
 1054 0b72 9DF81F31 		ldrb	r3, [sp, #287]	@ zero_extendqisi2
 1055 0b76 4FEA8303 		lsl	r3, r3, #2
 1056 0b7a 0DF5907C 		add	ip, sp, #288
 1057 0b7e 6344     		add	r3, ip, r3
 1058 0b80 53ED387A 		flds	s15, [r3, #-224]
 1059 0b84 77EEA76A 		fadds	s13, s15, s15
 1060 0b88 9DF81F31 		ldrb	r3, [sp, #287]	@ zero_extendqisi2
 1061 0b8c 4FEA8303 		lsl	r3, r3, #2
 1062 0b90 48A8     		add	r0, sp, #288
 1063 0b92 C318     		adds	r3, r0, r3
 1064 0b94 53ED267A 		flds	s15, [r3, #-152]
 1065 0b98 66EEA77A 		fmuls	s15, s13, s15
 1066 0b9c 37EE677A 		fsubs	s14, s14, s15
 1067 0ba0 9DF81F31 		ldrb	r3, [sp, #287]	@ zero_extendqisi2
 1068 0ba4 4FEA8303 		lsl	r3, r3, #2
 1069 0ba8 48A9     		add	r1, sp, #288
 1070 0baa CB18     		adds	r3, r1, r3
 1071 0bac A3F1A403 		sub	r3, r3, #164
 1072 0bb0 D3ED007A 		flds	s15, [r3, #0]
 1073 0bb4 37EE277A 		fadds	s14, s14, s15
 1074 0bb8 F3EE007A 		fconsts	s15, #48
 1075 0bbc 67EE277A 		fmuls	s15, s14, s15
 1076 0bc0 9DED407A 		flds	s14, [sp, #256]
 1077 0bc4 77EE877A 		fadds	s15, s15, s14
 1078 0bc8 4FEA8203 		lsl	r3, r2, #2
 1079 0bcc 07AA     		add	r2, sp, #28
 1080 0bce D318     		adds	r3, r2, r3
 1081 0bd0 C3ED007A 		fsts	s15, [r3, #0]
 1082 0bd4 9DF81F31 		ldrb	r3, [sp, #287]	@ zero_extendqisi2
 1083 0bd8 4FEA8303 		lsl	r3, r3, #2
 1084 0bdc 07AA     		add	r2, sp, #28
 1085 0bde D318     		adds	r3, r2, r3
 1086 0be0 D3ED007A 		flds	s15, [r3, #0]
 1087 0be4 F5EE407A 		fcmpzs	s15
 1088 0be8 F1EE10FA 		fmstat
 1089 0bec 07D1     		bne	.L41
 1090 0bee 9DF81F31 		ldrb	r3, [sp, #287]	@ zero_extendqisi2
 1091 0bf2 4FEA8303 		lsl	r3, r3, #2
 1092 0bf6 07AA     		add	r2, sp, #28
 1093 0bf8 D318     		adds	r3, r2, r3
 1094 0bfa FB4A     		ldr	r2, .L49+4	@ float
 1095 0bfc 1A60     		str	r2, [r3, #0]	@ float
 1096              	.L41:
 1097 0bfe 9DF81F31 		ldrb	r3, [sp, #287]
 1098 0c02 03F10103 		add	r3, r3, #1
 1099 0c06 8DF81F31 		strb	r3, [sp, #287]
 1100              	.L40:
 1101 0c0a 9DF81F31 		ldrb	r3, [sp, #287]	@ zero_extendqisi2
 1102 0c0e 022B     		cmp	r3, #2
 1103 0c10 A3D9     		bls	.L42
 1104 0c12 9DED117A 		flds	s14, [sp, #68]
 1105 0c16 DDED3E7A 		flds	s15, [sp, #248]
 1106 0c1a 27EE277A 		fmuls	s14, s14, s15
 1107 0c1e DDED126A 		flds	s13, [sp, #72]
 1108 0c22 DDED3D7A 		flds	s15, [sp, #244]
 1109 0c26 66EEA77A 		fmuls	s15, s13, s15
 1110 0c2a 37EE277A 		fadds	s14, s14, s15
 1111 0c2e DDED226A 		flds	s13, [sp, #136]
 1112 0c32 DDED0D7A 		flds	s15, [sp, #52]
 1113 0c36 B1EE676A 		fnegs	s12, s15
 1114 0c3a DDED427A 		flds	s15, [sp, #264]
 1115 0c3e 76EE677A 		fsubs	s15, s12, s15
 1116 0c42 66EEA77A 		fmuls	s15, s13, s15
 1117 0c46 37EE277A 		fadds	s14, s14, s15
 1118 0c4a DDED106A 		flds	s13, [sp, #64]
 1119 0c4e 9DED1F6A 		flds	s12, [sp, #124]
 1120 0c52 DDED417A 		flds	s15, [sp, #260]
 1121 0c56 36EE276A 		fadds	s12, s12, s15
 1122 0c5a DDED125A 		flds	s11, [sp, #72]
 1123 0c5e DDED247A 		flds	s15, [sp, #144]
 1124 0c62 65EEA77A 		fmuls	s15, s11, s15
 1125 0c66 36EE676A 		fsubs	s12, s12, s15
 1126 0c6a DDED115A 		flds	s11, [sp, #68]
 1127 0c6e DDED237A 		flds	s15, [sp, #140]
 1128 0c72 65EEA77A 		fmuls	s15, s11, s15
 1129 0c76 76EE677A 		fsubs	s15, s12, s15
 1130 0c7a 66EEA77A 		fmuls	s15, s13, s15
 1131 0c7e 37EE277A 		fadds	s14, s14, s15
 1132 0c82 F3EE007A 		fconsts	s15, #48
 1133 0c86 67EE277A 		fmuls	s15, s14, s15
 1134 0c8a 9DED337A 		flds	s14, [sp, #204]
 1135 0c8e 37EE877A 		fadds	s14, s15, s14
 1136 0c92 07AB     		add	r3, sp, #28
 1137 0c94 D3ED007A 		flds	s15, [r3, #0]
 1138 0c98 C7EE277A 		fdivs	s15, s14, s15
 1139 0c9c F1EE677A 		fnegs	s15, s15
 1140 0ca0 CDED0A7A 		fsts	s15, [sp, #40]
 1141 0ca4 9DED107A 		flds	s14, [sp, #64]
 1142 0ca8 DDED3E7A 		flds	s15, [sp, #248]
 1143 0cac 27EE277A 		fmuls	s14, s14, s15
 1144 0cb0 DDED126A 		flds	s13, [sp, #72]
 1145 0cb4 DDED3C7A 		flds	s15, [sp, #240]
 1146 0cb8 66EEA77A 		fmuls	s15, s13, s15
 1147 0cbc 37EE277A 		fadds	s14, s14, s15
 1148 0cc0 DDED236A 		flds	s13, [sp, #140]
 1149 0cc4 DDED0E7A 		flds	s15, [sp, #56]
 1150 0cc8 B1EE676A 		fnegs	s12, s15
 1151 0ccc DDED427A 		flds	s15, [sp, #264]
 1152 0cd0 76EE677A 		fsubs	s15, s12, s15
 1153 0cd4 66EEA77A 		fmuls	s15, s13, s15
 1154 0cd8 37EE277A 		fadds	s14, s14, s15
 1155 0cdc DDED116A 		flds	s13, [sp, #68]
 1156 0ce0 9DED206A 		flds	s12, [sp, #128]
 1157 0ce4 DDED417A 		flds	s15, [sp, #260]
 1158 0ce8 36EE276A 		fadds	s12, s12, s15
 1159 0cec DDED105A 		flds	s11, [sp, #64]
 1160 0cf0 DDED227A 		flds	s15, [sp, #136]
 1161 0cf4 65EEA77A 		fmuls	s15, s11, s15
 1162 0cf8 36EE676A 		fsubs	s12, s12, s15
 1163 0cfc DDED125A 		flds	s11, [sp, #72]
 1164 0d00 DDED247A 		flds	s15, [sp, #144]
 1165 0d04 65EEA77A 		fmuls	s15, s11, s15
 1166 0d08 76EE677A 		fsubs	s15, s12, s15
 1167 0d0c 66EEA77A 		fmuls	s15, s13, s15
 1168 0d10 37EE277A 		fadds	s14, s14, s15
 1169 0d14 F3EE007A 		fconsts	s15, #48
 1170 0d18 67EE277A 		fmuls	s15, s14, s15
 1171 0d1c 9DED327A 		flds	s14, [sp, #200]
 1172 0d20 37EE877A 		fadds	s14, s15, s14
 1173 0d24 07AB     		add	r3, sp, #28
 1174 0d26 D3ED017A 		flds	s15, [r3, #4]
 1175 0d2a C7EE277A 		fdivs	s15, s14, s15
 1176 0d2e F1EE677A 		fnegs	s15, s15
 1177 0d32 CDED0B7A 		fsts	s15, [sp, #44]
 1178 0d36 9DED107A 		flds	s14, [sp, #64]
 1179 0d3a DDED3D7A 		flds	s15, [sp, #244]
 1180 0d3e 27EE277A 		fmuls	s14, s14, s15
 1181 0d42 DDED116A 		flds	s13, [sp, #68]
 1182 0d46 DDED3C7A 		flds	s15, [sp, #240]
 1183 0d4a 66EEA77A 		fmuls	s15, s13, s15
 1184 0d4e 37EE277A 		fadds	s14, s14, s15
 1185 0d52 DDED246A 		flds	s13, [sp, #144]
 1186 0d56 DDED0F7A 		flds	s15, [sp, #60]
 1187 0d5a B1EE676A 		fnegs	s12, s15
 1188 0d5e DDED427A 		flds	s15, [sp, #264]
 1189 0d62 76EE677A 		fsubs	s15, s12, s15
 1190 0d66 66EEA77A 		fmuls	s15, s13, s15
 1191 0d6a 37EE277A 		fadds	s14, s14, s15
 1192 0d6e DDED126A 		flds	s13, [sp, #72]
 1193 0d72 9DED216A 		flds	s12, [sp, #132]
 1194 0d76 DDED417A 		flds	s15, [sp, #260]
 1195 0d7a 36EE276A 		fadds	s12, s12, s15
 1196 0d7e DDED105A 		flds	s11, [sp, #64]
 1197 0d82 DDED227A 		flds	s15, [sp, #136]
 1198 0d86 65EEA77A 		fmuls	s15, s11, s15
 1199 0d8a 36EE676A 		fsubs	s12, s12, s15
 1200 0d8e DDED115A 		flds	s11, [sp, #68]
 1201 0d92 DDED237A 		flds	s15, [sp, #140]
 1202 0d96 65EEA77A 		fmuls	s15, s11, s15
 1203 0d9a 76EE677A 		fsubs	s15, s12, s15
 1204 0d9e 66EEA77A 		fmuls	s15, s13, s15
 1205 0da2 37EE277A 		fadds	s14, s14, s15
 1206 0da6 F3EE007A 		fconsts	s15, #48
 1207 0daa 67EE277A 		fmuls	s15, s14, s15
 1208 0dae 9DED317A 		flds	s14, [sp, #196]
 1209 0db2 37EE877A 		fadds	s14, s15, s14
 1210 0db6 07AB     		add	r3, sp, #28
 1211 0db8 D3ED027A 		flds	s15, [r3, #8]
 1212 0dbc C7EE277A 		fdivs	s15, s14, s15
 1213 0dc0 F1EE677A 		fnegs	s15, s15
 1214 0dc4 CDED0C7A 		fsts	s15, [sp, #48]
 1215 0dc8 4FF00003 		mov	r3, #0
 1216 0dcc 8DF81F31 		strb	r3, [sp, #287]
 1217 0dd0 3DE0     		b	.L43
 1218              	.L44:
 1219 0dd2 9DF81F21 		ldrb	r2, [sp, #287]	@ zero_extendqisi2
 1220 0dd6 9DF81F31 		ldrb	r3, [sp, #287]	@ zero_extendqisi2
 1221 0dda 4FEA8303 		lsl	r3, r3, #2
 1222 0dde 0DF5907C 		add	ip, sp, #288
 1223 0de2 6344     		add	r3, ip, r3
 1224 0de4 13ED387A 		flds	s14, [r3, #-224]
 1225 0de8 9DF81F31 		ldrb	r3, [sp, #287]	@ zero_extendqisi2
 1226 0dec 4FEA8303 		lsl	r3, r3, #2
 1227 0df0 48A8     		add	r0, sp, #288
 1228 0df2 C318     		adds	r3, r0, r3
 1229 0df4 53ED3E7A 		flds	s15, [r3, #-248]
 1230 0df8 77EE277A 		fadds	s15, s14, s15
 1231 0dfc 4FEA8203 		lsl	r3, r2, #2
 1232 0e00 48A9     		add	r1, sp, #288
 1233 0e02 CB18     		adds	r3, r1, r3
 1234 0e04 43ED387A 		fsts	s15, [r3, #-224]
 1235 0e08 9DF81F21 		ldrb	r2, [sp, #287]	@ zero_extendqisi2
 1236 0e0c 9DF81F31 		ldrb	r3, [sp, #287]	@ zero_extendqisi2
 1237 0e10 4FEA8303 		lsl	r3, r3, #2
 1238 0e14 0DF5907C 		add	ip, sp, #288
 1239 0e18 6344     		add	r3, ip, r3
 1240 0e1a 13ED387A 		flds	s14, [r3, #-224]
 1241 0e1e 9DF81F31 		ldrb	r3, [sp, #287]	@ zero_extendqisi2
 1242 0e22 4FEA8303 		lsl	r3, r3, #2
 1243 0e26 48A8     		add	r0, sp, #288
 1244 0e28 C318     		adds	r3, r0, r3
 1245 0e2a 53ED387A 		flds	s15, [r3, #-224]
 1246 0e2e 67EE277A 		fmuls	s15, s14, s15
 1247 0e32 4FEA8203 		lsl	r3, r2, #2
 1248 0e36 48A9     		add	r1, sp, #288
 1249 0e38 CB18     		adds	r3, r1, r3
 1250 0e3a A3F1EC03 		sub	r3, r3, #236
 1251 0e3e C3ED007A 		fsts	s15, [r3, #0]
 1252 0e42 9DF81F31 		ldrb	r3, [sp, #287]
 1253 0e46 03F10103 		add	r3, r3, #1
 1254 0e4a 8DF81F31 		strb	r3, [sp, #287]
 1255              	.L43:
 1256 0e4e 9DF81F31 		ldrb	r3, [sp, #287]	@ zero_extendqisi2
 1257 0e52 022B     		cmp	r3, #2
 1258 0e54 BDD9     		bls	.L44
 1259 0e56 9DED0D7A 		flds	s14, [sp, #52]
 1260 0e5a DDED0E7A 		flds	s15, [sp, #56]
 1261 0e5e 37EE277A 		fadds	s14, s14, s15
 1262 0e62 DDED0F7A 		flds	s15, [sp, #60]
 1263 0e66 77EE277A 		fadds	s15, s14, s15
 1264 0e6a CDED307A 		fsts	s15, [sp, #192]
 1265 0e6e 9DED107A 		flds	s14, [sp, #64]
 1266 0e72 DDED227A 		flds	s15, [sp, #136]
 1267 0e76 27EE277A 		fmuls	s14, s14, s15
 1268 0e7a DDED116A 		flds	s13, [sp, #68]
 1269 0e7e DDED237A 		flds	s15, [sp, #140]
 1270 0e82 66EEA77A 		fmuls	s15, s13, s15
 1271 0e86 37EE277A 		fadds	s14, s14, s15
 1272 0e8a DDED126A 		flds	s13, [sp, #72]
 1273 0e8e DDED247A 		flds	s15, [sp, #144]
 1274 0e92 66EEA77A 		fmuls	s15, s13, s15
 1275 0e96 37EE277A 		fadds	s14, s14, s15
 1276 0e9a F8EE007A 		fconsts	s15, #128
 1277 0e9e 67EE277A 		fmuls	s15, s14, s15
 1278 0ea2 CDED2F7A 		fsts	s15, [sp, #188]
 1279 0ea6 9DED357A 		flds	s14, [sp, #212]
 1280 0eaa DDED2F7A 		flds	s15, [sp, #188]
 1281 0eae 37EE277A 		fadds	s14, s14, s15
 1282 0eb2 DDED307A 		flds	s15, [sp, #192]
 1283 0eb6 77EE277A 		fadds	s15, s14, s15
 1284 0eba CDED2E7A 		fsts	s15, [sp, #184]
 1285 0ebe 9DED307A 		flds	s14, [sp, #192]
 1286 0ec2 DDED2E7A 		flds	s15, [sp, #184]
 1287 0ec6 37EE677A 		fsubs	s14, s14, s15
 1288 0eca F6EE007A 		fconsts	s15, #96
 1289 0ece 67EE277A 		fmuls	s15, s14, s15
 1290 0ed2 CDED427A 		fsts	s15, [sp, #264]
 1291 0ed6 9DED347A 		flds	s14, [sp, #208]
 1292 0eda DDED427A 		flds	s15, [sp, #264]
 1293 0ede 77EE277A 		fadds	s15, s14, s15
 1294 0ee2 CDED417A 		fsts	s15, [sp, #260]
 1295 0ee6 9DED307A 		flds	s14, [sp, #192]
 1296 0eea DDED2E7A 		flds	s15, [sp, #184]
 1297 0eee 37EE677A 		fsubs	s14, s14, s15
 1298 0ef2 DDED2F7A 		flds	s15, [sp, #188]
 1299 0ef6 37EE277A 		fadds	s14, s14, s15
 1300 0efa DDED357A 		flds	s15, [sp, #212]
 1301 0efe 37EE277A 		fadds	s14, s14, s15
 1302 0f02 F2EE007A 		fconsts	s15, #32
 1303 0f06 67EE277A 		fmuls	s15, s14, s15
 1304 0f0a CDED407A 		fsts	s15, [sp, #256]
 1305 0f0e BDF81A31 		ldrh	r3, [sp, #282]	@ movhi
 1306 0f12 03F10103 		add	r3, r3, #1
 1307 0f16 ADF81A31 		strh	r3, [sp, #282]	@ movhi
 1308 0f1a BDF81A31 		ldrh	r3, [sp, #282]
 1309 0f1e 312B     		cmp	r3, #49
 1310 0f20 7FF616AE 		bls	.L45
 1311 0f24 BDF81A21 		ldrh	r2, [sp, #282]
 1312 0f28 02AB     		add	r3, sp, #8
 1313 0f2a 1B88     		ldrh	r3, [r3, #0]
 1314 0f2c 9A42     		cmp	r2, r3
 1315 0f2e 23D2     		bcs	.L46
 1316 0f30 9DED0A7A 		flds	s14, [sp, #40]
 1317 0f34 DDED0A7A 		flds	s15, [sp, #40]
 1318 0f38 27EE277A 		fmuls	s14, s14, s15
 1319 0f3c DDED0B6A 		flds	s13, [sp, #44]
 1320 0f40 DDED0B7A 		flds	s15, [sp, #44]
 1321 0f44 66EEA77A 		fmuls	s15, s13, s15
 1322 0f48 37EE277A 		fadds	s14, s14, s15
 1323 0f4c DDED0C6A 		flds	s13, [sp, #48]
 1324 0f50 DDED0C7A 		flds	s15, [sp, #48]
 1325 0f54 66EEA77A 		fmuls	s15, s13, s15
 1326 0f58 37EE277A 		fadds	s14, s14, s15
 1327 0f5c 01AB     		add	r3, sp, #4
 1328 0f5e D3ED007A 		flds	s15, [r3, #0]
 1329 0f62 B4EEE77A 		fcmpes	s14, s15
 1330 0f66 F1EE10FA 		fmstat
 1331 0f6a D4BF     		ite	le
 1332 0f6c 0023     		movle	r3, #0
 1333 0f6e 0123     		movgt	r3, #1
 1334 0f70 DBB2     		uxtb	r3, r3
 1335 0f72 002B     		cmp	r3, #0
 1336 0f74 7FF4ECAD 		bne	.L45
 1337              	.L46:
 1338 0f78 4FF00003 		mov	r3, #0
 1339 0f7c 8DF81F31 		strb	r3, [sp, #287]
 1340 0f80 15E0     		b	.L47
 1341              	.L48:
 1342 0f82 9DF81F31 		ldrb	r3, [sp, #287]	@ zero_extendqisi2
 1343 0f86 4FEA8303 		lsl	r3, r3, #2
 1344 0f8a 4F9A     		ldr	r2, [sp, #316]
 1345 0f8c D218     		adds	r2, r2, r3
 1346 0f8e 9DF81F31 		ldrb	r3, [sp, #287]	@ zero_extendqisi2
 1347 0f92 4FEA8303 		lsl	r3, r3, #2
 1348 0f96 0DF5907C 		add	ip, sp, #288
 1349 0f9a 6344     		add	r3, ip, r3
 1350 0f9c 53F8E03C 		ldr	r3, [r3, #-224]	@ float
 1351 0fa0 1360     		str	r3, [r2, #0]	@ float
 1352 0fa2 9DF81F31 		ldrb	r3, [sp, #287]
 1353 0fa6 03F10103 		add	r3, r3, #1
 1354 0faa 8DF81F31 		strb	r3, [sp, #287]
 1355              	.L47:
 1356 0fae 9DF81F31 		ldrb	r3, [sp, #287]	@ zero_extendqisi2
 1357 0fb2 022B     		cmp	r3, #2
 1358 0fb4 E5D9     		bls	.L48
 1359 0fb6 2E98     		ldr	r0, [sp, #184]	@ float
 1360 0fb8 FFF7FEFF 		bl	__aeabi_f2d
 1361 0fbc 0246     		mov	r2, r0
 1362 0fbe 0B46     		mov	r3, r1
 1363 0fc0 1046     		mov	r0, r2
 1364 0fc2 1946     		mov	r1, r3
 1365 0fc4 FFF7FEFF 		bl	sqrt
 1366 0fc8 0246     		mov	r2, r0
 1367 0fca 0B46     		mov	r3, r1
 1368 0fcc 1046     		mov	r0, r2
 1369 0fce 1946     		mov	r1, r3
 1370 0fd0 FFF7FEFF 		bl	__aeabi_d2f
 1371 0fd4 0246     		mov	r2, r0	@ float
 1372 0fd6 509B     		ldr	r3, [sp, #320]
 1373 0fd8 1A60     		str	r2, [r3, #0]	@ float
 1374 0fda BDF81A31 		ldrh	r3, [sp, #282]
 1375 0fde 1846     		mov	r0, r3
 1376 0fe0 49B0     		add	sp, sp, #292
 1377 0fe2 F0BD     		pop	{r4, r5, r6, r7, pc}
 1378              	.L50:
 1379              		.align	2
 1380              	.L49:
 1381 0fe4 00000000 		.word	0
 1382 0fe8 0000803F 		.word	1065353216
 1384              		.align	2
 1385              		.global	standardRadianFormat
 1386              		.thumb
 1387              		.thumb_func
 1389              	standardRadianFormat:
 1390              		@ args = 0, pretend = 0, frame = 8
 1391              		@ frame_needed = 0, uses_anonymous_args = 0
 1392              		@ link register save eliminated.
 1393 0fec 82B0     		sub	sp, sp, #8
 1394 0fee 0190     		str	r0, [sp, #4]	@ float
 1395 0ff0 9DED017A 		flds	s14, [sp, #4]
 1396 0ff4 DFED177A 		flds	s15, .L55
 1397 0ff8 B4EEE77A 		fcmpes	s14, s15
 1398 0ffc F1EE10FA 		fmstat
 1399 1000 B4BF     		ite	lt
 1400 1002 0023     		movlt	r3, #0
 1401 1004 0123     		movge	r3, #1
 1402 1006 DBB2     		uxtb	r3, r3
 1403 1008 002B     		cmp	r3, #0
 1404 100a 06D0     		beq	.L52
 1405 100c 9DED017A 		flds	s14, [sp, #4]
 1406 1010 DFED117A 		flds	s15, .L55+4
 1407 1014 77EE677A 		fsubs	s15, s14, s15
 1408 1018 16E0     		b	.L53
 1409              	.L52:
 1410 101a 9DED017A 		flds	s14, [sp, #4]
 1411 101e DFED0F7A 		flds	s15, .L55+8
 1412 1022 B4EEE77A 		fcmpes	s14, s15
 1413 1026 F1EE10FA 		fmstat
 1414 102a 54BF     		ite	pl
 1415 102c 0023     		movpl	r3, #0
 1416 102e 0123     		movmi	r3, #1
 1417 1030 DBB2     		uxtb	r3, r3
 1418 1032 002B     		cmp	r3, #0
 1419 1034 06D0     		beq	.L54
 1420 1036 9DED017A 		flds	s14, [sp, #4]
 1421 103a DFED077A 		flds	s15, .L55+4
 1422 103e 77EE277A 		fadds	s15, s14, s15
 1423 1042 01E0     		b	.L53
 1424              	.L54:
 1425 1044 DDED017A 		flds	s15, [sp, #4]
 1426              	.L53:
 1427 1048 17EE903A 		fmrs	r3, s15
 1428 104c 1846     		mov	r0, r3	@ float
 1429 104e 02B0     		add	sp, sp, #8
 1430 1050 7047     		bx	lr
 1431              	.L56:
 1432 1052 00BF     		.align	2
 1433              	.L55:
 1434 1054 DB0F4940 		.word	1078530011
 1435 1058 DB0FC940 		.word	1086918619
 1436 105c DB0F49C0 		.word	-1068953637
 1438              		.global	__aeabi_dmul
 1439              		.global	__aeabi_i2d
 1440              		.global	__aeabi_dadd
 1441              		.global	__aeabi_ddiv
 1442              		.align	2
 1443              		.global	stringToFloat
 1444              		.thumb
 1445              		.thumb_func
 1447              	stringToFloat:
 1448              		@ args = 0, pretend = 0, frame = 56
 1449              		@ frame_needed = 0, uses_anonymous_args = 0
 1450 1060 30B5     		push	{r4, r5, lr}
 1451 1062 8FB0     		sub	sp, sp, #60
 1452 1064 0190     		str	r0, [sp, #4]
 1453 1066 03E0     		b	.L58
 1454              	.L59:
 1455 1068 019B     		ldr	r3, [sp, #4]
 1456 106a 03F10103 		add	r3, r3, #1
 1457 106e 0193     		str	r3, [sp, #4]
 1458              	.L58:
 1459 1070 019B     		ldr	r3, [sp, #4]
 1460 1072 1B78     		ldrb	r3, [r3, #0]	@ zero_extendqisi2
 1461 1074 5BB2     		sxtb	r3, r3
 1462 1076 202B     		cmp	r3, #32
 1463 1078 F6D0     		beq	.L59
 1464 107a 019B     		ldr	r3, [sp, #4]
 1465 107c 1B78     		ldrb	r3, [r3, #0]	@ zero_extendqisi2
 1466 107e 5BB2     		sxtb	r3, r3
 1467 1080 092B     		cmp	r3, #9
 1468 1082 F1D0     		beq	.L59
 1469 1084 A0A3     		adr	r3, .L84
 1470 1086 D3E90023 		ldrd	r2, [r3]
 1471 108a CDE90A23 		strd	r2, [sp, #40]
 1472 108e 019B     		ldr	r3, [sp, #4]
 1473 1090 1B78     		ldrb	r3, [r3, #0]	@ zero_extendqisi2
 1474 1092 5BB2     		sxtb	r3, r3
 1475 1094 2D2B     		cmp	r3, #45
 1476 1096 09D1     		bne	.L60
 1477 1098 9DA3     		adr	r3, .L84+8
 1478 109a D3E90023 		ldrd	r2, [r3]
 1479 109e CDE90A23 		strd	r2, [sp, #40]
 1480 10a2 019B     		ldr	r3, [sp, #4]
 1481 10a4 03F10103 		add	r3, r3, #1
 1482 10a8 0193     		str	r3, [sp, #4]
 1483 10aa 08E0     		b	.L61
 1484              	.L60:
 1485 10ac 019B     		ldr	r3, [sp, #4]
 1486 10ae 1B78     		ldrb	r3, [r3, #0]	@ zero_extendqisi2
 1487 10b0 5BB2     		sxtb	r3, r3
 1488 10b2 2B2B     		cmp	r3, #43
 1489 10b4 03D1     		bne	.L61
 1490 10b6 019B     		ldr	r3, [sp, #4]
 1491 10b8 03F10103 		add	r3, r3, #1
 1492 10bc 0193     		str	r3, [sp, #4]
 1493              	.L61:
 1494 10be 96A3     		adr	r3, .L84+16
 1495 10c0 D3E90023 		ldrd	r2, [r3]
 1496 10c4 CDE90823 		strd	r2, [sp, #32]
 1497 10c8 20E0     		b	.L62
 1498              	.L64:
 1499 10ca DDE90801 		ldrd	r0, [sp, #32]
 1500 10ce 94A3     		adr	r3, .L84+24
 1501 10d0 D3E90023 		ldrd	r2, [r3]
 1502 10d4 FFF7FEFF 		bl	__aeabi_dmul
 1503 10d8 0246     		mov	r2, r0
 1504 10da 0B46     		mov	r3, r1
 1505 10dc 1446     		mov	r4, r2
 1506 10de 1D46     		mov	r5, r3
 1507 10e0 019B     		ldr	r3, [sp, #4]
 1508 10e2 1B78     		ldrb	r3, [r3, #0]	@ zero_extendqisi2
 1509 10e4 5BB2     		sxtb	r3, r3
 1510 10e6 A3F13003 		sub	r3, r3, #48
 1511 10ea 1846     		mov	r0, r3
 1512 10ec FFF7FEFF 		bl	__aeabi_i2d
 1513 10f0 0246     		mov	r2, r0
 1514 10f2 0B46     		mov	r3, r1
 1515 10f4 2046     		mov	r0, r4
 1516 10f6 2946     		mov	r1, r5
 1517 10f8 FFF7FEFF 		bl	__aeabi_dadd
 1518 10fc 0246     		mov	r2, r0
 1519 10fe 0B46     		mov	r3, r1
 1520 1100 CDE90823 		strd	r2, [sp, #32]
 1521 1104 019B     		ldr	r3, [sp, #4]
 1522 1106 03F10103 		add	r3, r3, #1
 1523 110a 0193     		str	r3, [sp, #4]
 1524              	.L62:
 1525 110c 019B     		ldr	r3, [sp, #4]
 1526 110e 1B78     		ldrb	r3, [r3, #0]	@ zero_extendqisi2
 1527 1110 5BB2     		sxtb	r3, r3
 1528 1112 2F2B     		cmp	r3, #47
 1529 1114 04DD     		ble	.L63
 1530 1116 019B     		ldr	r3, [sp, #4]
 1531 1118 1B78     		ldrb	r3, [r3, #0]	@ zero_extendqisi2
 1532 111a 5BB2     		sxtb	r3, r3
 1533 111c 392B     		cmp	r3, #57
 1534 111e D4DD     		ble	.L64
 1535              	.L63:
 1536 1120 019B     		ldr	r3, [sp, #4]
 1537 1122 1B78     		ldrb	r3, [r3, #0]	@ zero_extendqisi2
 1538 1124 5BB2     		sxtb	r3, r3
 1539 1126 2E2B     		cmp	r3, #46
 1540 1128 3CD1     		bne	.L65
 1541 112a 7DA3     		adr	r3, .L84+24
 1542 112c D3E90023 		ldrd	r2, [r3]
 1543 1130 CDE90423 		strd	r2, [sp, #16]
 1544 1134 019B     		ldr	r3, [sp, #4]
 1545 1136 03F10103 		add	r3, r3, #1
 1546 113a 0193     		str	r3, [sp, #4]
 1547 113c 28E0     		b	.L66
 1548              	.L67:
 1549 113e 019B     		ldr	r3, [sp, #4]
 1550 1140 1B78     		ldrb	r3, [r3, #0]	@ zero_extendqisi2
 1551 1142 5BB2     		sxtb	r3, r3
 1552 1144 A3F13003 		sub	r3, r3, #48
 1553 1148 1846     		mov	r0, r3
 1554 114a FFF7FEFF 		bl	__aeabi_i2d
 1555 114e 0246     		mov	r2, r0
 1556 1150 0B46     		mov	r3, r1
 1557 1152 1046     		mov	r0, r2
 1558 1154 1946     		mov	r1, r3
 1559 1156 DDE90423 		ldrd	r2, [sp, #16]
 1560 115a FFF7FEFF 		bl	__aeabi_ddiv
 1561 115e 0246     		mov	r2, r0
 1562 1160 0B46     		mov	r3, r1
 1563 1162 DDE90801 		ldrd	r0, [sp, #32]
 1564 1166 FFF7FEFF 		bl	__aeabi_dadd
 1565 116a 0246     		mov	r2, r0
 1566 116c 0B46     		mov	r3, r1
 1567 116e CDE90823 		strd	r2, [sp, #32]
 1568 1172 DDE90401 		ldrd	r0, [sp, #16]
 1569 1176 6AA3     		adr	r3, .L84+24
 1570 1178 D3E90023 		ldrd	r2, [r3]
 1571 117c FFF7FEFF 		bl	__aeabi_dmul
 1572 1180 0246     		mov	r2, r0
 1573 1182 0B46     		mov	r3, r1
 1574 1184 CDE90423 		strd	r2, [sp, #16]
 1575 1188 019B     		ldr	r3, [sp, #4]
 1576 118a 03F10103 		add	r3, r3, #1
 1577 118e 0193     		str	r3, [sp, #4]
 1578              	.L66:
 1579 1190 019B     		ldr	r3, [sp, #4]
 1580 1192 1B78     		ldrb	r3, [r3, #0]	@ zero_extendqisi2
 1581 1194 5BB2     		sxtb	r3, r3
 1582 1196 2F2B     		cmp	r3, #47
 1583 1198 04DD     		ble	.L65
 1584 119a 019B     		ldr	r3, [sp, #4]
 1585 119c 1B78     		ldrb	r3, [r3, #0]	@ zero_extendqisi2
 1586 119e 5BB2     		sxtb	r3, r3
 1587 11a0 392B     		cmp	r3, #57
 1588 11a2 CCDD     		ble	.L67
 1589              	.L65:
 1590 11a4 58A3     		adr	r3, .L84
 1591 11a6 D3E90023 		ldrd	r2, [r3]
 1592 11aa CDE90623 		strd	r2, [sp, #24]
 1593 11ae 019B     		ldr	r3, [sp, #4]
 1594 11b0 1B78     		ldrb	r3, [r3, #0]	@ zero_extendqisi2
 1595 11b2 5BB2     		sxtb	r3, r3
 1596 11b4 652B     		cmp	r3, #101
 1597 11b6 04D0     		beq	.L68
 1598 11b8 019B     		ldr	r3, [sp, #4]
 1599 11ba 1B78     		ldrb	r3, [r3, #0]	@ zero_extendqisi2
 1600 11bc 5BB2     		sxtb	r3, r3
 1601 11be 452B     		cmp	r3, #69
 1602 11c0 7DD1     		bne	.L69
 1603              	.L68:
 1604 11c2 019B     		ldr	r3, [sp, #4]
 1605 11c4 03F10103 		add	r3, r3, #1
 1606 11c8 0193     		str	r3, [sp, #4]
 1607 11ca 4FF00003 		mov	r3, #0
 1608 11ce 0D93     		str	r3, [sp, #52]
 1609 11d0 019B     		ldr	r3, [sp, #4]
 1610 11d2 1B78     		ldrb	r3, [r3, #0]	@ zero_extendqisi2
 1611 11d4 5BB2     		sxtb	r3, r3
 1612 11d6 2D2B     		cmp	r3, #45
 1613 11d8 07D1     		bne	.L70
 1614 11da 4FF00103 		mov	r3, #1
 1615 11de 0D93     		str	r3, [sp, #52]
 1616 11e0 019B     		ldr	r3, [sp, #4]
 1617 11e2 03F10103 		add	r3, r3, #1
 1618 11e6 0193     		str	r3, [sp, #4]
 1619 11e8 08E0     		b	.L71
 1620              	.L70:
 1621 11ea 019B     		ldr	r3, [sp, #4]
 1622 11ec 1B78     		ldrb	r3, [r3, #0]	@ zero_extendqisi2
 1623 11ee 5BB2     		sxtb	r3, r3
 1624 11f0 2B2B     		cmp	r3, #43
 1625 11f2 03D1     		bne	.L71
 1626 11f4 019B     		ldr	r3, [sp, #4]
 1627 11f6 03F10103 		add	r3, r3, #1
 1628 11fa 0193     		str	r3, [sp, #4]
 1629              	.L71:
 1630 11fc 4FF00003 		mov	r3, #0
 1631 1200 0393     		str	r3, [sp, #12]
 1632 1202 12E0     		b	.L72
 1633              	.L74:
 1634 1204 039A     		ldr	r2, [sp, #12]
 1635 1206 1346     		mov	r3, r2
 1636 1208 4FEA8303 		lsl	r3, r3, #2
 1637 120c 9B18     		adds	r3, r3, r2
 1638 120e 4FEA4303 		lsl	r3, r3, #1
 1639 1212 1A46     		mov	r2, r3
 1640 1214 019B     		ldr	r3, [sp, #4]
 1641 1216 1B78     		ldrb	r3, [r3, #0]	@ zero_extendqisi2
 1642 1218 5BB2     		sxtb	r3, r3
 1643 121a D318     		adds	r3, r2, r3
 1644 121c A3F13003 		sub	r3, r3, #48
 1645 1220 0393     		str	r3, [sp, #12]
 1646 1222 019B     		ldr	r3, [sp, #4]
 1647 1224 03F10103 		add	r3, r3, #1
 1648 1228 0193     		str	r3, [sp, #4]
 1649              	.L72:
 1650 122a 019B     		ldr	r3, [sp, #4]
 1651 122c 1B78     		ldrb	r3, [r3, #0]	@ zero_extendqisi2
 1652 122e 5BB2     		sxtb	r3, r3
 1653 1230 2F2B     		cmp	r3, #47
 1654 1232 04DD     		ble	.L73
 1655 1234 019B     		ldr	r3, [sp, #4]
 1656 1236 1B78     		ldrb	r3, [r3, #0]	@ zero_extendqisi2
 1657 1238 5BB2     		sxtb	r3, r3
 1658 123a 392B     		cmp	r3, #57
 1659 123c E2DD     		ble	.L74
 1660              	.L73:
 1661 123e 039B     		ldr	r3, [sp, #12]
 1662 1240 B3F59A7F 		cmp	r3, #308
 1663 1244 12D9     		bls	.L76
 1664 1246 4FF49A73 		mov	r3, #308
 1665 124a 0393     		str	r3, [sp, #12]
 1666 124c 0EE0     		b	.L76
 1667              	.L77:
 1668 124e DDE90601 		ldrd	r0, [sp, #24]
 1669 1252 35A3     		adr	r3, .L84+32
 1670 1254 D3E90023 		ldrd	r2, [r3]
 1671 1258 FFF7FEFF 		bl	__aeabi_dmul
 1672 125c 0246     		mov	r2, r0
 1673 125e 0B46     		mov	r3, r1
 1674 1260 CDE90623 		strd	r2, [sp, #24]
 1675 1264 039B     		ldr	r3, [sp, #12]
 1676 1266 A3F13203 		sub	r3, r3, #50
 1677 126a 0393     		str	r3, [sp, #12]
 1678              	.L76:
 1679 126c 039B     		ldr	r3, [sp, #12]
 1680 126e 312B     		cmp	r3, #49
 1681 1270 EDD8     		bhi	.L77
 1682 1272 0EE0     		b	.L78
 1683              	.L79:
 1684 1274 DDE90601 		ldrd	r0, [sp, #24]
 1685 1278 2DA3     		adr	r3, .L84+40
 1686 127a D3E90023 		ldrd	r2, [r3]
 1687 127e FFF7FEFF 		bl	__aeabi_dmul
 1688 1282 0246     		mov	r2, r0
 1689 1284 0B46     		mov	r3, r1
 1690 1286 CDE90623 		strd	r2, [sp, #24]
 1691 128a 039B     		ldr	r3, [sp, #12]
 1692 128c A3F10803 		sub	r3, r3, #8
 1693 1290 0393     		str	r3, [sp, #12]
 1694              	.L78:
 1695 1292 039B     		ldr	r3, [sp, #12]
 1696 1294 072B     		cmp	r3, #7
 1697 1296 EDD8     		bhi	.L79
 1698 1298 0EE0     		b	.L80
 1699              	.L81:
 1700 129a DDE90601 		ldrd	r0, [sp, #24]
 1701 129e 20A3     		adr	r3, .L84+24
 1702 12a0 D3E90023 		ldrd	r2, [r3]
 1703 12a4 FFF7FEFF 		bl	__aeabi_dmul
 1704 12a8 0246     		mov	r2, r0
 1705 12aa 0B46     		mov	r3, r1
 1706 12ac CDE90623 		strd	r2, [sp, #24]
 1707 12b0 039B     		ldr	r3, [sp, #12]
 1708 12b2 03F1FF33 		add	r3, r3, #-1
 1709 12b6 0393     		str	r3, [sp, #12]
 1710              	.L80:
 1711 12b8 039B     		ldr	r3, [sp, #12]
 1712 12ba 002B     		cmp	r3, #0
 1713 12bc EDD1     		bne	.L81
 1714              	.L69:
 1715 12be 0D9B     		ldr	r3, [sp, #52]
 1716 12c0 002B     		cmp	r3, #0
 1717 12c2 08D0     		beq	.L82
 1718 12c4 DDE90801 		ldrd	r0, [sp, #32]
 1719 12c8 DDE90623 		ldrd	r2, [sp, #24]
 1720 12cc FFF7FEFF 		bl	__aeabi_ddiv
 1721 12d0 0246     		mov	r2, r0
 1722 12d2 0B46     		mov	r3, r1
 1723 12d4 07E0     		b	.L83
 1724              	.L82:
 1725 12d6 DDE90801 		ldrd	r0, [sp, #32]
 1726 12da DDE90623 		ldrd	r2, [sp, #24]
 1727 12de FFF7FEFF 		bl	__aeabi_dmul
 1728 12e2 0246     		mov	r2, r0
 1729 12e4 0B46     		mov	r3, r1
 1730              	.L83:
 1731 12e6 1046     		mov	r0, r2
 1732 12e8 1946     		mov	r1, r3
 1733 12ea DDE90A23 		ldrd	r2, [sp, #40]
 1734 12ee FFF7FEFF 		bl	__aeabi_dmul
 1735 12f2 0246     		mov	r2, r0
 1736 12f4 0B46     		mov	r3, r1
 1737 12f6 1046     		mov	r0, r2
 1738 12f8 1946     		mov	r1, r3
 1739 12fa FFF7FEFF 		bl	__aeabi_d2f
 1740 12fe 0346     		mov	r3, r0	@ float
 1741 1300 1846     		mov	r0, r3	@ float
 1742 1302 0FB0     		add	sp, sp, #60
 1743 1304 30BD     		pop	{r4, r5, pc}
 1744              	.L85:
 1745 1306 00BF     		.align	3
 1746              	.L84:
 1747 1308 00000000 		.word	0
 1748 130c 0000F03F 		.word	1072693248
 1749 1310 00000000 		.word	0
 1750 1314 0000F0BF 		.word	-1074790400
 1751 1318 00000000 		.word	0
 1752 131c 00000000 		.word	0
 1753 1320 00000000 		.word	0
 1754 1324 00002440 		.word	1076101120
 1755 1328 9A647EC5 		.word	-981572454
 1756 132c 0E1B514A 		.word	1246829326
 1757 1330 00000000 		.word	0
 1758 1334 84D79741 		.word	1100470148
 1760              		.bss
 1761              		.align	2
 1762              	heap_end.10971:
 1763 0000 00000000 		.space	4
 1764              		.ident	"GCC: (Sourcery CodeBench Lite 2012.03-56) 4.6.3"
DEFINED SYMBOLS
                            *ABS*:00000000 utilities.c
                            *COM*:00000001 mtk19ProcessDataState
                            *COM*:00000001 nmeaProcessDataState
                            *COM*:00000001 ubloxProcessDataState
C:\Users\JOHNIH~1\AppData\Local\Temp\ccpJPwMy.s:20     .text:00000000 $t
C:\Users\JOHNIH~1\AppData\Local\Temp\ccpJPwMy.s:25     .text:00000000 constrain
C:\Users\JOHNIH~1\AppData\Local\Temp\ccpJPwMy.s:66     .rodata:00000000 $d
C:\Users\JOHNIH~1\AppData\Local\Temp\ccpJPwMy.s:67     .rodata:00000000 .LC0
C:\Users\JOHNIH~1\AppData\Local\Temp\ccpJPwMy.s:74     .text:00000050 i2a
C:\Users\JOHNIH~1\AppData\Local\Temp\ccpJPwMy.s:118    .text:000000a4 itoa
C:\Users\JOHNIH~1\AppData\Local\Temp\ccpJPwMy.s:173    .rodata:00000028 .LC1
C:\Users\JOHNIH~1\AppData\Local\Temp\ccpJPwMy.s:181    .text:00000110 ftoa
C:\Users\JOHNIH~1\AppData\Local\Temp\ccpJPwMy.s:337    .text:000002a4 $d
C:\Users\JOHNIH~1\AppData\Local\Temp\ccpJPwMy.s:340    .text:000002ac $t
C:\Users\JOHNIH~1\AppData\Local\Temp\ccpJPwMy.s:345    .text:000002ac _sbrk
C:\Users\JOHNIH~1\AppData\Local\Temp\ccpJPwMy.s:1762   .bss:00000000 heap_end.10971
C:\Users\JOHNIH~1\AppData\Local\Temp\ccpJPwMy.s:409    .text:0000032c sphereFit
C:\Users\JOHNIH~1\AppData\Local\Temp\ccpJPwMy.s:1381   .text:00000fe4 $d
C:\Users\JOHNIH~1\AppData\Local\Temp\ccpJPwMy.s:1384   .text:00000fec $t
C:\Users\JOHNIH~1\AppData\Local\Temp\ccpJPwMy.s:1389   .text:00000fec standardRadianFormat
C:\Users\JOHNIH~1\AppData\Local\Temp\ccpJPwMy.s:1434   .text:00001054 $d
C:\Users\JOHNIH~1\AppData\Local\Temp\ccpJPwMy.s:1442   .text:00001060 $t
C:\Users\JOHNIH~1\AppData\Local\Temp\ccpJPwMy.s:1447   .text:00001060 stringToFloat
C:\Users\JOHNIH~1\AppData\Local\Temp\ccpJPwMy.s:1747   .text:00001308 $d
C:\Users\JOHNIH~1\AppData\Local\Temp\ccpJPwMy.s:1761   .bss:00000000 $d

UNDEFINED SYMBOLS
strlen
strcat
strncpy
_ebss
__errno
__aeabi_f2d
__aeabi_d2f
sqrt
__aeabi_dmul
__aeabi_i2d
__aeabi_dadd
__aeabi_ddiv
