   1              		.syntax unified
   2              		.cpu cortex-m4
   3              		.eabi_attribute 27, 3
   4              		.fpu fpv4-sp-d16
   5              		.eabi_attribute 20, 1
   6              		.eabi_attribute 21, 1
   7              		.eabi_attribute 23, 3
   8              		.eabi_attribute 24, 1
   9              		.eabi_attribute 25, 1
  10              		.eabi_attribute 26, 1
  11              		.eabi_attribute 30, 6
  12              		.eabi_attribute 34, 1
  13              		.eabi_attribute 18, 4
  14              		.thumb
  15              		.file	"usb_dcd_int.c"
  16              		.text
  17              		.align	2
  18              		.global	USBD_OTG_ISR_Handler
  19              		.thumb
  20              		.thumb_func
  22              	USBD_OTG_ISR_Handler:
  23              		@ args = 0, pretend = 0, frame = 24
  24              		@ frame_needed = 0, uses_anonymous_args = 0
  25 0000 00B5     		push	{lr}
  26 0002 87B0     		sub	sp, sp, #28
  27 0004 0190     		str	r0, [sp, #4]
  28 0006 4FF00003 		mov	r3, #0
  29 000a 0593     		str	r3, [sp, #20]
  30 000c 0198     		ldr	r0, [sp, #4]
  31 000e FFF7FEFF 		bl	USB_OTG_IsDeviceMode
  32 0012 0346     		mov	r3, r0
  33 0014 002B     		cmp	r3, #0
  34 0016 00F0A980 		beq	.L2
  35 001a 0198     		ldr	r0, [sp, #4]
  36 001c FFF7FEFF 		bl	USB_OTG_ReadCoreItr
  37 0020 0346     		mov	r3, r0
  38 0022 0493     		str	r3, [sp, #16]
  39 0024 049B     		ldr	r3, [sp, #16]
  40 0026 002B     		cmp	r3, #0
  41 0028 02D1     		bne	.L3
  42 002a 4FF00003 		mov	r3, #0
  43 002e 9EE0     		b	.L4
  44              	.L3:
  45 0030 9DF81230 		ldrb	r3, [sp, #18]	@ zero_extendqisi2
  46 0034 03F00803 		and	r3, r3, #8
  47 0038 DBB2     		uxtb	r3, r3
  48 003a 002B     		cmp	r3, #0
  49 003c 06D0     		beq	.L5
  50 003e 0198     		ldr	r0, [sp, #4]
  51 0040 00F04CFA 		bl	DCD_HandleOutEP_ISR
  52 0044 0346     		mov	r3, r0
  53 0046 059A     		ldr	r2, [sp, #20]
  54 0048 1343     		orrs	r3, r3, r2
  55 004a 0593     		str	r3, [sp, #20]
  56              	.L5:
  57 004c 9DF81230 		ldrb	r3, [sp, #18]	@ zero_extendqisi2
  58 0050 03F00403 		and	r3, r3, #4
  59 0054 DBB2     		uxtb	r3, r3
  60 0056 002B     		cmp	r3, #0
  61 0058 06D0     		beq	.L6
  62 005a 0198     		ldr	r0, [sp, #4]
  63 005c 00F022F9 		bl	DCD_HandleInEP_ISR
  64 0060 0346     		mov	r3, r0
  65 0062 059A     		ldr	r2, [sp, #20]
  66 0064 1343     		orrs	r3, r3, r2
  67 0066 0593     		str	r3, [sp, #20]
  68              	.L6:
  69 0068 9DF81030 		ldrb	r3, [sp, #16]	@ zero_extendqisi2
  70 006c 03F00203 		and	r3, r3, #2
  71 0070 DBB2     		uxtb	r3, r3
  72 0072 002B     		cmp	r3, #0
  73 0074 0AD0     		beq	.L7
  74 0076 4FF00003 		mov	r3, #0
  75 007a 0393     		str	r3, [sp, #12]
  76 007c 039B     		ldr	r3, [sp, #12]
  77 007e 43F00203 		orr	r3, r3, #2
  78 0082 0393     		str	r3, [sp, #12]
  79 0084 019B     		ldr	r3, [sp, #4]
  80 0086 DB68     		ldr	r3, [r3, #12]
  81 0088 039A     		ldr	r2, [sp, #12]
  82 008a 5A61     		str	r2, [r3, #20]
  83              	.L7:
  84 008c 9DF81330 		ldrb	r3, [sp, #19]	@ zero_extendqisi2
  85 0090 23F07F03 		bic	r3, r3, #127
  86 0094 DBB2     		uxtb	r3, r3
  87 0096 002B     		cmp	r3, #0
  88 0098 06D0     		beq	.L8
  89 009a 0198     		ldr	r0, [sp, #4]
  90 009c 00F06AF8 		bl	DCD_HandleResume_ISR
  91 00a0 0346     		mov	r3, r0
  92 00a2 059A     		ldr	r2, [sp, #20]
  93 00a4 1343     		orrs	r3, r3, r2
  94 00a6 0593     		str	r3, [sp, #20]
  95              	.L8:
  96 00a8 9DF81130 		ldrb	r3, [sp, #17]	@ zero_extendqisi2
  97 00ac 03F00803 		and	r3, r3, #8
  98 00b0 DBB2     		uxtb	r3, r3
  99 00b2 002B     		cmp	r3, #0
 100 00b4 06D0     		beq	.L9
 101 00b6 0198     		ldr	r0, [sp, #4]
 102 00b8 00F09EF8 		bl	DCD_HandleUSBSuspend_ISR
 103 00bc 0346     		mov	r3, r0
 104 00be 059A     		ldr	r2, [sp, #20]
 105 00c0 1343     		orrs	r3, r3, r2
 106 00c2 0593     		str	r3, [sp, #20]
 107              	.L9:
 108 00c4 9DF81030 		ldrb	r3, [sp, #16]	@ zero_extendqisi2
 109 00c8 03F00803 		and	r3, r3, #8
 110 00cc DBB2     		uxtb	r3, r3
 111 00ce 002B     		cmp	r3, #0
 112 00d0 06D0     		beq	.L10
 113 00d2 0198     		ldr	r0, [sp, #4]
 114 00d4 00F0DCFA 		bl	DCD_HandleSof_ISR
 115 00d8 0346     		mov	r3, r0
 116 00da 059A     		ldr	r2, [sp, #20]
 117 00dc 1343     		orrs	r3, r3, r2
 118 00de 0593     		str	r3, [sp, #20]
 119              	.L10:
 120 00e0 9DF81030 		ldrb	r3, [sp, #16]	@ zero_extendqisi2
 121 00e4 03F01003 		and	r3, r3, #16
 122 00e8 DBB2     		uxtb	r3, r3
 123 00ea 002B     		cmp	r3, #0
 124 00ec 06D0     		beq	.L11
 125 00ee 0198     		ldr	r0, [sp, #4]
 126 00f0 00F0EAFA 		bl	DCD_HandleRxStatusQueueLevel_ISR
 127 00f4 0346     		mov	r3, r0
 128 00f6 059A     		ldr	r2, [sp, #20]
 129 00f8 1343     		orrs	r3, r3, r2
 130 00fa 0593     		str	r3, [sp, #20]
 131              	.L11:
 132 00fc 9DF81130 		ldrb	r3, [sp, #17]	@ zero_extendqisi2
 133 0100 03F01003 		and	r3, r3, #16
 134 0104 DBB2     		uxtb	r3, r3
 135 0106 002B     		cmp	r3, #0
 136 0108 06D0     		beq	.L12
 137 010a 0198     		ldr	r0, [sp, #4]
 138 010c 00F0FCFB 		bl	DCD_HandleUsbReset_ISR
 139 0110 0346     		mov	r3, r0
 140 0112 059A     		ldr	r2, [sp, #20]
 141 0114 1343     		orrs	r3, r3, r2
 142 0116 0593     		str	r3, [sp, #20]
 143              	.L12:
 144 0118 9DF81130 		ldrb	r3, [sp, #17]	@ zero_extendqisi2
 145 011c 03F02003 		and	r3, r3, #32
 146 0120 DBB2     		uxtb	r3, r3
 147 0122 002B     		cmp	r3, #0
 148 0124 06D0     		beq	.L13
 149 0126 0198     		ldr	r0, [sp, #4]
 150 0128 00F0A2FC 		bl	DCD_HandleEnumDone_ISR
 151 012c 0346     		mov	r3, r0
 152 012e 059A     		ldr	r2, [sp, #20]
 153 0130 1343     		orrs	r3, r3, r2
 154 0132 0593     		str	r3, [sp, #20]
 155              	.L13:
 156 0134 9DF81230 		ldrb	r3, [sp, #18]	@ zero_extendqisi2
 157 0138 03F01003 		and	r3, r3, #16
 158 013c DBB2     		uxtb	r3, r3
 159 013e 002B     		cmp	r3, #0
 160 0140 06D0     		beq	.L14
 161 0142 0198     		ldr	r0, [sp, #4]
 162 0144 00F0D6FC 		bl	DCD_IsoINIncomplete_ISR
 163 0148 0346     		mov	r3, r0
 164 014a 059A     		ldr	r2, [sp, #20]
 165 014c 1343     		orrs	r3, r3, r2
 166 014e 0593     		str	r3, [sp, #20]
 167              	.L14:
 168 0150 9DF81230 		ldrb	r3, [sp, #18]	@ zero_extendqisi2
 169 0154 03F02003 		and	r3, r3, #32
 170 0158 DBB2     		uxtb	r3, r3
 171 015a 002B     		cmp	r3, #0
 172 015c 06D0     		beq	.L2
 173 015e 0198     		ldr	r0, [sp, #4]
 174 0160 00F0E4FC 		bl	DCD_IsoOUTIncomplete_ISR
 175 0164 0346     		mov	r3, r0
 176 0166 059A     		ldr	r2, [sp, #20]
 177 0168 1343     		orrs	r3, r3, r2
 178 016a 0593     		str	r3, [sp, #20]
 179              	.L2:
 180 016c 059B     		ldr	r3, [sp, #20]
 181              	.L4:
 182 016e 1846     		mov	r0, r3
 183 0170 07B0     		add	sp, sp, #28
 184 0172 00BD     		pop	{pc}
 186              		.align	2
 187              		.thumb
 188              		.thumb_func
 190              	DCD_HandleResume_ISR:
 191              		@ args = 0, pretend = 0, frame = 24
 192              		@ frame_needed = 0, uses_anonymous_args = 0
 193 0174 00B5     		push	{lr}
 194 0176 87B0     		sub	sp, sp, #28
 195 0178 0190     		str	r0, [sp, #4]
 196 017a 019B     		ldr	r3, [sp, #4]
 197 017c 9B7A     		ldrb	r3, [r3, #10]	@ zero_extendqisi2
 198 017e 002B     		cmp	r3, #0
 199 0180 11D0     		beq	.L16
 200 0182 019B     		ldr	r3, [sp, #4]
 201 0184 03F58673 		add	r3, r3, #268
 202 0188 1B68     		ldr	r3, [r3, #0]
 203 018a 0393     		str	r3, [sp, #12]
 204 018c 039B     		ldr	r3, [sp, #12]
 205 018e 6FF34103 		bfc	r3, #1, #1
 206 0192 0393     		str	r3, [sp, #12]
 207 0194 039B     		ldr	r3, [sp, #12]
 208 0196 6FF30003 		bfc	r3, #0, #1
 209 019a 0393     		str	r3, [sp, #12]
 210 019c 019B     		ldr	r3, [sp, #4]
 211 019e D3F80C31 		ldr	r3, [r3, #268]
 212 01a2 039A     		ldr	r2, [sp, #12]
 213 01a4 1A60     		str	r2, [r3, #0]
 214              	.L16:
 215 01a6 4FF00003 		mov	r3, #0
 216 01aa 0493     		str	r3, [sp, #16]
 217 01ac 049B     		ldr	r3, [sp, #16]
 218 01ae 43F00103 		orr	r3, r3, #1
 219 01b2 0493     		str	r3, [sp, #16]
 220 01b4 019B     		ldr	r3, [sp, #4]
 221 01b6 1B69     		ldr	r3, [r3, #16]
 222 01b8 019A     		ldr	r2, [sp, #4]
 223 01ba 1269     		ldr	r2, [r2, #16]
 224 01bc 5168     		ldr	r1, [r2, #4]
 225 01be 049A     		ldr	r2, [sp, #16]
 226 01c0 6FEA0202 		mvn	r2, r2
 227 01c4 0A40     		ands	r2, r2, r1
 228 01c6 5A60     		str	r2, [r3, #4]
 229 01c8 40F20003 		movw	r3, #:lower16:USBD_DCD_INT_fops
 230 01cc C0F20003 		movt	r3, #:upper16:USBD_DCD_INT_fops
 231 01d0 1B68     		ldr	r3, [r3, #0]
 232 01d2 9B69     		ldr	r3, [r3, #24]
 233 01d4 0198     		ldr	r0, [sp, #4]
 234 01d6 9847     		blx	r3
 235 01d8 4FF00003 		mov	r3, #0
 236 01dc 0593     		str	r3, [sp, #20]
 237 01de 059B     		ldr	r3, [sp, #20]
 238 01e0 43F00043 		orr	r3, r3, #-2147483648
 239 01e4 0593     		str	r3, [sp, #20]
 240 01e6 019B     		ldr	r3, [sp, #4]
 241 01e8 DB68     		ldr	r3, [r3, #12]
 242 01ea 059A     		ldr	r2, [sp, #20]
 243 01ec 5A61     		str	r2, [r3, #20]
 244 01ee 4FF00103 		mov	r3, #1
 245 01f2 1846     		mov	r0, r3
 246 01f4 07B0     		add	sp, sp, #28
 247 01f6 00BD     		pop	{pc}
 249              		.align	2
 250              		.thumb
 251              		.thumb_func
 253              	DCD_HandleUSBSuspend_ISR:
 254              		@ args = 0, pretend = 0, frame = 24
 255              		@ frame_needed = 0, uses_anonymous_args = 0
 256 01f8 00B5     		push	{lr}
 257 01fa 87B0     		sub	sp, sp, #28
 258 01fc 0190     		str	r0, [sp, #4]
 259 01fe 40F20003 		movw	r3, #:lower16:USBD_DCD_INT_fops
 260 0202 C0F20003 		movt	r3, #:upper16:USBD_DCD_INT_fops
 261 0206 1B68     		ldr	r3, [r3, #0]
 262 0208 5B69     		ldr	r3, [r3, #20]
 263 020a 0198     		ldr	r0, [sp, #4]
 264 020c 9847     		blx	r3
 265 020e 019B     		ldr	r3, [sp, #4]
 266 0210 1B69     		ldr	r3, [r3, #16]
 267 0212 9B68     		ldr	r3, [r3, #8]
 268 0214 0393     		str	r3, [sp, #12]
 269 0216 4FF00003 		mov	r3, #0
 270 021a 0593     		str	r3, [sp, #20]
 271 021c 059B     		ldr	r3, [sp, #20]
 272 021e 43F40063 		orr	r3, r3, #2048
 273 0222 0593     		str	r3, [sp, #20]
 274 0224 019B     		ldr	r3, [sp, #4]
 275 0226 DB68     		ldr	r3, [r3, #12]
 276 0228 059A     		ldr	r2, [sp, #20]
 277 022a 5A61     		str	r2, [r3, #20]
 278 022c 019B     		ldr	r3, [sp, #4]
 279 022e 9B7A     		ldrb	r3, [r3, #10]	@ zero_extendqisi2
 280 0230 002B     		cmp	r3, #0
 281 0232 31D0     		beq	.L18
 282 0234 9DF80C30 		ldrb	r3, [sp, #12]	@ zero_extendqisi2
 283 0238 03F00103 		and	r3, r3, #1
 284 023c DBB2     		uxtb	r3, r3
 285 023e 002B     		cmp	r3, #0
 286 0240 2AD0     		beq	.L18
 287 0242 4FF00003 		mov	r3, #0
 288 0246 0493     		str	r3, [sp, #16]
 289 0248 049B     		ldr	r3, [sp, #16]
 290 024a 43F00103 		orr	r3, r3, #1
 291 024e 0493     		str	r3, [sp, #16]
 292 0250 019B     		ldr	r3, [sp, #4]
 293 0252 D3F80C31 		ldr	r3, [r3, #268]
 294 0256 019A     		ldr	r2, [sp, #4]
 295 0258 D2F80C21 		ldr	r2, [r2, #268]
 296 025c 1168     		ldr	r1, [r2, #0]
 297 025e 049A     		ldr	r2, [sp, #16]
 298 0260 0A43     		orrs	r2, r2, r1
 299 0262 1A60     		str	r2, [r3, #0]
 300 0264 049B     		ldr	r3, [sp, #16]
 301 0266 43F00203 		orr	r3, r3, #2
 302 026a 0493     		str	r3, [sp, #16]
 303 026c 019B     		ldr	r3, [sp, #4]
 304 026e D3F80C31 		ldr	r3, [r3, #268]
 305 0272 019A     		ldr	r2, [sp, #4]
 306 0274 D2F80C21 		ldr	r2, [r2, #268]
 307 0278 1168     		ldr	r1, [r2, #0]
 308 027a 049A     		ldr	r2, [sp, #16]
 309 027c 0A43     		orrs	r2, r2, r1
 310 027e 1A60     		str	r2, [r3, #0]
 311 0280 4FF46D43 		mov	r3, #60672
 312 0284 CEF20003 		movt	r3, 57344
 313 0288 4FF46D42 		mov	r2, #60672
 314 028c CEF20002 		movt	r2, 57344
 315 0290 1269     		ldr	r2, [r2, #16]
 316 0292 42F00602 		orr	r2, r2, #6
 317 0296 1A61     		str	r2, [r3, #16]
 318              	.L18:
 319 0298 4FF00103 		mov	r3, #1
 320 029c 1846     		mov	r0, r3
 321 029e 07B0     		add	sp, sp, #28
 322 02a0 00BD     		pop	{pc}
 324 02a2 00BF     		.align	2
 325              		.thumb
 326              		.thumb_func
 328              	DCD_HandleInEP_ISR:
 329              		@ args = 0, pretend = 0, frame = 24
 330              		@ frame_needed = 0, uses_anonymous_args = 0
 331 02a4 00B5     		push	{lr}
 332 02a6 87B0     		sub	sp, sp, #28
 333 02a8 0190     		str	r0, [sp, #4]
 334 02aa 4FF00003 		mov	r3, #0
 335 02ae 0493     		str	r3, [sp, #16]
 336 02b0 4FF00003 		mov	r3, #0
 337 02b4 0293     		str	r3, [sp, #8]
 338 02b6 0198     		ldr	r0, [sp, #4]
 339 02b8 FFF7FEFF 		bl	USB_OTG_ReadDevAllInEPItr
 340 02bc 0590     		str	r0, [sp, #20]
 341 02be 04E1     		b	.L20
 342              	.L29:
 343 02c0 059B     		ldr	r3, [sp, #20]
 344 02c2 03F00103 		and	r3, r3, #1
 345 02c6 DBB2     		uxtb	r3, r3
 346 02c8 002B     		cmp	r3, #0
 347 02ca 00F0F680 		beq	.L21
 348 02ce 049B     		ldr	r3, [sp, #16]
 349 02d0 DBB2     		uxtb	r3, r3
 350 02d2 0198     		ldr	r0, [sp, #4]
 351 02d4 1946     		mov	r1, r3
 352 02d6 00F045FC 		bl	DCD_ReadDevInEP
 353 02da 0346     		mov	r3, r0
 354 02dc 0293     		str	r3, [sp, #8]
 355 02de 9DF80830 		ldrb	r3, [sp, #8]	@ zero_extendqisi2
 356 02e2 03F00103 		and	r3, r3, #1
 357 02e6 DBB2     		uxtb	r3, r3
 358 02e8 002B     		cmp	r3, #0
 359 02ea 3AD0     		beq	.L22
 360 02ec 049B     		ldr	r3, [sp, #16]
 361 02ee 4FF00102 		mov	r2, #1
 362 02f2 02FA03F3 		lsl	r3, r2, r3
 363 02f6 0393     		str	r3, [sp, #12]
 364 02f8 019B     		ldr	r3, [sp, #4]
 365 02fa 1B69     		ldr	r3, [r3, #16]
 366 02fc 019A     		ldr	r2, [sp, #4]
 367 02fe 1269     		ldr	r2, [r2, #16]
 368 0300 516B     		ldr	r1, [r2, #52]
 369 0302 039A     		ldr	r2, [sp, #12]
 370 0304 6FEA0202 		mvn	r2, r2
 371 0308 0A40     		ands	r2, r2, r1
 372 030a 5A63     		str	r2, [r3, #52]
 373 030c 4FF00003 		mov	r3, #0
 374 0310 0293     		str	r3, [sp, #8]
 375 0312 029B     		ldr	r3, [sp, #8]
 376 0314 43F00103 		orr	r3, r3, #1
 377 0318 0293     		str	r3, [sp, #8]
 378 031a 019A     		ldr	r2, [sp, #4]
 379 031c 049B     		ldr	r3, [sp, #16]
 380 031e 03F10403 		add	r3, r3, #4
 381 0322 4FEA8303 		lsl	r3, r3, #2
 382 0326 D318     		adds	r3, r2, r3
 383 0328 9B68     		ldr	r3, [r3, #8]
 384 032a 029A     		ldr	r2, [sp, #8]
 385 032c 9A60     		str	r2, [r3, #8]
 386 032e 40F20003 		movw	r3, #:lower16:USBD_DCD_INT_fops
 387 0332 C0F20003 		movt	r3, #:upper16:USBD_DCD_INT_fops
 388 0336 1B68     		ldr	r3, [r3, #0]
 389 0338 5B68     		ldr	r3, [r3, #4]
 390 033a 049A     		ldr	r2, [sp, #16]
 391 033c D2B2     		uxtb	r2, r2
 392 033e 0198     		ldr	r0, [sp, #4]
 393 0340 1146     		mov	r1, r2
 394 0342 9847     		blx	r3
 395 0344 019B     		ldr	r3, [sp, #4]
 396 0346 DB78     		ldrb	r3, [r3, #3]	@ zero_extendqisi2
 397 0348 012B     		cmp	r3, #1
 398 034a 0AD1     		bne	.L22
 399 034c 049B     		ldr	r3, [sp, #16]
 400 034e 002B     		cmp	r3, #0
 401 0350 07D1     		bne	.L22
 402 0352 019B     		ldr	r3, [sp, #4]
 403 0354 93F81131 		ldrb	r3, [r3, #273]	@ zero_extendqisi2
 404 0358 042B     		cmp	r3, #4
 405 035a 02D1     		bne	.L22
 406 035c 0198     		ldr	r0, [sp, #4]
 407 035e FFF7FEFF 		bl	USB_OTG_EP0_OutStart
 408              	.L22:
 409 0362 9DF80830 		ldrb	r3, [sp, #8]	@ zero_extendqisi2
 410 0366 03F00403 		and	r3, r3, #4
 411 036a DBB2     		uxtb	r3, r3
 412 036c 002B     		cmp	r3, #0
 413 036e 10D0     		beq	.L23
 414 0370 4FF00003 		mov	r3, #0
 415 0374 0293     		str	r3, [sp, #8]
 416 0376 029B     		ldr	r3, [sp, #8]
 417 0378 43F00403 		orr	r3, r3, #4
 418 037c 0293     		str	r3, [sp, #8]
 419 037e 019A     		ldr	r2, [sp, #4]
 420 0380 049B     		ldr	r3, [sp, #16]
 421 0382 03F10403 		add	r3, r3, #4
 422 0386 4FEA8303 		lsl	r3, r3, #2
 423 038a D318     		adds	r3, r2, r3
 424 038c 9B68     		ldr	r3, [r3, #8]
 425 038e 029A     		ldr	r2, [sp, #8]
 426 0390 9A60     		str	r2, [r3, #8]
 427              	.L23:
 428 0392 9DF80830 		ldrb	r3, [sp, #8]	@ zero_extendqisi2
 429 0396 03F00803 		and	r3, r3, #8
 430 039a DBB2     		uxtb	r3, r3
 431 039c 002B     		cmp	r3, #0
 432 039e 10D0     		beq	.L24
 433 03a0 4FF00003 		mov	r3, #0
 434 03a4 0293     		str	r3, [sp, #8]
 435 03a6 029B     		ldr	r3, [sp, #8]
 436 03a8 43F00803 		orr	r3, r3, #8
 437 03ac 0293     		str	r3, [sp, #8]
 438 03ae 019A     		ldr	r2, [sp, #4]
 439 03b0 049B     		ldr	r3, [sp, #16]
 440 03b2 03F10403 		add	r3, r3, #4
 441 03b6 4FEA8303 		lsl	r3, r3, #2
 442 03ba D318     		adds	r3, r2, r3
 443 03bc 9B68     		ldr	r3, [r3, #8]
 444 03be 029A     		ldr	r2, [sp, #8]
 445 03c0 9A60     		str	r2, [r3, #8]
 446              	.L24:
 447 03c2 9DF80830 		ldrb	r3, [sp, #8]	@ zero_extendqisi2
 448 03c6 03F01003 		and	r3, r3, #16
 449 03ca DBB2     		uxtb	r3, r3
 450 03cc 002B     		cmp	r3, #0
 451 03ce 10D0     		beq	.L25
 452 03d0 4FF00003 		mov	r3, #0
 453 03d4 0293     		str	r3, [sp, #8]
 454 03d6 029B     		ldr	r3, [sp, #8]
 455 03d8 43F01003 		orr	r3, r3, #16
 456 03dc 0293     		str	r3, [sp, #8]
 457 03de 019A     		ldr	r2, [sp, #4]
 458 03e0 049B     		ldr	r3, [sp, #16]
 459 03e2 03F10403 		add	r3, r3, #4
 460 03e6 4FEA8303 		lsl	r3, r3, #2
 461 03ea D318     		adds	r3, r2, r3
 462 03ec 9B68     		ldr	r3, [r3, #8]
 463 03ee 029A     		ldr	r2, [sp, #8]
 464 03f0 9A60     		str	r2, [r3, #8]
 465              	.L25:
 466 03f2 9DF80830 		ldrb	r3, [sp, #8]	@ zero_extendqisi2
 467 03f6 03F02003 		and	r3, r3, #32
 468 03fa DBB2     		uxtb	r3, r3
 469 03fc 002B     		cmp	r3, #0
 470 03fe 10D0     		beq	.L26
 471 0400 4FF00003 		mov	r3, #0
 472 0404 0293     		str	r3, [sp, #8]
 473 0406 029B     		ldr	r3, [sp, #8]
 474 0408 43F02003 		orr	r3, r3, #32
 475 040c 0293     		str	r3, [sp, #8]
 476 040e 019A     		ldr	r2, [sp, #4]
 477 0410 049B     		ldr	r3, [sp, #16]
 478 0412 03F10403 		add	r3, r3, #4
 479 0416 4FEA8303 		lsl	r3, r3, #2
 480 041a D318     		adds	r3, r2, r3
 481 041c 9B68     		ldr	r3, [r3, #8]
 482 041e 029A     		ldr	r2, [sp, #8]
 483 0420 9A60     		str	r2, [r3, #8]
 484              	.L26:
 485 0422 9DF80830 		ldrb	r3, [sp, #8]	@ zero_extendqisi2
 486 0426 03F04003 		and	r3, r3, #64
 487 042a DBB2     		uxtb	r3, r3
 488 042c 002B     		cmp	r3, #0
 489 042e 10D0     		beq	.L27
 490 0430 4FF00003 		mov	r3, #0
 491 0434 0293     		str	r3, [sp, #8]
 492 0436 029B     		ldr	r3, [sp, #8]
 493 0438 43F04003 		orr	r3, r3, #64
 494 043c 0293     		str	r3, [sp, #8]
 495 043e 019A     		ldr	r2, [sp, #4]
 496 0440 049B     		ldr	r3, [sp, #16]
 497 0442 03F10403 		add	r3, r3, #4
 498 0446 4FEA8303 		lsl	r3, r3, #2
 499 044a D318     		adds	r3, r2, r3
 500 044c 9B68     		ldr	r3, [r3, #8]
 501 044e 029A     		ldr	r2, [sp, #8]
 502 0450 9A60     		str	r2, [r3, #8]
 503              	.L27:
 504 0452 9DF80830 		ldrb	r3, [sp, #8]	@ zero_extendqisi2
 505 0456 03F00203 		and	r3, r3, #2
 506 045a DBB2     		uxtb	r3, r3
 507 045c 002B     		cmp	r3, #0
 508 045e 10D0     		beq	.L28
 509 0460 4FF00003 		mov	r3, #0
 510 0464 0293     		str	r3, [sp, #8]
 511 0466 029B     		ldr	r3, [sp, #8]
 512 0468 43F00203 		orr	r3, r3, #2
 513 046c 0293     		str	r3, [sp, #8]
 514 046e 019A     		ldr	r2, [sp, #4]
 515 0470 049B     		ldr	r3, [sp, #16]
 516 0472 03F10403 		add	r3, r3, #4
 517 0476 4FEA8303 		lsl	r3, r3, #2
 518 047a D318     		adds	r3, r2, r3
 519 047c 9B68     		ldr	r3, [r3, #8]
 520 047e 029A     		ldr	r2, [sp, #8]
 521 0480 9A60     		str	r2, [r3, #8]
 522              	.L28:
 523 0482 9DF80830 		ldrb	r3, [sp, #8]	@ zero_extendqisi2
 524 0486 23F07F03 		bic	r3, r3, #127
 525 048a DBB2     		uxtb	r3, r3
 526 048c 002B     		cmp	r3, #0
 527 048e 14D0     		beq	.L21
 528 0490 0198     		ldr	r0, [sp, #4]
 529 0492 0499     		ldr	r1, [sp, #16]
 530 0494 00F0A2F9 		bl	DCD_WriteEmptyTxFifo
 531 0498 4FF00003 		mov	r3, #0
 532 049c 0293     		str	r3, [sp, #8]
 533 049e 029B     		ldr	r3, [sp, #8]
 534 04a0 43F08003 		orr	r3, r3, #128
 535 04a4 0293     		str	r3, [sp, #8]
 536 04a6 019A     		ldr	r2, [sp, #4]
 537 04a8 049B     		ldr	r3, [sp, #16]
 538 04aa 03F10403 		add	r3, r3, #4
 539 04ae 4FEA8303 		lsl	r3, r3, #2
 540 04b2 D318     		adds	r3, r2, r3
 541 04b4 9B68     		ldr	r3, [r3, #8]
 542 04b6 029A     		ldr	r2, [sp, #8]
 543 04b8 9A60     		str	r2, [r3, #8]
 544              	.L21:
 545 04ba 049B     		ldr	r3, [sp, #16]
 546 04bc 03F10103 		add	r3, r3, #1
 547 04c0 0493     		str	r3, [sp, #16]
 548 04c2 059B     		ldr	r3, [sp, #20]
 549 04c4 4FEA5303 		lsr	r3, r3, #1
 550 04c8 0593     		str	r3, [sp, #20]
 551              	.L20:
 552 04ca 059B     		ldr	r3, [sp, #20]
 553 04cc 002B     		cmp	r3, #0
 554 04ce 7FF4F7AE 		bne	.L29
 555 04d2 4FF00103 		mov	r3, #1
 556 04d6 1846     		mov	r0, r3
 557 04d8 07B0     		add	sp, sp, #28
 558 04da 00BD     		pop	{pc}
 560              		.align	2
 561              		.thumb
 562              		.thumb_func
 564              	DCD_HandleOutEP_ISR:
 565              		@ args = 0, pretend = 0, frame = 24
 566              		@ frame_needed = 0, uses_anonymous_args = 0
 567 04dc 00B5     		push	{lr}
 568 04de 87B0     		sub	sp, sp, #28
 569 04e0 0190     		str	r0, [sp, #4]
 570 04e2 4FF00003 		mov	r3, #0
 571 04e6 0493     		str	r3, [sp, #16]
 572 04e8 4FF00003 		mov	r3, #0
 573 04ec 0393     		str	r3, [sp, #12]
 574 04ee 0198     		ldr	r0, [sp, #4]
 575 04f0 FFF7FEFF 		bl	USB_OTG_ReadDevAllOutEp_itr
 576 04f4 0590     		str	r0, [sp, #20]
 577 04f6 C2E0     		b	.L31
 578              	.L37:
 579 04f8 059B     		ldr	r3, [sp, #20]
 580 04fa 03F00103 		and	r3, r3, #1
 581 04fe DBB2     		uxtb	r3, r3
 582 0500 002B     		cmp	r3, #0
 583 0502 00F0B480 		beq	.L32
 584 0506 049B     		ldr	r3, [sp, #16]
 585 0508 DBB2     		uxtb	r3, r3
 586 050a 0198     		ldr	r0, [sp, #4]
 587 050c 1946     		mov	r1, r3
 588 050e FFF7FEFF 		bl	USB_OTG_ReadDevOutEP_itr
 589 0512 0346     		mov	r3, r0
 590 0514 0393     		str	r3, [sp, #12]
 591 0516 9DF80C30 		ldrb	r3, [sp, #12]	@ zero_extendqisi2
 592 051a 03F00103 		and	r3, r3, #1
 593 051e DBB2     		uxtb	r3, r3
 594 0520 002B     		cmp	r3, #0
 595 0522 54D0     		beq	.L33
 596 0524 4FF00003 		mov	r3, #0
 597 0528 0393     		str	r3, [sp, #12]
 598 052a 039B     		ldr	r3, [sp, #12]
 599 052c 43F00103 		orr	r3, r3, #1
 600 0530 0393     		str	r3, [sp, #12]
 601 0532 019A     		ldr	r2, [sp, #4]
 602 0534 049B     		ldr	r3, [sp, #16]
 603 0536 03F11403 		add	r3, r3, #20
 604 053a 4FEA8303 		lsl	r3, r3, #2
 605 053e D318     		adds	r3, r2, r3
 606 0540 5B68     		ldr	r3, [r3, #4]
 607 0542 039A     		ldr	r2, [sp, #12]
 608 0544 9A60     		str	r2, [r3, #8]
 609 0546 019B     		ldr	r3, [sp, #4]
 610 0548 DB78     		ldrb	r3, [r3, #3]	@ zero_extendqisi2
 611 054a 012B     		cmp	r3, #1
 612 054c 25D1     		bne	.L34
 613 054e 019A     		ldr	r2, [sp, #4]
 614 0550 049B     		ldr	r3, [sp, #16]
 615 0552 03F11403 		add	r3, r3, #20
 616 0556 4FEA8303 		lsl	r3, r3, #2
 617 055a D318     		adds	r3, r2, r3
 618 055c 5B68     		ldr	r3, [r3, #4]
 619 055e 1B69     		ldr	r3, [r3, #16]
 620 0560 0293     		str	r3, [sp, #8]
 621 0562 0199     		ldr	r1, [sp, #4]
 622 0564 049A     		ldr	r2, [sp, #16]
 623 0566 1346     		mov	r3, r2
 624 0568 4FEA8303 		lsl	r3, r3, #2
 625 056c 9B18     		adds	r3, r3, r2
 626 056e 4FEAC303 		lsl	r3, r3, #3
 627 0572 CB18     		adds	r3, r1, r3
 628 0574 03F55E73 		add	r3, r3, #888
 629 0578 1A68     		ldr	r2, [r3, #0]
 630 057a 029B     		ldr	r3, [sp, #8]
 631 057c C3F31203 		ubfx	r3, r3, #0, #19
 632 0580 D11A     		subs	r1, r2, r3
 633 0582 0198     		ldr	r0, [sp, #4]
 634 0584 049A     		ldr	r2, [sp, #16]
 635 0586 1346     		mov	r3, r2
 636 0588 4FEA8303 		lsl	r3, r3, #2
 637 058c 9B18     		adds	r3, r3, r2
 638 058e 4FEAC303 		lsl	r3, r3, #3
 639 0592 C318     		adds	r3, r0, r3
 640 0594 03F56273 		add	r3, r3, #904
 641 0598 1960     		str	r1, [r3, #0]
 642              	.L34:
 643 059a 40F20003 		movw	r3, #:lower16:USBD_DCD_INT_fops
 644 059e C0F20003 		movt	r3, #:upper16:USBD_DCD_INT_fops
 645 05a2 1B68     		ldr	r3, [r3, #0]
 646 05a4 1B68     		ldr	r3, [r3, #0]
 647 05a6 049A     		ldr	r2, [sp, #16]
 648 05a8 D2B2     		uxtb	r2, r2
 649 05aa 0198     		ldr	r0, [sp, #4]
 650 05ac 1146     		mov	r1, r2
 651 05ae 9847     		blx	r3
 652 05b0 019B     		ldr	r3, [sp, #4]
 653 05b2 DB78     		ldrb	r3, [r3, #3]	@ zero_extendqisi2
 654 05b4 012B     		cmp	r3, #1
 655 05b6 0AD1     		bne	.L33
 656 05b8 049B     		ldr	r3, [sp, #16]
 657 05ba 002B     		cmp	r3, #0
 658 05bc 07D1     		bne	.L33
 659 05be 019B     		ldr	r3, [sp, #4]
 660 05c0 93F81131 		ldrb	r3, [r3, #273]	@ zero_extendqisi2
 661 05c4 052B     		cmp	r3, #5
 662 05c6 02D1     		bne	.L33
 663 05c8 0198     		ldr	r0, [sp, #4]
 664 05ca FFF7FEFF 		bl	USB_OTG_EP0_OutStart
 665              	.L33:
 666 05ce 9DF80C30 		ldrb	r3, [sp, #12]	@ zero_extendqisi2
 667 05d2 03F00203 		and	r3, r3, #2
 668 05d6 DBB2     		uxtb	r3, r3
 669 05d8 002B     		cmp	r3, #0
 670 05da 10D0     		beq	.L35
 671 05dc 4FF00003 		mov	r3, #0
 672 05e0 0393     		str	r3, [sp, #12]
 673 05e2 039B     		ldr	r3, [sp, #12]
 674 05e4 43F00203 		orr	r3, r3, #2
 675 05e8 0393     		str	r3, [sp, #12]
 676 05ea 019A     		ldr	r2, [sp, #4]
 677 05ec 049B     		ldr	r3, [sp, #16]
 678 05ee 03F11403 		add	r3, r3, #20
 679 05f2 4FEA8303 		lsl	r3, r3, #2
 680 05f6 D318     		adds	r3, r2, r3
 681 05f8 5B68     		ldr	r3, [r3, #4]
 682 05fa 039A     		ldr	r2, [sp, #12]
 683 05fc 9A60     		str	r2, [r3, #8]
 684              	.L35:
 685 05fe 9DF80C30 		ldrb	r3, [sp, #12]	@ zero_extendqisi2
 686 0602 03F00403 		and	r3, r3, #4
 687 0606 DBB2     		uxtb	r3, r3
 688 0608 002B     		cmp	r3, #0
 689 060a 10D0     		beq	.L36
 690 060c 4FF00003 		mov	r3, #0
 691 0610 0393     		str	r3, [sp, #12]
 692 0612 039B     		ldr	r3, [sp, #12]
 693 0614 43F00403 		orr	r3, r3, #4
 694 0618 0393     		str	r3, [sp, #12]
 695 061a 019A     		ldr	r2, [sp, #4]
 696 061c 049B     		ldr	r3, [sp, #16]
 697 061e 03F11403 		add	r3, r3, #20
 698 0622 4FEA8303 		lsl	r3, r3, #2
 699 0626 D318     		adds	r3, r2, r3
 700 0628 5B68     		ldr	r3, [r3, #4]
 701 062a 039A     		ldr	r2, [sp, #12]
 702 062c 9A60     		str	r2, [r3, #8]
 703              	.L36:
 704 062e 9DF80C30 		ldrb	r3, [sp, #12]	@ zero_extendqisi2
 705 0632 03F00803 		and	r3, r3, #8
 706 0636 DBB2     		uxtb	r3, r3
 707 0638 002B     		cmp	r3, #0
 708 063a 18D0     		beq	.L32
 709 063c 40F20003 		movw	r3, #:lower16:USBD_DCD_INT_fops
 710 0640 C0F20003 		movt	r3, #:upper16:USBD_DCD_INT_fops
 711 0644 1B68     		ldr	r3, [r3, #0]
 712 0646 9B68     		ldr	r3, [r3, #8]
 713 0648 0198     		ldr	r0, [sp, #4]
 714 064a 9847     		blx	r3
 715 064c 4FF00003 		mov	r3, #0
 716 0650 0393     		str	r3, [sp, #12]
 717 0652 039B     		ldr	r3, [sp, #12]
 718 0654 43F00803 		orr	r3, r3, #8
 719 0658 0393     		str	r3, [sp, #12]
 720 065a 019A     		ldr	r2, [sp, #4]
 721 065c 049B     		ldr	r3, [sp, #16]
 722 065e 03F11403 		add	r3, r3, #20
 723 0662 4FEA8303 		lsl	r3, r3, #2
 724 0666 D318     		adds	r3, r2, r3
 725 0668 5B68     		ldr	r3, [r3, #4]
 726 066a 039A     		ldr	r2, [sp, #12]
 727 066c 9A60     		str	r2, [r3, #8]
 728              	.L32:
 729 066e 049B     		ldr	r3, [sp, #16]
 730 0670 03F10103 		add	r3, r3, #1
 731 0674 0493     		str	r3, [sp, #16]
 732 0676 059B     		ldr	r3, [sp, #20]
 733 0678 4FEA5303 		lsr	r3, r3, #1
 734 067c 0593     		str	r3, [sp, #20]
 735              	.L31:
 736 067e 059B     		ldr	r3, [sp, #20]
 737 0680 002B     		cmp	r3, #0
 738 0682 7FF439AF 		bne	.L37
 739 0686 4FF00103 		mov	r3, #1
 740 068a 1846     		mov	r0, r3
 741 068c 07B0     		add	sp, sp, #28
 742 068e 00BD     		pop	{pc}
 744              		.align	2
 745              		.thumb
 746              		.thumb_func
 748              	DCD_HandleSof_ISR:
 749              		@ args = 0, pretend = 0, frame = 16
 750              		@ frame_needed = 0, uses_anonymous_args = 0
 751 0690 00B5     		push	{lr}
 752 0692 85B0     		sub	sp, sp, #20
 753 0694 0190     		str	r0, [sp, #4]
 754 0696 40F20003 		movw	r3, #:lower16:USBD_DCD_INT_fops
 755 069a C0F20003 		movt	r3, #:upper16:USBD_DCD_INT_fops
 756 069e 1B68     		ldr	r3, [r3, #0]
 757 06a0 DB68     		ldr	r3, [r3, #12]
 758 06a2 0198     		ldr	r0, [sp, #4]
 759 06a4 9847     		blx	r3
 760 06a6 4FF00003 		mov	r3, #0
 761 06aa 0393     		str	r3, [sp, #12]
 762 06ac 039B     		ldr	r3, [sp, #12]
 763 06ae 43F00803 		orr	r3, r3, #8
 764 06b2 0393     		str	r3, [sp, #12]
 765 06b4 019B     		ldr	r3, [sp, #4]
 766 06b6 DB68     		ldr	r3, [r3, #12]
 767 06b8 039A     		ldr	r2, [sp, #12]
 768 06ba 5A61     		str	r2, [r3, #20]
 769 06bc 4FF00103 		mov	r3, #1
 770 06c0 1846     		mov	r0, r3
 771 06c2 05B0     		add	sp, sp, #20
 772 06c4 00BD     		pop	{pc}
 774 06c6 00BF     		.align	2
 775              		.thumb
 776              		.thumb_func
 778              	DCD_HandleRxStatusQueueLevel_ISR:
 779              		@ args = 0, pretend = 0, frame = 24
 780              		@ frame_needed = 0, uses_anonymous_args = 0
 781 06c8 00B5     		push	{lr}
 782 06ca 87B0     		sub	sp, sp, #28
 783 06cc 0190     		str	r0, [sp, #4]
 784 06ce 4FF00003 		mov	r3, #0
 785 06d2 0493     		str	r3, [sp, #16]
 786 06d4 049B     		ldr	r3, [sp, #16]
 787 06d6 43F01003 		orr	r3, r3, #16
 788 06da 0493     		str	r3, [sp, #16]
 789 06dc 019B     		ldr	r3, [sp, #4]
 790 06de DB68     		ldr	r3, [r3, #12]
 791 06e0 019A     		ldr	r2, [sp, #4]
 792 06e2 D268     		ldr	r2, [r2, #12]
 793 06e4 9169     		ldr	r1, [r2, #24]
 794 06e6 049A     		ldr	r2, [sp, #16]
 795 06e8 6FEA0202 		mvn	r2, r2
 796 06ec 0A40     		ands	r2, r2, r1
 797 06ee 9A61     		str	r2, [r3, #24]
 798 06f0 019B     		ldr	r3, [sp, #4]
 799 06f2 DB68     		ldr	r3, [r3, #12]
 800 06f4 1B6A     		ldr	r3, [r3, #32]
 801 06f6 0393     		str	r3, [sp, #12]
 802 06f8 019B     		ldr	r3, [sp, #4]
 803 06fa 03F55C71 		add	r1, r3, #880
 804 06fe 039B     		ldr	r3, [sp, #12]
 805 0700 C3F30303 		ubfx	r3, r3, #0, #4
 806 0704 DBB2     		uxtb	r3, r3
 807 0706 1A46     		mov	r2, r3
 808 0708 1346     		mov	r3, r2
 809 070a 4FEA8303 		lsl	r3, r3, #2
 810 070e 9B18     		adds	r3, r3, r2
 811 0710 4FEAC303 		lsl	r3, r3, #3
 812 0714 CB18     		adds	r3, r1, r3
 813 0716 0593     		str	r3, [sp, #20]
 814 0718 039B     		ldr	r3, [sp, #12]
 815 071a C3F34343 		ubfx	r3, r3, #17, #4
 816 071e DBB2     		uxtb	r3, r3
 817 0720 03F1FF33 		add	r3, r3, #-1
 818 0724 052B     		cmp	r3, #5
 819 0726 48D8     		bhi	.L49
 820 0728 01A2     		adr	r2, .L46
 821 072a 52F823F0 		ldr	pc, [r2, r3, lsl #2]
 822 072e 00BF     		.align	2
 823              	.L46:
 824 0730 BB070000 		.word	.L49+1
 825 0734 49070000 		.word	.L42+1
 826 0738 BB070000 		.word	.L49+1
 827 073c BB070000 		.word	.L49+1
 828 0740 BB070000 		.word	.L49+1
 829 0744 95070000 		.word	.L45+1
 830              	.L42:
 831 0748 BDF80C20 		ldrh	r2, [sp, #12]
 832 074c 47F6F073 		movw	r3, #32752
 833 0750 1340     		ands	r3, r3, r2
 834 0752 9BB2     		uxth	r3, r3
 835 0754 002B     		cmp	r3, #0
 836 0756 32D0     		beq	.L50
 837 0758 059B     		ldr	r3, [sp, #20]
 838 075a DA68     		ldr	r2, [r3, #12]
 839 075c 039B     		ldr	r3, [sp, #12]
 840 075e C3F30A13 		ubfx	r3, r3, #4, #11
 841 0762 9BB2     		uxth	r3, r3
 842 0764 0198     		ldr	r0, [sp, #4]
 843 0766 1146     		mov	r1, r2
 844 0768 1A46     		mov	r2, r3
 845 076a FFF7FEFF 		bl	USB_OTG_ReadPacket
 846 076e 059B     		ldr	r3, [sp, #20]
 847 0770 DA68     		ldr	r2, [r3, #12]
 848 0772 039B     		ldr	r3, [sp, #12]
 849 0774 C3F30A13 		ubfx	r3, r3, #4, #11
 850 0778 9BB2     		uxth	r3, r3
 851 077a D218     		adds	r2, r2, r3
 852 077c 059B     		ldr	r3, [sp, #20]
 853 077e DA60     		str	r2, [r3, #12]
 854 0780 059B     		ldr	r3, [sp, #20]
 855 0782 9A69     		ldr	r2, [r3, #24]
 856 0784 039B     		ldr	r3, [sp, #12]
 857 0786 C3F30A13 		ubfx	r3, r3, #4, #11
 858 078a 9BB2     		uxth	r3, r3
 859 078c D218     		adds	r2, r2, r3
 860 078e 059B     		ldr	r3, [sp, #20]
 861 0790 9A61     		str	r2, [r3, #24]
 862 0792 14E0     		b	.L50
 863              	.L45:
 864 0794 019B     		ldr	r3, [sp, #4]
 865 0796 03F5B963 		add	r3, r3, #1480
 866 079a 0198     		ldr	r0, [sp, #4]
 867 079c 1946     		mov	r1, r3
 868 079e 4FF00802 		mov	r2, #8
 869 07a2 FFF7FEFF 		bl	USB_OTG_ReadPacket
 870 07a6 059B     		ldr	r3, [sp, #20]
 871 07a8 9A69     		ldr	r2, [r3, #24]
 872 07aa 039B     		ldr	r3, [sp, #12]
 873 07ac C3F30A13 		ubfx	r3, r3, #4, #11
 874 07b0 9BB2     		uxth	r3, r3
 875 07b2 D218     		adds	r2, r2, r3
 876 07b4 059B     		ldr	r3, [sp, #20]
 877 07b6 9A61     		str	r2, [r3, #24]
 878 07b8 02E0     		b	.L47
 879              	.L49:
 880 07ba 00BF     		nop
 881 07bc 00E0     		b	.L47
 882              	.L50:
 883 07be 00BF     		nop
 884              	.L47:
 885 07c0 019B     		ldr	r3, [sp, #4]
 886 07c2 DB68     		ldr	r3, [r3, #12]
 887 07c4 019A     		ldr	r2, [sp, #4]
 888 07c6 D268     		ldr	r2, [r2, #12]
 889 07c8 9169     		ldr	r1, [r2, #24]
 890 07ca 049A     		ldr	r2, [sp, #16]
 891 07cc 0A43     		orrs	r2, r2, r1
 892 07ce 9A61     		str	r2, [r3, #24]
 893 07d0 4FF00103 		mov	r3, #1
 894 07d4 1846     		mov	r0, r3
 895 07d6 07B0     		add	sp, sp, #28
 896 07d8 00BD     		pop	{pc}
 898 07da 00BF     		.align	2
 899              		.thumb
 900              		.thumb_func
 902              	DCD_WriteEmptyTxFifo:
 903              		@ args = 0, pretend = 0, frame = 32
 904              		@ frame_needed = 0, uses_anonymous_args = 0
 905 07dc 00B5     		push	{lr}
 906 07de 89B0     		sub	sp, sp, #36
 907 07e0 0190     		str	r0, [sp, #4]
 908 07e2 0091     		str	r1, [sp, #0]
 909 07e4 4FF00003 		mov	r3, #0
 910 07e8 0793     		str	r3, [sp, #28]
 911 07ea 4FF00003 		mov	r3, #0
 912 07ee 0393     		str	r3, [sp, #12]
 913 07f0 019B     		ldr	r3, [sp, #4]
 914 07f2 03F58C71 		add	r1, r3, #280
 915 07f6 009A     		ldr	r2, [sp, #0]
 916 07f8 1346     		mov	r3, r2
 917 07fa 4FEA8303 		lsl	r3, r3, #2
 918 07fe 9B18     		adds	r3, r3, r2
 919 0800 4FEAC303 		lsl	r3, r3, #3
 920 0804 CB18     		adds	r3, r1, r3
 921 0806 0593     		str	r3, [sp, #20]
 922 0808 059B     		ldr	r3, [sp, #20]
 923 080a 5A69     		ldr	r2, [r3, #20]
 924 080c 059B     		ldr	r3, [sp, #20]
 925 080e 9B69     		ldr	r3, [r3, #24]
 926 0810 D31A     		subs	r3, r2, r3
 927 0812 0793     		str	r3, [sp, #28]
 928 0814 059B     		ldr	r3, [sp, #20]
 929 0816 9A68     		ldr	r2, [r3, #8]
 930 0818 079B     		ldr	r3, [sp, #28]
 931 081a 9A42     		cmp	r2, r3
 932 081c 02D2     		bcs	.L52
 933 081e 059B     		ldr	r3, [sp, #20]
 934 0820 9B68     		ldr	r3, [r3, #8]
 935 0822 0793     		str	r3, [sp, #28]
 936              	.L52:
 937 0824 079B     		ldr	r3, [sp, #28]
 938 0826 03F10303 		add	r3, r3, #3
 939 082a 4FEA9303 		lsr	r3, r3, #2
 940 082e 0693     		str	r3, [sp, #24]
 941 0830 019A     		ldr	r2, [sp, #4]
 942 0832 009B     		ldr	r3, [sp, #0]
 943 0834 03F10403 		add	r3, r3, #4
 944 0838 4FEA8303 		lsl	r3, r3, #2
 945 083c D318     		adds	r3, r2, r3
 946 083e 9B68     		ldr	r3, [r3, #8]
 947 0840 9B69     		ldr	r3, [r3, #24]
 948 0842 0393     		str	r3, [sp, #12]
 949 0844 4AE0     		b	.L53
 950              	.L57:
 951 0846 059B     		ldr	r3, [sp, #20]
 952 0848 5A69     		ldr	r2, [r3, #20]
 953 084a 059B     		ldr	r3, [sp, #20]
 954 084c 9B69     		ldr	r3, [r3, #24]
 955 084e D31A     		subs	r3, r2, r3
 956 0850 0793     		str	r3, [sp, #28]
 957 0852 059B     		ldr	r3, [sp, #20]
 958 0854 9A68     		ldr	r2, [r3, #8]
 959 0856 079B     		ldr	r3, [sp, #28]
 960 0858 9A42     		cmp	r2, r3
 961 085a 02D2     		bcs	.L54
 962 085c 059B     		ldr	r3, [sp, #20]
 963 085e 9B68     		ldr	r3, [r3, #8]
 964 0860 0793     		str	r3, [sp, #28]
 965              	.L54:
 966 0862 079B     		ldr	r3, [sp, #28]
 967 0864 03F10303 		add	r3, r3, #3
 968 0868 4FEA9303 		lsr	r3, r3, #2
 969 086c 0693     		str	r3, [sp, #24]
 970 086e 059B     		ldr	r3, [sp, #20]
 971 0870 D968     		ldr	r1, [r3, #12]
 972 0872 009B     		ldr	r3, [sp, #0]
 973 0874 DAB2     		uxtb	r2, r3
 974 0876 079B     		ldr	r3, [sp, #28]
 975 0878 9BB2     		uxth	r3, r3
 976 087a 0198     		ldr	r0, [sp, #4]
 977 087c FFF7FEFF 		bl	USB_OTG_WritePacket
 978 0880 059B     		ldr	r3, [sp, #20]
 979 0882 DA68     		ldr	r2, [r3, #12]
 980 0884 079B     		ldr	r3, [sp, #28]
 981 0886 D218     		adds	r2, r2, r3
 982 0888 059B     		ldr	r3, [sp, #20]
 983 088a DA60     		str	r2, [r3, #12]
 984 088c 059B     		ldr	r3, [sp, #20]
 985 088e 9A69     		ldr	r2, [r3, #24]
 986 0890 079B     		ldr	r3, [sp, #28]
 987 0892 D218     		adds	r2, r2, r3
 988 0894 059B     		ldr	r3, [sp, #20]
 989 0896 9A61     		str	r2, [r3, #24]
 990 0898 059B     		ldr	r3, [sp, #20]
 991 089a 9A69     		ldr	r2, [r3, #24]
 992 089c 059B     		ldr	r3, [sp, #20]
 993 089e 5B69     		ldr	r3, [r3, #20]
 994 08a0 9A42     		cmp	r2, r3
 995 08a2 11D3     		bcc	.L55
 996 08a4 059B     		ldr	r3, [sp, #20]
 997 08a6 1B78     		ldrb	r3, [r3, #0]	@ zero_extendqisi2
 998 08a8 4FF00102 		mov	r2, #1
 999 08ac 02FA03F3 		lsl	r3, r2, r3
 1000 08b0 0493     		str	r3, [sp, #16]
 1001 08b2 019B     		ldr	r3, [sp, #4]
 1002 08b4 1B69     		ldr	r3, [r3, #16]
 1003 08b6 019A     		ldr	r2, [sp, #4]
 1004 08b8 1269     		ldr	r2, [r2, #16]
 1005 08ba 516B     		ldr	r1, [r2, #52]
 1006 08bc 049A     		ldr	r2, [sp, #16]
 1007 08be 6FEA0202 		mvn	r2, r2
 1008 08c2 0A40     		ands	r2, r2, r1
 1009 08c4 5A63     		str	r2, [r3, #52]
 1010 08c6 19E0     		b	.L56
 1011              	.L55:
 1012 08c8 019A     		ldr	r2, [sp, #4]
 1013 08ca 009B     		ldr	r3, [sp, #0]
 1014 08cc 03F10403 		add	r3, r3, #4
 1015 08d0 4FEA8303 		lsl	r3, r3, #2
 1016 08d4 D318     		adds	r3, r2, r3
 1017 08d6 9B68     		ldr	r3, [r3, #8]
 1018 08d8 9B69     		ldr	r3, [r3, #24]
 1019 08da 0393     		str	r3, [sp, #12]
 1020              	.L53:
 1021 08dc BDF80C30 		ldrh	r3, [sp, #12]
 1022 08e0 1A46     		mov	r2, r3
 1023 08e2 069B     		ldr	r3, [sp, #24]
 1024 08e4 9A42     		cmp	r2, r3
 1025 08e6 09D9     		bls	.L56
 1026 08e8 059B     		ldr	r3, [sp, #20]
 1027 08ea 9A69     		ldr	r2, [r3, #24]
 1028 08ec 059B     		ldr	r3, [sp, #20]
 1029 08ee 5B69     		ldr	r3, [r3, #20]
 1030 08f0 9A42     		cmp	r2, r3
 1031 08f2 03D2     		bcs	.L56
 1032 08f4 059B     		ldr	r3, [sp, #20]
 1033 08f6 5B69     		ldr	r3, [r3, #20]
 1034 08f8 002B     		cmp	r3, #0
 1035 08fa A4D1     		bne	.L57
 1036              	.L56:
 1037 08fc 4FF00103 		mov	r3, #1
 1038 0900 1846     		mov	r0, r3
 1039 0902 09B0     		add	sp, sp, #36
 1040 0904 00BD     		pop	{pc}
 1042 0906 00BF     		.align	2
 1043              		.thumb
 1044              		.thumb_func
 1046              	DCD_HandleUsbReset_ISR:
 1047              		@ args = 0, pretend = 0, frame = 40
 1048              		@ frame_needed = 0, uses_anonymous_args = 0
 1049 0908 00B5     		push	{lr}
 1050 090a 8BB0     		sub	sp, sp, #44
 1051 090c 0190     		str	r0, [sp, #4]
 1052 090e 4FF00003 		mov	r3, #0
 1053 0912 0493     		str	r3, [sp, #16]
 1054 0914 4FF00003 		mov	r3, #0
 1055 0918 0893     		str	r3, [sp, #32]
 1056 091a 4FF00003 		mov	r3, #0
 1057 091e 0793     		str	r3, [sp, #28]
 1058 0920 4FF00003 		mov	r3, #0
 1059 0924 0693     		str	r3, [sp, #24]
 1060 0926 4FF00003 		mov	r3, #0
 1061 092a 0593     		str	r3, [sp, #20]
 1062 092c 4FF00003 		mov	r3, #0
 1063 0930 0393     		str	r3, [sp, #12]
 1064 0932 049B     		ldr	r3, [sp, #16]
 1065 0934 43F00103 		orr	r3, r3, #1
 1066 0938 0493     		str	r3, [sp, #16]
 1067 093a 019B     		ldr	r3, [sp, #4]
 1068 093c 1B69     		ldr	r3, [r3, #16]
 1069 093e 019A     		ldr	r2, [sp, #4]
 1070 0940 1269     		ldr	r2, [r2, #16]
 1071 0942 5168     		ldr	r1, [r2, #4]
 1072 0944 049A     		ldr	r2, [sp, #16]
 1073 0946 6FEA0202 		mvn	r2, r2
 1074 094a 0A40     		ands	r2, r2, r1
 1075 094c 5A60     		str	r2, [r3, #4]
 1076 094e 0198     		ldr	r0, [sp, #4]
 1077 0950 4FF00001 		mov	r1, #0
 1078 0954 FFF7FEFF 		bl	USB_OTG_FlushTxFifo
 1079 0958 4FF00003 		mov	r3, #0
 1080 095c 0993     		str	r3, [sp, #36]
 1081 095e 19E0     		b	.L59
 1082              	.L60:
 1083 0960 019A     		ldr	r2, [sp, #4]
 1084 0962 099B     		ldr	r3, [sp, #36]
 1085 0964 03F10403 		add	r3, r3, #4
 1086 0968 4FEA8303 		lsl	r3, r3, #2
 1087 096c D318     		adds	r3, r2, r3
 1088 096e 9B68     		ldr	r3, [r3, #8]
 1089 0970 4FF0FF02 		mov	r2, #255
 1090 0974 9A60     		str	r2, [r3, #8]
 1091 0976 019A     		ldr	r2, [sp, #4]
 1092 0978 099B     		ldr	r3, [sp, #36]
 1093 097a 03F11403 		add	r3, r3, #20
 1094 097e 4FEA8303 		lsl	r3, r3, #2
 1095 0982 D318     		adds	r3, r2, r3
 1096 0984 5B68     		ldr	r3, [r3, #4]
 1097 0986 4FF0FF02 		mov	r2, #255
 1098 098a 9A60     		str	r2, [r3, #8]
 1099 098c 099B     		ldr	r3, [sp, #36]
 1100 098e 03F10103 		add	r3, r3, #1
 1101 0992 0993     		str	r3, [sp, #36]
 1102              	.L59:
 1103 0994 019B     		ldr	r3, [sp, #4]
 1104 0996 5B78     		ldrb	r3, [r3, #1]	@ zero_extendqisi2
 1105 0998 1A46     		mov	r2, r3
 1106 099a 099B     		ldr	r3, [sp, #36]
 1107 099c 9A42     		cmp	r2, r3
 1108 099e DFD8     		bhi	.L60
 1109 09a0 019B     		ldr	r3, [sp, #4]
 1110 09a2 1B69     		ldr	r3, [r3, #16]
 1111 09a4 4FF0FF32 		mov	r2, #-1
 1112 09a8 9A61     		str	r2, [r3, #24]
 1113 09aa 089B     		ldr	r3, [sp, #32]
 1114 09ac 4FF00102 		mov	r2, #1
 1115 09b0 62F30F03 		bfi	r3, r2, #0, #16
 1116 09b4 0893     		str	r3, [sp, #32]
 1117 09b6 089B     		ldr	r3, [sp, #32]
 1118 09b8 4FF00102 		mov	r2, #1
 1119 09bc 62F31F43 		bfi	r3, r2, #16, #16
 1120 09c0 0893     		str	r3, [sp, #32]
 1121 09c2 019B     		ldr	r3, [sp, #4]
 1122 09c4 1B69     		ldr	r3, [r3, #16]
 1123 09c6 089A     		ldr	r2, [sp, #32]
 1124 09c8 DA61     		str	r2, [r3, #28]
 1125 09ca 079B     		ldr	r3, [sp, #28]
 1126 09cc 43F00803 		orr	r3, r3, #8
 1127 09d0 0793     		str	r3, [sp, #28]
 1128 09d2 079B     		ldr	r3, [sp, #28]
 1129 09d4 43F00103 		orr	r3, r3, #1
 1130 09d8 0793     		str	r3, [sp, #28]
 1131 09da 079B     		ldr	r3, [sp, #28]
 1132 09dc 43F00403 		orr	r3, r3, #4
 1133 09e0 0793     		str	r3, [sp, #28]
 1134 09e2 079B     		ldr	r3, [sp, #28]
 1135 09e4 43F00203 		orr	r3, r3, #2
 1136 09e8 0793     		str	r3, [sp, #28]
 1137 09ea 019B     		ldr	r3, [sp, #4]
 1138 09ec 1B69     		ldr	r3, [r3, #16]
 1139 09ee 079A     		ldr	r2, [sp, #28]
 1140 09f0 5A61     		str	r2, [r3, #20]
 1141 09f2 069B     		ldr	r3, [sp, #24]
 1142 09f4 43F00103 		orr	r3, r3, #1
 1143 09f8 0693     		str	r3, [sp, #24]
 1144 09fa 069B     		ldr	r3, [sp, #24]
 1145 09fc 43F00803 		orr	r3, r3, #8
 1146 0a00 0693     		str	r3, [sp, #24]
 1147 0a02 069B     		ldr	r3, [sp, #24]
 1148 0a04 43F00203 		orr	r3, r3, #2
 1149 0a08 0693     		str	r3, [sp, #24]
 1150 0a0a 069B     		ldr	r3, [sp, #24]
 1151 0a0c 43F00403 		orr	r3, r3, #4
 1152 0a10 0693     		str	r3, [sp, #24]
 1153 0a12 069B     		ldr	r3, [sp, #24]
 1154 0a14 43F02003 		orr	r3, r3, #32
 1155 0a18 0693     		str	r3, [sp, #24]
 1156 0a1a 019B     		ldr	r3, [sp, #4]
 1157 0a1c 1B69     		ldr	r3, [r3, #16]
 1158 0a1e 069A     		ldr	r2, [sp, #24]
 1159 0a20 1A61     		str	r2, [r3, #16]
 1160 0a22 019B     		ldr	r3, [sp, #4]
 1161 0a24 1B69     		ldr	r3, [r3, #16]
 1162 0a26 1B68     		ldr	r3, [r3, #0]
 1163 0a28 0593     		str	r3, [sp, #20]
 1164 0a2a 059B     		ldr	r3, [sp, #20]
 1165 0a2c 6FF30A13 		bfc	r3, #4, #7
 1166 0a30 0593     		str	r3, [sp, #20]
 1167 0a32 019B     		ldr	r3, [sp, #4]
 1168 0a34 1B69     		ldr	r3, [r3, #16]
 1169 0a36 059A     		ldr	r2, [sp, #20]
 1170 0a38 1A60     		str	r2, [r3, #0]
 1171 0a3a 0198     		ldr	r0, [sp, #4]
 1172 0a3c FFF7FEFF 		bl	USB_OTG_EP0_OutStart
 1173 0a40 4FF00003 		mov	r3, #0
 1174 0a44 0393     		str	r3, [sp, #12]
 1175 0a46 039B     		ldr	r3, [sp, #12]
 1176 0a48 43F48053 		orr	r3, r3, #4096
 1177 0a4c 0393     		str	r3, [sp, #12]
 1178 0a4e 019B     		ldr	r3, [sp, #4]
 1179 0a50 DB68     		ldr	r3, [r3, #12]
 1180 0a52 039A     		ldr	r2, [sp, #12]
 1181 0a54 5A61     		str	r2, [r3, #20]
 1182 0a56 40F20003 		movw	r3, #:lower16:USBD_DCD_INT_fops
 1183 0a5a C0F20003 		movt	r3, #:upper16:USBD_DCD_INT_fops
 1184 0a5e 1B68     		ldr	r3, [r3, #0]
 1185 0a60 1B69     		ldr	r3, [r3, #16]
 1186 0a62 0198     		ldr	r0, [sp, #4]
 1187 0a64 9847     		blx	r3
 1188 0a66 4FF00103 		mov	r3, #1
 1189 0a6a 1846     		mov	r0, r3
 1190 0a6c 0BB0     		add	sp, sp, #44
 1191 0a6e 00BD     		pop	{pc}
 1193              		.align	2
 1194              		.thumb
 1195              		.thumb_func
 1197              	DCD_HandleEnumDone_ISR:
 1198              		@ args = 0, pretend = 0, frame = 16
 1199              		@ frame_needed = 0, uses_anonymous_args = 0
 1200 0a70 00B5     		push	{lr}
 1201 0a72 85B0     		sub	sp, sp, #20
 1202 0a74 0190     		str	r0, [sp, #4]
 1203 0a76 0198     		ldr	r0, [sp, #4]
 1204 0a78 FFF7FEFF 		bl	USB_OTG_EP0Activate
 1205 0a7c 019B     		ldr	r3, [sp, #4]
 1206 0a7e DB68     		ldr	r3, [r3, #12]
 1207 0a80 DB68     		ldr	r3, [r3, #12]
 1208 0a82 0293     		str	r3, [sp, #8]
 1209 0a84 0198     		ldr	r0, [sp, #4]
 1210 0a86 FFF7FEFF 		bl	USB_OTG_GetDeviceSpeed
 1211 0a8a 0346     		mov	r3, r0
 1212 0a8c 032B     		cmp	r3, #3
 1213 0a8e 0ED1     		bne	.L62
 1214 0a90 019B     		ldr	r3, [sp, #4]
 1215 0a92 4FF00002 		mov	r2, #0
 1216 0a96 9A70     		strb	r2, [r3, #2]
 1217 0a98 019B     		ldr	r3, [sp, #4]
 1218 0a9a 4FF40072 		mov	r2, #512
 1219 0a9e 9A80     		strh	r2, [r3, #4]	@ movhi
 1220 0aa0 029B     		ldr	r3, [sp, #8]
 1221 0aa2 4FF00902 		mov	r2, #9
 1222 0aa6 62F38D23 		bfi	r3, r2, #10, #4
 1223 0aaa 0293     		str	r3, [sp, #8]
 1224 0aac 0DE0     		b	.L63
 1225              	.L62:
 1226 0aae 019B     		ldr	r3, [sp, #4]
 1227 0ab0 4FF00102 		mov	r2, #1
 1228 0ab4 9A70     		strb	r2, [r3, #2]
 1229 0ab6 019B     		ldr	r3, [sp, #4]
 1230 0ab8 4FF04002 		mov	r2, #64
 1231 0abc 9A80     		strh	r2, [r3, #4]	@ movhi
 1232 0abe 029B     		ldr	r3, [sp, #8]
 1233 0ac0 4FF00502 		mov	r2, #5
 1234 0ac4 62F38D23 		bfi	r3, r2, #10, #4
 1235 0ac8 0293     		str	r3, [sp, #8]
 1236              	.L63:
 1237 0aca 019B     		ldr	r3, [sp, #4]
 1238 0acc DB68     		ldr	r3, [r3, #12]
 1239 0ace 029A     		ldr	r2, [sp, #8]
 1240 0ad0 DA60     		str	r2, [r3, #12]
 1241 0ad2 4FF00003 		mov	r3, #0
 1242 0ad6 0393     		str	r3, [sp, #12]
 1243 0ad8 039B     		ldr	r3, [sp, #12]
 1244 0ada 43F40053 		orr	r3, r3, #8192
 1245 0ade 0393     		str	r3, [sp, #12]
 1246 0ae0 019B     		ldr	r3, [sp, #4]
 1247 0ae2 DB68     		ldr	r3, [r3, #12]
 1248 0ae4 039A     		ldr	r2, [sp, #12]
 1249 0ae6 5A61     		str	r2, [r3, #20]
 1250 0ae8 4FF00103 		mov	r3, #1
 1251 0aec 1846     		mov	r0, r3
 1252 0aee 05B0     		add	sp, sp, #20
 1253 0af0 00BD     		pop	{pc}
 1255 0af2 00BF     		.align	2
 1256              		.thumb
 1257              		.thumb_func
 1259              	DCD_IsoINIncomplete_ISR:
 1260              		@ args = 0, pretend = 0, frame = 16
 1261              		@ frame_needed = 0, uses_anonymous_args = 0
 1262 0af4 00B5     		push	{lr}
 1263 0af6 85B0     		sub	sp, sp, #20
 1264 0af8 0190     		str	r0, [sp, #4]
 1265 0afa 4FF00003 		mov	r3, #0
 1266 0afe 0393     		str	r3, [sp, #12]
 1267 0b00 40F20003 		movw	r3, #:lower16:USBD_DCD_INT_fops
 1268 0b04 C0F20003 		movt	r3, #:upper16:USBD_DCD_INT_fops
 1269 0b08 1B68     		ldr	r3, [r3, #0]
 1270 0b0a DB69     		ldr	r3, [r3, #28]
 1271 0b0c 0198     		ldr	r0, [sp, #4]
 1272 0b0e 9847     		blx	r3
 1273 0b10 039B     		ldr	r3, [sp, #12]
 1274 0b12 43F48013 		orr	r3, r3, #1048576
 1275 0b16 0393     		str	r3, [sp, #12]
 1276 0b18 019B     		ldr	r3, [sp, #4]
 1277 0b1a DB68     		ldr	r3, [r3, #12]
 1278 0b1c 039A     		ldr	r2, [sp, #12]
 1279 0b1e 5A61     		str	r2, [r3, #20]
 1280 0b20 4FF00103 		mov	r3, #1
 1281 0b24 1846     		mov	r0, r3
 1282 0b26 05B0     		add	sp, sp, #20
 1283 0b28 00BD     		pop	{pc}
 1285 0b2a 00BF     		.align	2
 1286              		.thumb
 1287              		.thumb_func
 1289              	DCD_IsoOUTIncomplete_ISR:
 1290              		@ args = 0, pretend = 0, frame = 16
 1291              		@ frame_needed = 0, uses_anonymous_args = 0
 1292 0b2c 00B5     		push	{lr}
 1293 0b2e 85B0     		sub	sp, sp, #20
 1294 0b30 0190     		str	r0, [sp, #4]
 1295 0b32 4FF00003 		mov	r3, #0
 1296 0b36 0393     		str	r3, [sp, #12]
 1297 0b38 40F20003 		movw	r3, #:lower16:USBD_DCD_INT_fops
 1298 0b3c C0F20003 		movt	r3, #:upper16:USBD_DCD_INT_fops
 1299 0b40 1B68     		ldr	r3, [r3, #0]
 1300 0b42 1B6A     		ldr	r3, [r3, #32]
 1301 0b44 0198     		ldr	r0, [sp, #4]
 1302 0b46 9847     		blx	r3
 1303 0b48 039B     		ldr	r3, [sp, #12]
 1304 0b4a 43F40013 		orr	r3, r3, #2097152
 1305 0b4e 0393     		str	r3, [sp, #12]
 1306 0b50 019B     		ldr	r3, [sp, #4]
 1307 0b52 DB68     		ldr	r3, [r3, #12]
 1308 0b54 039A     		ldr	r2, [sp, #12]
 1309 0b56 5A61     		str	r2, [r3, #20]
 1310 0b58 4FF00103 		mov	r3, #1
 1311 0b5c 1846     		mov	r0, r3
 1312 0b5e 05B0     		add	sp, sp, #20
 1313 0b60 00BD     		pop	{pc}
 1315 0b62 00BF     		.align	2
 1316              		.thumb
 1317              		.thumb_func
 1319              	DCD_ReadDevInEP:
 1320              		@ args = 0, pretend = 0, frame = 24
 1321              		@ frame_needed = 0, uses_anonymous_args = 0
 1322              		@ link register save eliminated.
 1323 0b64 86B0     		sub	sp, sp, #24
 1324 0b66 0190     		str	r0, [sp, #4]
 1325 0b68 0B46     		mov	r3, r1
 1326 0b6a 8DF80330 		strb	r3, [sp, #3]
 1327 0b6e 019B     		ldr	r3, [sp, #4]
 1328 0b70 1B69     		ldr	r3, [r3, #16]
 1329 0b72 1B69     		ldr	r3, [r3, #16]
 1330 0b74 0593     		str	r3, [sp, #20]
 1331 0b76 019B     		ldr	r3, [sp, #4]
 1332 0b78 1B69     		ldr	r3, [r3, #16]
 1333 0b7a 5B6B     		ldr	r3, [r3, #52]
 1334 0b7c 0493     		str	r3, [sp, #16]
 1335 0b7e 9DF80330 		ldrb	r3, [sp, #3]	@ zero_extendqisi2
 1336 0b82 049A     		ldr	r2, [sp, #16]
 1337 0b84 22FA03F3 		lsr	r3, r2, r3
 1338 0b88 4FEAC313 		lsl	r3, r3, #7
 1339 0b8c DBB2     		uxtb	r3, r3
 1340 0b8e 059A     		ldr	r2, [sp, #20]
 1341 0b90 1343     		orrs	r3, r3, r2
 1342 0b92 0593     		str	r3, [sp, #20]
 1343 0b94 9DF80330 		ldrb	r3, [sp, #3]	@ zero_extendqisi2
 1344 0b98 019A     		ldr	r2, [sp, #4]
 1345 0b9a 03F10403 		add	r3, r3, #4
 1346 0b9e 4FEA8303 		lsl	r3, r3, #2
 1347 0ba2 D318     		adds	r3, r2, r3
 1348 0ba4 9B68     		ldr	r3, [r3, #8]
 1349 0ba6 9A68     		ldr	r2, [r3, #8]
 1350 0ba8 059B     		ldr	r3, [sp, #20]
 1351 0baa 1340     		ands	r3, r3, r2
 1352 0bac 0393     		str	r3, [sp, #12]
 1353 0bae 039B     		ldr	r3, [sp, #12]
 1354 0bb0 1846     		mov	r0, r3
 1355 0bb2 06B0     		add	sp, sp, #24
 1356 0bb4 7047     		bx	lr
 1358 0bb6 00BF     		.ident	"GCC: (Sourcery CodeBench Lite 2012.03-56) 4.6.3"